ARM GAS  /tmp/ccvZzf3e.s 			page 1


   1              		.cpu cortex-m0
   2              		.fpu softvfp
   3              		.eabi_attribute 20, 1
   4              		.eabi_attribute 21, 1
   5              		.eabi_attribute 23, 3
   6              		.eabi_attribute 24, 1
   7              		.eabi_attribute 25, 1
   8              		.eabi_attribute 26, 1
   9              		.eabi_attribute 30, 1
  10              		.eabi_attribute 34, 0
  11              		.eabi_attribute 18, 4
  12              		.code	16
  13              		.file	"CDCClassDevice.c"
  14              		.text
  15              	.Ltext0:
  16              		.cfi_sections	.debug_frame
  17              		.section	.text.CDC_Device_ConfigureEndpoints,"ax",%progbits
  18              		.align	2
  19              		.global	CDC_Device_ConfigureEndpoints
  20              		.code	16
  21              		.thumb_func
  22              		.type	CDC_Device_ConfigureEndpoints, %function
  23              	CDC_Device_ConfigureEndpoints:
  24              	.LFB99:
  25              		.file 1 "USBlib_11U14/Drivers/USB/Class/Device/CDCClassDevice.c"
  26              		.loc 1 115 0
  27              		.cfi_startproc
  28              	.LVL0:
  29 0000 F0B5     		push	{r4, r5, r6, r7, lr}
  30              		.cfi_def_cfa_offset 20
  31              		.cfi_offset 4, -20
  32              		.cfi_offset 5, -16
  33              		.cfi_offset 6, -12
  34              		.cfi_offset 7, -8
  35              		.cfi_offset 14, -4
  36 0002 5F46     		mov	r7, fp
  37 0004 5646     		mov	r6, r10
  38 0006 4D46     		mov	r5, r9
  39 0008 4446     		mov	r4, r8
  40 000a F0B4     		push	{r4, r5, r6, r7}
  41              		.cfi_def_cfa_offset 36
  42              		.cfi_offset 8, -36
  43              		.cfi_offset 9, -32
  44              		.cfi_offset 10, -28
  45              		.cfi_offset 11, -24
  46 000c 83B0     		sub	sp, sp, #12
  47              		.cfi_def_cfa_offset 48
  48 000e 051C     		mov	r5, r0
  49              		.loc 1 116 0
  50 0010 0023     		mov	r3, #0
  51 0012 8373     		strb	r3, [r0, #14]
  52 0014 C373     		strb	r3, [r0, #15]
  53 0016 0374     		strb	r3, [r0, #16]
  54 0018 4374     		strb	r3, [r0, #17]
  55 001a 8374     		strb	r3, [r0, #18]
  56 001c C374     		strb	r3, [r0, #19]
  57 001e 0375     		strb	r3, [r0, #20]
ARM GAS  /tmp/ccvZzf3e.s 			page 2


  58 0020 4375     		strb	r3, [r0, #21]
  59 0022 8375     		strb	r3, [r0, #22]
  60 0024 C375     		strb	r3, [r0, #23]
  61 0026 0376     		strb	r3, [r0, #24]
  62 0028 4376     		strb	r3, [r0, #25]
  63              	.LVL1:
  64              		.loc 1 119 0
  65 002a 0124     		mov	r4, #1
  66              	.LBB139:
  67              		.loc 1 143 0
  68 002c 8023     		mov	r3, #128
  69 002e 9B46     		mov	fp, r3
  70              		.loc 1 144 0
  71 0030 0326     		mov	r6, #3
  72 0032 B046     		mov	r8, r6
  73              		.loc 1 136 0
  74 0034 0023     		mov	r3, #0
  75 0036 9A46     		mov	r10, r3
  76              	.LVL2:
  77              	.L8:
  78              		.loc 1 126 0
  79 0038 6B78     		ldrb	r3, [r5, #1]
  80 003a A342     		cmp	r3, r4
  81 003c 04D1     		bne	.L2
  82              		.loc 1 128 0
  83 003e 6F88     		ldrh	r7, [r5, #2]
  84              	.LVL3:
  85              		.loc 1 131 0
  86 0040 2979     		ldrb	r1, [r5, #4]
  87              	.LVL4:
  88              		.loc 1 129 0
  89 0042 5B46     		mov	r3, fp
  90              		.loc 1 130 0
  91 0044 0222     		mov	r2, #2
  92 0046 0EE0     		b	.L3
  93              	.LVL5:
  94              	.L2:
  95              		.loc 1 133 0
  96 0048 6B79     		ldrb	r3, [r5, #5]
  97 004a A342     		cmp	r3, r4
  98 004c 04D1     		bne	.L4
  99              		.loc 1 135 0
 100 004e EF88     		ldrh	r7, [r5, #6]
 101              	.LVL6:
 102              		.loc 1 138 0
 103 0050 297A     		ldrb	r1, [r5, #8]
 104              	.LVL7:
 105              		.loc 1 136 0
 106 0052 5346     		mov	r3, r10
 107              		.loc 1 137 0
 108 0054 0222     		mov	r2, #2
 109 0056 06E0     		b	.L3
 110              	.LVL8:
 111              	.L4:
 112              		.loc 1 140 0
 113 0058 6B7A     		ldrb	r3, [r5, #9]
 114 005a A342     		cmp	r3, r4
ARM GAS  /tmp/ccvZzf3e.s 			page 3


 115 005c 0ED1     		bne	.L5
 116              		.loc 1 142 0
 117 005e 6F89     		ldrh	r7, [r5, #10]
 118              	.LVL9:
 119              		.loc 1 145 0
 120 0060 297B     		ldrb	r1, [r5, #12]
 121              	.LVL10:
 122              		.loc 1 143 0
 123 0062 5B46     		mov	r3, fp
 124              		.loc 1 144 0
 125 0064 4246     		mov	r2, r8
 126              	.LVL11:
 127              	.L3:
 128              		.loc 1 152 0
 129 0066 687B     		ldrb	r0, [r5, #13]
 130 0068 4E1E     		sub	r6, r1, #1
 131 006a B141     		sbc	r1, r1, r6
 132              	.LVL12:
 133 006c 4900     		lsl	r1, r1, #1
 134 006e 0097     		str	r7, [sp]
 135 0070 0191     		str	r1, [sp, #4]
 136 0072 211C     		mov	r1, r4
 137 0074 FFF7FEFF 		bl	Endpoint_ConfigureEndpoint
 138              	.LVL13:
 139 0078 0028     		cmp	r0, #0
 140 007a 04D0     		beq	.L7
 141              	.LVL14:
 142              	.L5:
 143              	.LBE139:
 144              		.loc 1 119 0
 145 007c 0134     		add	r4, r4, #1
 146              	.LVL15:
 147 007e E4B2     		uxtb	r4, r4
 148              	.LVL16:
 149 0080 042C     		cmp	r4, #4
 150 0082 D9DD     		ble	.L8
 151              		.loc 1 159 0
 152 0084 0120     		mov	r0, #1
 153              	.LVL17:
 154              	.L7:
 155              		.loc 1 160 0
 156 0086 03B0     		add	sp, sp, #12
 157              		@ sp needed
 158              	.LVL18:
 159 0088 3CBC     		pop	{r2, r3, r4, r5}
 160 008a 9046     		mov	r8, r2
 161 008c 9946     		mov	r9, r3
 162 008e A246     		mov	r10, r4
 163 0090 AB46     		mov	fp, r5
 164 0092 F0BD     		pop	{r4, r5, r6, r7, pc}
 165              		.cfi_endproc
 166              	.LFE99:
 167              		.size	CDC_Device_ConfigureEndpoints, .-CDC_Device_ConfigureEndpoints
 168              		.section	.text.CDC_Device_SendString,"ax",%progbits
 169              		.align	2
 170              		.global	CDC_Device_SendString
 171              		.code	16
ARM GAS  /tmp/ccvZzf3e.s 			page 4


 172              		.thumb_func
 173              		.type	CDC_Device_SendString, %function
 174              	CDC_Device_SendString:
 175              	.LFB101:
 176              		.loc 1 174 0
 177              		.cfi_startproc
 178              	.LVL19:
 179 0000 70B5     		push	{r4, r5, r6, lr}
 180              		.cfi_def_cfa_offset 16
 181              		.cfi_offset 4, -16
 182              		.cfi_offset 5, -12
 183              		.cfi_offset 6, -8
 184              		.cfi_offset 14, -4
 185 0002 041C     		mov	r4, r0
 186 0004 0D1C     		mov	r5, r1
 187              		.loc 1 175 0
 188 0006 437B     		ldrb	r3, [r0, #13]
 189 0008 1D4A     		ldr	r2, .L19
 190 000a D25C     		ldrb	r2, [r2, r3]
 191              		.loc 1 176 0
 192 000c 0220     		mov	r0, #2
 193              	.LVL20:
 194              		.loc 1 175 0
 195 000e 042A     		cmp	r2, #4
 196 0010 35D1     		bne	.L12
 197              		.loc 1 175 0 is_stmt 0 discriminator 1
 198 0012 618A     		ldrh	r1, [r4, #18]
 199              	.LVL21:
 200 0014 A28A     		ldrh	r2, [r4, #20]
 201 0016 1204     		lsl	r2, r2, #16
 202 0018 0A43     		orr	r2, r1
 203 001a 30D0     		beq	.L12
 204              		.loc 1 178 0 is_stmt 1
 205 001c 6278     		ldrb	r2, [r4, #1]
 206              	.LVL22:
 207              	.LBB140:
 208              	.LBB141:
 209              		.file 2 "USBlib_11U14/Drivers/USB/Class/Device/../../Core/Endpoint.h"
 210              		.loc 2 205 0
 211 001e 194E     		ldr	r6, .L19+4
 212 0020 F254     		strb	r2, [r6, r3]
 213              	.LVL23:
 214              	.LBE141:
 215              	.LBE140:
 216              		.loc 1 179 0
 217 0022 281C     		mov	r0, r5
 218 0024 FFF7FEFF 		bl	strlen
 219              	.LVL24:
 220 0028 637B     		ldrb	r3, [r4, #13]
 221 002a 82B2     		uxth	r2, r0
 222 002c 181C     		mov	r0, r3
 223 002e 291C     		mov	r1, r5
 224 0030 0023     		mov	r3, #0
 225 0032 FFF7FEFF 		bl	Endpoint_Write_Stream_LE
 226              	.LVL25:
 227              		.loc 1 180 0
 228 0036 637B     		ldrb	r3, [r4, #13]
ARM GAS  /tmp/ccvZzf3e.s 			page 5


 229              	.LVL26:
 230              	.LBB142:
 231              	.LBB143:
 232              		.file 3 "USBlib_11U14/Drivers/USB/Class/Device/../../Core/DCD/LPC11UXX/Endpoint_LPC11Uxx.h"
 233              		.loc 3 327 0
 234 0038 F25C     		ldrb	r2, [r6, r3]
 235 003a 002A     		cmp	r2, #0
 236 003c 07D0     		beq	.L13
 237 003e 002B     		cmp	r3, #0
 238 0040 01D0     		beq	.L18
 239 0042 1149     		ldr	r1, .L19+8
 240 0044 00E0     		b	.L14
 241              	.L18:
 242 0046 1149     		ldr	r1, .L19+12
 243              	.L14:
 244 0048 885C     		ldrb	r0, [r1, r2]
 245              	.LVL27:
 246              		.loc 3 328 0
 247 004a 0128     		cmp	r0, #1
 248 004c 0CD1     		bne	.L15
 249              	.LVL28:
 250              	.L13:
 251              		.loc 3 329 0
 252 004e 104C     		ldr	r4, .L19+16
 253              	.LVL29:
 254 0050 9D00     		lsl	r5, r3, #2
 255              	.LVL30:
 256 0052 2A59     		ldr	r2, [r5, r4]
 257 0054 5B02     		lsl	r3, r3, #9
 258              	.LVL31:
 259 0056 0F49     		ldr	r1, .L19+20
 260 0058 5918     		add	r1, r3, r1
 261 005a 0120     		mov	r0, #1
 262 005c FFF7FEFF 		bl	DcdDataTransfer
 263              	.LVL32:
 264              		.loc 3 330 0
 265 0060 0023     		mov	r3, #0
 266 0062 2B51     		str	r3, [r5, r4]
 267              	.LBE143:
 268              	.LBE142:
 269              		.loc 1 181 0
 270 0064 0020     		mov	r0, #0
 271 0066 0AE0     		b	.L12
 272              	.LVL33:
 273              	.L15:
 274              	.LBB145:
 275              	.LBB144:
 276              		.loc 3 333 0
 277 0068 0B4C     		ldr	r4, .L19+24
 278              	.LVL34:
 279 006a 9D00     		lsl	r5, r3, #2
 280              	.LVL35:
 281 006c 2A59     		ldr	r2, [r5, r4]
 282              	.LVL36:
 283 006e 5B02     		lsl	r3, r3, #9
 284              	.LVL37:
 285 0070 0A49     		ldr	r1, .L19+28
ARM GAS  /tmp/ccvZzf3e.s 			page 6


 286 0072 5918     		add	r1, r3, r1
 287 0074 FFF7FEFF 		bl	DcdDataTransfer
 288              	.LVL38:
 289              		.loc 3 334 0
 290 0078 0023     		mov	r3, #0
 291 007a 2B51     		str	r3, [r5, r4]
 292              	.LBE144:
 293              	.LBE145:
 294              		.loc 1 181 0
 295 007c 0020     		mov	r0, #0
 296              	.L12:
 297              		.loc 1 182 0
 298              		@ sp needed
 299 007e 70BD     		pop	{r4, r5, r6, pc}
 300              	.L20:
 301              		.align	2
 302              	.L19:
 303 0080 00000000 		.word	USB_DeviceState
 304 0084 00000000 		.word	endpointselected
 305 0088 00000000 		.word	endpointhandle1
 306 008c 00000000 		.word	endpointhandle0
 307 0090 00000000 		.word	usb_data_buffer_index
 308 0094 00000000 		.word	usb_data_buffer
 309 0098 00000000 		.word	usb_data_buffer_IN_index
 310 009c 00000000 		.word	usb_data_buffer_IN
 311              		.cfi_endproc
 312              	.LFE101:
 313              		.size	CDC_Device_SendString, .-CDC_Device_SendString
 314              		.section	.text.CDC_Device_SendData,"ax",%progbits
 315              		.align	2
 316              		.global	CDC_Device_SendData
 317              		.code	16
 318              		.thumb_func
 319              		.type	CDC_Device_SendData, %function
 320              	CDC_Device_SendData:
 321              	.LFB102:
 322              		.loc 1 187 0
 323              		.cfi_startproc
 324              	.LVL39:
 325 0000 38B5     		push	{r3, r4, r5, lr}
 326              		.cfi_def_cfa_offset 16
 327              		.cfi_offset 3, -16
 328              		.cfi_offset 4, -12
 329              		.cfi_offset 5, -8
 330              		.cfi_offset 14, -4
 331 0002 041C     		mov	r4, r0
 332              		.loc 1 188 0
 333 0004 437B     		ldrb	r3, [r0, #13]
 334 0006 1C48     		ldr	r0, .L29
 335              	.LVL40:
 336 0008 C55C     		ldrb	r5, [r0, r3]
 337              		.loc 1 189 0
 338 000a 0220     		mov	r0, #2
 339              		.loc 1 188 0
 340 000c 042D     		cmp	r5, #4
 341 000e 31D1     		bne	.L22
 342              		.loc 1 188 0 is_stmt 0 discriminator 1
ARM GAS  /tmp/ccvZzf3e.s 			page 7


 343 0010 608A     		ldrh	r0, [r4, #18]
 344 0012 A58A     		ldrh	r5, [r4, #20]
 345 0014 2D04     		lsl	r5, r5, #16
 346 0016 0543     		orr	r5, r0
 347              		.loc 1 189 0 is_stmt 1 discriminator 1
 348 0018 0220     		mov	r0, #2
 349              		.loc 1 188 0 discriminator 1
 350 001a 002D     		cmp	r5, #0
 351 001c 2AD0     		beq	.L22
 352              		.loc 1 191 0
 353 001e 6078     		ldrb	r0, [r4, #1]
 354              	.LVL41:
 355              	.LBB146:
 356              	.LBB147:
 357              		.loc 2 205 0
 358 0020 164D     		ldr	r5, .L29+4
 359 0022 E854     		strb	r0, [r5, r3]
 360              	.LVL42:
 361              	.LBE147:
 362              	.LBE146:
 363              		.loc 1 192 0
 364 0024 607B     		ldrb	r0, [r4, #13]
 365              	.LVL43:
 366 0026 0023     		mov	r3, #0
 367              	.LVL44:
 368 0028 FFF7FEFF 		bl	Endpoint_Write_Stream_LE
 369              	.LVL45:
 370              		.loc 1 193 0
 371 002c 637B     		ldrb	r3, [r4, #13]
 372              	.LVL46:
 373              	.LBB148:
 374              	.LBB149:
 375              		.loc 3 327 0
 376 002e EA5C     		ldrb	r2, [r5, r3]
 377 0030 002A     		cmp	r2, #0
 378 0032 07D0     		beq	.L23
 379 0034 002B     		cmp	r3, #0
 380 0036 01D0     		beq	.L28
 381 0038 1149     		ldr	r1, .L29+8
 382 003a 00E0     		b	.L24
 383              	.L28:
 384 003c 1149     		ldr	r1, .L29+12
 385              	.L24:
 386 003e 885C     		ldrb	r0, [r1, r2]
 387              	.LVL47:
 388              		.loc 3 328 0
 389 0040 0128     		cmp	r0, #1
 390 0042 0CD1     		bne	.L25
 391              	.LVL48:
 392              	.L23:
 393              		.loc 3 329 0
 394 0044 104C     		ldr	r4, .L29+16
 395              	.LVL49:
 396 0046 9D00     		lsl	r5, r3, #2
 397 0048 2A59     		ldr	r2, [r5, r4]
 398 004a 5B02     		lsl	r3, r3, #9
 399              	.LVL50:
ARM GAS  /tmp/ccvZzf3e.s 			page 8


 400 004c 0F49     		ldr	r1, .L29+20
 401 004e 5918     		add	r1, r3, r1
 402 0050 0120     		mov	r0, #1
 403 0052 FFF7FEFF 		bl	DcdDataTransfer
 404              	.LVL51:
 405              		.loc 3 330 0
 406 0056 0023     		mov	r3, #0
 407 0058 2B51     		str	r3, [r5, r4]
 408              	.LBE149:
 409              	.LBE148:
 410              		.loc 1 194 0
 411 005a 0020     		mov	r0, #0
 412 005c 0AE0     		b	.L22
 413              	.LVL52:
 414              	.L25:
 415              	.LBB151:
 416              	.LBB150:
 417              		.loc 3 333 0
 418 005e 0C4C     		ldr	r4, .L29+24
 419              	.LVL53:
 420 0060 9D00     		lsl	r5, r3, #2
 421 0062 2A59     		ldr	r2, [r5, r4]
 422              	.LVL54:
 423 0064 5B02     		lsl	r3, r3, #9
 424              	.LVL55:
 425 0066 0B49     		ldr	r1, .L29+28
 426 0068 5918     		add	r1, r3, r1
 427 006a FFF7FEFF 		bl	DcdDataTransfer
 428              	.LVL56:
 429              		.loc 3 334 0
 430 006e 0023     		mov	r3, #0
 431 0070 2B51     		str	r3, [r5, r4]
 432              	.LBE150:
 433              	.LBE151:
 434              		.loc 1 194 0
 435 0072 0020     		mov	r0, #0
 436              	.L22:
 437              		.loc 1 195 0
 438              		@ sp needed
 439 0074 38BD     		pop	{r3, r4, r5, pc}
 440              	.L30:
 441 0076 C046     		.align	2
 442              	.L29:
 443 0078 00000000 		.word	USB_DeviceState
 444 007c 00000000 		.word	endpointselected
 445 0080 00000000 		.word	endpointhandle1
 446 0084 00000000 		.word	endpointhandle0
 447 0088 00000000 		.word	usb_data_buffer_index
 448 008c 00000000 		.word	usb_data_buffer
 449 0090 00000000 		.word	usb_data_buffer_IN_index
 450 0094 00000000 		.word	usb_data_buffer_IN
 451              		.cfi_endproc
 452              	.LFE102:
 453              		.size	CDC_Device_SendData, .-CDC_Device_SendData
 454              		.section	.text.CDC_Device_SendByte,"ax",%progbits
 455              		.align	2
 456              		.global	CDC_Device_SendByte
ARM GAS  /tmp/ccvZzf3e.s 			page 9


 457              		.code	16
 458              		.thumb_func
 459              		.type	CDC_Device_SendByte, %function
 460              	CDC_Device_SendByte:
 461              	.LFB103:
 462              		.loc 1 199 0
 463              		.cfi_startproc
 464              	.LVL57:
 465 0000 F8B5     		push	{r3, r4, r5, r6, r7, lr}
 466              		.cfi_def_cfa_offset 24
 467              		.cfi_offset 3, -24
 468              		.cfi_offset 4, -20
 469              		.cfi_offset 5, -16
 470              		.cfi_offset 6, -12
 471              		.cfi_offset 7, -8
 472              		.cfi_offset 14, -4
 473 0002 041C     		mov	r4, r0
 474 0004 0D1C     		mov	r5, r1
 475              		.loc 1 200 0
 476 0006 437B     		ldrb	r3, [r0, #13]
 477 0008 444A     		ldr	r2, .L54
 478 000a D25C     		ldrb	r2, [r2, r3]
 479              		.loc 1 201 0
 480 000c 0220     		mov	r0, #2
 481              	.LVL58:
 482              		.loc 1 200 0
 483 000e 042A     		cmp	r2, #4
 484 0010 00D0     		beq	.LCB482
 485 0012 81E0     		b	.L52	@long jump
 486              	.LCB482:
 487              		.loc 1 200 0 is_stmt 0 discriminator 1
 488 0014 618A     		ldrh	r1, [r4, #18]
 489              	.LVL59:
 490 0016 A28A     		ldrh	r2, [r4, #20]
 491 0018 1204     		lsl	r2, r2, #16
 492 001a 0A43     		orr	r2, r1
 493 001c 7CD0     		beq	.L52
 494              		.loc 1 203 0 is_stmt 1
 495 001e 6178     		ldrb	r1, [r4, #1]
 496              	.LVL60:
 497              	.LBB152:
 498              	.LBB153:
 499              		.loc 2 205 0
 500 0020 3F4A     		ldr	r2, .L54+4
 501 0022 D154     		strb	r1, [r2, r3]
 502              	.LVL61:
 503              	.LBE153:
 504              	.LBE152:
 505              		.loc 1 205 0
 506 0024 637B     		ldrb	r3, [r4, #13]
 507              	.LVL62:
 508              	.LBB154:
 509              	.LBB155:
 510              	.LBB156:
 511              	.LBB157:
 512              		.loc 2 246 0
 513 0026 002B     		cmp	r3, #0
ARM GAS  /tmp/ccvZzf3e.s 			page 10


 514 0028 6CD1     		bne	.L33
 515 002a 61E0     		b	.L53
 516              	.LVL63:
 517              	.L46:
 518              	.LBE157:
 519              	.LBE156:
 520              	.LBB160:
 521              	.LBB161:
 522              		.loc 3 302 0
 523 002c 925D     		ldrb	r2, [r2, r6]
 524 002e D200     		lsl	r2, r2, #3
 525 0030 3C4F     		ldr	r7, .L54+8
 526 0032 BA18     		add	r2, r7, r2
 527 0034 5288     		ldrh	r2, [r2, #2]
 528 0036 9205     		lsl	r2, r2, #22
 529 0038 920D     		lsr	r2, r2, #22
 530              		.loc 3 301 0
 531 003a 3B4F     		ldr	r7, .L54+12
 532 003c D219     		add	r2, r2, r7
 533 003e 571E     		sub	r7, r2, #1
 534 0040 BA41     		sbc	r2, r2, r7
 535 0042 D2B2     		uxtb	r2, r2
 536 0044 0CE0     		b	.L35
 537              	.LVL64:
 538              	.L43:
 539              	.LBE161:
 540              	.LBE160:
 541              	.LBB164:
 542              	.LBB165:
 543              		.loc 3 292 0
 544 0046 002B     		cmp	r3, #0
 545 0048 01D0     		beq	.L49
 546 004a 384A     		ldr	r2, .L54+16
 547 004c 00E0     		b	.L36
 548              	.L49:
 549 004e 384A     		ldr	r2, .L54+20
 550              	.L36:
 551              		.loc 3 291 0
 552 0050 925D     		ldrb	r2, [r2, r6]
 553              	.L44:
 554              	.LVL65:
 555              		.loc 3 293 0
 556 0052 D200     		lsl	r2, r2, #3
 557              	.LVL66:
 558 0054 334F     		ldr	r7, .L54+8
 559 0056 BA18     		add	r2, r7, r2
 560 0058 5788     		ldrh	r7, [r2, #2]
 561 005a FF0B     		lsr	r7, r7, #15
 562 005c 0122     		mov	r2, #1
 563 005e 7A40     		eor	r2, r7
 564              	.LVL67:
 565              	.L35:
 566              	.LBE165:
 567              	.LBE164:
 568              	.LBE155:
 569              	.LBE154:
 570              		.loc 1 205 0
ARM GAS  /tmp/ccvZzf3e.s 			page 11


 571 0060 002A     		cmp	r2, #0
 572 0062 25D1     		bne	.L37
 573              	.LVL68:
 574              	.LBB173:
 575              	.LBB174:
 576              	.LBB175:
 577              		.loc 3 327 0
 578 0064 0029     		cmp	r1, #0
 579 0066 07D0     		beq	.L38
 580 0068 002B     		cmp	r3, #0
 581 006a 01D0     		beq	.L50
 582 006c 2F4B     		ldr	r3, .L54+16
 583 006e 00E0     		b	.L39
 584              	.L50:
 585 0070 2F4B     		ldr	r3, .L54+20
 586              	.L39:
 587 0072 9B5D     		ldrb	r3, [r3, r6]
 588              	.LVL69:
 589              		.loc 3 328 0
 590 0074 012B     		cmp	r3, #1
 591 0076 0BD1     		bne	.L40
 592              	.LVL70:
 593              	.L38:
 594              		.loc 3 329 0
 595 0078 2E4E     		ldr	r6, .L54+24
 596 007a 8700     		lsl	r7, r0, #2
 597 007c BA59     		ldr	r2, [r7, r6]
 598 007e 4102     		lsl	r1, r0, #9
 599 0080 2D4B     		ldr	r3, .L54+28
 600 0082 C918     		add	r1, r1, r3
 601 0084 0120     		mov	r0, #1
 602              	.LVL71:
 603 0086 FFF7FEFF 		bl	DcdDataTransfer
 604              	.LVL72:
 605              		.loc 3 330 0
 606 008a 0023     		mov	r3, #0
 607 008c BB51     		str	r3, [r7, r6]
 608 008e 0AE0     		b	.L41
 609              	.LVL73:
 610              	.L40:
 611              		.loc 3 333 0
 612 0090 2A4E     		ldr	r6, .L54+32
 613 0092 8700     		lsl	r7, r0, #2
 614 0094 BA59     		ldr	r2, [r7, r6]
 615 0096 4002     		lsl	r0, r0, #9
 616              	.LVL74:
 617 0098 2949     		ldr	r1, .L54+36
 618 009a 4118     		add	r1, r0, r1
 619 009c 181C     		mov	r0, r3
 620 009e FFF7FEFF 		bl	DcdDataTransfer
 621              	.LVL75:
 622              		.loc 3 334 0
 623 00a2 0023     		mov	r3, #0
 624 00a4 BB51     		str	r3, [r7, r6]
 625              	.L41:
 626              	.LBE175:
 627              	.LBE174:
ARM GAS  /tmp/ccvZzf3e.s 			page 12


 628              		.loc 1 211 0
 629 00a6 FFF7FEFF 		bl	Endpoint_WaitUntilReady
 630              	.LVL76:
 631 00aa 031C     		mov	r3, r0
 632              	.LVL77:
 633 00ac 002B     		cmp	r3, #0
 634 00ae 33D1     		bne	.L52
 635              	.LVL78:
 636              	.L37:
 637              	.LBE173:
 638              	.LBB176:
 639              	.LBB177:
 640              		.loc 2 284 0
 641 00b0 637B     		ldrb	r3, [r4, #13]
 642 00b2 1B4A     		ldr	r2, .L54+4
 643 00b4 D05C     		ldrb	r0, [r2, r3]
 644 00b6 0028     		cmp	r0, #0
 645 00b8 0AD1     		bne	.L42
 646              		.loc 2 285 0
 647 00ba 1E4A     		ldr	r2, .L54+24
 648 00bc 9900     		lsl	r1, r3, #2
 649 00be 8C58     		ldr	r4, [r1, r2]
 650              	.LVL79:
 651 00c0 5B02     		lsl	r3, r3, #9
 652              	.LVL80:
 653 00c2 1B19     		add	r3, r3, r4
 654 00c4 1C4C     		ldr	r4, .L54+28
 655 00c6 1D55     		strb	r5, [r3, r4]
 656              	.LVL81:
 657              		.loc 2 286 0
 658 00c8 8B58     		ldr	r3, [r1, r2]
 659 00ca 0133     		add	r3, r3, #1
 660 00cc 8B50     		str	r3, [r1, r2]
 661 00ce 23E0     		b	.L52
 662              	.LVL82:
 663              	.L42:
 664              		.loc 2 289 0
 665 00d0 1A4A     		ldr	r2, .L54+32
 666 00d2 9900     		lsl	r1, r3, #2
 667 00d4 8858     		ldr	r0, [r1, r2]
 668 00d6 5B02     		lsl	r3, r3, #9
 669 00d8 1B18     		add	r3, r3, r0
 670 00da 1948     		ldr	r0, .L54+36
 671 00dc 1D54     		strb	r5, [r3, r0]
 672              	.LVL83:
 673              		.loc 2 290 0
 674 00de 8B58     		ldr	r3, [r1, r2]
 675 00e0 0133     		add	r3, r3, #1
 676 00e2 8B50     		str	r3, [r1, r2]
 677              	.LBE177:
 678              	.LBE176:
 679              		.loc 1 216 0
 680 00e4 0020     		mov	r0, #0
 681 00e6 17E0     		b	.L52
 682              	.LVL84:
 683              	.L45:
 684              	.LBB178:
ARM GAS  /tmp/ccvZzf3e.s 			page 13


 685              	.LBB172:
 686              	.LBB167:
 687              	.LBB166:
 688              		.loc 3 291 0
 689 00e8 0122     		mov	r2, #1
 690 00ea 0029     		cmp	r1, #0
 691 00ec B1D0     		beq	.L44
 692 00ee AAE7     		b	.L43
 693              	.LVL85:
 694              	.L53:
 695              	.LBE166:
 696              	.LBE167:
 697              	.LBB168:
 698              	.LBB158:
 699              		.loc 2 246 0
 700 00f0 181C     		mov	r0, r3
 701 00f2 0B4A     		ldr	r2, .L54+4
 702 00f4 D15C     		ldrb	r1, [r2, r3]
 703              	.LVL86:
 704 00f6 0E1C     		mov	r6, r1
 705 00f8 0D4A     		ldr	r2, .L54+20
 706 00fa 525C     		ldrb	r2, [r2, r1]
 707 00fc D707     		lsl	r7, r2, #31
 708 00fe F3D4     		bmi	.L45
 709              	.LBE158:
 710              	.LBE168:
 711              	.LBB169:
 712              	.LBB162:
 713              		.loc 3 302 0
 714 0100 0B4A     		ldr	r2, .L54+20
 715 0102 93E7     		b	.L46
 716              	.LVL87:
 717              	.L33:
 718              	.LBE162:
 719              	.LBE169:
 720              	.LBB170:
 721              	.LBB159:
 722              		.loc 2 246 0
 723 0104 181C     		mov	r0, r3
 724 0106 064A     		ldr	r2, .L54+4
 725 0108 D15C     		ldrb	r1, [r2, r3]
 726              	.LVL88:
 727 010a 0E1C     		mov	r6, r1
 728 010c 074A     		ldr	r2, .L54+16
 729 010e 525C     		ldrb	r2, [r2, r1]
 730 0110 D707     		lsl	r7, r2, #31
 731 0112 E9D4     		bmi	.L45
 732              	.LBE159:
 733              	.LBE170:
 734              	.LBB171:
 735              	.LBB163:
 736              		.loc 3 302 0
 737 0114 054A     		ldr	r2, .L54+16
 738 0116 89E7     		b	.L46
 739              	.LVL89:
 740              	.L52:
 741              	.LBE163:
ARM GAS  /tmp/ccvZzf3e.s 			page 14


 742              	.LBE171:
 743              	.LBE172:
 744              	.LBE178:
 745              		.loc 1 217 0
 746              		@ sp needed
 747 0118 F8BD     		pop	{r3, r4, r5, r6, r7, pc}
 748              	.L55:
 749 011a C046     		.align	2
 750              	.L54:
 751 011c 00000000 		.word	USB_DeviceState
 752 0120 00000000 		.word	endpointselected
 753 0124 00000000 		.word	EndPointCmdStsList
 754 0128 00FEFFFF 		.word	-512
 755 012c 00000000 		.word	endpointhandle1
 756 0130 00000000 		.word	endpointhandle0
 757 0134 00000000 		.word	usb_data_buffer_index
 758 0138 00000000 		.word	usb_data_buffer
 759 013c 00000000 		.word	usb_data_buffer_IN_index
 760 0140 00000000 		.word	usb_data_buffer_IN
 761              		.cfi_endproc
 762              	.LFE103:
 763              		.size	CDC_Device_SendByte, .-CDC_Device_SendByte
 764              		.section	.text.CDC_Device_Flush,"ax",%progbits
 765              		.align	2
 766              		.global	CDC_Device_Flush
 767              		.code	16
 768              		.thumb_func
 769              		.type	CDC_Device_Flush, %function
 770              	CDC_Device_Flush:
 771              	.LFB104:
 772              		.loc 1 220 0
 773              		.cfi_startproc
 774              	.LVL90:
 775 0000 F8B5     		push	{r3, r4, r5, r6, r7, lr}
 776              		.cfi_def_cfa_offset 24
 777              		.cfi_offset 3, -24
 778              		.cfi_offset 4, -20
 779              		.cfi_offset 5, -16
 780              		.cfi_offset 6, -12
 781              		.cfi_offset 7, -8
 782              		.cfi_offset 14, -4
 783 0002 041C     		mov	r4, r0
 784              		.loc 1 221 0
 785 0004 437B     		ldrb	r3, [r0, #13]
 786 0006 4E4A     		ldr	r2, .L85
 787 0008 D25C     		ldrb	r2, [r2, r3]
 788              		.loc 1 222 0
 789 000a 0220     		mov	r0, #2
 790              	.LVL91:
 791              		.loc 1 221 0
 792 000c 042A     		cmp	r2, #4
 793 000e 00D0     		beq	.LCB833
 794 0010 95E0     		b	.L83	@long jump
 795              	.LCB833:
 796              		.loc 1 221 0 is_stmt 0 discriminator 1
 797 0012 618A     		ldrh	r1, [r4, #18]
 798 0014 A28A     		ldrh	r2, [r4, #20]
ARM GAS  /tmp/ccvZzf3e.s 			page 15


 799 0016 1204     		lsl	r2, r2, #16
 800 0018 0A43     		orr	r2, r1
 801 001a 00D1     		bne	.LCB839
 802 001c 8FE0     		b	.L83	@long jump
 803              	.LCB839:
 804              		.loc 1 226 0 is_stmt 1
 805 001e 6178     		ldrb	r1, [r4, #1]
 806              	.LVL92:
 807              	.LBB179:
 808              	.LBB180:
 809              		.loc 2 205 0
 810 0020 484A     		ldr	r2, .L85+4
 811 0022 D154     		strb	r1, [r2, r3]
 812              	.LVL93:
 813              	.LBE180:
 814              	.LBE179:
 815              		.loc 1 228 0
 816 0024 637B     		ldrb	r3, [r4, #13]
 817              	.LVL94:
 818              	.LBB181:
 819              	.LBB182:
 820              		.loc 3 278 0
 821 0026 D25C     		ldrb	r2, [r2, r3]
 822 0028 002A     		cmp	r2, #0
 823 002a 04D1     		bne	.L58
 824              		.loc 3 279 0
 825 002c 9900     		lsl	r1, r3, #2
 826              	.LVL95:
 827 002e 4648     		ldr	r0, .L85+8
 828 0030 0958     		ldr	r1, [r1, r0]
 829 0032 89B2     		uxth	r1, r1
 830 0034 03E0     		b	.L59
 831              	.LVL96:
 832              	.L58:
 833              		.loc 3 282 0
 834 0036 9900     		lsl	r1, r3, #2
 835              	.LVL97:
 836 0038 4448     		ldr	r0, .L85+12
 837 003a 0958     		ldr	r1, [r1, r0]
 838 003c 89B2     		uxth	r1, r1
 839              	.L59:
 840              	.LBE182:
 841              	.LBE181:
 842              		.loc 1 229 0
 843 003e 0020     		mov	r0, #0
 844              		.loc 1 228 0
 845 0040 0029     		cmp	r1, #0
 846 0042 7CD0     		beq	.L83
 847              	.LVL98:
 848              	.LBB183:
 849              	.LBB184:
 850              	.LBB185:
 851              	.LBB186:
 852              		.loc 2 246 0
 853 0044 002B     		cmp	r3, #0
 854 0046 73D1     		bne	.L60
 855 0048 6BE0     		b	.L84
ARM GAS  /tmp/ccvZzf3e.s 			page 16


 856              	.L74:
 857              	.LBE186:
 858              	.LBE185:
 859              	.LBB189:
 860              	.LBB190:
 861              		.loc 3 302 0
 862 004a 405C     		ldrb	r0, [r0, r1]
 863 004c C000     		lsl	r0, r0, #3
 864 004e 404D     		ldr	r5, .L85+16
 865 0050 2818     		add	r0, r5, r0
 866 0052 4788     		ldrh	r7, [r0, #2]
 867 0054 BF05     		lsl	r7, r7, #22
 868 0056 BF0D     		lsr	r7, r7, #22
 869              		.loc 3 301 0
 870 0058 3E48     		ldr	r0, .L85+20
 871 005a 3F18     		add	r7, r7, r0
 872 005c 781E     		sub	r0, r7, #1
 873 005e 8741     		sbc	r7, r7, r0
 874 0060 FFB2     		uxtb	r7, r7
 875 0062 0CE0     		b	.L62
 876              	.LVL99:
 877              	.L71:
 878              	.LBE190:
 879              	.LBE189:
 880              	.LBB193:
 881              	.LBB194:
 882              		.loc 3 292 0
 883 0064 002B     		cmp	r3, #0
 884 0066 01D0     		beq	.L78
 885 0068 3B48     		ldr	r0, .L85+24
 886 006a 00E0     		b	.L63
 887              	.L78:
 888 006c 3B48     		ldr	r0, .L85+28
 889              	.L63:
 890              		.loc 3 291 0
 891 006e 405C     		ldrb	r0, [r0, r1]
 892              	.L72:
 893              	.LVL100:
 894              		.loc 3 293 0
 895 0070 C000     		lsl	r0, r0, #3
 896              	.LVL101:
 897 0072 374D     		ldr	r5, .L85+16
 898 0074 2818     		add	r0, r5, r0
 899 0076 4788     		ldrh	r7, [r0, #2]
 900 0078 FF0B     		lsr	r7, r7, #15
 901 007a 0120     		mov	r0, #1
 902 007c 4740     		eor	r7, r0
 903              	.LVL102:
 904              	.L62:
 905              	.LBE194:
 906              	.LBE193:
 907              	.LBE184:
 908              	.LBE183:
 909              	.LBB202:
 910              	.LBB203:
 911              		.loc 3 327 0
 912 007e 002A     		cmp	r2, #0
ARM GAS  /tmp/ccvZzf3e.s 			page 17


 913 0080 07D0     		beq	.L64
 914 0082 002B     		cmp	r3, #0
 915 0084 01D0     		beq	.L79
 916 0086 344A     		ldr	r2, .L85+24
 917 0088 00E0     		b	.L65
 918              	.L79:
 919 008a 344A     		ldr	r2, .L85+28
 920              	.L65:
 921 008c 505C     		ldrb	r0, [r2, r1]
 922              	.LVL103:
 923              		.loc 3 328 0
 924 008e 0128     		cmp	r0, #1
 925 0090 0BD1     		bne	.L66
 926              	.LVL104:
 927              	.L64:
 928              		.loc 3 329 0
 929 0092 334D     		ldr	r5, .L85+32
 930 0094 9E00     		lsl	r6, r3, #2
 931 0096 7259     		ldr	r2, [r6, r5]
 932 0098 5B02     		lsl	r3, r3, #9
 933              	.LVL105:
 934 009a 3249     		ldr	r1, .L85+36
 935 009c 5918     		add	r1, r3, r1
 936 009e 0120     		mov	r0, #1
 937 00a0 FFF7FEFF 		bl	DcdDataTransfer
 938              	.LVL106:
 939              		.loc 3 330 0
 940 00a4 0023     		mov	r3, #0
 941 00a6 7351     		str	r3, [r6, r5]
 942 00a8 09E0     		b	.L67
 943              	.LVL107:
 944              	.L66:
 945              		.loc 3 333 0
 946 00aa 2F4D     		ldr	r5, .L85+40
 947 00ac 9E00     		lsl	r6, r3, #2
 948 00ae 7259     		ldr	r2, [r6, r5]
 949              	.LVL108:
 950 00b0 5B02     		lsl	r3, r3, #9
 951              	.LVL109:
 952 00b2 2E49     		ldr	r1, .L85+44
 953 00b4 5918     		add	r1, r3, r1
 954 00b6 FFF7FEFF 		bl	DcdDataTransfer
 955              	.LVL110:
 956              		.loc 3 334 0
 957 00ba 0023     		mov	r3, #0
 958 00bc 7351     		str	r3, [r6, r5]
 959              	.L67:
 960              	.LBE203:
 961              	.LBE202:
 962              		.loc 1 243 0
 963 00be 0020     		mov	r0, #0
 964              		.loc 1 235 0
 965 00c0 002F     		cmp	r7, #0
 966 00c2 3CD1     		bne	.L83
 967              		.loc 1 237 0
 968 00c4 FFF7FEFF 		bl	Endpoint_WaitUntilReady
 969              	.LVL111:
ARM GAS  /tmp/ccvZzf3e.s 			page 18


 970 00c8 031C     		mov	r3, r0
 971              	.LVL112:
 972 00ca 002B     		cmp	r3, #0
 973 00cc 37D1     		bne	.L83
 974              		.loc 1 240 0
 975 00ce 637B     		ldrb	r3, [r4, #13]
 976              	.LVL113:
 977              	.LBB204:
 978              	.LBB205:
 979              		.loc 3 327 0
 980 00d0 1C4A     		ldr	r2, .L85+4
 981 00d2 D25C     		ldrb	r2, [r2, r3]
 982 00d4 002A     		cmp	r2, #0
 983 00d6 07D0     		beq	.L68
 984 00d8 002B     		cmp	r3, #0
 985 00da 01D0     		beq	.L82
 986 00dc 1E49     		ldr	r1, .L85+24
 987 00de 00E0     		b	.L69
 988              	.L82:
 989 00e0 1E49     		ldr	r1, .L85+28
 990              	.L69:
 991 00e2 885C     		ldrb	r0, [r1, r2]
 992              	.LVL114:
 993              		.loc 3 328 0
 994 00e4 0128     		cmp	r0, #1
 995 00e6 0CD1     		bne	.L70
 996              	.LVL115:
 997              	.L68:
 998              		.loc 3 329 0
 999 00e8 1D4C     		ldr	r4, .L85+32
 1000              	.LVL116:
 1001 00ea 9D00     		lsl	r5, r3, #2
 1002 00ec 2A59     		ldr	r2, [r5, r4]
 1003 00ee 5B02     		lsl	r3, r3, #9
 1004              	.LVL117:
 1005 00f0 1C49     		ldr	r1, .L85+36
 1006 00f2 5918     		add	r1, r3, r1
 1007 00f4 0120     		mov	r0, #1
 1008 00f6 FFF7FEFF 		bl	DcdDataTransfer
 1009              	.LVL118:
 1010              		.loc 3 330 0
 1011 00fa 0023     		mov	r3, #0
 1012 00fc 2B51     		str	r3, [r5, r4]
 1013              	.LBE205:
 1014              	.LBE204:
 1015              		.loc 1 243 0
 1016 00fe 0020     		mov	r0, #0
 1017 0100 1DE0     		b	.L83
 1018              	.LVL119:
 1019              	.L70:
 1020              	.LBB207:
 1021              	.LBB206:
 1022              		.loc 3 333 0
 1023 0102 194C     		ldr	r4, .L85+40
 1024              	.LVL120:
 1025 0104 9D00     		lsl	r5, r3, #2
 1026 0106 2A59     		ldr	r2, [r5, r4]
ARM GAS  /tmp/ccvZzf3e.s 			page 19


 1027              	.LVL121:
 1028 0108 5B02     		lsl	r3, r3, #9
 1029              	.LVL122:
 1030 010a 1849     		ldr	r1, .L85+44
 1031 010c 5918     		add	r1, r3, r1
 1032 010e FFF7FEFF 		bl	DcdDataTransfer
 1033              	.LVL123:
 1034              		.loc 3 334 0
 1035 0112 0023     		mov	r3, #0
 1036 0114 2B51     		str	r3, [r5, r4]
 1037              	.LBE206:
 1038              	.LBE207:
 1039              		.loc 1 243 0
 1040 0116 0020     		mov	r0, #0
 1041 0118 11E0     		b	.L83
 1042              	.LVL124:
 1043              	.L73:
 1044              	.LBB208:
 1045              	.LBB201:
 1046              	.LBB196:
 1047              	.LBB195:
 1048              		.loc 3 291 0
 1049 011a 0120     		mov	r0, #1
 1050 011c 002A     		cmp	r2, #0
 1051 011e A7D0     		beq	.L72
 1052 0120 A0E7     		b	.L71
 1053              	.LVL125:
 1054              	.L84:
 1055              	.LBE195:
 1056              	.LBE196:
 1057              	.LBB197:
 1058              	.LBB187:
 1059              		.loc 2 246 0
 1060 0122 111C     		mov	r1, r2
 1061 0124 0D48     		ldr	r0, .L85+28
 1062 0126 805C     		ldrb	r0, [r0, r2]
 1063 0128 C507     		lsl	r5, r0, #31
 1064 012a F6D4     		bmi	.L73
 1065              	.LBE187:
 1066              	.LBE197:
 1067              	.LBB198:
 1068              	.LBB191:
 1069              		.loc 3 302 0
 1070 012c 0B48     		ldr	r0, .L85+28
 1071 012e 8CE7     		b	.L74
 1072              	.L60:
 1073              	.LBE191:
 1074              	.LBE198:
 1075              	.LBB199:
 1076              	.LBB188:
 1077              		.loc 2 246 0
 1078 0130 111C     		mov	r1, r2
 1079 0132 0948     		ldr	r0, .L85+24
 1080 0134 805C     		ldrb	r0, [r0, r2]
 1081 0136 C507     		lsl	r5, r0, #31
 1082 0138 EFD4     		bmi	.L73
 1083              	.LBE188:
ARM GAS  /tmp/ccvZzf3e.s 			page 20


 1084              	.LBE199:
 1085              	.LBB200:
 1086              	.LBB192:
 1087              		.loc 3 302 0
 1088 013a 0748     		ldr	r0, .L85+24
 1089 013c 85E7     		b	.L74
 1090              	.LVL126:
 1091              	.L83:
 1092              	.LBE192:
 1093              	.LBE200:
 1094              	.LBE201:
 1095              	.LBE208:
 1096              		.loc 1 244 0
 1097              		@ sp needed
 1098 013e F8BD     		pop	{r3, r4, r5, r6, r7, pc}
 1099              	.L86:
 1100              		.align	2
 1101              	.L85:
 1102 0140 00000000 		.word	USB_DeviceState
 1103 0144 00000000 		.word	endpointselected
 1104 0148 00000000 		.word	usb_data_buffer_size
 1105 014c 00000000 		.word	usb_data_buffer_OUT_size
 1106 0150 00000000 		.word	EndPointCmdStsList
 1107 0154 00FEFFFF 		.word	-512
 1108 0158 00000000 		.word	endpointhandle1
 1109 015c 00000000 		.word	endpointhandle0
 1110 0160 00000000 		.word	usb_data_buffer_index
 1111 0164 00000000 		.word	usb_data_buffer
 1112 0168 00000000 		.word	usb_data_buffer_IN_index
 1113 016c 00000000 		.word	usb_data_buffer_IN
 1114              		.cfi_endproc
 1115              	.LFE104:
 1116              		.size	CDC_Device_Flush, .-CDC_Device_Flush
 1117              		.section	.text.CDC_Device_USBTask,"ax",%progbits
 1118              		.align	2
 1119              		.global	CDC_Device_USBTask
 1120              		.code	16
 1121              		.thumb_func
 1122              		.type	CDC_Device_USBTask, %function
 1123              	CDC_Device_USBTask:
 1124              	.LFB100:
 1125              		.loc 1 163 0
 1126              		.cfi_startproc
 1127              	.LVL127:
 1128 0000 08B5     		push	{r3, lr}
 1129              		.cfi_def_cfa_offset 8
 1130              		.cfi_offset 3, -8
 1131              		.cfi_offset 14, -4
 1132              		.loc 1 164 0
 1133 0002 437B     		ldrb	r3, [r0, #13]
 1134 0004 054A     		ldr	r2, .L89
 1135 0006 D35C     		ldrb	r3, [r2, r3]
 1136 0008 042B     		cmp	r3, #4
 1137 000a 06D1     		bne	.L87
 1138              		.loc 1 164 0 is_stmt 0 discriminator 1
 1139 000c 428A     		ldrh	r2, [r0, #18]
 1140 000e 838A     		ldrh	r3, [r0, #20]
ARM GAS  /tmp/ccvZzf3e.s 			page 21


 1141 0010 1B04     		lsl	r3, r3, #16
 1142 0012 1343     		orr	r3, r2
 1143 0014 01D0     		beq	.L87
 1144              		.loc 1 168 0 is_stmt 1
 1145 0016 FFF7FEFF 		bl	CDC_Device_Flush
 1146              	.LVL128:
 1147              	.L87:
 1148              		.loc 1 170 0
 1149              		@ sp needed
 1150 001a 08BD     		pop	{r3, pc}
 1151              	.L90:
 1152              		.align	2
 1153              	.L89:
 1154 001c 00000000 		.word	USB_DeviceState
 1155              		.cfi_endproc
 1156              	.LFE100:
 1157              		.size	CDC_Device_USBTask, .-CDC_Device_USBTask
 1158              		.section	.text.CDC_Device_BytesReceived,"ax",%progbits
 1159              		.align	2
 1160              		.global	CDC_Device_BytesReceived
 1161              		.code	16
 1162              		.thumb_func
 1163              		.type	CDC_Device_BytesReceived, %function
 1164              	CDC_Device_BytesReceived:
 1165              	.LFB105:
 1166              		.loc 1 247 0
 1167              		.cfi_startproc
 1168              	.LVL129:
 1169 0000 10B5     		push	{r4, lr}
 1170              		.cfi_def_cfa_offset 8
 1171              		.cfi_offset 4, -8
 1172              		.cfi_offset 14, -4
 1173 0002 031C     		mov	r3, r0
 1174              		.loc 1 248 0
 1175 0004 427B     		ldrb	r2, [r0, #13]
 1176 0006 2C49     		ldr	r1, .L108
 1177 0008 895C     		ldrb	r1, [r1, r2]
 1178              		.loc 1 249 0
 1179 000a 0020     		mov	r0, #0
 1180              	.LVL130:
 1181              		.loc 1 248 0
 1182 000c 0429     		cmp	r1, #4
 1183 000e 52D1     		bne	.L92
 1184              		.loc 1 248 0 is_stmt 0 discriminator 1
 1185 0010 588A     		ldrh	r0, [r3, #18]
 1186 0012 998A     		ldrh	r1, [r3, #20]
 1187 0014 0904     		lsl	r1, r1, #16
 1188 0016 0143     		orr	r1, r0
 1189              		.loc 1 249 0 is_stmt 1 discriminator 1
 1190 0018 0020     		mov	r0, #0
 1191              		.loc 1 248 0 discriminator 1
 1192 001a 0029     		cmp	r1, #0
 1193 001c 4BD0     		beq	.L92
 1194              		.loc 1 251 0
 1195 001e 5879     		ldrb	r0, [r3, #5]
 1196              	.LVL131:
 1197              	.LBB209:
ARM GAS  /tmp/ccvZzf3e.s 			page 22


 1198              	.LBB210:
 1199              		.loc 2 205 0
 1200 0020 2649     		ldr	r1, .L108+4
 1201 0022 8854     		strb	r0, [r1, r2]
 1202              	.LVL132:
 1203              	.LBE210:
 1204              	.LBE209:
 1205              		.loc 1 253 0
 1206 0024 5B7B     		ldrb	r3, [r3, #13]
 1207              	.LVL133:
 1208              	.LBB211:
 1209              	.LBB212:
 1210              		.loc 3 302 0
 1211 0026 002B     		cmp	r3, #0
 1212 0028 01D0     		beq	.L103
 1213 002a 2549     		ldr	r1, .L108+8
 1214 002c 00E0     		b	.L93
 1215              	.L103:
 1216 002e 2549     		ldr	r1, .L108+12
 1217              	.L93:
 1218 0030 224A     		ldr	r2, .L108+4
 1219              	.LVL134:
 1220 0032 D25C     		ldrb	r2, [r2, r3]
 1221 0034 895C     		ldrb	r1, [r1, r2]
 1222 0036 C900     		lsl	r1, r1, #3
 1223 0038 2348     		ldr	r0, .L108+16
 1224              	.LVL135:
 1225 003a 4118     		add	r1, r0, r1
 1226 003c 4888     		ldrh	r0, [r1, #2]
 1227 003e 8005     		lsl	r0, r0, #22
 1228 0040 800D     		lsr	r0, r0, #22
 1229              	.LBE212:
 1230              	.LBE211:
 1231              		.loc 1 253 0
 1232 0042 8021     		mov	r1, #128
 1233 0044 8900     		lsl	r1, r1, #2
 1234 0046 8842     		cmp	r0, r1
 1235 0048 34D0     		beq	.L104
 1236              	.LVL136:
 1237              	.LBB213:
 1238              	.LBB214:
 1239              		.loc 3 278 0
 1240 004a 002A     		cmp	r2, #0
 1241 004c 06D1     		bne	.L94
 1242              		.loc 3 279 0
 1243 004e 9900     		lsl	r1, r3, #2
 1244 0050 1E48     		ldr	r0, .L108+20
 1245 0052 0958     		ldr	r1, [r1, r0]
 1246              	.LBE214:
 1247              	.LBE213:
 1248              		.loc 1 255 0
 1249 0054 89B2     		uxth	r1, r1
 1250 0056 0029     		cmp	r1, #0
 1251 0058 07D0     		beq	.L95
 1252 005a 21E0     		b	.L106
 1253              	.L94:
 1254              	.LBB216:
ARM GAS  /tmp/ccvZzf3e.s 			page 23


 1255              	.LBB215:
 1256              		.loc 3 282 0
 1257 005c 9900     		lsl	r1, r3, #2
 1258 005e 1C48     		ldr	r0, .L108+24
 1259 0060 0958     		ldr	r1, [r1, r0]
 1260              	.LBE215:
 1261              	.LBE216:
 1262              		.loc 1 255 0
 1263 0062 89B2     		uxth	r1, r1
 1264 0064 0029     		cmp	r1, #0
 1265 0066 05D0     		beq	.L97
 1266 0068 1FE0     		b	.L107
 1267              	.L95:
 1268              	.LVL137:
 1269              	.LBB217:
 1270              	.LBB218:
 1271              		.loc 3 344 0
 1272 006a 9900     		lsl	r1, r3, #2
 1273 006c 0024     		mov	r4, #0
 1274 006e 1948     		ldr	r0, .L108+28
 1275 0070 0C50     		str	r4, [r1, r0]
 1276 0072 03E0     		b	.L99
 1277              	.LVL138:
 1278              	.L97:
 1279              		.loc 3 346 0
 1280 0074 9900     		lsl	r1, r3, #2
 1281 0076 0024     		mov	r4, #0
 1282 0078 1748     		ldr	r0, .L108+32
 1283 007a 0C50     		str	r4, [r1, r0]
 1284              	.LVL139:
 1285              	.L99:
 1286              		.loc 3 348 0
 1287 007c 002B     		cmp	r3, #0
 1288 007e 01D0     		beq	.L105
 1289 0080 0F4B     		ldr	r3, .L108+8
 1290              	.LVL140:
 1291 0082 00E0     		b	.L100
 1292              	.LVL141:
 1293              	.L105:
 1294 0084 0F4B     		ldr	r3, .L108+12
 1295              	.LVL142:
 1296              	.L100:
 1297 0086 9B5C     		ldrb	r3, [r3, r2]
 1298 0088 DB00     		lsl	r3, r3, #3
 1299 008a 0F4A     		ldr	r2, .L108+16
 1300 008c D318     		add	r3, r2, r3
 1301 008e 5988     		ldrh	r1, [r3, #2]
 1302 0090 890A     		lsr	r1, r1, #10
 1303 0092 8902     		lsl	r1, r1, #10
 1304 0094 8022     		mov	r2, #128
 1305 0096 9200     		lsl	r2, r2, #2
 1306 0098 0A43     		orr	r2, r1
 1307 009a 5A80     		strh	r2, [r3, #2]
 1308              	.LBE218:
 1309              	.LBE217:
 1310              		.loc 1 258 0
 1311 009c 0020     		mov	r0, #0
ARM GAS  /tmp/ccvZzf3e.s 			page 24


 1312 009e 0AE0     		b	.L92
 1313              	.LVL143:
 1314              	.L106:
 1315              	.LBB219:
 1316              	.LBB220:
 1317              		.loc 3 279 0
 1318 00a0 9B00     		lsl	r3, r3, #2
 1319              	.LVL144:
 1320 00a2 0A4A     		ldr	r2, .L108+20
 1321 00a4 9858     		ldr	r0, [r3, r2]
 1322 00a6 80B2     		uxth	r0, r0
 1323 00a8 05E0     		b	.L92
 1324              	.LVL145:
 1325              	.L107:
 1326              		.loc 3 282 0
 1327 00aa 9B00     		lsl	r3, r3, #2
 1328              	.LVL146:
 1329 00ac 084A     		ldr	r2, .L108+24
 1330 00ae 9858     		ldr	r0, [r3, r2]
 1331 00b0 80B2     		uxth	r0, r0
 1332 00b2 00E0     		b	.L92
 1333              	.LVL147:
 1334              	.L104:
 1335              	.LBE220:
 1336              	.LBE219:
 1337              		.loc 1 267 0
 1338 00b4 0020     		mov	r0, #0
 1339              	.LVL148:
 1340              	.L92:
 1341              		.loc 1 269 0
 1342              		@ sp needed
 1343 00b6 10BD     		pop	{r4, pc}
 1344              	.L109:
 1345              		.align	2
 1346              	.L108:
 1347 00b8 00000000 		.word	USB_DeviceState
 1348 00bc 00000000 		.word	endpointselected
 1349 00c0 00000000 		.word	endpointhandle1
 1350 00c4 00000000 		.word	endpointhandle0
 1351 00c8 00000000 		.word	EndPointCmdStsList
 1352 00cc 00000000 		.word	usb_data_buffer_size
 1353 00d0 00000000 		.word	usb_data_buffer_OUT_size
 1354 00d4 00000000 		.word	usb_data_buffer_index
 1355 00d8 00000000 		.word	usb_data_buffer_OUT_index
 1356              		.cfi_endproc
 1357              	.LFE105:
 1358              		.size	CDC_Device_BytesReceived, .-CDC_Device_BytesReceived
 1359              		.section	.text.CDC_Device_ReceiveByte,"ax",%progbits
 1360              		.align	2
 1361              		.global	CDC_Device_ReceiveByte
 1362              		.code	16
 1363              		.thumb_func
 1364              		.type	CDC_Device_ReceiveByte, %function
 1365              	CDC_Device_ReceiveByte:
 1366              	.LFB106:
 1367              		.loc 1 272 0
 1368              		.cfi_startproc
ARM GAS  /tmp/ccvZzf3e.s 			page 25


 1369              	.LVL149:
 1370 0000 30B5     		push	{r4, r5, lr}
 1371              		.cfi_def_cfa_offset 12
 1372              		.cfi_offset 4, -12
 1373              		.cfi_offset 5, -8
 1374              		.cfi_offset 14, -4
 1375              		.loc 1 273 0
 1376 0002 437B     		ldrb	r3, [r0, #13]
 1377 0004 484A     		ldr	r2, .L133
 1378 0006 D25C     		ldrb	r2, [r2, r3]
 1379 0008 042A     		cmp	r2, #4
 1380 000a 78D1     		bne	.L125
 1381              		.loc 1 273 0 is_stmt 0 discriminator 1
 1382 000c 418A     		ldrh	r1, [r0, #18]
 1383 000e 828A     		ldrh	r2, [r0, #20]
 1384 0010 1204     		lsl	r2, r2, #16
 1385 0012 0A43     		orr	r2, r1
 1386 0014 75D0     		beq	.L126
 1387              	.LVL150:
 1388              		.loc 1 278 0 is_stmt 1
 1389 0016 4179     		ldrb	r1, [r0, #5]
 1390              	.LVL151:
 1391              	.LBB221:
 1392              	.LBB222:
 1393              		.loc 2 205 0
 1394 0018 444A     		ldr	r2, .L133+4
 1395 001a D154     		strb	r1, [r2, r3]
 1396              	.LVL152:
 1397              	.LBE222:
 1398              	.LBE221:
 1399              		.loc 1 280 0
 1400 001c 437B     		ldrb	r3, [r0, #13]
 1401              	.LVL153:
 1402              	.LBB223:
 1403              	.LBB224:
 1404              		.loc 3 302 0
 1405 001e 002B     		cmp	r3, #0
 1406 0020 01D0     		beq	.L127
 1407 0022 4349     		ldr	r1, .L133+8
 1408              	.LVL154:
 1409 0024 00E0     		b	.L112
 1410              	.LVL155:
 1411              	.L127:
 1412 0026 4349     		ldr	r1, .L133+12
 1413              	.LVL156:
 1414              	.L112:
 1415 0028 404A     		ldr	r2, .L133+4
 1416 002a D25C     		ldrb	r2, [r2, r3]
 1417 002c 895C     		ldrb	r1, [r1, r2]
 1418 002e C900     		lsl	r1, r1, #3
 1419 0030 414C     		ldr	r4, .L133+16
 1420 0032 6118     		add	r1, r4, r1
 1421 0034 4C88     		ldrh	r4, [r1, #2]
 1422 0036 A405     		lsl	r4, r4, #22
 1423 0038 A40D     		lsr	r4, r4, #22
 1424              	.LBE224:
 1425              	.LBE223:
ARM GAS  /tmp/ccvZzf3e.s 			page 26


 1426              		.loc 1 280 0
 1427 003a 8021     		mov	r1, #128
 1428 003c 8900     		lsl	r1, r1, #2
 1429 003e 8C42     		cmp	r4, r1
 1430 0040 61D0     		beq	.L128
 1431              	.LVL157:
 1432              	.LBB225:
 1433              	.LBB226:
 1434              		.loc 3 278 0
 1435 0042 002A     		cmp	r2, #0
 1436 0044 06D1     		bne	.L113
 1437              		.loc 3 279 0
 1438 0046 9A00     		lsl	r2, r3, #2
 1439 0048 3C49     		ldr	r1, .L133+20
 1440 004a 5258     		ldr	r2, [r2, r1]
 1441              	.LBE226:
 1442              	.LBE225:
 1443              		.loc 1 282 0
 1444 004c 92B2     		uxth	r2, r2
 1445 004e 002A     		cmp	r2, #0
 1446 0050 07D1     		bne	.L114
 1447 0052 5BE0     		b	.L130
 1448              	.L113:
 1449              	.LBB228:
 1450              	.LBB227:
 1451              		.loc 3 282 0
 1452 0054 9A00     		lsl	r2, r3, #2
 1453 0056 3A49     		ldr	r1, .L133+24
 1454 0058 5258     		ldr	r2, [r2, r1]
 1455              	.LBE227:
 1456              	.LBE228:
 1457              		.loc 1 282 0
 1458 005a 92B2     		uxth	r2, r2
 1459 005c 002A     		cmp	r2, #0
 1460 005e 0FD1     		bne	.L116
 1461 0060 5AE0     		b	.L131
 1462              	.L114:
 1463              	.LVL158:
 1464              	.LBB229:
 1465              	.LBB230:
 1466              		.loc 2 224 0
 1467 0062 384C     		ldr	r4, .L133+28
 1468 0064 9A00     		lsl	r2, r3, #2
 1469 0066 1159     		ldr	r1, [r2, r4]
 1470 0068 5B02     		lsl	r3, r3, #9
 1471              	.LVL159:
 1472 006a 5B18     		add	r3, r3, r1
 1473 006c 3649     		ldr	r1, .L133+32
 1474 006e 595C     		ldrb	r1, [r3, r1]
 1475              	.LVL160:
 1476              		.loc 2 225 0
 1477 0070 1359     		ldr	r3, [r2, r4]
 1478 0072 0133     		add	r3, r3, #1
 1479 0074 1351     		str	r3, [r2, r4]
 1480              	.LVL161:
 1481              		.loc 2 226 0
 1482 0076 314B     		ldr	r3, .L133+20
ARM GAS  /tmp/ccvZzf3e.s 			page 27


 1483 0078 D458     		ldr	r4, [r2, r3]
 1484 007a 013C     		sub	r4, r4, #1
 1485 007c D450     		str	r4, [r2, r3]
 1486 007e 0DE0     		b	.L118
 1487              	.LVL162:
 1488              	.L116:
 1489              		.loc 2 229 0
 1490 0080 324C     		ldr	r4, .L133+36
 1491 0082 9A00     		lsl	r2, r3, #2
 1492 0084 1159     		ldr	r1, [r2, r4]
 1493 0086 5B02     		lsl	r3, r3, #9
 1494              	.LVL163:
 1495 0088 5B18     		add	r3, r3, r1
 1496 008a 3149     		ldr	r1, .L133+40
 1497 008c 595C     		ldrb	r1, [r3, r1]
 1498              	.LVL164:
 1499              		.loc 2 230 0
 1500 008e 1359     		ldr	r3, [r2, r4]
 1501 0090 0133     		add	r3, r3, #1
 1502 0092 1351     		str	r3, [r2, r4]
 1503              	.LVL165:
 1504              		.loc 2 231 0
 1505 0094 2A4B     		ldr	r3, .L133+24
 1506 0096 D458     		ldr	r4, [r2, r3]
 1507 0098 013C     		sub	r4, r4, #1
 1508 009a D450     		str	r4, [r2, r3]
 1509              	.LVL166:
 1510              	.L118:
 1511              	.LBE230:
 1512              	.LBE229:
 1513              		.loc 1 287 0
 1514 009c 437B     		ldrb	r3, [r0, #13]
 1515              	.LVL167:
 1516              	.LBB231:
 1517              	.LBB232:
 1518              		.loc 3 278 0
 1519 009e 1A1C     		mov	r2, r3
 1520 00a0 2248     		ldr	r0, .L133+4
 1521              	.LVL168:
 1522 00a2 C05C     		ldrb	r0, [r0, r3]
 1523 00a4 0028     		cmp	r0, #0
 1524 00a6 07D1     		bne	.L119
 1525              	.LVL169:
 1526              	.L124:
 1527              		.loc 3 279 0
 1528 00a8 9400     		lsl	r4, r2, #2
 1529 00aa 244D     		ldr	r5, .L133+20
 1530 00ac 6459     		ldr	r4, [r4, r5]
 1531              	.LBE232:
 1532              	.LBE231:
 1533              		.loc 1 287 0
 1534 00ae A4B2     		uxth	r4, r4
 1535 00b0 002C     		cmp	r4, #0
 1536 00b2 09D0     		beq	.L120
 1537 00b4 081C     		mov	r0, r1
 1538 00b6 27E0     		b	.L111
 1539              	.LVL170:
ARM GAS  /tmp/ccvZzf3e.s 			page 28


 1540              	.L119:
 1541              	.LBB236:
 1542              	.LBB233:
 1543              		.loc 3 282 0
 1544 00b8 9400     		lsl	r4, r2, #2
 1545 00ba 214D     		ldr	r5, .L133+24
 1546 00bc 6459     		ldr	r4, [r4, r5]
 1547              	.LBE233:
 1548              	.LBE236:
 1549              		.loc 1 287 0
 1550 00be A4B2     		uxth	r4, r4
 1551 00c0 002C     		cmp	r4, #0
 1552 00c2 06D0     		beq	.L121
 1553 00c4 081C     		mov	r0, r1
 1554 00c6 1FE0     		b	.L111
 1555              	.L120:
 1556              	.LVL171:
 1557              	.LBB237:
 1558              	.LBB238:
 1559              		.loc 3 344 0
 1560 00c8 9200     		lsl	r2, r2, #2
 1561 00ca 0025     		mov	r5, #0
 1562 00cc 1D4C     		ldr	r4, .L133+28
 1563 00ce 1551     		str	r5, [r2, r4]
 1564 00d0 03E0     		b	.L122
 1565              	.LVL172:
 1566              	.L121:
 1567              		.loc 3 346 0
 1568 00d2 9200     		lsl	r2, r2, #2
 1569 00d4 0025     		mov	r5, #0
 1570 00d6 1D4C     		ldr	r4, .L133+36
 1571 00d8 1551     		str	r5, [r2, r4]
 1572              	.LVL173:
 1573              	.L122:
 1574              		.loc 3 348 0
 1575 00da 002B     		cmp	r3, #0
 1576 00dc 01D0     		beq	.L129
 1577 00de 144B     		ldr	r3, .L133+8
 1578 00e0 00E0     		b	.L123
 1579              	.L129:
 1580 00e2 144B     		ldr	r3, .L133+12
 1581              	.L123:
 1582 00e4 1B5C     		ldrb	r3, [r3, r0]
 1583 00e6 DB00     		lsl	r3, r3, #3
 1584 00e8 134A     		ldr	r2, .L133+16
 1585 00ea D318     		add	r3, r2, r3
 1586 00ec 5888     		ldrh	r0, [r3, #2]
 1587 00ee 800A     		lsr	r0, r0, #10
 1588 00f0 8002     		lsl	r0, r0, #10
 1589 00f2 8022     		mov	r2, #128
 1590 00f4 9200     		lsl	r2, r2, #2
 1591 00f6 0243     		orr	r2, r0
 1592 00f8 5A80     		strh	r2, [r3, #2]
 1593 00fa 081C     		mov	r0, r1
 1594 00fc 04E0     		b	.L111
 1595              	.LVL174:
 1596              	.L125:
ARM GAS  /tmp/ccvZzf3e.s 			page 29


 1597              	.LBE238:
 1598              	.LBE237:
 1599              		.loc 1 274 0
 1600 00fe 1548     		ldr	r0, .L133+44
 1601              	.LVL175:
 1602 0100 02E0     		b	.L111
 1603              	.LVL176:
 1604              	.L126:
 1605 0102 1448     		ldr	r0, .L133+44
 1606              	.LVL177:
 1607 0104 00E0     		b	.L111
 1608              	.LVL178:
 1609              	.L128:
 1610              		.loc 1 276 0
 1611 0106 1348     		ldr	r0, .L133+44
 1612              	.LVL179:
 1613              	.L111:
 1614 0108 00B2     		sxth	r0, r0
 1615 010a 0BE0     		b	.L132
 1616              	.LVL180:
 1617              	.L130:
 1618              		.loc 1 287 0
 1619 010c 437B     		ldrb	r3, [r0, #13]
 1620              	.LVL181:
 1621              	.LBB239:
 1622              	.LBB234:
 1623              		.loc 3 278 0
 1624 010e 1A1C     		mov	r2, r3
 1625 0110 0649     		ldr	r1, .L133+4
 1626 0112 C85C     		ldrb	r0, [r1, r3]
 1627              	.LVL182:
 1628              	.LBE234:
 1629              	.LBE239:
 1630              		.loc 1 276 0
 1631 0114 0F49     		ldr	r1, .L133+44
 1632 0116 C7E7     		b	.L124
 1633              	.LVL183:
 1634              	.L131:
 1635              		.loc 1 287 0
 1636 0118 437B     		ldrb	r3, [r0, #13]
 1637              	.LVL184:
 1638              	.LBB240:
 1639              	.LBB235:
 1640              		.loc 3 278 0
 1641 011a 1A1C     		mov	r2, r3
 1642 011c 0349     		ldr	r1, .L133+4
 1643 011e C85C     		ldrb	r0, [r1, r3]
 1644              	.LVL185:
 1645              	.LBE235:
 1646              	.LBE240:
 1647              		.loc 1 276 0
 1648 0120 0C49     		ldr	r1, .L133+44
 1649 0122 C9E7     		b	.L119
 1650              	.LVL186:
 1651              	.L132:
 1652              		.loc 1 292 0
 1653              		@ sp needed
ARM GAS  /tmp/ccvZzf3e.s 			page 30


 1654 0124 30BD     		pop	{r4, r5, pc}
 1655              	.L134:
 1656 0126 C046     		.align	2
 1657              	.L133:
 1658 0128 00000000 		.word	USB_DeviceState
 1659 012c 00000000 		.word	endpointselected
 1660 0130 00000000 		.word	endpointhandle1
 1661 0134 00000000 		.word	endpointhandle0
 1662 0138 00000000 		.word	EndPointCmdStsList
 1663 013c 00000000 		.word	usb_data_buffer_size
 1664 0140 00000000 		.word	usb_data_buffer_OUT_size
 1665 0144 00000000 		.word	usb_data_buffer_index
 1666 0148 00000000 		.word	usb_data_buffer
 1667 014c 00000000 		.word	usb_data_buffer_OUT_index
 1668 0150 00000000 		.word	usb_data_buffer_OUT
 1669 0154 FFFF0000 		.word	65535
 1670              		.cfi_endproc
 1671              	.LFE106:
 1672              		.size	CDC_Device_ReceiveByte, .-CDC_Device_ReceiveByte
 1673              		.section	.text.CDC_Device_SendControlLineStateChange,"ax",%progbits
 1674              		.align	2
 1675              		.global	CDC_Device_SendControlLineStateChange
 1676              		.code	16
 1677              		.thumb_func
 1678              		.type	CDC_Device_SendControlLineStateChange, %function
 1679              	CDC_Device_SendControlLineStateChange:
 1680              	.LFB107:
 1681              		.loc 1 295 0
 1682              		.cfi_startproc
 1683              	.LVL187:
 1684 0000 30B5     		push	{r4, r5, lr}
 1685              		.cfi_def_cfa_offset 12
 1686              		.cfi_offset 4, -12
 1687              		.cfi_offset 5, -8
 1688              		.cfi_offset 14, -4
 1689 0002 83B0     		sub	sp, sp, #12
 1690              		.cfi_def_cfa_offset 24
 1691 0004 041C     		mov	r4, r0
 1692              		.loc 1 296 0
 1693 0006 437B     		ldrb	r3, [r0, #13]
 1694 0008 204A     		ldr	r2, .L143
 1695 000a D25C     		ldrb	r2, [r2, r3]
 1696 000c 042A     		cmp	r2, #4
 1697 000e 3BD1     		bne	.L135
 1698              		.loc 1 296 0 is_stmt 0 discriminator 1
 1699 0010 418A     		ldrh	r1, [r0, #18]
 1700 0012 828A     		ldrh	r2, [r0, #20]
 1701 0014 1204     		lsl	r2, r2, #16
 1702 0016 0A43     		orr	r2, r1
 1703 0018 36D0     		beq	.L135
 1704              		.loc 1 299 0 is_stmt 1
 1705 001a 427A     		ldrb	r2, [r0, #9]
 1706              	.LVL188:
 1707              	.LBB241:
 1708              	.LBB242:
 1709              		.loc 2 205 0
 1710 001c 1C4D     		ldr	r5, .L143+4
ARM GAS  /tmp/ccvZzf3e.s 			page 31


 1711 001e EA54     		strb	r2, [r5, r3]
 1712              	.LVL189:
 1713              	.LBE242:
 1714              	.LBE241:
 1715              		.loc 1 301 0
 1716 0020 6846     		mov	r0, sp
 1717              	.LVL190:
 1718 0022 1C49     		ldr	r1, .L143+8
 1719 0024 0822     		mov	r2, #8
 1720              	.LVL191:
 1721 0026 FFF7FEFF 		bl	memcpy
 1722              	.LVL192:
 1723              		.loc 1 310 0
 1724 002a 607B     		ldrb	r0, [r4, #13]
 1725 002c 6946     		mov	r1, sp
 1726 002e 0822     		mov	r2, #8
 1727 0030 0023     		mov	r3, #0
 1728 0032 FFF7FEFF 		bl	Endpoint_Write_Stream_LE
 1729              	.LVL193:
 1730              		.loc 1 311 0
 1731 0036 607B     		ldrb	r0, [r4, #13]
 1732 0038 211C     		mov	r1, r4
 1733 003a 1031     		add	r1, r1, #16
 1734 003c 0222     		mov	r2, #2
 1735 003e 0023     		mov	r3, #0
 1736 0040 FFF7FEFF 		bl	Endpoint_Write_Stream_LE
 1737              	.LVL194:
 1738              		.loc 1 314 0
 1739 0044 617B     		ldrb	r1, [r4, #13]
 1740              	.LVL195:
 1741              	.LBB243:
 1742              	.LBB244:
 1743              		.loc 3 327 0
 1744 0046 6B5C     		ldrb	r3, [r5, r1]
 1745 0048 002B     		cmp	r3, #0
 1746 004a 07D0     		beq	.L137
 1747 004c 0029     		cmp	r1, #0
 1748 004e 01D0     		beq	.L142
 1749 0050 114A     		ldr	r2, .L143+12
 1750 0052 00E0     		b	.L138
 1751              	.L142:
 1752 0054 114A     		ldr	r2, .L143+16
 1753              	.L138:
 1754 0056 D05C     		ldrb	r0, [r2, r3]
 1755              	.LVL196:
 1756              		.loc 3 328 0
 1757 0058 0128     		cmp	r0, #1
 1758 005a 0BD1     		bne	.L139
 1759              	.LVL197:
 1760              	.L137:
 1761              		.loc 3 329 0
 1762 005c 104C     		ldr	r4, .L143+20
 1763              	.LVL198:
 1764 005e 8D00     		lsl	r5, r1, #2
 1765 0060 2A59     		ldr	r2, [r5, r4]
 1766 0062 4902     		lsl	r1, r1, #9
 1767              	.LVL199:
ARM GAS  /tmp/ccvZzf3e.s 			page 32


 1768 0064 0F4B     		ldr	r3, .L143+24
 1769 0066 C918     		add	r1, r1, r3
 1770 0068 0120     		mov	r0, #1
 1771 006a FFF7FEFF 		bl	DcdDataTransfer
 1772              	.LVL200:
 1773              		.loc 3 330 0
 1774 006e 0023     		mov	r3, #0
 1775 0070 2B51     		str	r3, [r5, r4]
 1776 0072 09E0     		b	.L135
 1777              	.LVL201:
 1778              	.L139:
 1779              		.loc 3 333 0
 1780 0074 0C4C     		ldr	r4, .L143+28
 1781              	.LVL202:
 1782 0076 8D00     		lsl	r5, r1, #2
 1783 0078 2A59     		ldr	r2, [r5, r4]
 1784              	.LVL203:
 1785 007a 4902     		lsl	r1, r1, #9
 1786              	.LVL204:
 1787 007c 0B4B     		ldr	r3, .L143+32
 1788 007e C918     		add	r1, r1, r3
 1789 0080 FFF7FEFF 		bl	DcdDataTransfer
 1790              	.LVL205:
 1791              		.loc 3 334 0
 1792 0084 0023     		mov	r3, #0
 1793 0086 2B51     		str	r3, [r5, r4]
 1794              	.L135:
 1795              	.LBE244:
 1796              	.LBE243:
 1797              		.loc 1 315 0
 1798 0088 03B0     		add	sp, sp, #12
 1799              		@ sp needed
 1800 008a 30BD     		pop	{r4, r5, pc}
 1801              	.L144:
 1802              		.align	2
 1803              	.L143:
 1804 008c 00000000 		.word	USB_DeviceState
 1805 0090 00000000 		.word	endpointselected
 1806 0094 00000000 		.word	.LANCHOR0
 1807 0098 00000000 		.word	endpointhandle1
 1808 009c 00000000 		.word	endpointhandle0
 1809 00a0 00000000 		.word	usb_data_buffer_index
 1810 00a4 00000000 		.word	usb_data_buffer
 1811 00a8 00000000 		.word	usb_data_buffer_IN_index
 1812 00ac 00000000 		.word	usb_data_buffer_IN
 1813              		.cfi_endproc
 1814              	.LFE107:
 1815              		.size	CDC_Device_SendControlLineStateChange, .-CDC_Device_SendControlLineStateChange
 1816              		.section	.text.CDC_Device_Event_Stub,"ax",%progbits
 1817              		.align	2
 1818              		.global	CDC_Device_Event_Stub
 1819              		.code	16
 1820              		.thumb_func
 1821              		.type	CDC_Device_Event_Stub, %function
 1822              	CDC_Device_Event_Stub:
 1823              	.LFB108:
 1824              		.loc 1 366 0
ARM GAS  /tmp/ccvZzf3e.s 			page 33


 1825              		.cfi_startproc
 1826              	.LVL206:
 1827              		.loc 1 368 0
 1828              		@ sp needed
 1829 0000 7047     		bx	lr
 1830              		.cfi_endproc
 1831              	.LFE108:
 1832              		.size	CDC_Device_Event_Stub, .-CDC_Device_Event_Stub
 1833              		.weak	EVENT_CDC_Device_LineEncodingChanged
 1834              		.thumb_set EVENT_CDC_Device_LineEncodingChanged,CDC_Device_Event_Stub
 1835              		.weak	EVENT_CDC_Device_ControLineStateChanged
 1836              		.thumb_set EVENT_CDC_Device_ControLineStateChanged,CDC_Device_Event_Stub
 1837 0002 C046     		.section	.text.CDC_Device_Event_Stub2,"ax",%progbits
 1838              		.align	2
 1839              		.global	CDC_Device_Event_Stub2
 1840              		.code	16
 1841              		.thumb_func
 1842              		.type	CDC_Device_Event_Stub2, %function
 1843              	CDC_Device_Event_Stub2:
 1844              	.LFB109:
 1845              		.loc 1 371 0
 1846              		.cfi_startproc
 1847              	.LVL207:
 1848              		.loc 1 372 0
 1849              		@ sp needed
 1850 0000 7047     		bx	lr
 1851              		.cfi_endproc
 1852              	.LFE109:
 1853              		.size	CDC_Device_Event_Stub2, .-CDC_Device_Event_Stub2
 1854              		.weak	EVENT_CDC_Device_BreakSent
 1855              		.thumb_set EVENT_CDC_Device_BreakSent,CDC_Device_Event_Stub2
 1856 0002 C046     		.section	.text.CDC_Device_ProcessControlRequest,"ax",%progbits
 1857              		.align	2
 1858              		.global	CDC_Device_ProcessControlRequest
 1859              		.code	16
 1860              		.thumb_func
 1861              		.type	CDC_Device_ProcessControlRequest, %function
 1862              	CDC_Device_ProcessControlRequest:
 1863              	.LFB98:
 1864              		.loc 1 44 0
 1865              		.cfi_startproc
 1866              	.LVL208:
 1867 0000 F8B5     		push	{r3, r4, r5, r6, r7, lr}
 1868              		.cfi_def_cfa_offset 24
 1869              		.cfi_offset 3, -24
 1870              		.cfi_offset 4, -20
 1871              		.cfi_offset 5, -16
 1872              		.cfi_offset 6, -12
 1873              		.cfi_offset 7, -8
 1874              		.cfi_offset 14, -4
 1875 0002 041C     		mov	r4, r0
 1876              	.LVL209:
 1877              	.LBB245:
 1878              	.LBB246:
 1879              		.loc 3 310 0
 1880 0004 CF4B     		ldr	r3, .L201
 1881 0006 1B68     		ldr	r3, [r3]
ARM GAS  /tmp/ccvZzf3e.s 			page 34


 1882              	.LBE246:
 1883              	.LBE245:
 1884              		.loc 1 45 0
 1885 0008 DA05     		lsl	r2, r3, #23
 1886 000a 00D4     		bmi	.LCB2071
 1887 000c AFE2     		b	.L147	@long jump
 1888              	.LCB2071:
 1889              		.loc 1 48 0
 1890 000e CE4B     		ldr	r3, .L201+4
 1891 0010 1979     		ldrb	r1, [r3, #4]
 1892 0012 5B79     		ldrb	r3, [r3, #5]
 1893 0014 1B02     		lsl	r3, r3, #8
 1894 0016 0278     		ldrb	r2, [r0]
 1895 0018 0B43     		orr	r3, r1
 1896 001a 9A42     		cmp	r2, r3
 1897 001c 00D0     		beq	.LCB2081
 1898 001e A6E2     		b	.L147	@long jump
 1899              	.LCB2081:
 1900              		.loc 1 51 0
 1901 0020 C94B     		ldr	r3, .L201+4
 1902 0022 5B78     		ldrb	r3, [r3, #1]
 1903 0024 212B     		cmp	r3, #33
 1904 0026 0DD0     		beq	.L149
 1905 0028 DAB2     		uxtb	r2, r3
 1906 002a 212A     		cmp	r2, #33
 1907 002c 03D8     		bhi	.L150
 1908 002e 202B     		cmp	r3, #32
 1909 0030 00D1     		bne	.LCB2092
 1910 0032 10E1     		b	.L151	@long jump
 1911              	.LCB2092:
 1912 0034 9BE2     		b	.L147
 1913              	.L150:
 1914 0036 222B     		cmp	r3, #34
 1915 0038 00D1     		bne	.LCB2099
 1916 003a 65E2     		b	.L152	@long jump
 1917              	.LCB2099:
 1918 003c 232B     		cmp	r3, #35
 1919 003e 00D1     		bne	.LCB2102
 1920 0040 7EE2     		b	.L153	@long jump
 1921              	.LCB2102:
 1922 0042 94E2     		b	.L147
 1923              	.L149:
 1924              		.loc 1 54 0
 1925 0044 C04B     		ldr	r3, .L201+4
 1926 0046 1B78     		ldrb	r3, [r3]
 1927 0048 A12B     		cmp	r3, #161
 1928 004a 00D0     		beq	.LCB2110
 1929 004c 8FE2     		b	.L147	@long jump
 1930              	.LCB2110:
 1931              		.loc 1 56 0
 1932 004e 427B     		ldrb	r2, [r0, #13]
 1933              	.LVL210:
 1934              	.LBB247:
 1935              	.LBB248:
 1936              		.loc 3 318 0
 1937 0050 BC4B     		ldr	r3, .L201
 1938 0052 1868     		ldr	r0, [r3]
ARM GAS  /tmp/ccvZzf3e.s 			page 35


 1939              	.LVL211:
 1940 0054 8021     		mov	r1, #128
 1941 0056 4900     		lsl	r1, r1, #1
 1942 0058 0143     		orr	r1, r0
 1943 005a 1960     		str	r1, [r3]
 1944              	.LVL212:
 1945              		.loc 3 319 0
 1946 005c 9200     		lsl	r2, r2, #2
 1947              	.LVL213:
 1948 005e 0021     		mov	r1, #0
 1949 0060 BA4B     		ldr	r3, .L201+8
 1950 0062 D150     		str	r1, [r2, r3]
 1951              	.LBE248:
 1952              	.LBE247:
 1953              		.loc 1 58 0
 1954 0064 617B     		ldrb	r1, [r4, #13]
 1955              	.LBB249:
 1956              	.LBB250:
 1957              		.loc 3 292 0
 1958 0066 BA4B     		ldr	r3, .L201+12
 1959 0068 5A5C     		ldrb	r2, [r3, r1]
 1960 006a 0029     		cmp	r1, #0
 1961 006c 01D0     		beq	.L154
 1962 006e B94E     		ldr	r6, .L201+16
 1963 0070 00E0     		b	.L155
 1964              	.L154:
 1965 0072 B94E     		ldr	r6, .L201+20
 1966              	.L155:
 1967 0074 B618     		add	r6, r6, r2
 1968              		.loc 3 291 0
 1969 0076 0125     		mov	r5, #1
 1970              		.loc 3 293 0
 1971 0078 B848     		ldr	r0, .L201+24
 1972              	.L158:
 1973              	.LVL214:
 1974              		.loc 3 291 0 discriminator 1
 1975 007a 2B1C     		mov	r3, r5
 1976 007c 002A     		cmp	r2, #0
 1977 007e 00D0     		beq	.L156
 1978              		.loc 3 291 0 is_stmt 0
 1979 0080 3378     		ldrb	r3, [r6]
 1980              	.L156:
 1981              	.LVL215:
 1982              		.loc 3 293 0 is_stmt 1
 1983 0082 DB00     		lsl	r3, r3, #3
 1984              	.LVL216:
 1985 0084 C318     		add	r3, r0, r3
 1986 0086 5B88     		ldrh	r3, [r3, #2]
 1987 0088 DB0B     		lsr	r3, r3, #15
 1988              	.LBE250:
 1989              	.LBE249:
 1990              		.loc 1 58 0
 1991 008a 012B     		cmp	r3, #1
 1992 008c F5D0     		beq	.L158
 1993              		.loc 1 60 0
 1994 008e 608A     		ldrh	r0, [r4, #18]
 1995 0090 A38A     		ldrh	r3, [r4, #20]
ARM GAS  /tmp/ccvZzf3e.s 			page 36


 1996 0092 1B04     		lsl	r3, r3, #16
 1997 0094 0343     		orr	r3, r0
 1998              	.LVL217:
 1999              	.LBB251:
 2000              	.LBB252:
 2001              		.loc 2 477 0
 2002 0096 D8B2     		uxtb	r0, r3
 2003              	.LVL218:
 2004              	.LBB253:
 2005              	.LBB254:
 2006              		.loc 2 284 0
 2007 0098 002A     		cmp	r2, #0
 2008 009a 0AD1     		bne	.L159
 2009              		.loc 2 285 0
 2010 009c AB4A     		ldr	r2, .L201+8
 2011 009e 8D00     		lsl	r5, r1, #2
 2012 00a0 AE58     		ldr	r6, [r5, r2]
 2013 00a2 4F02     		lsl	r7, r1, #9
 2014 00a4 BF19     		add	r7, r7, r6
 2015 00a6 AE4E     		ldr	r6, .L201+28
 2016 00a8 B855     		strb	r0, [r7, r6]
 2017              	.LVL219:
 2018              		.loc 2 286 0
 2019 00aa A858     		ldr	r0, [r5, r2]
 2020 00ac 0130     		add	r0, r0, #1
 2021 00ae A850     		str	r0, [r5, r2]
 2022 00b0 09E0     		b	.L160
 2023              	.LVL220:
 2024              	.L159:
 2025              		.loc 2 289 0
 2026 00b2 AC4A     		ldr	r2, .L201+32
 2027 00b4 8D00     		lsl	r5, r1, #2
 2028 00b6 AE58     		ldr	r6, [r5, r2]
 2029 00b8 4F02     		lsl	r7, r1, #9
 2030 00ba BF19     		add	r7, r7, r6
 2031 00bc AA4E     		ldr	r6, .L201+36
 2032 00be B855     		strb	r0, [r7, r6]
 2033              	.LVL221:
 2034              		.loc 2 290 0
 2035 00c0 A858     		ldr	r0, [r5, r2]
 2036 00c2 0130     		add	r0, r0, #1
 2037 00c4 A850     		str	r0, [r5, r2]
 2038              	.L160:
 2039              	.LBE254:
 2040              	.LBE253:
 2041              		.loc 2 478 0
 2042 00c6 1A0A     		lsr	r2, r3, #8
 2043 00c8 D0B2     		uxtb	r0, r2
 2044              	.LVL222:
 2045              	.LBB255:
 2046              	.LBB256:
 2047              		.loc 2 284 0
 2048 00ca A14A     		ldr	r2, .L201+12
 2049              	.LVL223:
 2050 00cc 525C     		ldrb	r2, [r2, r1]
 2051 00ce 002A     		cmp	r2, #0
 2052 00d0 0AD1     		bne	.L161
ARM GAS  /tmp/ccvZzf3e.s 			page 37


 2053              		.loc 2 285 0
 2054 00d2 9E4A     		ldr	r2, .L201+8
 2055 00d4 8D00     		lsl	r5, r1, #2
 2056 00d6 AE58     		ldr	r6, [r5, r2]
 2057 00d8 4F02     		lsl	r7, r1, #9
 2058 00da BF19     		add	r7, r7, r6
 2059 00dc A04E     		ldr	r6, .L201+28
 2060 00de B855     		strb	r0, [r7, r6]
 2061              		.loc 2 286 0
 2062 00e0 A858     		ldr	r0, [r5, r2]
 2063              	.LVL224:
 2064 00e2 0130     		add	r0, r0, #1
 2065 00e4 A850     		str	r0, [r5, r2]
 2066 00e6 09E0     		b	.L162
 2067              	.L161:
 2068              		.loc 2 289 0
 2069 00e8 9E4A     		ldr	r2, .L201+32
 2070 00ea 8D00     		lsl	r5, r1, #2
 2071 00ec AE58     		ldr	r6, [r5, r2]
 2072 00ee 4F02     		lsl	r7, r1, #9
 2073 00f0 BF19     		add	r7, r7, r6
 2074 00f2 9D4E     		ldr	r6, .L201+36
 2075 00f4 B855     		strb	r0, [r7, r6]
 2076              		.loc 2 290 0
 2077 00f6 A858     		ldr	r0, [r5, r2]
 2078 00f8 0130     		add	r0, r0, #1
 2079 00fa A850     		str	r0, [r5, r2]
 2080              	.L162:
 2081              	.LBE256:
 2082              	.LBE255:
 2083              		.loc 2 479 0
 2084 00fc 1A0C     		lsr	r2, r3, #16
 2085 00fe D0B2     		uxtb	r0, r2
 2086              	.LVL225:
 2087              	.LBB257:
 2088              	.LBB258:
 2089              		.loc 2 284 0
 2090 0100 934A     		ldr	r2, .L201+12
 2091              	.LVL226:
 2092 0102 525C     		ldrb	r2, [r2, r1]
 2093 0104 002A     		cmp	r2, #0
 2094 0106 0AD1     		bne	.L163
 2095              		.loc 2 285 0
 2096 0108 904A     		ldr	r2, .L201+8
 2097 010a 8D00     		lsl	r5, r1, #2
 2098 010c AE58     		ldr	r6, [r5, r2]
 2099 010e 4F02     		lsl	r7, r1, #9
 2100 0110 BF19     		add	r7, r7, r6
 2101 0112 934E     		ldr	r6, .L201+28
 2102 0114 B855     		strb	r0, [r7, r6]
 2103              		.loc 2 286 0
 2104 0116 A858     		ldr	r0, [r5, r2]
 2105              	.LVL227:
 2106 0118 0130     		add	r0, r0, #1
 2107 011a A850     		str	r0, [r5, r2]
 2108 011c 09E0     		b	.L164
 2109              	.L163:
ARM GAS  /tmp/ccvZzf3e.s 			page 38


 2110              		.loc 2 289 0
 2111 011e 914A     		ldr	r2, .L201+32
 2112 0120 8D00     		lsl	r5, r1, #2
 2113 0122 AE58     		ldr	r6, [r5, r2]
 2114 0124 4F02     		lsl	r7, r1, #9
 2115 0126 BF19     		add	r7, r7, r6
 2116 0128 8F4E     		ldr	r6, .L201+36
 2117 012a B855     		strb	r0, [r7, r6]
 2118              		.loc 2 290 0
 2119 012c A858     		ldr	r0, [r5, r2]
 2120 012e 0130     		add	r0, r0, #1
 2121 0130 A850     		str	r0, [r5, r2]
 2122              	.L164:
 2123              	.LBE258:
 2124              	.LBE257:
 2125              		.loc 2 480 0
 2126 0132 1B0E     		lsr	r3, r3, #24
 2127              	.LVL228:
 2128              	.LBB259:
 2129              	.LBB260:
 2130              		.loc 2 284 0
 2131 0134 864A     		ldr	r2, .L201+12
 2132 0136 525C     		ldrb	r2, [r2, r1]
 2133 0138 002A     		cmp	r2, #0
 2134 013a 0AD1     		bne	.L165
 2135              		.loc 2 285 0
 2136 013c 834A     		ldr	r2, .L201+8
 2137 013e 8800     		lsl	r0, r1, #2
 2138 0140 8558     		ldr	r5, [r0, r2]
 2139 0142 4902     		lsl	r1, r1, #9
 2140 0144 4919     		add	r1, r1, r5
 2141 0146 864D     		ldr	r5, .L201+28
 2142 0148 4B55     		strb	r3, [r1, r5]
 2143              		.loc 2 286 0
 2144 014a 8358     		ldr	r3, [r0, r2]
 2145              	.LVL229:
 2146 014c 0133     		add	r3, r3, #1
 2147 014e 8350     		str	r3, [r0, r2]
 2148 0150 09E0     		b	.L166
 2149              	.LVL230:
 2150              	.L165:
 2151              		.loc 2 289 0
 2152 0152 844A     		ldr	r2, .L201+32
 2153 0154 8800     		lsl	r0, r1, #2
 2154 0156 8558     		ldr	r5, [r0, r2]
 2155 0158 4902     		lsl	r1, r1, #9
 2156 015a 4919     		add	r1, r1, r5
 2157 015c 824D     		ldr	r5, .L201+36
 2158 015e 4B55     		strb	r3, [r1, r5]
 2159              		.loc 2 290 0
 2160 0160 8358     		ldr	r3, [r0, r2]
 2161              	.LVL231:
 2162 0162 0133     		add	r3, r3, #1
 2163 0164 8350     		str	r3, [r0, r2]
 2164              	.L166:
 2165              	.LBE260:
 2166              	.LBE259:
ARM GAS  /tmp/ccvZzf3e.s 			page 39


 2167              	.LBE252:
 2168              	.LBE251:
 2169              		.loc 1 61 0
 2170 0166 A17D     		ldrb	r1, [r4, #22]
 2171              	.LVL232:
 2172              	.LBB261:
 2173              	.LBB262:
 2174              		.loc 2 284 0
 2175 0168 637B     		ldrb	r3, [r4, #13]
 2176 016a 794A     		ldr	r2, .L201+12
 2177 016c D25C     		ldrb	r2, [r2, r3]
 2178 016e 002A     		cmp	r2, #0
 2179 0170 0AD1     		bne	.L167
 2180              		.loc 2 285 0
 2181 0172 764A     		ldr	r2, .L201+8
 2182 0174 9800     		lsl	r0, r3, #2
 2183 0176 8558     		ldr	r5, [r0, r2]
 2184 0178 5B02     		lsl	r3, r3, #9
 2185 017a 5B19     		add	r3, r3, r5
 2186 017c 784D     		ldr	r5, .L201+28
 2187 017e 5955     		strb	r1, [r3, r5]
 2188              	.LVL233:
 2189              		.loc 2 286 0
 2190 0180 8358     		ldr	r3, [r0, r2]
 2191 0182 0133     		add	r3, r3, #1
 2192 0184 8350     		str	r3, [r0, r2]
 2193 0186 09E0     		b	.L168
 2194              	.LVL234:
 2195              	.L167:
 2196              		.loc 2 289 0
 2197 0188 764A     		ldr	r2, .L201+32
 2198 018a 9800     		lsl	r0, r3, #2
 2199 018c 8558     		ldr	r5, [r0, r2]
 2200 018e 5B02     		lsl	r3, r3, #9
 2201 0190 5B19     		add	r3, r3, r5
 2202 0192 754D     		ldr	r5, .L201+36
 2203 0194 5955     		strb	r1, [r3, r5]
 2204              	.LVL235:
 2205              		.loc 2 290 0
 2206 0196 8358     		ldr	r3, [r0, r2]
 2207 0198 0133     		add	r3, r3, #1
 2208 019a 8350     		str	r3, [r0, r2]
 2209              	.L168:
 2210              	.LBE262:
 2211              	.LBE261:
 2212              		.loc 1 62 0
 2213 019c E17D     		ldrb	r1, [r4, #23]
 2214              	.LVL236:
 2215              	.LBB263:
 2216              	.LBB264:
 2217              		.loc 2 284 0
 2218 019e 637B     		ldrb	r3, [r4, #13]
 2219 01a0 6B4A     		ldr	r2, .L201+12
 2220 01a2 D25C     		ldrb	r2, [r2, r3]
 2221 01a4 002A     		cmp	r2, #0
 2222 01a6 0AD1     		bne	.L169
 2223              		.loc 2 285 0
ARM GAS  /tmp/ccvZzf3e.s 			page 40


 2224 01a8 684A     		ldr	r2, .L201+8
 2225 01aa 9800     		lsl	r0, r3, #2
 2226 01ac 8558     		ldr	r5, [r0, r2]
 2227 01ae 5B02     		lsl	r3, r3, #9
 2228 01b0 5B19     		add	r3, r3, r5
 2229 01b2 6B4D     		ldr	r5, .L201+28
 2230 01b4 5955     		strb	r1, [r3, r5]
 2231              	.LVL237:
 2232              		.loc 2 286 0
 2233 01b6 8358     		ldr	r3, [r0, r2]
 2234 01b8 0133     		add	r3, r3, #1
 2235 01ba 8350     		str	r3, [r0, r2]
 2236 01bc 09E0     		b	.L170
 2237              	.LVL238:
 2238              	.L169:
 2239              		.loc 2 289 0
 2240 01be 694A     		ldr	r2, .L201+32
 2241 01c0 9800     		lsl	r0, r3, #2
 2242 01c2 8558     		ldr	r5, [r0, r2]
 2243 01c4 5B02     		lsl	r3, r3, #9
 2244 01c6 5B19     		add	r3, r3, r5
 2245 01c8 674D     		ldr	r5, .L201+36
 2246 01ca 5955     		strb	r1, [r3, r5]
 2247              	.LVL239:
 2248              		.loc 2 290 0
 2249 01cc 8358     		ldr	r3, [r0, r2]
 2250 01ce 0133     		add	r3, r3, #1
 2251 01d0 8350     		str	r3, [r0, r2]
 2252              	.L170:
 2253              	.LBE264:
 2254              	.LBE263:
 2255              		.loc 1 63 0
 2256 01d2 217E     		ldrb	r1, [r4, #24]
 2257              	.LVL240:
 2258              	.LBB265:
 2259              	.LBB266:
 2260              		.loc 2 284 0
 2261 01d4 637B     		ldrb	r3, [r4, #13]
 2262 01d6 5E4A     		ldr	r2, .L201+12
 2263 01d8 D25C     		ldrb	r2, [r2, r3]
 2264 01da 002A     		cmp	r2, #0
 2265 01dc 0AD1     		bne	.L171
 2266              		.loc 2 285 0
 2267 01de 5B4A     		ldr	r2, .L201+8
 2268 01e0 9800     		lsl	r0, r3, #2
 2269 01e2 8558     		ldr	r5, [r0, r2]
 2270 01e4 5B02     		lsl	r3, r3, #9
 2271 01e6 5B19     		add	r3, r3, r5
 2272 01e8 5D4D     		ldr	r5, .L201+28
 2273 01ea 5955     		strb	r1, [r3, r5]
 2274              	.LVL241:
 2275              		.loc 2 286 0
 2276 01ec 8358     		ldr	r3, [r0, r2]
 2277 01ee 0133     		add	r3, r3, #1
 2278 01f0 8350     		str	r3, [r0, r2]
 2279 01f2 09E0     		b	.L172
 2280              	.LVL242:
ARM GAS  /tmp/ccvZzf3e.s 			page 41


 2281              	.L171:
 2282              		.loc 2 289 0
 2283 01f4 5B4A     		ldr	r2, .L201+32
 2284 01f6 9800     		lsl	r0, r3, #2
 2285 01f8 8558     		ldr	r5, [r0, r2]
 2286 01fa 5B02     		lsl	r3, r3, #9
 2287 01fc 5B19     		add	r3, r3, r5
 2288 01fe 5A4D     		ldr	r5, .L201+36
 2289 0200 5955     		strb	r1, [r3, r5]
 2290              	.LVL243:
 2291              		.loc 2 290 0
 2292 0202 8358     		ldr	r3, [r0, r2]
 2293 0204 0133     		add	r3, r3, #1
 2294 0206 8350     		str	r3, [r0, r2]
 2295              	.L172:
 2296              	.LBE266:
 2297              	.LBE265:
 2298              		.loc 1 65 0
 2299 0208 637B     		ldrb	r3, [r4, #13]
 2300              	.LVL244:
 2301              	.LBB267:
 2302              	.LBB268:
 2303              		.loc 3 327 0
 2304 020a 514A     		ldr	r2, .L201+12
 2305 020c D25C     		ldrb	r2, [r2, r3]
 2306 020e 002A     		cmp	r2, #0
 2307 0210 07D0     		beq	.L173
 2308 0212 002B     		cmp	r3, #0
 2309 0214 01D0     		beq	.L199
 2310 0216 4F49     		ldr	r1, .L201+16
 2311              	.LVL245:
 2312 0218 00E0     		b	.L174
 2313              	.LVL246:
 2314              	.L199:
 2315 021a 4F49     		ldr	r1, .L201+20
 2316              	.LVL247:
 2317              	.L174:
 2318 021c 885C     		ldrb	r0, [r1, r2]
 2319              	.LVL248:
 2320              		.loc 3 328 0
 2321 021e 0128     		cmp	r0, #1
 2322 0220 0BD1     		bne	.L175
 2323              	.LVL249:
 2324              	.L173:
 2325              		.loc 3 329 0
 2326 0222 4A4D     		ldr	r5, .L201+8
 2327 0224 9E00     		lsl	r6, r3, #2
 2328 0226 7259     		ldr	r2, [r6, r5]
 2329 0228 5B02     		lsl	r3, r3, #9
 2330 022a 4D49     		ldr	r1, .L201+28
 2331 022c 5918     		add	r1, r3, r1
 2332 022e 0120     		mov	r0, #1
 2333 0230 FFF7FEFF 		bl	DcdDataTransfer
 2334              	.LVL250:
 2335              		.loc 3 330 0
 2336 0234 0023     		mov	r3, #0
 2337 0236 7351     		str	r3, [r6, r5]
ARM GAS  /tmp/ccvZzf3e.s 			page 42


 2338 0238 09E0     		b	.L176
 2339              	.LVL251:
 2340              	.L175:
 2341              		.loc 3 333 0
 2342 023a 4A4D     		ldr	r5, .L201+32
 2343 023c 9E00     		lsl	r6, r3, #2
 2344 023e 7259     		ldr	r2, [r6, r5]
 2345              	.LVL252:
 2346 0240 5B02     		lsl	r3, r3, #9
 2347              	.LVL253:
 2348 0242 4949     		ldr	r1, .L201+36
 2349              	.LVL254:
 2350 0244 5918     		add	r1, r3, r1
 2351 0246 FFF7FEFF 		bl	DcdDataTransfer
 2352              	.LVL255:
 2353              		.loc 3 334 0
 2354 024a 0023     		mov	r3, #0
 2355 024c 7351     		str	r3, [r6, r5]
 2356              	.L176:
 2357              	.LBE268:
 2358              	.LBE267:
 2359              		.loc 1 66 0
 2360 024e 607B     		ldrb	r0, [r4, #13]
 2361 0250 FFF7FEFF 		bl	Endpoint_ClearStatusStage
 2362              	.LVL256:
 2363 0254 8BE1     		b	.L147
 2364              	.LVL257:
 2365              	.L151:
 2366              		.loc 1 71 0
 2367 0256 3C4B     		ldr	r3, .L201+4
 2368 0258 1B78     		ldrb	r3, [r3]
 2369 025a 212B     		cmp	r3, #33
 2370 025c 00D0     		beq	.LCB2586
 2371 025e 86E1     		b	.L147	@long jump
 2372              	.LCB2586:
 2373              		.loc 1 73 0
 2374 0260 427B     		ldrb	r2, [r0, #13]
 2375              	.LVL258:
 2376              	.LBB269:
 2377              	.LBB270:
 2378              		.loc 3 318 0
 2379 0262 384B     		ldr	r3, .L201
 2380 0264 1868     		ldr	r0, [r3]
 2381              	.LVL259:
 2382 0266 8021     		mov	r1, #128
 2383 0268 4900     		lsl	r1, r1, #1
 2384 026a 0143     		orr	r1, r0
 2385 026c 1960     		str	r1, [r3]
 2386              	.LVL260:
 2387              		.loc 3 319 0
 2388 026e 9200     		lsl	r2, r2, #2
 2389              	.LVL261:
 2390 0270 0021     		mov	r1, #0
 2391 0272 364B     		ldr	r3, .L201+8
 2392 0274 D150     		str	r1, [r2, r3]
 2393              	.LBE270:
 2394              	.LBE269:
ARM GAS  /tmp/ccvZzf3e.s 			page 43


 2395              		.loc 1 75 0
 2396 0276 627B     		ldrb	r2, [r4, #13]
 2397              	.LBB271:
 2398              	.LBB272:
 2399              		.loc 3 302 0
 2400 0278 354B     		ldr	r3, .L201+12
 2401 027a 9D5C     		ldrb	r5, [r3, r2]
 2402 027c 002A     		cmp	r2, #0
 2403 027e 01D0     		beq	.L177
 2404 0280 344B     		ldr	r3, .L201+16
 2405 0282 00E0     		b	.L178
 2406              	.L177:
 2407 0284 344B     		ldr	r3, .L201+20
 2408              	.L178:
 2409 0286 5B5D     		ldrb	r3, [r3, r5]
 2410 0288 DB00     		lsl	r3, r3, #3
 2411 028a 3448     		ldr	r0, .L201+24
 2412 028c C018     		add	r0, r0, r3
 2413              	.LBE272:
 2414              	.LBE271:
 2415              		.loc 1 75 0
 2416 028e 8021     		mov	r1, #128
 2417 0290 8900     		lsl	r1, r1, #2
 2418              	.L180:
 2419              	.LVL262:
 2420              	.LBB274:
 2421              	.LBB273:
 2422              		.loc 3 302 0 discriminator 1
 2423 0292 4388     		ldrh	r3, [r0, #2]
 2424 0294 9B05     		lsl	r3, r3, #22
 2425 0296 9B0D     		lsr	r3, r3, #22
 2426              	.LBE273:
 2427              	.LBE274:
 2428              		.loc 1 75 0 discriminator 1
 2429 0298 8B42     		cmp	r3, r1
 2430 029a FAD0     		beq	.L180
 2431              	.LVL263:
 2432              	.LBB275:
 2433              	.LBB276:
 2434              	.LBB277:
 2435              	.LBB278:
 2436              		.loc 2 223 0
 2437 029c 002D     		cmp	r5, #0
 2438 029e 0ED1     		bne	.L181
 2439              		.loc 2 224 0
 2440 02a0 2A48     		ldr	r0, .L201+8
 2441 02a2 9100     		lsl	r1, r2, #2
 2442 02a4 0B58     		ldr	r3, [r1, r0]
 2443 02a6 5502     		lsl	r5, r2, #9
 2444 02a8 ED18     		add	r5, r5, r3
 2445 02aa 2D4B     		ldr	r3, .L201+28
 2446 02ac EB5C     		ldrb	r3, [r5, r3]
 2447              	.LVL264:
 2448              		.loc 2 225 0
 2449 02ae 0D58     		ldr	r5, [r1, r0]
 2450              	.LVL265:
 2451 02b0 0135     		add	r5, r5, #1
ARM GAS  /tmp/ccvZzf3e.s 			page 44


 2452 02b2 0D50     		str	r5, [r1, r0]
 2453              	.LVL266:
 2454              		.loc 2 226 0
 2455 02b4 2D48     		ldr	r0, .L201+40
 2456 02b6 0D58     		ldr	r5, [r1, r0]
 2457 02b8 013D     		sub	r5, r5, #1
 2458 02ba 0D50     		str	r5, [r1, r0]
 2459 02bc 0DE0     		b	.L182
 2460              	.LVL267:
 2461              	.L181:
 2462              		.loc 2 229 0
 2463 02be 2C48     		ldr	r0, .L201+44
 2464 02c0 9100     		lsl	r1, r2, #2
 2465 02c2 0B58     		ldr	r3, [r1, r0]
 2466 02c4 5502     		lsl	r5, r2, #9
 2467 02c6 ED18     		add	r5, r5, r3
 2468 02c8 2A4B     		ldr	r3, .L201+48
 2469 02ca EB5C     		ldrb	r3, [r5, r3]
 2470              	.LVL268:
 2471              		.loc 2 230 0
 2472 02cc 0D58     		ldr	r5, [r1, r0]
 2473              	.LVL269:
 2474 02ce 0135     		add	r5, r5, #1
 2475 02d0 0D50     		str	r5, [r1, r0]
 2476              	.LVL270:
 2477              		.loc 2 231 0
 2478 02d2 2948     		ldr	r0, .L201+52
 2479 02d4 0D58     		ldr	r5, [r1, r0]
 2480 02d6 013D     		sub	r5, r5, #1
 2481 02d8 0D50     		str	r5, [r1, r0]
 2482              	.LVL271:
 2483              	.L182:
 2484              	.LBE278:
 2485              	.LBE277:
 2486              	.LBB279:
 2487              	.LBB280:
 2488              		.loc 2 223 0
 2489 02da 1D49     		ldr	r1, .L201+12
 2490 02dc 895C     		ldrb	r1, [r1, r2]
 2491 02de 0029     		cmp	r1, #0
 2492 02e0 0ED1     		bne	.L183
 2493              		.loc 2 224 0
 2494 02e2 1A4D     		ldr	r5, .L201+8
 2495 02e4 9100     		lsl	r1, r2, #2
 2496 02e6 4859     		ldr	r0, [r1, r5]
 2497 02e8 5602     		lsl	r6, r2, #9
 2498 02ea 3618     		add	r6, r6, r0
 2499 02ec 1C48     		ldr	r0, .L201+28
 2500 02ee 305C     		ldrb	r0, [r6, r0]
 2501              	.LVL272:
 2502              		.loc 2 225 0
 2503 02f0 4E59     		ldr	r6, [r1, r5]
 2504              	.LVL273:
 2505 02f2 0136     		add	r6, r6, #1
 2506 02f4 4E51     		str	r6, [r1, r5]
 2507              		.loc 2 226 0
 2508 02f6 1D4D     		ldr	r5, .L201+40
ARM GAS  /tmp/ccvZzf3e.s 			page 45


 2509 02f8 4E59     		ldr	r6, [r1, r5]
 2510 02fa 013E     		sub	r6, r6, #1
 2511 02fc 4E51     		str	r6, [r1, r5]
 2512 02fe 0DE0     		b	.L184
 2513              	.LVL274:
 2514              	.L183:
 2515              		.loc 2 229 0
 2516 0300 1B4D     		ldr	r5, .L201+44
 2517 0302 9100     		lsl	r1, r2, #2
 2518 0304 4859     		ldr	r0, [r1, r5]
 2519 0306 5602     		lsl	r6, r2, #9
 2520 0308 3618     		add	r6, r6, r0
 2521 030a 1A48     		ldr	r0, .L201+48
 2522 030c 305C     		ldrb	r0, [r6, r0]
 2523              	.LVL275:
 2524              		.loc 2 230 0
 2525 030e 4E59     		ldr	r6, [r1, r5]
 2526              	.LVL276:
 2527 0310 0136     		add	r6, r6, #1
 2528 0312 4E51     		str	r6, [r1, r5]
 2529              		.loc 2 231 0
 2530 0314 184D     		ldr	r5, .L201+52
 2531 0316 4E59     		ldr	r6, [r1, r5]
 2532 0318 013E     		sub	r6, r6, #1
 2533 031a 4E51     		str	r6, [r1, r5]
 2534              	.LVL277:
 2535              	.L184:
 2536              	.LBE280:
 2537              	.LBE279:
 2538              	.LBB281:
 2539              	.LBB282:
 2540              		.loc 2 223 0
 2541 031c 0C49     		ldr	r1, .L201+12
 2542 031e 895C     		ldrb	r1, [r1, r2]
 2543 0320 0029     		cmp	r1, #0
 2544 0322 2BD1     		bne	.L185
 2545              		.loc 2 224 0
 2546 0324 094D     		ldr	r5, .L201+8
 2547 0326 9100     		lsl	r1, r2, #2
 2548 0328 4E59     		ldr	r6, [r1, r5]
 2549 032a 5702     		lsl	r7, r2, #9
 2550 032c BF19     		add	r7, r7, r6
 2551 032e 0C4E     		ldr	r6, .L201+28
 2552 0330 BE5D     		ldrb	r6, [r7, r6]
 2553              	.LVL278:
 2554              		.loc 2 225 0
 2555 0332 4F59     		ldr	r7, [r1, r5]
 2556              	.LVL279:
 2557 0334 0137     		add	r7, r7, #1
 2558 0336 4F51     		str	r7, [r1, r5]
 2559              		.loc 2 226 0
 2560 0338 0C4D     		ldr	r5, .L201+40
 2561 033a 4F59     		ldr	r7, [r1, r5]
 2562 033c 013F     		sub	r7, r7, #1
 2563 033e 4F51     		str	r7, [r1, r5]
 2564 0340 2AE0     		b	.L186
 2565              	.L202:
ARM GAS  /tmp/ccvZzf3e.s 			page 46


 2566 0342 C046     		.align	2
 2567              	.L201:
 2568 0344 00000840 		.word	1074266112
 2569 0348 00000000 		.word	USB_ControlRequest
 2570 034c 00000000 		.word	usb_data_buffer_index
 2571 0350 00000000 		.word	endpointselected
 2572 0354 00000000 		.word	endpointhandle1
 2573 0358 00000000 		.word	endpointhandle0
 2574 035c 00000000 		.word	EndPointCmdStsList
 2575 0360 00000000 		.word	usb_data_buffer
 2576 0364 00000000 		.word	usb_data_buffer_IN_index
 2577 0368 00000000 		.word	usb_data_buffer_IN
 2578 036c 00000000 		.word	usb_data_buffer_size
 2579 0370 00000000 		.word	usb_data_buffer_OUT_index
 2580 0374 00000000 		.word	usb_data_buffer_OUT
 2581 0378 00000000 		.word	usb_data_buffer_OUT_size
 2582              	.LVL280:
 2583              	.L185:
 2584              		.loc 2 229 0
 2585 037c 7C4D     		ldr	r5, .L203
 2586 037e 9100     		lsl	r1, r2, #2
 2587 0380 4E59     		ldr	r6, [r1, r5]
 2588 0382 5702     		lsl	r7, r2, #9
 2589 0384 BF19     		add	r7, r7, r6
 2590 0386 7B4E     		ldr	r6, .L203+4
 2591 0388 BE5D     		ldrb	r6, [r7, r6]
 2592              	.LVL281:
 2593              		.loc 2 230 0
 2594 038a 4F59     		ldr	r7, [r1, r5]
 2595              	.LVL282:
 2596 038c 0137     		add	r7, r7, #1
 2597 038e 4F51     		str	r7, [r1, r5]
 2598              		.loc 2 231 0
 2599 0390 794D     		ldr	r5, .L203+8
 2600 0392 4F59     		ldr	r7, [r1, r5]
 2601 0394 013F     		sub	r7, r7, #1
 2602 0396 4F51     		str	r7, [r1, r5]
 2603              	.LVL283:
 2604              	.L186:
 2605              	.LBE282:
 2606              	.LBE281:
 2607              	.LBB283:
 2608              	.LBB284:
 2609              		.loc 2 223 0
 2610 0398 784D     		ldr	r5, .L203+12
 2611 039a AD5C     		ldrb	r5, [r5, r2]
 2612 039c 002D     		cmp	r5, #0
 2613 039e 0ED1     		bne	.L187
 2614              		.loc 2 224 0
 2615 03a0 774D     		ldr	r5, .L203+16
 2616 03a2 9100     		lsl	r1, r2, #2
 2617 03a4 4F59     		ldr	r7, [r1, r5]
 2618 03a6 5202     		lsl	r2, r2, #9
 2619 03a8 D219     		add	r2, r2, r7
 2620 03aa 764F     		ldr	r7, .L203+20
 2621 03ac D25D     		ldrb	r2, [r2, r7]
 2622              	.LVL284:
ARM GAS  /tmp/ccvZzf3e.s 			page 47


 2623              		.loc 2 225 0
 2624 03ae 4F59     		ldr	r7, [r1, r5]
 2625 03b0 0137     		add	r7, r7, #1
 2626 03b2 4F51     		str	r7, [r1, r5]
 2627              		.loc 2 226 0
 2628 03b4 744D     		ldr	r5, .L203+24
 2629 03b6 4F59     		ldr	r7, [r1, r5]
 2630 03b8 013F     		sub	r7, r7, #1
 2631 03ba 4F51     		str	r7, [r1, r5]
 2632 03bc 0DE0     		b	.L188
 2633              	.LVL285:
 2634              	.L187:
 2635              		.loc 2 229 0
 2636 03be 6C4D     		ldr	r5, .L203
 2637 03c0 9100     		lsl	r1, r2, #2
 2638 03c2 4F59     		ldr	r7, [r1, r5]
 2639 03c4 5202     		lsl	r2, r2, #9
 2640 03c6 D219     		add	r2, r2, r7
 2641 03c8 6A4F     		ldr	r7, .L203+4
 2642 03ca D25D     		ldrb	r2, [r2, r7]
 2643              	.LVL286:
 2644              		.loc 2 230 0
 2645 03cc 4F59     		ldr	r7, [r1, r5]
 2646 03ce 0137     		add	r7, r7, #1
 2647 03d0 4F51     		str	r7, [r1, r5]
 2648              		.loc 2 231 0
 2649 03d2 694D     		ldr	r5, .L203+8
 2650 03d4 4F59     		ldr	r7, [r1, r5]
 2651 03d6 013F     		sub	r7, r7, #1
 2652 03d8 4F51     		str	r7, [r1, r5]
 2653              	.LVL287:
 2654              	.L188:
 2655              	.LBE284:
 2656              	.LBE283:
 2657              		.loc 2 433 0
 2658 03da 0002     		lsl	r0, r0, #8
 2659              	.LVL288:
 2660 03dc 0343     		orr	r3, r0
 2661              	.LVL289:
 2662 03de 3104     		lsl	r1, r6, #16
 2663 03e0 0B43     		orr	r3, r1
 2664 03e2 1206     		lsl	r2, r2, #24
 2665              	.LVL290:
 2666 03e4 1343     		orr	r3, r2
 2667              	.LBE276:
 2668              	.LBE275:
 2669              		.loc 1 77 0
 2670 03e6 6382     		strh	r3, [r4, #18]
 2671 03e8 1B0C     		lsr	r3, r3, #16
 2672 03ea A382     		strh	r3, [r4, #20]
 2673              	.LVL291:
 2674              	.LBB285:
 2675              	.LBB286:
 2676              		.loc 2 223 0
 2677 03ec 637B     		ldrb	r3, [r4, #13]
 2678 03ee 634A     		ldr	r2, .L203+12
 2679 03f0 D25C     		ldrb	r2, [r2, r3]
ARM GAS  /tmp/ccvZzf3e.s 			page 48


 2680 03f2 002A     		cmp	r2, #0
 2681 03f4 0ED1     		bne	.L189
 2682              		.loc 2 224 0
 2683 03f6 6249     		ldr	r1, .L203+16
 2684 03f8 9A00     		lsl	r2, r3, #2
 2685 03fa 5058     		ldr	r0, [r2, r1]
 2686 03fc 5B02     		lsl	r3, r3, #9
 2687 03fe 1B18     		add	r3, r3, r0
 2688 0400 6048     		ldr	r0, .L203+20
 2689 0402 1B5C     		ldrb	r3, [r3, r0]
 2690              	.LVL292:
 2691              		.loc 2 225 0
 2692 0404 5058     		ldr	r0, [r2, r1]
 2693 0406 0130     		add	r0, r0, #1
 2694 0408 5050     		str	r0, [r2, r1]
 2695              	.LVL293:
 2696              		.loc 2 226 0
 2697 040a 5F49     		ldr	r1, .L203+24
 2698 040c 5058     		ldr	r0, [r2, r1]
 2699 040e 0138     		sub	r0, r0, #1
 2700 0410 5050     		str	r0, [r2, r1]
 2701 0412 0DE0     		b	.L190
 2702              	.LVL294:
 2703              	.L189:
 2704              		.loc 2 229 0
 2705 0414 5649     		ldr	r1, .L203
 2706 0416 9A00     		lsl	r2, r3, #2
 2707 0418 5058     		ldr	r0, [r2, r1]
 2708 041a 5B02     		lsl	r3, r3, #9
 2709 041c 1B18     		add	r3, r3, r0
 2710 041e 5548     		ldr	r0, .L203+4
 2711 0420 1B5C     		ldrb	r3, [r3, r0]
 2712              	.LVL295:
 2713              		.loc 2 230 0
 2714 0422 5058     		ldr	r0, [r2, r1]
 2715 0424 0130     		add	r0, r0, #1
 2716 0426 5050     		str	r0, [r2, r1]
 2717              	.LVL296:
 2718              		.loc 2 231 0
 2719 0428 5349     		ldr	r1, .L203+8
 2720 042a 5058     		ldr	r0, [r2, r1]
 2721 042c 0138     		sub	r0, r0, #1
 2722 042e 5050     		str	r0, [r2, r1]
 2723              	.LVL297:
 2724              	.L190:
 2725              	.LBE286:
 2726              	.LBE285:
 2727              		.loc 1 78 0
 2728 0430 A375     		strb	r3, [r4, #22]
 2729              	.LVL298:
 2730              	.LBB287:
 2731              	.LBB288:
 2732              		.loc 2 223 0
 2733 0432 637B     		ldrb	r3, [r4, #13]
 2734              	.LVL299:
 2735 0434 514A     		ldr	r2, .L203+12
 2736 0436 D25C     		ldrb	r2, [r2, r3]
ARM GAS  /tmp/ccvZzf3e.s 			page 49


 2737 0438 002A     		cmp	r2, #0
 2738 043a 0ED1     		bne	.L191
 2739              		.loc 2 224 0
 2740 043c 5049     		ldr	r1, .L203+16
 2741 043e 9A00     		lsl	r2, r3, #2
 2742 0440 5058     		ldr	r0, [r2, r1]
 2743 0442 5B02     		lsl	r3, r3, #9
 2744 0444 1B18     		add	r3, r3, r0
 2745 0446 4F48     		ldr	r0, .L203+20
 2746 0448 1B5C     		ldrb	r3, [r3, r0]
 2747              	.LVL300:
 2748              		.loc 2 225 0
 2749 044a 5058     		ldr	r0, [r2, r1]
 2750 044c 0130     		add	r0, r0, #1
 2751 044e 5050     		str	r0, [r2, r1]
 2752              	.LVL301:
 2753              		.loc 2 226 0
 2754 0450 4D49     		ldr	r1, .L203+24
 2755 0452 5058     		ldr	r0, [r2, r1]
 2756 0454 0138     		sub	r0, r0, #1
 2757 0456 5050     		str	r0, [r2, r1]
 2758 0458 0DE0     		b	.L192
 2759              	.LVL302:
 2760              	.L191:
 2761              		.loc 2 229 0
 2762 045a 4549     		ldr	r1, .L203
 2763 045c 9A00     		lsl	r2, r3, #2
 2764 045e 5058     		ldr	r0, [r2, r1]
 2765 0460 5B02     		lsl	r3, r3, #9
 2766 0462 1B18     		add	r3, r3, r0
 2767 0464 4348     		ldr	r0, .L203+4
 2768 0466 1B5C     		ldrb	r3, [r3, r0]
 2769              	.LVL303:
 2770              		.loc 2 230 0
 2771 0468 5058     		ldr	r0, [r2, r1]
 2772 046a 0130     		add	r0, r0, #1
 2773 046c 5050     		str	r0, [r2, r1]
 2774              	.LVL304:
 2775              		.loc 2 231 0
 2776 046e 4249     		ldr	r1, .L203+8
 2777 0470 5058     		ldr	r0, [r2, r1]
 2778 0472 0138     		sub	r0, r0, #1
 2779 0474 5050     		str	r0, [r2, r1]
 2780              	.LVL305:
 2781              	.L192:
 2782              	.LBE288:
 2783              	.LBE287:
 2784              		.loc 1 79 0
 2785 0476 E375     		strb	r3, [r4, #23]
 2786              	.LVL306:
 2787              	.LBB289:
 2788              	.LBB290:
 2789              		.loc 2 223 0
 2790 0478 637B     		ldrb	r3, [r4, #13]
 2791              	.LVL307:
 2792 047a 404A     		ldr	r2, .L203+12
 2793 047c D25C     		ldrb	r2, [r2, r3]
ARM GAS  /tmp/ccvZzf3e.s 			page 50


 2794 047e 002A     		cmp	r2, #0
 2795 0480 0ED1     		bne	.L193
 2796              		.loc 2 224 0
 2797 0482 3F49     		ldr	r1, .L203+16
 2798 0484 9A00     		lsl	r2, r3, #2
 2799 0486 5058     		ldr	r0, [r2, r1]
 2800 0488 5B02     		lsl	r3, r3, #9
 2801 048a 1B18     		add	r3, r3, r0
 2802 048c 3D48     		ldr	r0, .L203+20
 2803 048e 1B5C     		ldrb	r3, [r3, r0]
 2804              	.LVL308:
 2805              		.loc 2 225 0
 2806 0490 5058     		ldr	r0, [r2, r1]
 2807 0492 0130     		add	r0, r0, #1
 2808 0494 5050     		str	r0, [r2, r1]
 2809              	.LVL309:
 2810              		.loc 2 226 0
 2811 0496 3C49     		ldr	r1, .L203+24
 2812 0498 5058     		ldr	r0, [r2, r1]
 2813 049a 0138     		sub	r0, r0, #1
 2814 049c 5050     		str	r0, [r2, r1]
 2815 049e 0DE0     		b	.L194
 2816              	.LVL310:
 2817              	.L193:
 2818              		.loc 2 229 0
 2819 04a0 3349     		ldr	r1, .L203
 2820 04a2 9A00     		lsl	r2, r3, #2
 2821 04a4 5058     		ldr	r0, [r2, r1]
 2822 04a6 5B02     		lsl	r3, r3, #9
 2823 04a8 1B18     		add	r3, r3, r0
 2824 04aa 3248     		ldr	r0, .L203+4
 2825 04ac 1B5C     		ldrb	r3, [r3, r0]
 2826              	.LVL311:
 2827              		.loc 2 230 0
 2828 04ae 5058     		ldr	r0, [r2, r1]
 2829 04b0 0130     		add	r0, r0, #1
 2830 04b2 5050     		str	r0, [r2, r1]
 2831              	.LVL312:
 2832              		.loc 2 231 0
 2833 04b4 3049     		ldr	r1, .L203+8
 2834 04b6 5058     		ldr	r0, [r2, r1]
 2835 04b8 0138     		sub	r0, r0, #1
 2836 04ba 5050     		str	r0, [r2, r1]
 2837              	.LVL313:
 2838              	.L194:
 2839              	.LBE290:
 2840              	.LBE289:
 2841              		.loc 1 80 0
 2842 04bc 2376     		strb	r3, [r4, #24]
 2843              		.loc 1 82 0
 2844 04be 637B     		ldrb	r3, [r4, #13]
 2845              	.LVL314:
 2846              	.LBB291:
 2847              	.LBB292:
 2848              		.loc 3 343 0
 2849 04c0 2E4A     		ldr	r2, .L203+12
 2850 04c2 D25C     		ldrb	r2, [r2, r3]
ARM GAS  /tmp/ccvZzf3e.s 			page 51


 2851 04c4 002A     		cmp	r2, #0
 2852 04c6 04D1     		bne	.L195
 2853              		.loc 3 344 0
 2854 04c8 9900     		lsl	r1, r3, #2
 2855 04ca 0025     		mov	r5, #0
 2856 04cc 2C48     		ldr	r0, .L203+16
 2857 04ce 0D50     		str	r5, [r1, r0]
 2858              	.LVL315:
 2859 04d0 03E0     		b	.L196
 2860              	.LVL316:
 2861              	.L195:
 2862              		.loc 3 346 0
 2863 04d2 9900     		lsl	r1, r3, #2
 2864 04d4 0025     		mov	r5, #0
 2865 04d6 2648     		ldr	r0, .L203
 2866 04d8 0D50     		str	r5, [r1, r0]
 2867              	.LVL317:
 2868              	.L196:
 2869              		.loc 3 348 0
 2870 04da 002B     		cmp	r3, #0
 2871 04dc 01D0     		beq	.L200
 2872 04de 2B4B     		ldr	r3, .L203+28
 2873              	.LVL318:
 2874 04e0 00E0     		b	.L197
 2875              	.LVL319:
 2876              	.L200:
 2877 04e2 2B4B     		ldr	r3, .L203+32
 2878              	.LVL320:
 2879              	.L197:
 2880 04e4 9B5C     		ldrb	r3, [r3, r2]
 2881 04e6 DB00     		lsl	r3, r3, #3
 2882 04e8 2A4A     		ldr	r2, .L203+36
 2883 04ea D318     		add	r3, r2, r3
 2884 04ec 5988     		ldrh	r1, [r3, #2]
 2885 04ee 890A     		lsr	r1, r1, #10
 2886 04f0 8902     		lsl	r1, r1, #10
 2887 04f2 8022     		mov	r2, #128
 2888 04f4 9200     		lsl	r2, r2, #2
 2889 04f6 0A43     		orr	r2, r1
 2890 04f8 5A80     		strh	r2, [r3, #2]
 2891              	.LBE292:
 2892              	.LBE291:
 2893              		.loc 1 83 0
 2894 04fa 607B     		ldrb	r0, [r4, #13]
 2895 04fc FFF7FEFF 		bl	Endpoint_ClearStatusStage
 2896              	.LVL321:
 2897              		.loc 1 85 0
 2898 0500 201C     		mov	r0, r4
 2899 0502 FFF7FEFF 		bl	EVENT_CDC_Device_LineEncodingChanged
 2900              	.LVL322:
 2901 0506 32E0     		b	.L147
 2902              	.LVL323:
 2903              	.L152:
 2904              		.loc 1 90 0
 2905 0508 234B     		ldr	r3, .L203+40
 2906 050a 1B78     		ldrb	r3, [r3]
 2907 050c 212B     		cmp	r3, #33
ARM GAS  /tmp/ccvZzf3e.s 			page 52


 2908 050e 2ED1     		bne	.L147
 2909              		.loc 1 92 0
 2910 0510 427B     		ldrb	r2, [r0, #13]
 2911              	.LVL324:
 2912              	.LBB293:
 2913              	.LBB294:
 2914              		.loc 3 318 0
 2915 0512 224B     		ldr	r3, .L203+44
 2916 0514 1868     		ldr	r0, [r3]
 2917              	.LVL325:
 2918 0516 8021     		mov	r1, #128
 2919 0518 4900     		lsl	r1, r1, #1
 2920 051a 0143     		orr	r1, r0
 2921 051c 1960     		str	r1, [r3]
 2922              	.LVL326:
 2923              		.loc 3 319 0
 2924 051e 9200     		lsl	r2, r2, #2
 2925              	.LVL327:
 2926 0520 0021     		mov	r1, #0
 2927 0522 174B     		ldr	r3, .L203+16
 2928 0524 D150     		str	r1, [r2, r3]
 2929              	.LBE294:
 2930              	.LBE293:
 2931              		.loc 1 93 0
 2932 0526 607B     		ldrb	r0, [r4, #13]
 2933 0528 FFF7FEFF 		bl	Endpoint_ClearStatusStage
 2934              	.LVL328:
 2935              		.loc 1 95 0
 2936 052c 1A4B     		ldr	r3, .L203+40
 2937 052e 9A78     		ldrb	r2, [r3, #2]
 2938 0530 DB78     		ldrb	r3, [r3, #3]
 2939 0532 1B02     		lsl	r3, r3, #8
 2940 0534 1343     		orr	r3, r2
 2941 0536 E381     		strh	r3, [r4, #14]
 2942              		.loc 1 97 0
 2943 0538 201C     		mov	r0, r4
 2944 053a FFF7FEFF 		bl	EVENT_CDC_Device_ControLineStateChanged
 2945              	.LVL329:
 2946 053e 16E0     		b	.L147
 2947              	.LVL330:
 2948              	.L153:
 2949              		.loc 1 102 0
 2950 0540 154B     		ldr	r3, .L203+40
 2951 0542 1B78     		ldrb	r3, [r3]
 2952 0544 212B     		cmp	r3, #33
 2953 0546 12D1     		bne	.L147
 2954              		.loc 1 104 0
 2955 0548 427B     		ldrb	r2, [r0, #13]
 2956              	.LVL331:
 2957              	.LBB295:
 2958              	.LBB296:
 2959              		.loc 3 318 0
 2960 054a 144B     		ldr	r3, .L203+44
 2961 054c 1868     		ldr	r0, [r3]
 2962              	.LVL332:
 2963 054e 8021     		mov	r1, #128
 2964 0550 4900     		lsl	r1, r1, #1
ARM GAS  /tmp/ccvZzf3e.s 			page 53


 2965 0552 0143     		orr	r1, r0
 2966 0554 1960     		str	r1, [r3]
 2967              	.LVL333:
 2968              		.loc 3 319 0
 2969 0556 9200     		lsl	r2, r2, #2
 2970              	.LVL334:
 2971 0558 0021     		mov	r1, #0
 2972 055a 094B     		ldr	r3, .L203+16
 2973 055c D150     		str	r1, [r2, r3]
 2974              	.LBE296:
 2975              	.LBE295:
 2976              		.loc 1 105 0
 2977 055e 607B     		ldrb	r0, [r4, #13]
 2978 0560 FFF7FEFF 		bl	Endpoint_ClearStatusStage
 2979              	.LVL335:
 2980              		.loc 1 107 0
 2981 0564 0C4B     		ldr	r3, .L203+40
 2982 0566 9978     		ldrb	r1, [r3, #2]
 2983 0568 201C     		mov	r0, r4
 2984 056a FFF7FEFF 		bl	EVENT_CDC_Device_BreakSent
 2985              	.LVL336:
 2986              	.L147:
 2987              		.loc 1 112 0
 2988              		@ sp needed
 2989              	.LVL337:
 2990 056e F8BD     		pop	{r3, r4, r5, r6, r7, pc}
 2991              	.L204:
 2992              		.align	2
 2993              	.L203:
 2994 0570 00000000 		.word	usb_data_buffer_OUT_index
 2995 0574 00000000 		.word	usb_data_buffer_OUT
 2996 0578 00000000 		.word	usb_data_buffer_OUT_size
 2997 057c 00000000 		.word	endpointselected
 2998 0580 00000000 		.word	usb_data_buffer_index
 2999 0584 00000000 		.word	usb_data_buffer
 3000 0588 00000000 		.word	usb_data_buffer_size
 3001 058c 00000000 		.word	endpointhandle1
 3002 0590 00000000 		.word	endpointhandle0
 3003 0594 00000000 		.word	EndPointCmdStsList
 3004 0598 00000000 		.word	USB_ControlRequest
 3005 059c 00000840 		.word	1074266112
 3006              		.cfi_endproc
 3007              	.LFE98:
 3008              		.size	CDC_Device_ProcessControlRequest, .-CDC_Device_ProcessControlRequest
 3009              		.section	.rodata
 3010              		.align	2
 3011              		.set	.LANCHOR0,. + 0
 3012              	.LC0:
 3013 0000 A1       		.byte	-95
 3014 0001 20       		.byte	32
 3015 0002 0000     		.short	0
 3016 0004 0000     		.short	0
 3017 0006 0200     		.short	2
 3018              		.text
 3019              	.Letext0:
 3020              		.file 4 "/usr/local/lpcxpresso_7.3.0_186/lpcxpresso/tools/arm-none-eabi/include/machine/_default_t
 3021              		.file 5 "/usr/local/lpcxpresso_7.3.0_186/lpcxpresso/tools/arm-none-eabi/include/stdint.h"
ARM GAS  /tmp/ccvZzf3e.s 			page 54


 3022              		.file 6 "/usr/local/lpcxpresso_7.3.0_186/lpcxpresso/tools/lib/gcc/arm-none-eabi/4.8.4/include/stdd
 3023              		.file 7 "CMSIS_CORE_LPC11Uxx/inc/LPC11Uxx.h"
 3024              		.file 8 "USBlib_11U14/Drivers/USB/Class/Device/../../Core/DCD/LPC11UXX/../../HAL/LPC11UXX/HAL_LPC1
 3025              		.file 9 "USBlib_11U14/Drivers/USB/Class/Device/../../Core/Device.h"
 3026              		.file 10 "USBlib_11U14/Drivers/USB/Class/Device/../../Core/StdRequestType.h"
 3027              		.file 11 "USBlib_11U14/Drivers/USB/Class/Device/../../Core/EndpointStream.h"
 3028              		.file 12 "USBlib_11U14/Drivers/USB/Class/Device/../Common/CDCClassCommon.h"
 3029              		.file 13 "USBlib_11U14/Drivers/USB/Class/Device/CDCClassDevice.h"
 3030              		.file 14 "USBlib_11U14/Drivers/USB/Class/Device/../../Core/DCD/LPC11UXX/../EndpointCommon.h"
 3031              		.file 15 "USBlib_11U14/Drivers/USB/Class/Device/../../Core/USBTask.h"
 3032              		.file 16 "/usr/local/lpcxpresso_7.3.0_186/lpcxpresso/tools/arm-none-eabi/include/string.h"