ARM GAS  /tmp/ccvZzf3e.s 			page 1


   1              		.cpu cortex-m0
   2              		.fpu softvfp
   3              		.eabi_attribute 20, 1
   4              		.eabi_attribute 21, 1
   5              		.eabi_attribute 23, 3
   6              		.eabi_attribute 24, 1
   7              		.eabi_attribute 25, 1
   8              		.eabi_attribute 26, 1
   9              		.eabi_attribute 30, 1
  10              		.eabi_attribute 34, 0
  11              		.eabi_attribute 18, 4
  12              		.code	16
  13              		.file	"CDCClassDevice.c"
  14              		.text
  15              	.Ltext0:
  16              		.cfi_sections	.debug_frame
  17              		.section	.text.CDC_Device_ConfigureEndpoints,"ax",%progbits
  18              		.align	2
  19              		.global	CDC_Device_ConfigureEndpoints
  20              		.code	16
  21              		.thumb_func
  22              		.type	CDC_Device_ConfigureEndpoints, %function
  23              	CDC_Device_ConfigureEndpoints:
  24              	.LFB99:
  25              		.file 1 "USBlib_11U14/Drivers/USB/Class/Device/CDCClassDevice.c"
  26              		.loc 1 115 0
  27              		.cfi_startproc
  28              	.LVL0:
  29 0000 F0B5     		push	{r4, r5, r6, r7, lr}
  30              		.cfi_def_cfa_offset 20
  31              		.cfi_offset 4, -20
  32              		.cfi_offset 5, -16
  33              		.cfi_offset 6, -12
  34              		.cfi_offset 7, -8
  35              		.cfi_offset 14, -4
  36 0002 5F46     		mov	r7, fp
  37 0004 5646     		mov	r6, r10
  38 0006 4D46     		mov	r5, r9
  39 0008 4446     		mov	r4, r8
  40 000a F0B4     		push	{r4, r5, r6, r7}
  41              		.cfi_def_cfa_offset 36
  42              		.cfi_offset 8, -36
  43              		.cfi_offset 9, -32
  44              		.cfi_offset 10, -28
  45              		.cfi_offset 11, -24
  46 000c 83B0     		sub	sp, sp, #12
  47              		.cfi_def_cfa_offset 48
  48 000e 051C     		mov	r5, r0
  49              		.loc 1 116 0
  50 0010 0023     		mov	r3, #0
  51 0012 8373     		strb	r3, [r0, #14]
  52 0014 C373     		strb	r3, [r0, #15]
  53 0016 0374     		strb	r3, [r0, #16]
  54 0018 4374     		strb	r3, [r0, #17]
  55 001a 8374     		strb	r3, [r0, #18]
  56 001c C374     		strb	r3, [r0, #19]
  57 001e 0375     		strb	r3, [r0, #20]
ARM GAS  /tmp/ccvZzf3e.s 			page 2


  58 0020 4375     		strb	r3, [r0, #21]
  59 0022 8375     		strb	r3, [r0, #22]
  60 0024 C375     		strb	r3, [r0, #23]
  61 0026 0376     		strb	r3, [r0, #24]
  62 0028 4376     		strb	r3, [r0, #25]
  63              	.LVL1:
  64              		.loc 1 119 0
  65 002a 0124     		mov	r4, #1
  66              	.LBB139:
  67              		.loc 1 143 0
  68 002c 8023     		mov	r3, #128
  69 002e 9B46     		mov	fp, r3
  70              		.loc 1 144 0
  71 0030 0326     		mov	r6, #3
  72 0032 B046     		mov	r8, r6
  73              		.loc 1 136 0
  74 0034 0023     		mov	r3, #0
  75 0036 9A46     		mov	r10, r3
  76              	.LVL2:
  77              	.L8:
  78              		.loc 1 126 0
  79 0038 6B78     		ldrb	r3, [r5, #1]
  80 003a A342     		cmp	r3, r4
  81 003c 04D1     		bne	.L2
  82              		.loc 1 128 0
  83 003e 6F88     		ldrh	r7, [r5, #2]
  84              	.LVL3:
  85              		.loc 1 131 0
  86 0040 2979     		ldrb	r1, [r5, #4]
  87              	.LVL4:
  88              		.loc 1 129 0
  89 0042 5B46     		mov	r3, fp
  90              		.loc 1 130 0
  91 0044 0222     		mov	r2, #2
  92 0046 0EE0     		b	.L3
  93              	.LVL5:
  94              	.L2:
  95              		.loc 1 133 0
  96 0048 6B79     		ldrb	r3, [r5, #5]
  97 004a A342     		cmp	r3, r4
  98 004c 04D1     		bne	.L4
  99              		.loc 1 135 0
 100 004e EF88     		ldrh	r7, [r5, #6]
 101              	.LVL6:
 102              		.loc 1 138 0
 103 0050 297A     		ldrb	r1, [r5, #8]
 104              	.LVL7:
 105              		.loc 1 136 0
 106 0052 5346     		mov	r3, r10
 107              		.loc 1 137 0
 108 0054 0222     		mov	r2, #2
 109 0056 06E0     		b	.L3
 110              	.LVL8:
 111              	.L4:
 112              		.loc 1 140 0
 113 0058 6B7A     		ldrb	r3, [r5, #9]
 114 005a A342     		cmp	r3, r4
ARM GAS  /tmp/ccvZzf3e.s 			page 3


 115 005c 0ED1     		bne	.L5
 116              		.loc 1 142 0
 117 005e 6F89     		ldrh	r7, [r5, #10]
 118              	.LVL9:
 119              		.loc 1 145 0
 120 0060 297B     		ldrb	r1, [r5, #12]
 121              	.LVL10:
 122              		.loc 1 143 0
 123 0062 5B46     		mov	r3, fp
 124              		.loc 1 144 0
 125 0064 4246     		mov	r2, r8
 126              	.LVL11:
 127              	.L3:
 128              		.loc 1 152 0
 129 0066 687B     		ldrb	r0, [r5, #13]
 130 0068 4E1E     		sub	r6, r1, #1
 131 006a B141     		sbc	r1, r1, r6
 132              	.LVL12:
 133 006c 4900     		lsl	r1, r1, #1
 134 006e 0097     		str	r7, [sp]
 135 0070 0191     		str	r1, [sp, #4]
 136 0072 211C     		mov	r1, r4
 137 0074 FFF7FEFF 		bl	Endpoint_ConfigureEndpoint
 138              	.LVL13:
 139 0078 0028     		cmp	r0, #0
 140 007a 04D0     		beq	.L7
 141              	.LVL14:
 142              	.L5:
 143              	.LBE139:
 144              		.loc 1 119 0
 145 007c 0134     		add	r4, r4, #1
 146              	.LVL15:
 147 007e E4B2     		uxtb	r4, r4
 148              	.LVL16:
 149 0080 042C     		cmp	r4, #4
 150 0082 D9DD     		ble	.L8
 151              		.loc 1 159 0
 152 0084 0120     		mov	r0, #1
 153              	.LVL17:
 154              	.L7:
 155              		.loc 1 160 0
 156 0086 03B0     		add	sp, sp, #12
 157              		@ sp needed
 158              	.LVL18:
 159 0088 3CBC     		pop	{r2, r3, r4, r5}
 160 008a 9046     		mov	r8, r2
 161 008c 9946     		mov	r9, r3
 162 008e A246     		mov	r10, r4
 163 0090 AB46     		mov	fp, r5
 164 0092 F0BD     		pop	{r4, r5, r6, r7, pc}
 165              		.cfi_endproc
 166              	.LFE99:
 167              		.size	CDC_Device_ConfigureEndpoints, .-CDC_Device_ConfigureEndpoints
 168              		.section	.text.CDC_Device_SendString,"ax",%progbits
 169              		.align	2
 170              		.global	CDC_Device_SendString
 171              		.code	16
ARM GAS  /tmp/ccvZzf3e.s 			page 4


 172              		.thumb_func
 173              		.type	CDC_Device_SendString, %function
 174              	CDC_Device_SendString:
 175              	.LFB101:
 176              		.loc 1 174 0
 177              		.cfi_startproc
 178              	.LVL19:
 179 0000 70B5     		push	{r4, r5, r6, lr}
 180              		.cfi_def_cfa_offset 16
 181              		.cfi_offset 4, -16
 182              		.cfi_offset 5, -12
 183              		.cfi_offset 6, -8
 184              		.cfi_offset 14, -4
 185 0002 041C     		mov	r4, r0
 186 0004 0D1C     		mov	r5, r1
 187              		.loc 1 175 0
 188 0006 437B     		ldrb	r3, [r0, #13]
 189 0008 1D4A     		ldr	r2, .L19
 190 000a D25C     		ldrb	r2, [r2, r3]
 191              		.loc 1 176 0
 192 000c 0220     		mov	r0, #2
 193              	.LVL20:
 194              		.loc 1 175 0
 195 000e 042A     		cmp	r2, #4
 196 0010 35D1     		bne	.L12
 197              		.loc 1 175 0 is_stmt 0 discriminator 1
 198 0012 618A     		ldrh	r1, [r4, #18]
 199              	.LVL21:
 200 0014 A28A     		ldrh	r2, [r4, #20]
 201 0016 1204     		lsl	r2, r2, #16
 202 0018 0A43     		orr	r2, r1
 203 001a 30D0     		beq	.L12
 204              		.loc 1 178 0 is_stmt 1
 205 001c 6278     		ldrb	r2, [r4, #1]
 206              	.LVL22:
 207              	.LBB140:
 208              	.LBB141:
 209              		.file 2 "USBlib_11U14/Drivers/USB/Class/Device/../../Core/Endpoint.h"
 210              		.loc 2 205 0
 211 001e 194E     		ldr	r6, .L19+4
 212 0020 F254     		strb	r2, [r6, r3]
 213              	.LVL23:
 214              	.LBE141:
 215              	.LBE140:
 216              		.loc 1 179 0
 217 0022 281C     		mov	r0, r5
 218 0024 FFF7FEFF 		bl	strlen
 219              	.LVL24:
 220 0028 637B     		ldrb	r3, [r4, #13]
 221 002a 82B2     		uxth	r2, r0
 222 002c 181C     		mov	r0, r3
 223 002e 291C     		mov	r1, r5
 224 0030 0023     		mov	r3, #0
 225 0032 FFF7FEFF 		bl	Endpoint_Write_Stream_LE
 226              	.LVL25:
 227              		.loc 1 180 0
 228 0036 637B     		ldrb	r3, [r4, #13]
ARM GAS  /tmp/ccvZzf3e.s 			page 5


 229              	.LVL26:
 230              	.LBB142:
 231              	.LBB143:
 232              		.file 3 "USBlib_11U14/Drivers/USB/Class/Device/../../Core/DCD/LPC11UXX/Endpoint_LPC11Uxx.h"
 233              		.loc 3 327 0
 234 0038 F25C     		ldrb	r2, [r6, r3]
 235 003a 002A     		cmp	r2, #0
 236 003c 07D0     		beq	.L13
 237 003e 002B     		cmp	r3, #0
 238 0040 01D0     		beq	.L18
 239 0042 1149     		ldr	r1, .L19+8
 240 0044 00E0     		b	.L14
 241              	.L18:
 242 0046 1149     		ldr	r1, .L19+12
 243              	.L14:
 244 0048 885C     		ldrb	r0, [r1, r2]
 245              	.LVL27:
 246              		.loc 3 328 0
 247 004a 0128     		cmp	r0, #1
 248 004c 0CD1     		bne	.L15
 249              	.LVL28:
 250              	.L13:
 251              		.loc 3 329 0
 252 004e 104C     		ldr	r4, .L19+16
 253              	.LVL29:
 254 0050 9D00     		lsl	r5, r3, #2
 255              	.LVL30:
 256 0052 2A59     		ldr	r2, [r5, r4]
 257 0054 5B02     		lsl	r3, r3, #9
 258              	.LVL31:
 259 0056 0F49     		ldr	r1, .L19+20
 260 0058 5918     		add	r1, r3, r1
 261 005a 0120     		mov	r0, #1
 262 005c FFF7FEFF 		bl	DcdDataTransfer
 263              	.LVL32:
 264              		.loc 3 330 0
 265 0060 0023     		mov	r3, #0
 266 0062 2B51     		str	r3, [r5, r4]
 267              	.LBE143:
 268              	.LBE142:
 269              		.loc 1 181 0
 270 0064 0020     		mov	r0, #0
 271 0066 0AE0     		b	.L12
 272              	.LVL33:
 273              	.L15:
 274              	.LBB145:
 275              	.LBB144:
 276              		.loc 3 333 0
 277 0068 0B4C     		ldr	r4, .L19+24
 278              	.LVL34:
 279 006a 9D00     		lsl	r5, r3, #2
 280              	.LVL35:
 281 006c 2A59     		ldr	r2, [r5, r4]
 282              	.LVL36:
 283 006e 5B02     		lsl	r3, r3, #9
 284              	.LVL37:
 285 0070 0A49     		ldr	r1, .L19+28
ARM GAS  /tmp/ccvZzf3e.s 			page 6


 286 0072 5918     		add	r1, r3, r1
 287 0074 FFF7FEFF 		bl	DcdDataTransfer
 288              	.LVL38:
 289              		.loc 3 334 0
 290 0078 0023     		mov	r3, #0
 291 007a 2B51     		str	r3, [r5, r4]
 292              	.LBE144:
 293              	.LBE145:
 294              		.loc 1 181 0
 295 007c 0020     		mov	r0, #0
 296              	.L12:
 297              		.loc 1 182 0
 298              		@ sp needed
 299 007e 70BD     		pop	{r4, r5, r6, pc}
 300              	.L20:
 301              		.align	2
 302              	.L19:
 303 0080 00000000 		.word	USB_DeviceState
 304 0084 00000000 		.word	endpointselected
 305 0088 00000000 		.word	endpointhandle1
 306 008c 00000000 		.word	endpointhandle0
 307 0090 00000000 		.word	usb_data_buffer_index
 308 0094 00000000 		.word	usb_data_buffer
 309 0098 00000000 		.word	usb_data_buffer_IN_index
 310 009c 00000000 		.word	usb_data_buffer_IN
 311              		.cfi_endproc
 312              	.LFE101:
 313              		.size	CDC_Device_SendString, .-CDC_Device_SendString
 314              		.section	.text.CDC_Device_SendData,"ax",%progbits
 315              		.align	2
 316              		.global	CDC_Device_SendData
 317              		.code	16
 318              		.thumb_func
 319              		.type	CDC_Device_SendData, %function
 320              	CDC_Device_SendData:
 321              	.LFB102:
 322              		.loc 1 187 0
 323              		.cfi_startproc
 324              	.LVL39:
 325 0000 38B5     		push	{r3, r4, r5, lr}
 326              		.cfi_def_cfa_offset 16
 327              		.cfi_offset 3, -16
 328              		.cfi_offset 4, -12
 329              		.cfi_offset 5, -8
 330              		.cfi_offset 14, -4
 331 0002 041C     		mov	r4, r0
 332              		.loc 1 188 0
 333 0004 437B     		ldrb	r3, [r0, #13]
 334 0006 1C48     		ldr	r0, .L29
 335              	.LVL40:
 336 0008 C55C     		ldrb	r5, [r0, r3]
 337              		.loc 1 189 0
 338 000a 0220     		mov	r0, #2
 339              		.loc 1 188 0
 340 000c 042D     		cmp	r5, #4
 341 000e 31D1     		bne	.L22
 342              		.loc 1 188 0 is_stmt 0 discriminator 1
ARM GAS  /tmp/ccvZzf3e.s 			page 7


 343 0010 608A     		ldrh	r0, [r4, #18]
 344 0012 A58A     		ldrh	r5, [r4, #20]
 345 0014 2D04     		lsl	r5, r5, #16
 346 0016 0543     		orr	r5, r0
 347              		.loc 1 189 0 is_stmt 1 discriminator 1
 348 0018 0220     		mov	r0, #2
 349              		.loc 1 188 0 discriminator 1
 350 001a 002D     		cmp	r5, #0
 351 001c 2AD0     		beq	.L22
 352              		.loc 1 191 0
 353 001e 6078     		ldrb	r0, [r4, #1]
 354              	.LVL41:
 355              	.LBB146:
 356              	.LBB147:
 357              		.loc 2 205 0
 358 0020 164D     		ldr	r5, .L29+4
 359 0022 E854     		strb	r0, [r5, r3]
 360              	.LVL42:
 361              	.LBE147:
 362              	.LBE146:
 363              		.loc 1 192 0
 364 0024 607B     		ldrb	r0, [r4, #13]
 365              	.LVL43:
 366 0026 0023     		mov	r3, #0
 367              	.LVL44:
 368 0028 FFF7FEFF 		bl	Endpoint_Write_Stream_LE
 369              	.LVL45:
 370              		.loc 1 193 0
 371 002c 637B     		ldrb	r3, [r4, #13]
 372              	.LVL46:
 373              	.LBB148:
 374              	.LBB149:
 375              		.loc 3 327 0
 376 002e EA5C     		ldrb	r2, [r5, r3]
 377 0030 002A     		cmp	r2, #0
 378 0032 07D0     		beq	.L23
 379 0034 002B     		cmp	r3, #0
 380 0036 01D0     		beq	.L28
 381 0038 1149     		ldr	r1, .L29+8
 382 003a 00E0     		b	.L24
 383              	.L28:
 384 003c 1149     		ldr	r1, .L29+12
 385              	.L24:
 386 003e 885C     		ldrb	r0, [r1, r2]
 387              	.LVL47:
 388              		.loc 3 328 0
 389 0040 0128     		cmp	r0, #1
 390 0042 0CD1     		bne	.L25
 391              	.LVL48:
 392              	.L23:
 393              		.loc 3 329 0
 394 0044 104C     		ldr	r4, .L29+16
 395              	.LVL49:
 396 0046 9D00     		lsl	r5, r3, #2
 397 0048 2A59     		ldr	r2, [r5, r4]
 398 004a 5B02     		lsl	r3, r3, #9
 399              	.LVL50:
ARM GAS  /tmp/ccvZzf3e.s 			page 8


 400 004c 0F49     		ldr	r1, .L29+20
 401 004e 5918     		add	r1, r3, r1
 402 0050 0120     		mov	r0, #1
 403 0052 FFF7FEFF 		bl	DcdDataTransfer
 404              	.LVL51:
 405              		.loc 3 330 0
 406 0056 0023     		mov	r3, #0
 407 0058 2B51     		str	r3, [r5, r4]
 408              	.LBE149:
 409              	.LBE148:
 410              		.loc 1 194 0
 411 005a 0020     		mov	r0, #0
 412 005c 0AE0     		b	.L22
 413              	.LVL52:
 414              	.L25:
 415              	.LBB151:
 416              	.LBB150:
 417              		.loc 3 333 0
 418 005e 0C4C     		ldr	r4, .L29+24
 419              	.LVL53:
 420 0060 9D00     		lsl	r5, r3, #2
 421 0062 2A59     		ldr	r2, [r5, r4]
 422              	.LVL54:
 423 0064 5B02     		lsl	r3, r3, #9
 424              	.LVL55:
 425 0066 0B49     		ldr	r1, .L29+28
 426 0068 5918     		add	r1, r3, r1
 427 006a FFF7FEFF 		bl	DcdDataTransfer
 428              	.LVL56:
 429              		.loc 3 334 0
 430 006e 0023     		mov	r3, #0
 431 0070 2B51     		str	r3, [r5, r4]
 432              	.LBE150:
 433              	.LBE151:
 434              		.loc 1 194 0
 435 0072 0020     		mov	r0, #0
 436              	.L22:
 437              		.loc 1 195 0
 438              		@ sp needed
 439 0074 38BD     		pop	{r3, r4, r5, pc}
 440              	.L30:
 441 0076 C046     		.align	2
 442              	.L29:
 443 0078 00000000 		.word	USB_DeviceState
 444 007c 00000000 		.word	endpointselected
 445 0080 00000000 		.word	endpointhandle1
 446 0084 00000000 		.word	endpointhandle0
 447 0088 00000000 		.word	usb_data_buffer_index
 448 008c 00000000 		.word	usb_data_buffer
 449 0090 00000000 		.word	usb_data_buffer_IN_index
 450 0094 00000000 		.word	usb_data_buffer_IN
 451              		.cfi_endproc
 452              	.LFE102:
 453              		.size	CDC_Device_SendData, .-CDC_Device_SendData
 454              		.section	.text.CDC_Device_SendByte,"ax",%progbits
 455              		.align	2
 456              		.global	CDC_Device_SendByte
ARM GAS  /tmp/ccvZzf3e.s 			page 9


 457              		.code	16
 458              		.thumb_func
 459              		.type	CDC_Device_SendByte, %function
 460              	CDC_Device_SendByte:
 461              	.LFB103:
 462              		.loc 1 199 0
 463              		.cfi_startproc
 464              	.LVL57:
 465 0000 F8B5     		push	{r3, r4, r5, r6, r7, lr}
 466              		.cfi_def_cfa_offset 24
 467              		.cfi_offset 3, -24
 468              		.cfi_offset 4, -20
 469              		.cfi_offset 5, -16
 470              		.cfi_offset 6, -12
 471              		.cfi_offset 7, -8
 472              		.cfi_offset 14, -4
 473 0002 041C     		mov	r4, r0
 474 0004 0D1C     		mov	r5, r1
 475              		.loc 1 200 0
 476 0006 437B     		ldrb	r3, [r0, #13]
 477 0008 444A     		ldr	r2, .L54
 478 000a D25C     		ldrb	r2, [r2, r3]
 479              		.loc 1 201 0
 480 000c 0220     		mov	r0, #2
 481              	.LVL58:
 482              		.loc 1 200 0
 483 000e 042A     		cmp	r2, #4
 484 0010 00D0     		beq	.LCB482
 485 0012 81E0     		b	.L52	@long jump
 486              	.LCB482:
 487              		.loc 1 200 0 is_stmt 0 discriminator 1
 488 0014 618A     		ldrh	r1, [r4, #18]
 489              	.LVL59:
 490 0016 A28A     		ldrh	r2, [r4, #20]
 491 0018 1204     		lsl	r2, r2, #16
 492 001a 0A43     		orr	r2, r1
 493 001c 7CD0     		beq	.L52
 494              		.loc 1 203 0 is_stmt 1
 495 001e 6178     		ldrb	r1, [r4, #1]
 496              	.LVL60:
 497              	.LBB152:
 498              	.LBB153:
 499              		.loc 2 205 0
 500 0020 3F4A     		ldr	r2, .L54+4
 501 0022 D154     		strb	r1, [r2, r3]
 502              	.LVL61:
 503              	.LBE153:
 504              	.LBE152:
 505              		.loc 1 205 0
 506 0024 637B     		ldrb	r3, [r4, #13]
 507              	.LVL62:
 508              	.LBB154:
 509              	.LBB155:
 510              	.LBB156:
 511              	.LBB157:
 512              		.loc 2 246 0
 513 0026 002B     		cmp	r3, #0
ARM GAS  /tmp/ccvZzf3e.s 			page 10


 514 0028 6CD1     		bne	.L33
 515 002a 61E0     		b	.L53
 516              	.LVL63:
 517              	.L46:
 518              	.LBE157:
 519              	.LBE156:
 520              	.LBB160:
 521              	.LBB161:
 522              		.loc 3 302 0
 523 002c 925D     		ldrb	r2, [r2, r6]
 524 002e D200     		lsl	r2, r2, #3
 525 0030 3C4F     		ldr	r7, .L54+8
 526 0032 BA18     		add	r2, r7, r2
 527 0034 5288     		ldrh	r2, [r2, #2]
 528 0036 9205     		lsl	r2, r2, #22
 529 0038 920D     		lsr	r2, r2, #22
 530              		.loc 3 301 0
 531 003a 3B4F     		ldr	r7, .L54+12
 532 003c D219     		add	r2, r2, r7
 533 003e 571E     		sub	r7, r2, #1
 534 0040 BA41     		sbc	r2, r2, r7
 535 0042 D2B2     		uxtb	r2, r2
 536 0044 0CE0     		b	.L35
 537              	.LVL64:
 538              	.L43:
 539              	.LBE161:
 540              	.LBE160:
 541              	.LBB164:
 542              	.LBB165:
 543              		.loc 3 292 0
 544 0046 002B     		cmp	r3, #0
 545 0048 01D0     		beq	.L49
 546 004a 384A     		ldr	r2, .L54+16
 547 004c 00E0     		b	.L36
 548              	.L49:
 549 004e 384A     		ldr	r2, .L54+20
 550              	.L36:
 551              		.loc 3 291 0
 552 0050 925D     		ldrb	r2, [r2, r6]
 553              	.L44:
 554              	.LVL65:
 555              		.loc 3 293 0
 556 0052 D200     		lsl	r2, r2, #3
 557              	.LVL66:
 558 0054 334F     		ldr	r7, .L54+8
 559 0056 BA18     		add	r2, r7, r2
 560 0058 5788     		ldrh	r7, [r2, #2]
 561 005a FF0B     		lsr	r7, r7, #15
 562 005c 0122     		mov	r2, #1
 563 005e 7A40     		eor	r2, r7
 564              	.LVL67:
 565              	.L35:
 566              	.LBE165:
 567              	.LBE164:
 568              	.LBE155:
 569              	.LBE154:
 570              		.loc 1 205 0
ARM GAS  /tmp/ccvZzf3e.s 			page 11


 571 0060 002A     		cmp	r2, #0
 572 0062 25D1     		bne	.L37
 573              	.LVL68:
 574              	.LBB173:
 575              	.LBB174:
 576              	.LBB175:
 577              		.loc 3 327 0
 578 0064 0029     		cmp	r1, #0
 579 0066 07D0     		beq	.L38
 580 0068 002B     		cmp	r3, #0
 581 006a 01D0     		beq	.L50
 582 006c 2F4B     		ldr	r3, .L54+16
 583 006e 00E0     		b	.L39
 584              	.L50:
 585 0070 2F4B     		ldr	r3, .L54+20
 586              	.L39:
 587 0072 9B5D     		ldrb	r3, [r3, r6]
 588              	.LVL69:
 589              		.loc 3 328 0
 590 0074 012B     		cmp	r3, #1
 591 0076 0BD1     		bne	.L40
 592              	.LVL70:
 593              	.L38:
 594              		.loc 3 329 0
 595 0078 2E4E     		ldr	r6, .L54+24
 596 007a 8700     		lsl	r7, r0, #2
 597 007c BA59     		ldr	r2, [r7, r6]
 598 007e 4102     		lsl	r1, r0, #9
 599 0080 2D4B     		ldr	r3, .L54+28
 600 0082 C918     		add	r1, r1, r3
 601 0084 0120     		mov	r0, #1
 602              	.LVL71:
 603 0086 FFF7FEFF 		bl	DcdDataTransfer
 604              	.LVL72:
 605              		.loc 3 330 0
 606 008a 0023     		mov	r3, #0
 607 008c BB51     		str	r3, [r7, r6]
 608 008e 0AE0     		b	.L41
 609              	.LVL73:
 610              	.L40:
 611              		.loc 3 333 0
 612 0090 2A4E     		ldr	r6, .L54+32
 613 0092 8700     		lsl	r7, r0, #2
 614 0094 BA59     		ldr	r2, [r7, r6]
 615 0096 4002     		lsl	r0, r0, #9
 616              	.LVL74:
 617 0098 2949     		ldr	r1, .L54+36
 618 009a 4118     		add	r1, r0, r1
 619 009c 181C     		mov	r0, r3
 620 009e FFF7FEFF 		bl	DcdDataTransfer
 621              	.LVL75:
 622              		.loc 3 334 0
 623 00a2 0023     		mov	r3, #0
 624 00a4 BB51     		str	r3, [r7, r6]
 625              	.L41:
 626              	.LBE175:
 627              	.LBE174:
ARM GAS  /tmp/ccvZzf3e.s 			page 12


 628              		.loc 1 211 0
 629 00a6 FFF7FEFF 		bl	Endpoint_WaitUntilReady
 630              	.LVL76:
 631 00aa 031C     		mov	r3, r0
 632              	.LVL77:
 633 00ac 002B     		cmp	r3, #0
 634 00ae 33D1     		bne	.L52
 635              	.LVL78:
 636              	.L37:
 637              	.LBE173:
 638              	.LBB176:
 639              	.LBB177:
 640              		.loc 2 284 0
 641 00b0 637B     		ldrb	r3, [r4, #13]
 642 00b2 1B4A     		ldr	r2, .L54+4
 643 00b4 D05C     		ldrb	r0, [r2, r3]
 644 00b6 0028     		cmp	r0, #0
 645 00b8 0AD1     		bne	.L42
 646              		.loc 2 285 0
 647 00ba 1E4A     		ldr	r2, .L54+24
 648 00bc 9900     		lsl	r1, r3, #2
 649 00be 8C58     		ldr	r4, [r1, r2]
 650              	.LVL79:
 651 00c0 5B02     		lsl	r3, r3, #9
 652              	.LVL80:
 653 00c2 1B19     		add	r3, r3, r4
 654 00c4 1C4C     		ldr	r4, .L54+28
 655 00c6 1D55     		strb	r5, [r3, r4]
 656              	.LVL81:
 657              		.loc 2 286 0
 658 00c8 8B58     		ldr	r3, [r1, r2]
 659 00ca 0133     		add	r3, r3, #1
 660 00cc 8B50     		str	r3, [r1, r2]
 661 00ce 23E0     		b	.L52
 662              	.LVL82:
 663              	.L42:
 664              		.loc 2 289 0
 665 00d0 1A4A     		ldr	r2, .L54+32
 666 00d2 9900     		lsl	r1, r3, #2
 667 00d4 8858     		ldr	r0, [r1, r2]
 668 00d6 5B02     		lsl	r3, r3, #9
 669 00d8 1B18     		add	r3, r3, r0
 670 00da 1948     		ldr	r0, .L54+36
 671 00dc 1D54     		strb	r5, [r3, r0]
 672              	.LVL83:
 673              		.loc 2 290 0
 674 00de 8B58     		ldr	r3, [r1, r2]
 675 00e0 0133     		add	r3, r3, #1
 676 00e2 8B50     		str	r3, [r1, r2]
 677              	.LBE177:
 678              	.LBE176:
 679              		.loc 1 216 0
 680 00e4 0020     		mov	r0, #0
 681 00e6 17E0     		b	.L52
 682              	.LVL84:
 683              	.L45:
 684              	.LBB178:
ARM GAS  /tmp/ccvZzf3e.s 			page 13


 685              	.LBB172:
 686              	.LBB167:
 687              	.LBB166:
 688              		.loc 3 291 0
 689 00e8 0122     		mov	r2, #1
 690 00ea 0029     		cmp	r1, #0
 691 00ec B1D0     		beq	.L44
 692 00ee AAE7     		b	.L43
 693              	.LVL85:
 694              	.L53:
 695              	.LBE166:
 696              	.LBE167:
 697              	.LBB168:
 698              	.LBB158:
 699              		.loc 2 246 0
 700 00f0 181C     		mov	r0, r3
 701 00f2 0B4A     		ldr	r2, .L54+4
 702 00f4 D15C     		ldrb	r1, [r2, r3]
 703              	.LVL86:
 704 00f6 0E1C     		mov	r6, r1
 705 00f8 0D4A     		ldr	r2, .L54+20
 706 00fa 525C     		ldrb	r2, [r2, r1]
 707 00fc D707     		lsl	r7, r2, #31
 708 00fe F3D4     		bmi	.L45
 709              	.LBE158:
 710              	.LBE168:
 711              	.LBB169:
 712              	.LBB162:
 713              		.loc 3 302 0
 714 0100 0B4A     		ldr	r2, .L54+20
 715 0102 93E7     		b	.L46
 716              	.LVL87:
 717              	.L33:
 718              	.LBE162:
 719              	.LBE169:
 720              	.LBB170:
 721              	.LBB159:
 722              		.loc 2 246 0
 723 0104 181C     		mov	r0, r3
 724 0106 064A     		ldr	r2, .L54+4
 725 0108 D15C     		ldrb	r1, [r2, r3]
 726              	.LVL88:
 727 010a 0E1C     		mov	r6, r1
 728 010c 074A     		ldr	r2, .L54+16
 729 010e 525C     		ldrb	r2, [r2, r1]
 730 0110 D707     		lsl	r7, r2, #31
 731 0112 E9D4     		bmi	.L45
 732              	.LBE159:
 733              	.LBE170:
 734              	.LBB171:
 735              	.LBB163:
 736              		.loc 3 302 0
 737 0114 054A     		ldr	r2, .L54+16
 738 0116 89E7     		b	.L46
 739              	.LVL89:
 740              	.L52:
 741              	.LBE163:
ARM GAS  /tmp/ccvZzf3e.s 			page 14


 742              	.LBE171:
 743              	.LBE172:
 744              	.LBE178:
 745              		.loc 1 217 0
 746              		@ sp needed
 747 0118 F8BD     		pop	{r3, r4, r5, r6, r7, pc}
 748              	.L55:
 749 011a C046     		.align	2
 750              	.L54:
 751 011c 00000000 		.word	USB_DeviceState
 752 0120 00000000 		.word	endpointselected
 753 0124 00000000 		.word	EndPointCmdStsList
 754 0128 00FEFFFF 		.word	-512
 755 012c 00000000 		.word	endpointhandle1
 756 0130 00000000 		.word	endpointhandle0
 757 0134 00000000 		.word	usb_data_buffer_index
 758 0138 00000000 		.word	usb_data_buffer
 759 013c 00000000 		.word	usb_data_buffer_IN_index
 760 0140 00000000 		.word	usb_data_buffer_IN
 761              		.cfi_endproc
 762              	.LFE103:
 763              		.size	CDC_Device_SendByte, .-CDC_Device_SendByte
 764              		.section	.text.CDC_Device_Flush,"ax",%progbits
 765              		.align	2
 766              		.global	CDC_Device_Flush
 767              		.code	16
 768              		.thumb_func
 769              		.type	CDC_Device_Flush, %function
 770              	CDC_Device_Flush:
 771              	.LFB104:
 772              		.loc 1 220 0
 773              		.cfi_startproc
 774              	.LVL90:
 775 0000 F8B5     		push	{r3, r4, r5, r6, r7, lr}
 776              		.cfi_def_cfa_offset 24
 777              		.cfi_offset 3, -24
 778              		.cfi_offset 4, -20
 779              		.cfi_offset 5, -16
 780              		.cfi_offset 6, -12
 781              		.cfi_offset 7, -8
 782              		.cfi_offset 14, -4
 783 0002 041C     		mov	r4, r0
 784              		.loc 1 221 0
 785 0004 437B     		ldrb	r3, [r0, #13]
 786 0006 4E4A     		ldr	r2, .L85
 787 0008 D25C     		ldrb	r2, [r2, r3]
 788              		.loc 1 222 0
 789 000a 0220     		mov	r0, #2
 790              	.LVL91:
 791              		.loc 1 221 0
 792 000c 042A     		cmp	r2, #4
 793 000e 00D0     		beq	.LCB833
 794 0010 95E0     		b	.L83	@long jump
 795              	.LCB833:
 796              		.loc 1 221 0 is_stmt 0 discriminator 1
 797 0012 618A     		ldrh	r1, [r4, #18]
 798 0014 A28A     		ldrh	r2, [r4, #20]
ARM GAS  /tmp/ccvZzf3e.s 			page 15


 799 0016 1204     		lsl	r2, r2, #16
 800 0018 0A43     		orr	r2, r1
 801 001a 00D1     		bne	.LCB839
 802 001c 8FE0     		b	.L83	@long jump
 803              	.LCB839:
 804              		.loc 1 226 0 is_stmt 1
 805 001e 6178     		ldrb	r1, [r4, #1]
 806              	.LVL92:
 807              	.LBB179:
 808              	.LBB180:
 809              		.loc 2 205 0
 810 0020 484A     		ldr	r2, .L85+4
 811 0022 D154     		strb	r1, [r2, r3]
 812              	.LVL93:
 813              	.LBE180:
 814              	.LBE179:
 815              		.loc 1 228 0
 816 0024 637B     		ldrb	r3, [r4, #13]
 817              	.LVL94:
 818              	.LBB181:
 819              	.LBB182:
 820              		.loc 3 278 0
 821 0026 D25C     		ldrb	r2, [r2, r3]
 822 0028 002A     		cmp	r2, #0
 823 002a 04D1     		bne	.L58
 824              		.loc 3 279 0
 825 002c 9900     		lsl	r1, r3, #2
 826              	.LVL95:
 827 002e 4648     		ldr	r0, .L85+8
 828 0030 0958     		ldr	r1, [r1, r0]
 829 0032 89B2     		uxth	r1, r1
 830 0034 03E0     		b	.L59
 831              	.LVL96:
 832              	.L58:
 833              		.loc 3 282 0
 834 0036 9900     		lsl	r1, r3, #2
 835              	.LVL97:
 836 0038 4448     		ldr	r0, .L85+12
 837 003a 0958     		ldr	r1, [r1, r0]
 838 003c 89B2     		uxth	r1, r1
 839              	.L59:
 840              	.LBE182:
 841              	.LBE181:
 842              		.loc 1 229 0
 843 003e 0020     		mov	r0, #0
 844              		.loc 1 228 0
 845 0040 0029     		cmp	r1, #0
 846 0042 7CD0     		beq	.L83
 847              	.LVL98:
 848              	.LBB183:
 849              	.LBB184:
 850              	.LBB185:
 851              	.LBB186:
 852              		.loc 2 246 0
 853 0044 002B     		cmp	r3, #0
 854 0046 73D1     		bne	.L60
 855 0048 6BE0     		b	.L84
ARM GAS  /tmp/ccvZzf3e.s 			page 16


 856              	.L74:
 857              	.LBE186:
 858              	.LBE185:
 859              	.LBB189:
 860              	.LBB190:
 861              		.loc 3 302 0
 862 004a 405C     		ldrb	r0, [r0, r1]
 863 004c C000     		lsl	r0, r0, #3
 864 004e 404D     		ldr	r5, .L85+16
 865 0050 2818     		add	r0, r5, r0
 866 0052 4788     		ldrh	r7, [r0, #2]
 867 0054 BF05     		lsl	r7, r7, #22
 868 0056 BF0D     		lsr	r7, r7, #22
 869              		.loc 3 301 0
 870 0058 3E48     		ldr	r0, .L85+20
 871 005a 3F18     		add	r7, r7, r0
 872 005c 781E     		sub	r0, r7, #1
 873 005e 8741     		sbc	r7, r7, r0
 874 0060 FFB2     		uxtb	r7, r7
 875 0062 0CE0     		b	.L62
 876              	.LVL99:
 877              	.L71:
 878              	.LBE190:
 879              	.LBE189:
 880              	.LBB193:
 881              	.LBB194:
 882              		.loc 3 292 0
 883 0064 002B     		cmp	r3, #0
 884 0066 01D0     		beq	.L78
 885 0068 3B48     		ldr	r0, .L85+24
 886 006a 00E0     		b	.L63
 887              	.L78:
 888 006c 3B48     		ldr	r0, .L85+28
 889              	.L63:
 890              		.loc 3 291 0
 891 006e 405C     		ldrb	r0, [r0, r1]
 892              	.L72:
 893              	.LVL100:
 894              		.loc 3 293 0
 895 0070 C000     		lsl	r0, r0, #3
 896              	.LVL101:
 897 0072 374D     		ldr	r5, .L85+16
 898 0074 2818     		add	r0, r5, r0
 899 0076 4788     		ldrh	r7, [r0, #2]
 900 0078 FF0B     		lsr	r7, r7, #15
 901 007a 0120     		mov	r0, #1
 902 007c 4740     		eor	r7, r0
 903              	.LVL102:
 904              	.L62:
 905              	.LBE194:
 906              	.LBE193:
 907              	.LBE184:
 908              	.LBE183:
 909              	.LBB202:
 910              	.LBB203:
 911              		.loc 3 327 0
 912 007e 002A     		cmp	r2, #0
ARM GAS  /tmp/ccvZzf3e.s 			page 17


 913 0080 07D0     		beq	.L64
 914 0082 002B     		cmp	r3, #0
 915 0084 01D0     		beq	.L79
 916 0086 344A     		ldr	r2, .L85+24
 917 0088 00E0     		b	.L65
 918              	.L79:
 919 008a 344A     		ldr	r2, .L85+28
 920              	.L65:
 921 008c 505C     		ldrb	r0, [r2, r1]
 922              	.LVL103:
 923              		.loc 3 328 0
 924 008e 0128     		cmp	r0, #1
 925 0090 0BD1     		bne	.L66
 926              	.LVL104:
 927              	.L64:
 928              		.loc 3 329 0
 929 0092 334D     		ldr	r5, .L85+32
 930 0094 9E00     		lsl	r6, r3, #2
 931 0096 7259     		ldr	r2, [r6, r5]
 932 0098 5B02     		lsl	r3, r3, #9
 933              	.LVL105:
 934 009a 3249     		ldr	r1, .L85+36
 935 009c 5918     		add	r1, r3, r1
 936 009e 0120     		mov	r0, #1
 937 00a0 FFF7FEFF 		bl	DcdDataTransfer
 938              	.LVL106:
 939              		.loc 3 330 0
 940 00a4 0023     		mov	r3, #0
 941 00a6 7351     		str	r3, [r6, r5]
 942 00a8 09E0     		b	.L67
 943              	.LVL107:
 944              	.L66:
 945              		.loc 3 333 0
 946 00aa 2F4D     		ldr	r5, .L85+40
 947 00ac 9E00     		lsl	r6, r3, #2
 948 00ae 7259     		ldr	r2, [r6, r5]
 949              	.LVL108:
 950 00b0 5B02     		lsl	r3, r3, #9
 951              	.LVL109:
 952 00b2 2E49     		ldr	r1, .L85+44
 953 00b4 5918     		add	r1, r3, r1
 954 00b6 FFF7FEFF 		bl	DcdDataTransfer
 955              	.LVL110:
 956              		.loc 3 334 0
 957 00ba 0023     		mov	r3, #0
 958 00bc 7351     		str	r3, [r6, r5]
 959              	.L67:
 960              	.LBE203:
 961              	.LBE202:
 962              		.loc 1 243 0
 963 00be 0020     		mov	r0, #0
 964              		.loc 1 235 0
 965 00c0 002F     		cmp	r7, #0
 966 00c2 3CD1     		bne	.L83
 967              		.loc 1 237 0
 968 00c4 FFF7FEFF 		bl	Endpoint_WaitUntilReady
 969              	.LVL111:
ARM GAS  /tmp/ccvZzf3e.s 			page 18


 970 00c8 031C     		mov	r3, r0
 971              	.LVL112:
 972 00ca 002B     		cmp	r3, #0
 973 00cc 37D1     		bne	.L83
 974              		.loc 1 240 0
 975 00ce 637B     		ldrb	r3, [r4, #13]
 976              	.LVL113:
 977              	.LBB204:
 978              	.LBB205:
 979              		.loc 3 327 0
 980 00d0 1C4A     		ldr	r2, .L85+4
 981 00d2 D25C     		ldrb	r2, [r2, r3]
 982 00d4 002A     		cmp	r2, #0
 983 00d6 07D0     		beq	.L68
 984 00d8 002B     		cmp	r3, #0
 985 00da 01D0     		beq	.L82
 986 00dc 1E49     		ldr	r1, .L85+24
 987 00de 00E0     		b	.L69
 988              	.L82:
 989 00e0 1E49     		ldr	r1, .L85+28
 990              	.L69:
 991 00e2 885C     		ldrb	r0, [r1, r2]
 992              	.LVL114:
 993              		.loc 3 328 0
 994 00e4 0128     		cmp	r0, #1
 995 00e6 0CD1     		bne	.L70
 996              	.LVL115:
 997              	.L68:
 998              		.loc 3 329 0
 999 00e8 1D4C     		ldr	r4, .L85+32
 1000              	.LVL116:
 1001 00ea 9D00     		lsl	r5, r3, #2
 1002 00ec 2A59     		ldr	r2, [r5, r4]
 1003 00ee 5B02     		lsl	r3, r3, #9
 1004              	.LVL117:
 1005 00f0 1C49     		ldr	r1, .L85+36
 1006 00f2 5918     		add	r1, r3, r1
 1007 00f4 0120     		mov	r0, #1
 1008 00f6 FFF7FEFF 		bl	DcdDataTransfer
 1009              	.LVL118:
 1010              		.loc 3 330 0
 1011 00fa 0023     		mov	r3, #0
 1012 00fc 2B51     		str	r3, [r5, r4]
 1013              	.LBE205:
 1014              	.LBE204:
 1015              		.loc 1 243 0
 1016 00fe 0020     		mov	r0, #0
 1017 0100 1DE0     		b	.L83
 1018              	.LVL119:
 1019              	.L70:
 1020              	.LBB207:
 1021              	.LBB206:
 1022              		.loc 3 333 0
 1023 0102 194C     		ldr	r4, .L85+40
 1024              	.LVL120:
 1025 0104 9D00     		lsl	r5, r3, #2
 1026 0106 2A59     		ldr	r2, [r5, r4]
ARM GAS  /tmp/ccvZzf3e.s 			page 19


 1027              	.LVL121:
 1028 0108 5B02     		lsl	r3, r3, #9
 1029              	.LVL122:
 1030 010a 1849     		ldr	r1, .L85+44
 1031 010c 5918     		add	r1, r3, r1
 1032 010e FFF7FEFF 		bl	DcdDataTransfer
 1033              	.LVL123:
 1034              		.loc 3 334 0
 1035 0112 0023     		mov	r3, #0
 1036 0114 2B51     		str	r3, [r5, r4]
 1037              	.LBE206:
 1038              	.LBE207:
 1039              		.loc 1 243 0
 1040 0116 0020     		mov	r0, #0
 1041 0118 11E0     		b	.L83
 1042              	.LVL124:
 1043              	.L73:
 1044              	.LBB208:
 1045              	.LBB201:
 1046              	.LBB196:
 1047              	.LBB195:
 1048              		.loc 3 291 0
 1049 011a 0120     		mov	r0, #1
 1050 011c 002A     		cmp	r2, #0
 1051 011e A7D0     		beq	.L72
 1052 0120 A0E7     		b	.L71
 1053              	.LVL125:
 1054              	.L84:
 1055              	.LBE195:
 1056              	.LBE196:
 1057              	.LBB197:
 1058              	.LBB187:
 1059              		.loc 2 246 0
 1060 0122 111C     		mov	r1, r2
 1061 0124 0D48     		ldr	r0, .L85+28
 1062 0126 805C     		ldrb	r0, [r0, r2]
 1063 0128 C507     		lsl	r5, r0, #31
 1064 012a F6D4     		bmi	.L73
 1065              	.LBE187:
 1066              	.LBE197:
 1067              	.LBB198:
 1068              	.LBB191:
 1069              		.loc 3 302 0
 1070 012c 0B48     		ldr	r0, .L85+28
 1071 012e 8CE7     		b	.L74
 1072              	.L60:
 1073              	.LBE191:
 1074              	.LBE198:
 1075              	.LBB199:
 1076              	.LBB188:
 1077              		.loc 2 246 0
 1078 0130 111C     		mov	r1, r2
 1079 0132 0948     		ldr	r0, .L85+24
 1080 0134 805C     		ldrb	r0, [r0, r2]
 1081 0136 C507     		lsl	r5, r0, #31
 1082 0138 EFD4     		bmi	.L73
 1083              	.LBE188:
ARM GAS  /tmp/ccvZzf3e.s 			page 20


 1084              	.LBE199:
 1085              	.LBB200:
 1086              	.LBB192:
 1087              		.loc 3 302 0
 1088 013a 0748     		ldr	r0, .L85+24
 1089 013c 85E7     		b	.L74
 1090              	.LVL126:
 1091              	.L83:
 1092              	.LBE192:
 1093              	.LBE200:
 1094              	.LBE201:
 1095              	.LBE208:
 1096              		.loc 1 244 0
 1097              		@ sp needed
 1098 013e F8BD     		pop	{r3, r4, r5, r6, r7, pc}
 1099              	.L86:
 1100              		.align	2
 1101              	.L85:
 1102 0140 00000000 		.word	USB_DeviceState
 1103 0144 00000000 		.word	endpointselected
 1104 0148 00000000 		.word	usb_data_buffer_size
 1105 014c 00000000 		.word	usb_data_buffer_OUT_size
 1106 0150 00000000 		.word	EndPointCmdStsList
 1107 0154 00FEFFFF 		.word	-512
 1108 0158 00000000 		.word	endpointhandle1
 1109 015c 00000000 		.word	endpointhandle0
 1110 0160 00000000 		.word	usb_data_buffer_index
 1111 0164 00000000 		.word	usb_data_buffer
 1112 0168 00000000 		.word	usb_data_buffer_IN_index
 1113 016c 00000000 		.word	usb_data_buffer_IN
 1114              		.cfi_endproc
 1115              	.LFE104:
 1116              		.size	CDC_Device_Flush, .-CDC_Device_Flush
 1117              		.section	.text.CDC_Device_USBTask,"ax",%progbits
 1118              		.align	2
 1119              		.global	CDC_Device_USBTask
 1120              		.code	16
 1121              		.thumb_func
 1122              		.type	CDC_Device_USBTask, %function
 1123              	CDC_Device_USBTask:
 1124              	.LFB100:
 1125              		.loc 1 163 0
 1126              		.cfi_startproc
 1127              	.LVL127:
 1128 0000 08B5     		push	{r3, lr}
 1129              		.cfi_def_cfa_offset 8
 1130              		.cfi_offset 3, -8
 1131              		.cfi_offset 14, -4
 1132              		.loc 1 164 0
 1133 0002 437B     		ldrb	r3, [r0, #13]
 1134 0004 054A     		ldr	r2, .L89
 1135 0006 D35C     		ldrb	r3, [r2, r3]
 1136 0008 042B     		cmp	r3, #4
 1137 000a 06D1     		bne	.L87
 1138              		.loc 1 164 0 is_stmt 0 discriminator 1
 1139 000c 428A     		ldrh	r2, [r0, #18]
 1140 000e 838A     		ldrh	r3, [r0, #20]
ARM GAS  /tmp/ccvZzf3e.s 			page 21


 1141 0010 1B04     		lsl	r3, r3, #16
 1142 0012 1343     		orr	r3, r2
 1143 0014 01D0     		beq	.L87
 1144              		.loc 1 168 0 is_stmt 1
 1145 0016 FFF7FEFF 		bl	CDC_Device_Flush
 1146              	.LVL128:
 1147              	.L87:
 1148              		.loc 1 170 0
 1149              		@ sp needed
 1150 001a 08BD     		pop	{r3, pc}
 1151              	.L90:
 1152              		.align	2
 1153              	.L89:
 1154 001c 00000000 		.word	USB_DeviceState
 1155              		.cfi_endproc
 1156              	.LFE100:
 1157              		.size	CDC_Device_USBTask, .-CDC_Device_USBTask
 1158              		.section	.text.CDC_Device_BytesReceived,"ax",%progbits
 1159              		.align	2
 1160              		.global	CDC_Device_BytesReceived
 1161              		.code	16
 1162              		.thumb_func
 1163              		.type	CDC_Device_BytesReceived, %function
 1164              	CDC_Device_BytesReceived:
 1165              	.LFB105:
 1166              		.loc 1 247 0
 1167              		.cfi_startproc
 1168              	.LVL129:
 1169 0000 10B5     		push	{r4, lr}
 1170              		.cfi_def_cfa_offset 8
 1171              		.cfi_offset 4, -8
 1172              		.cfi_offset 14, -4
 1173 0002 031C     		mov	r3, r0
 1174              		.loc 1 248 0
 1175 0004 427B     		ldrb	r2, [r0, #13]
 1176 0006 2C49     		ldr	r1, .L108
 1177 0008 895C     		ldrb	r1, [r1, r2]
 1178              		.loc 1 249 0
 1179 000a 0020     		mov	r0, #0
 1180              	.LVL130:
 1181              		.loc 1 248 0
 1182 000c 0429     		cmp	r1, #4
 1183 000e 52D1     		bne	.L92
 1184              		.loc 1 248 0 is_stmt 0 discriminator 1
 1185 0010 588A     		ldrh	r0, [r3, #18]
 1186 0012 998A     		ldrh	r1, [r3, #20]
 1187 0014 0904     		lsl	r1, r1, #16
 1188 0016 0143     		orr	r1, r0
 1189              		.loc 1 249 0 is_stmt 1 discriminator 1
 1190 0018 0020     		mov	r0, #0
 1191              		.loc 1 248 0 discriminator 1
 1192 001a 0029     		cmp	r1, #0
 1193 001c 4BD0     		beq	.L92
 1194              		.loc 1 251 0
 1195 001e 5879     		ldrb	r0, [r3, #5]
 1196              	.LVL131:
 1197              	.LBB209:
ARM GAS  /tmp/ccvZzf3e.s 			page 22


 1198              	.LBB210:
 1199              		.loc 2 205 0
 1200 0020 2649     		ldr	r1, .L108+4
 1201 0022 8854     		strb	r0, [r1, r2]
 1202              	.LVL132:
 1203              	.LBE210:
 1204              	.LBE209:
 1205              		.loc 1 253 0
 1206 0024 5B7B     		ldrb	r3, [r3, #13]
 1207              	.LVL133:
 1208              	.LBB211:
 1209              	.LBB212:
 1210              		.loc 3 302 0
 1211 0026 002B     		cmp	r3, #0
 1212 0028 01D0     		beq	.L103
 1213 002a 2549     		ldr	r1, .L108+8
 1214 002c 00E0     		b	.L93
 1215              	.L103:
 1216 002e 2549     		ldr	r1, .L108+12
 1217              	.L93:
 1218 0030 224A     		ldr	r2, .L108+4
 1219              	.LVL134:
 1220 0032 D25C     		ldrb	r2, [r2, r3]
 1221 0034 895C     		ldrb	r1, [r1, r2]
 1222 0036 C900     		lsl	r1, r1, #3
 1223 0038 2348     		ldr	r0, .L108+16
 1224              	.LVL135:
 1225 003a 4118     		add	r1, r0, r1
 1226 003c 4888     		ldrh	r0, [r1, #2]
 1227 003e 8005     		lsl	r0, r0, #22
 1228 0040 800D     		lsr	r0, r0, #22
 1229              	.LBE212:
 1230              	.LBE211:
 1231              		.loc 1 253 0
 1232 0042 8021     		mov	r1, #128
 1233 0044 8900     		lsl	r1, r1, #2
 1234 0046 8842     		cmp	r0, r1
 1235 0048 34D0     		beq	.L104
 1236              	.LVL136:
 1237              	.LBB213:
 1238              	.LBB214:
 1239              		.loc 3 278 0
 1240 004a 002A     		cmp	r2, #0
 1241 004c 06D1     		bne	.L94
 1242              		.loc 3 279 0
 1243 004e 9900     		lsl	r1, r3, #2
 1244 0050 1E48     		ldr	r0, .L108+20
 1245 0052 0958     		ldr	r1, [r1, r0]
 1246              	.LBE214:
 1247              	.LBE213:
 1248              		.loc 1 255 0
 1249 0054 89B2     		uxth	r1, r1
 1250 0056 0029     		cmp	r1, #0
 1251 0058 07D0     		beq	.L95
 1252 005a 21E0     		b	.L106
 1253              	.L94:
 1254              	.LBB216:
ARM GAS  /tmp/ccvZzf3e.s 			page 23


 1255              	.LBB215:
 1256              		.loc 3 282 0
 1257 005c 9900     		lsl	r1, r3, #2
 1258 005e 1C48     		ldr	r0, .L108+24
 1259 0060 0958     		ldr	r1, [r1, r0]
 1260              	.LBE215:
 1261              	.LBE216:
 1262              		.loc 1 255 0
 1263 0062 89B2     		uxth	r1, r1
 1264 0064 0029     		cmp	r1, #0
 1265 0066 05D0     		beq	.L97
 1266 0068 1FE0     		b	.L107
 1267              	.L95:
 1268              	.LVL137:
 1269              	.LBB217:
 1270              	.LBB218:
 1271              		.loc 3 344 0
 1272 006a 9900     		lsl	r1, r3, #2
 1273 006c 0024     		mov	r4, #0
 1274 006e 1948     		ldr	r0, .L108+28
 1275 0070 0C50     		str	r4, [r1, r0]
 1276 0072 03E0     		b	.L99
 1277              	.LVL138:
 1278              	.L97:
 1279              		.loc 3 346 0
 1280 0074 9900     		lsl	r1, r3, #2
 1281 0076 0024     		mov	r4, #0
 1282 0078 1748     		ldr	r0, .L108+32
 1283 007a 0C50     		str	r4, [r1, r0]
 1284              	.LVL139:
 1285              	.L99:
 1286              		.loc 3 348 0
 1287 007c 002B     		cmp	r3, #0
 1288 007e 01D0     		beq	.L105
 1289 0080 0F4B     		ldr	r3, .L108+8
 1290              	.LVL140:
 1291 0082 00E0     		b	.L100
 1292              	.LVL141:
 1293              	.L105:
 1294 0084 0F4B     		ldr	r3, .L108+12
 1295              	.LVL142:
 1296              	.L100:
 1297 0086 9B5C     		ldrb	r3, [r3, r2]
 1298 0088 DB00     		lsl	r3, r3, #3
 1299 008a 0F4A     		ldr	r2, .L108+16
 1300 008c D318     		add	r3, r2, r3
 1301 008e 5988     		ldrh	r1, [r3, #2]
 1302 0090 890A     		lsr	r1, r1, #10
 1303 0092 8902     		lsl	r1, r1, #10
 1304 0094 8022     		mov	r2, #128
 1305 0096 9200     		lsl	r2, r2, #2
 1306 0098 0A43     		orr	r2, r1
 1307 009a 5A80     		strh	r2, [r3, #2]
 1308              	.LBE218:
 1309              	.LBE217:
 1310              		.loc 1 258 0
 1311 009c 0020     		mov	r0, #0
ARM GAS  /tmp/ccvZzf3e.s 			page 24


 1312 009e 0AE0     		b	.L92
 1313              	.LVL143:
 1314              	.L106:
 1315              	.LBB219:
 1316              	.LBB220:
 1317              		.loc 3 279 0
 1318 00a0 9B00     		lsl	r3, r3, #2
 1319              	.LVL144:
 1320 00a2 0A4A     		ldr	r2, .L108+20
 1321 00a4 9858     		ldr	r0, [r3, r2]
 1322 00a6 80B2     		uxth	r0, r0
 1323 00a8 05E0     		b	.L92
 1324              	.LVL145:
 1325              	.L107:
 1326              		.loc 3 282 0
 1327 00aa 9B00     		lsl	r3, r3, #2
 1328              	.LVL146:
 1329 00ac 084A     		ldr	r2, .L108+24
 1330 00ae 9858     		ldr	r0, [r3, r2]
 1331 00b0 80B2     		uxth	r0, r0
 1332 00b2 00E0     		b	.L92
 1333              	.LVL147:
 1334              	.L104:
 1335              	.LBE220:
 1336              	.LBE219:
 1337              		.loc 1 267 0
 1338 00b4 0020     		mov	r0, #0
 1339              	.LVL148:
 1340              	.L92:
 1341              		.loc 1 269 0
 1342              		@ sp needed
 1343 00b6 10BD     		pop	{r4, pc}
 1344              	.L109:
 1345              		.align	2
 1346              	.L108:
 1347 00b8 00000000 		.word	USB_DeviceState
 1348 00bc 00000000 		.word	endpointselected
 1349 00c0 00000000 		.word	endpointhandle1
 1350 00c4 00000000 		.word	endpointhandle0
 1351 00c8 00000000 		.word	EndPointCmdStsList
 1352 00cc 00000000 		.word	usb_data_buffer_size
 1353 00d0 00000000 		.word	usb_data_buffer_OUT_size
 1354 00d4 00000000 		.word	usb_data_buffer_index
 1355 00d8 00000000 		.word	usb_data_buffer_OUT_index
 1356              		.cfi_endproc
 1357              	.LFE105:
 1358              		.size	CDC_Device_BytesReceived, .-CDC_Device_BytesReceived
 1359              		.section	.text.CDC_Device_ReceiveByte,"ax",%progbits
 1360              		.align	2
 1361              		.global	CDC_Device_ReceiveByte
 1362              		.code	16
 1363              		.thumb_func
 1364              		.type	CDC_Device_ReceiveByte, %function
 1365              	CDC_Device_ReceiveByte:
 1366              	.LFB106:
 1367              		.loc 1 272 0
 1368              		.cfi_startproc
ARM GAS  /tmp/ccvZzf3e.s 			page 25


 1369              	.LVL149:
 1370 0000 30B5     		push	{r4, r5, lr}
 1371              		.cfi_def_cfa_offset 12
 1372              		.cfi_offset 4, -12
 1373              		.cfi_offset 5, -8
 1374              		.cfi_offset 14, -4
 1375              		.loc 1 273 0
 1376 0002 437B     		ldrb	r3, [r0, #13]
 1377 0004 484A     		ldr	r2, .L133
 1378 0006 D25C     		ldrb	r2, [r2, r3]
 1379 0008 042A     		cmp	r2, #4
 1380 000a 78D1     		bne	.L125
 1381              		.loc 1 273 0 is_stmt 0 discriminator 1
 1382 000c 418A     		ldrh	r1, [r0, #18]
 1383 000e 828A     		ldrh	r2, [r0, #20]
 1384 0010 1204     		lsl	r2, r2, #16
 1385 0012 0A43     		orr	r2, r1
 1386 0014 75D0     		beq	.L126
 1387              	.LVL150:
 1388              		.loc 1 278 0 is_stmt 1
 1389 0016 4179     		ldrb	r1, [r0, #5]
 1390              	.LVL151:
 1391              	.LBB221:
 1392              	.LBB222:
 1393              		.loc 2 205 0
 1394 0018 444A     		ldr	r2, .L133+4
 1395 001a D154     		strb	r1, [r2, r3]
 1396              	.LVL152:
 1397              	.LBE222:
 1398              	.LBE221:
 1399              		.loc 1 280 0
 1400 001c 437B     		ldrb	r3, [r0, #13]
 1401              	.LVL153:
 1402              	.LBB223:
 1403              	.LBB224:
 1404              		.loc 3 302 0
 1405 001e 002B     		cmp	r3, #0
 1406 0020 01D0     		beq	.L127
 1407 0022 4349     		ldr	r1, .L133+8
 1408              	.LVL154:
 1409 0024 00E0     		b	.L112
 1410              	.LVL155:
 1411              	.L127:
 1412 0026 4349     		ldr	r1, .L133+12
 1413              	.LVL156:
 1414              	.L112:
 1415 0028 404A     		ldr	r2, .L133+4
 1416 002a D25C     		ldrb	r2, [r2, r3]
 1417 002c 895C     		ldrb	r1, [r1, r2]
 1418 002e C900     		lsl	r1, r1, #3
 1419 0030 414C     		ldr	r4, .L133+16
 1420 0032 6118     		add	r1, r4, r1
 1421 0034 4C88     		ldrh	r4, [r1, #2]
 1422 0036 A405     		lsl	r4, r4, #22
 1423 0038 A40D     		lsr	r4, r4, #22
 1424              	.LBE224:
 1425              	.LBE223:
ARM GAS  /tmp/ccvZzf3e.s 			page 26


 1426              		.loc 1 280 0
 1427 003a 8021     		mov	r1, #128
 1428 003c 8900     		lsl	r1, r1, #2
 1429 003e 8C42     		cmp	r4, r1
 1430 0040 61D0     		beq	.L128
 1431              	.LVL157:
 1432              	.LBB225:
 1433              	.LBB226:
 1434              		.loc 3 278 0
 1435 0042 002A     		cmp	r2, #0
 1436 0044 06D1     		bne	.L113
 1437              		.loc 3 279 0
 1438 0046 9A00     		lsl	r2, r3, #2
 1439 0048 3C49     		ldr	r1, .L133+20
 1440 004a 5258     		ldr	r2, [r2, r1]
 1441              	.LBE226:
 1442              	.LBE225:
 1443              		.loc 1 282 0
 1444 004c 92B2     		uxth	r2, r2
 1445 004e 002A     		cmp	r2, #0
 1446 0050 07D1     		bne	.L114
 1447 0052 5BE0     		b	.L130
 1448              	.L113:
 1449              	.LBB228:
 1450              	.LBB227:
 1451              		.loc 3 282 0
 1452 0054 9A00     		lsl	r2, r3, #2
 1453 0056 3A49     		ldr	r1, .L133+24
 1454 0058 5258     		ldr	r2, [r2, r1]
 1455              	.LBE227:
 1456              	.LBE228:
 1457              		.loc 1 282 0
 1458 005a 92B2     		uxth	r2, r2
 1459 005c 002A     		cmp	r2, #0
 1460 005e 0FD1     		bne	.L116
 1461 0060 5AE0     		b	.L131
 1462              	.L114:
 1463              	.LVL158:
 1464              	.LBB229:
 1465              	.LBB230:
 1466              		.loc 2 224 0
 1467 0062 384C     		ldr	r4, .L133+28
 1468 0064 9A00     		lsl	r2, r3, #2
 1469 0066 1159     		ldr	r1, [r2, r4]
 1470 0068 5B02     		lsl	r3, r3, #9
 1471              	.LVL159:
 1472 006a 5B18     		add	r3, r3, r1
 1473 006c 3649     		ldr	r1, .L133+32
 1474 006e 595C     		ldrb	r1, [r3, r1]
 1475              	.LVL160:
 1476              		.loc 2 225 0
 1477 0070 1359     		ldr	r3, [r2, r4]
 1478 0072 0133     		add	r3, r3, #1
 1479 0074 1351     		str	r3, [r2, r4]
 1480              	.LVL161:
 1481              		.loc 2 226 0
 1482 0076 314B     		ldr	r3, .L133+20
ARM GAS  /tmp/ccvZzf3e.s 			page 27


 1483 0078 D458     		ldr	r4, [r2, r3]
 1484 007a 013C     		sub	r4, r4, #1
 1485 007c D450     		str	r4, [r2, r3]
 1486 007e 0DE0     		b	.L118
 1487              	.LVL162:
 1488              	.L116:
 1489              		.loc 2 229 0
 1490 0080 324C     		ldr	r4, .L133+36
 1491 0082 9A00     		lsl	r2, r3, #2
 1492 0084 1159     		ldr	r1, [r2, r4]
 1493 0086 5B02     		lsl	r3, r3, #9
 1494              	.LVL163:
 1495 0088 5B18     		add	r3, r3, r1
 1496 008a 3149     		ldr	r1, .L133+40
 1497 008c 595C     		ldrb	r1, [r3, r1]
 1498              	.LVL164:
 1499              		.loc 2 230 0
 1500 008e 1359     		ldr	r3, [r2, r4]
 1501 0090 0133     		add	r3, r3, #1
 1502 0092 1351     		str	r3, [r2, r4]
 1503              	.LVL165:
 1504              		.loc 2 231 0
 1505 0094 2A4B     		ldr	r3, .L133+24
 1506 0096 D458     		ldr	r4, [r2, r3]
 1507 0098 013C     		sub	r4, r4, #1
 1508 009a D450     		str	r4, [r2, r3]
 1509              	.LVL166:
 1510              	.L118:
 1511              	.LBE230:
 1512              	.LBE229:
 1513              		.loc 1 287 0
 1514 009c 437B     		ldrb	r3, [r0, #13]
 1515              	.LVL167:
 1516              	.LBB231:
 1517              	.LBB232:
 1518              		.loc 3 278 0
 1519 009e 1A1C     		mov	r2, r3
 1520 00a0 2248     		ldr	r0, .L133+4
 1521              	.LVL168:
 1522 00a2 C05C     		ldrb	r0, [r0, r3]
 1523 00a4 0028     		cmp	r0, #0
 1524 00a6 07D1     		bne	.L119
 1525              	.LVL169:
 1526              	.L124:
 1527              		.loc 3 279 0
 1528 00a8 9400     		lsl	r4, r2, #2
 1529 00aa 244D     		ldr	r5, .L133+20
 1530 00ac 6459     		ldr	r4, [r4, r5]
 1531              	.LBE232:
 1532              	.LBE231:
 1533              		.loc 1 287 0
 1534 00ae A4B2     		uxth	r4, r4
 1535 00b0 002C     		cmp	r4, #0
 1536 00b2 09D0     		beq	.L120
 1537 00b4 081C     		mov	r0, r1
 1538 00b6 27E0     		b	.L111
 1539              	.LVL170:
ARM GAS  /tmp/ccvZzf3e.s 			page 28


 1540              	.L119:
 1541              	.LBB236:
 1542              	.LBB233:
 1543              		.loc 3 282 0
 1544 00b8 9400     		lsl	r4, r2, #2
 1545 00ba 214D     		ldr	r5, .L133+24
 1546 00bc 6459     		ldr	r4, [r4, r5]
 1547              	.LBE233:
 1548              	.LBE236:
 1549              		.loc 1 287 0
 1550 00be A4B2     		uxth	r4, r4
 1551 00c0 002C     		cmp	r4, #0
 1552 00c2 06D0     		beq	.L121
 1553 00c4 081C     		mov	r0, r1
 1554 00c6 1FE0     		b	.L111
 1555              	.L120:
 1556              	.LVL171:
 1557              	.LBB237:
 1558              	.LBB238:
 1559              		.loc 3 344 0
 1560 00c8 9200     		lsl	r2, r2, #2
 1561 00ca 0025     		mov	r5, #0
 1562 00cc 1D4C     		ldr	r4, .L133+28
 1563 00ce 1551     		str	r5, [r2, r4]
 1564 00d0 03E0     		b	.L122
 1565              	.LVL172:
 1566              	.L121:
 1567              		.loc 3 346 0
 1568 00d2 9200     		lsl	r2, r2, #2
 1569 00d4 0025     		mov	r5, #0
 1570 00d6 1D4C     		ldr	r4, .L133+36
 1571 00d8 1551     		str	r5, [r2, r4]
 1572              	.LVL173:
 1573              	.L122:
 1574              		.loc 3 348 0
 1575 00da 002B     		cmp	r3, #0
 1576 00dc 01D0     		beq	.L129
 1577 00de 144B     		ldr	r3, .L133+8
 1578 00e0 00E0     		b	.L123
 1579              	.L129:
 1580 00e2 144B     		ldr	r3, .L133+12
 1581              	.L123:
 1582 00e4 1B5C     		ldrb	r3, [r3, r0]
 1583 00e6 DB00     		lsl	r3, r3, #3
 1584 00e8 134A     		ldr	r2, .L133+16
 1585 00ea D318     		add	r3, r2, r3
 1586 00ec 5888     		ldrh	r0, [r3, #2]
 1587 00ee 800A     		lsr	r0, r0, #10
 1588 00f0 8002     		lsl	r0, r0, #10
 1589 00f2 8022     		mov	r2, #128
 1590 00f4 9200     		lsl	r2, r2, #2
 1591 00f6 0243     		orr	r2, r0
 1592 00f8 5A80     		strh	r2, [r3, #2]
 1593 00fa 081C     		mov	r0, r1
 1594 00fc 04E0     		b	.L111
 1595              	.LVL174:
 1596              	.L125:
ARM GAS  /tmp/ccvZzf3e.s 			page 29


 1597              	.LBE238:
 1598              	.LBE237:
 1599              		.loc 1 274 0
 1600 00fe 1548     		ldr	r0, .L133+44
 1601              	.LVL175:
 1602 0100 02E0     		b	.L111
 1603              	.LVL176:
 1604              	.L126:
 1605 0102 1448     		ldr	r0, .L133+44
 1606              	.LVL177:
 1607 0104 00E0     		b	.L111
 1608              	.LVL178:
 1609              	.L128:
 1610              		.loc 1 276 0
 1611 0106 1348     		ldr	r0, .L133+44
 1612              	.LVL179:
 1613              	.L111:
 1614 0108 00B2     		sxth	r0, r0
 1615 010a 0BE0     		b	.L132
 1616              	.LVL180:
 1617              	.L130:
 1618              		.loc 1 287 0
 1619 010c 437B     		ldrb	r3, [r0, #13]
 1620              	.LVL181:
 1621              	.LBB239:
 1622              	.LBB234:
 1623              		.loc 3 278 0
 1624 010e 1A1C     		mov	r2, r3
 1625 0110 0649     		ldr	r1, .L133+4
 1626 0112 C85C     		ldrb	r0, [r1, r3]
 1627              	.LVL182:
 1628              	.LBE234:
 1629              	.LBE239:
 1630              		.loc 1 276 0
 1631 0114 0F49     		ldr	r1, .L133+44
 1632 0116 C7E7     		b	.L124
 1633              	.LVL183:
 1634              	.L131:
 1635              		.loc 1 287 0
 1636 0118 437B     		ldrb	r3, [r0, #13]
 1637              	.LVL184:
 1638              	.LBB240:
 1639              	.LBB235:
 1640              		.loc 3 278 0
 1641 011a 1A1C     		mov	r2, r3
 1642 011c 0349     		ldr	r1, .L133+4
 1643 011e C85C     		ldrb	r0, [r1, r3]
 1644              	.LVL185:
 1645              	.LBE235:
 1646              	.LBE240:
 1647              		.loc 1 276 0
 1648 0120 0C49     		ldr	r1, .L133+44
 1649 0122 C9E7     		b	.L119
 1650              	.LVL186:
 1651              	.L132:
 1652              		.loc 1 292 0
 1653              		@ sp needed
ARM GAS  /tmp/ccvZzf3e.s 			page 30


 1654 0124 30BD     		pop	{r4, r5, pc}
 1655              	.L134:
 1656 0126 C046     		.align	2
 1657              	.L133:
 1658 0128 00000000 		.word	USB_DeviceState
 1659 012c 00000000 		.word	endpointselected
 1660 0130 00000000 		.word	endpointhandle1
 1661 0134 00000000 		.word	endpointhandle0
 1662 0138 00000000 		.word	EndPointCmdStsList
 1663 013c 00000000 		.word	usb_data_buffer_size
 1664 0140 00000000 		.word	usb_data_buffer_OUT_size
 1665 0144 00000000 		.word	usb_data_buffer_index
 1666 0148 00000000 		.word	usb_data_buffer
 1667 014c 00000000 		.word	usb_data_buffer_OUT_index
 1668 0150 00000000 		.word	usb_data_buffer_OUT
 1669 0154 FFFF0000 		.word	65535
 1670              		.cfi_endproc
 1671              	.LFE106:
 1672              		.size	CDC_Device_ReceiveByte, .-CDC_Device_ReceiveByte
 1673              		.section	.text.CDC_Device_SendControlLineStateChange,"ax",%progbits
 1674              		.align	2
 1675              		.global	CDC_Device_SendControlLineStateChange
 1676              		.code	16
 1677              		.thumb_func
 1678              		.type	CDC_Device_SendControlLineStateChange, %function
 1679              	CDC_Device_SendControlLineStateChange:
 1680              	.LFB107:
 1681              		.loc 1 295 0
 1682              		.cfi_startproc
 1683              	.LVL187:
 1684 0000 30B5     		push	{r4, r5, lr}
 1685              		.cfi_def_cfa_offset 12
 1686              		.cfi_offset 4, -12
 1687              		.cfi_offset 5, -8
 1688              		.cfi_offset 14, -4
 1689 0002 83B0     		sub	sp, sp, #12
 1690              		.cfi_def_cfa_offset 24
 1691 0004 041C     		mov	r4, r0
 1692              		.loc 1 296 0
 1693 0006 437B     		ldrb	r3, [r0, #13]
 1694 0008 204A     		ldr	r2, .L143
 1695 000a D25C     		ldrb	r2, [r2, r3]
 1696 000c 042A     		cmp	r2, #4
 1697 000e 3BD1     		bne	.L135
 1698              		.loc 1 296 0 is_stmt 0 discriminator 1
 1699 0010 418A     		ldrh	r1, [r0, #18]
 1700 0012 828A     		ldrh	r2, [r0, #20]
 1701 0014 1204     		lsl	r2, r2, #16
 1702 0016 0A43     		orr	r2, r1
 1703 0018 36D0     		beq	.L135
 1704              		.loc 1 299 0 is_stmt 1
 1705 001a 427A     		ldrb	r2, [r0, #9]
 1706              	.LVL188:
 1707              	.LBB241:
 1708              	.LBB242:
 1709              		.loc 2 205 0
 1710 001c 1C4D     		ldr	r5, .L143+4
ARM GAS  /tmp/ccvZzf3e.s 			page 31


 1711 001e EA54     		strb	r2, [r5, r3]
 1712              	.LVL189:
 1713              	.LBE242:
 1714              	.LBE241:
 1715              		.loc 1 301 0
 1716 0020 6846     		mov	r0, sp
 1717              	.LVL190:
 1718 0022 1C49     		ldr	r1, .L143+8
 1719 0024 0822     		mov	r2, #8
 1720              	.LVL191:
 1721 0026 FFF7FEFF 		bl	memcpy
 1722              	.LVL192:
 1723              		.loc 1 310 0
 1724 002a 607B     		ldrb	r0, [r4, #13]
 1725 002c 6946     		mov	r1, sp
 1726 002e 0822     		mov	r2, #8
 1727 0030 0023     		mov	r3, #0
 1728 0032 FFF7FEFF 		bl	Endpoint_Write_Stream_LE
 1729              	.LVL193:
 1730              		.loc 1 311 0
 1731 0036 607B     		ldrb	r0, [r4, #13]
 1732 0038 211C     		mov	r1, r4
 1733 003a 1031     		add	r1, r1, #16
 1734 003c 0222     		mov	r2, #2
 1735 003e 0023     		mov	r3, #0
 1736 0040 FFF7FEFF 		bl	Endpoint_Write_Stream_LE
 1737              	.LVL194:
 1738              		.loc 1 314 0
 1739 0044 617B     		ldrb	r1, [r4, #13]
 1740              	.LVL195:
 1741              	.LBB243:
 1742              	.LBB244:
 1743              		.loc 3 327 0
 1744 0046 6B5C     		ldrb	r3, [r5, r1]
 1745 0048 002B     		cmp	r3, #0
 1746 004a 07D0     		beq	.L137
 1747 004c 0029     		cmp	r1, #0
 1748 004e 01D0     		beq	.L142
 1749 0050 114A     		ldr	r2, .L143+12
 1750 0052 00E0     		b	.L138
 1751              	.L142:
 1752 0054 114A     		ldr	r2, .L143+16
 1753              	.L138:
 1754 0056 D05C     		ldrb	r0, [r2, r3]
 1755              	.LVL196:
 1756              		.loc 3 328 0
 1757 0058 0128     		cmp	r0, #1
 1758 005a 0BD1     		bne	.L139
 1759              	.LVL197:
 1760              	.L137:
 1761              		.loc 3 329 0
 1762 005c 104C     		ldr	r4, .L143+20
 1763              	.LVL198:
 1764 005e 8D00     		lsl	r5, r1, #2
 1765 0060 2A59     		ldr	r2, [r5, r4]
 1766 0062 4902     		lsl	r1, r1, #9
 1767              	.LVL199:
ARM GAS  /tmp/ccvZzf3e.s 			page 32


 1768 0064 0F4B     		ldr	r3, .L143+24
 1769 0066 C918     		add	r1, r1, r3
 1770 0068 0120     		mov	r0, #1
 1771 006a FFF7FEFF 		bl	DcdDataTransfer
 1772              	.LVL200:
 1773              		.loc 3 330 0
 1774 006e 0023     		mov	r3, #0
 1775 0070 2B51     		str	r3, [r5, r4]
 1776 0072 09E0     		b	.L135
 1777              	.LVL201:
 1778              	.L139:
 1779              		.loc 3 333 0
 1780 0074 0C4C     		ldr	r4, .L143+28
 1781              	.LVL202:
 1782 0076 8D00     		lsl	r5, r1, #2
 1783 0078 2A59     		ldr	r2, [r5, r4]
 1784              	.LVL203:
 1785 007a 4902     		lsl	r1, r1, #9
 1786              	.LVL204:
 1787 007c 0B4B     		ldr	r3, .L143+32
 1788 007e C918     		add	r1, r1, r3
 1789 0080 FFF7FEFF 		bl	DcdDataTransfer
 1790              	.LVL205:
 1791              		.loc 3 334 0
 1792 0084 0023     		mov	r3, #0
 1793 0086 2B51     		str	r3, [r5, r4]
 1794              	.L135:
 1795              	.LBE244:
 1796              	.LBE243:
 1797              		.loc 1 315 0
 1798 0088 03B0     		add	sp, sp, #12
 1799              		@ sp needed
 1800 008a 30BD     		pop	{r4, r5, pc}
 1801              	.L144:
 1802              		.align	2
 1803              	.L143:
 1804 008c 00000000 		.word	USB_DeviceState
 1805 0090 00000000 		.word	endpointselected
 1806 0094 00000000 		.word	.LANCHOR0
 1807 0098 00000000 		.word	endpointhandle1
 1808 009c 00000000 		.word	endpointhandle0
 1809 00a0 00000000 		.word	usb_data_buffer_index
 1810 00a4 00000000 		.word	usb_data_buffer
 1811 00a8 00000000 		.word	usb_data_buffer_IN_index
 1812 00ac 00000000 		.word	usb_data_buffer_IN
 1813              		.cfi_endproc
 1814              	.LFE107:
 1815              		.size	CDC_Device_SendControlLineStateChange, .-CDC_Device_SendControlLineStateChange
 1816              		.section	.text.CDC_Device_Event_Stub,"ax",%progbits
 1817              		.align	2
 1818              		.global	CDC_Device_Event_Stub
 1819              		.code	16
 1820              		.thumb_func
 1821              		.type	CDC_Device_Event_Stub, %function
 1822              	CDC_Device_Event_Stub:
 1823              	.LFB108:
 1824              		.loc 1 366 0
ARM GAS  /tmp/ccvZzf3e.s 			page 33


 1825              		.cfi_startproc
 1826              	.LVL206:
 1827              		.loc 1 368 0
 1828              		@ sp needed
 1829 0000 7047     		bx	lr
 1830              		.cfi_endproc
 1831              	.LFE108:
 1832              		.size	CDC_Device_Event_Stub, .-CDC_Device_Event_Stub
 1833              		.weak	EVENT_CDC_Device_LineEncodingChanged
 1834              		.thumb_set EVENT_CDC_Device_LineEncodingChanged,CDC_Device_Event_Stub
 1835              		.weak	EVENT_CDC_Device_ControLineStateChanged
 1836              		.thumb_set EVENT_CDC_Device_ControLineStateChanged,CDC_Device_Event_Stub
 1837 0002 C046     		.section	.text.CDC_Device_Event_Stub2,"ax",%progbits
 1838              		.align	2
 1839              		.global	CDC_Device_Event_Stub2
 1840              		.code	16
 1841              		.thumb_func
 1842              		.type	CDC_Device_Event_Stub2, %function
 1843              	CDC_Device_Event_Stub2:
 1844              	.LFB109:
 1845              		.loc 1 371 0
 1846              		.cfi_startproc
 1847              	.LVL207:
 1848              		.loc 1 372 0
 1849              		@ sp needed
 1850 0000 7047     		bx	lr
 1851              		.cfi_endproc
 1852              	.LFE109:
 1853              		.size	CDC_Device_Event_Stub2, .-CDC_Device_Event_Stub2
 1854              		.weak	EVENT_CDC_Device_BreakSent
 1855              		.thumb_set EVENT_CDC_Device_BreakSent,CDC_Device_Event_Stub2
 1856 0002 C046     		.section	.text.CDC_Device_ProcessControlRequest,"ax",%progbits
 1857              		.align	2
 1858              		.global	CDC_Device_ProcessControlRequest
 1859              		.code	16
 1860              		.thumb_func
 1861              		.type	CDC_Device_ProcessControlRequest, %function
 1862              	CDC_Device_ProcessControlRequest:
 1863              	.LFB98:
 1864              		.loc 1 44 0
 1865              		.cfi_startproc
 1866              	.LVL208:
 1867 0000 F8B5     		push	{r3, r4, r5, r6, r7, lr}
 1868              		.cfi_def_cfa_offset 24
 1869              		.cfi_offset 3, -24
 1870              		.cfi_offset 4, -20
 1871              		.cfi_offset 5, -16
 1872              		.cfi_offset 6, -12
 1873              		.cfi_offset 7, -8
 1874              		.cfi_offset 14, -4
 1875 0002 041C     		mov	r4, r0
 1876              	.LVL209:
 1877              	.LBB245:
 1878              	.LBB246:
 1879              		.loc 3 310 0
 1880 0004 CF4B     		ldr	r3, .L201
 1881 0006 1B68     		ldr	r3, [r3]
ARM GAS  /tmp/ccvZzf3e.s 			page 34


 1882              	.LBE246:
 1883              	.LBE245:
 1884              		.loc 1 45 0
 1885 0008 DA05     		lsl	r2, r3, #23
 1886 000a 00D4     		bmi	.LCB2071
 1887 000c AFE2     		b	.L147	@long jump
 1888              	.LCB2071:
 1889              		.loc 1 48 0
 1890 000e CE4B     		ldr	r3, .L201+4
 1891 0010 1979     		ldrb	r1, [r3, #4]
 1892 0012 5B79     		ldrb	r3, [r3, #5]
 1893 0014 1B02     		lsl	r3, r3, #8
 1894 0016 0278     		ldrb	r2, [r0]
 1895 0018 0B43     		orr	r3, r1
 1896 001a 9A42     		cmp	r2, r3
 1897 001c 00D0     		beq	.LCB2081
 1898 001e A6E2     		b	.L147	@long jump
 1899              	.LCB2081:
 1900              		.loc 1 51 0
 1901 0020 C94B     		ldr	r3, .L201+4
 1902 0022 5B78     		ldrb	r3, [r3, #1]
 1903 0024 212B     		cmp	r3, #33
 1904 0026 0DD0     		beq	.L149
 1905 0028 DAB2     		uxtb	r2, r3
 1906 002a 212A     		cmp	r2, #33
 1907 002c 03D8     		bhi	.L150
 1908 002e 202B     		cmp	r3, #32
 1909 0030 00D1     		bne	.LCB2092
 1910 0032 10E1     		b	.L151	@long jump
 1911              	.LCB2092:
 1912 0034 9BE2     		b	.L147
 1913              	.L150:
 1914 0036 222B     		cmp	r3, #34
 1915 0038 00D1     		bne	.LCB2099
 1916 003a 65E2     		b	.L152	@long jump
 1917              	.LCB2099:
 1918 003c 232B     		cmp	r3, #35
 1919 003e 00D1     		bne	.LCB2102
 1920 0040 7EE2     		b	.L153	@long jump
 1921              	.LCB2102:
 1922 0042 94E2     		b	.L147
 1923              	.L149:
 1924              		.loc 1 54 0
 1925 0044 C04B     		ldr	r3, .L201+4
 1926 0046 1B78     		ldrb	r3, [r3]
 1927 0048 A12B     		cmp	r3, #161
 1928 004a 00D0     		beq	.LCB2110
 1929 004c 8FE2     		b	.L147	@long jump
 1930              	.LCB2110:
 1931              		.loc 1 56 0
 1932 004e 427B     		ldrb	r2, [r0, #13]
 1933              	.LVL210:
 1934              	.LBB247:
 1935              	.LBB248:
 1936              		.loc 3 318 0
 1937 0050 BC4B     		ldr	r3, .L201
 1938 0052 1868     		ldr	r0, [r3]
ARM GAS  /tmp/ccvZzf3e.s 			page 35


 1939              	.LVL211:
 1940 0054 8021     		mov	r1, #128
 1941 0056 4900     		lsl	r1, r1, #1
 1942 0058 0143     		orr	r1, r0
 1943 005a 1960     		str	r1, [r3]
 1944              	.LVL212:
 1945              		.loc 3 319 0
 1946 005c 9200     		lsl	r2, r2, #2
 1947              	.LVL213:
 1948 005e 0021     		mov	r1, #0
 1949 0060 BA4B     		ldr	r3, .L201+8
 1950 0062 D150     		str	r1, [r2, r3]
 1951              	.LBE248:
 1952              	.LBE247:
 1953              		.loc 1 58 0
 1954 0064 617B     		ldrb	r1, [r4, #13]
 1955              	.LBB249:
 1956              	.LBB250:
 1957              		.loc 3 292 0
 1958 0066 BA4B     		ldr	r3, .L201+12
 1959 0068 5A5C     		ldrb	r2, [r3, r1]
 1960 006a 0029     		cmp	r1, #0
 1961 006c 01D0     		beq	.L154
 1962 006e B94E     		ldr	r6, .L201+16
 1963 0070 00E0     		b	.L155
 1964              	.L154:
 1965 0072 B94E     		ldr	r6, .L201+20
 1966              	.L155:
 1967 0074 B618     		add	r6, r6, r2
 1968              		.loc 3 291 0
 1969 0076 0125     		mov	r5, #1
 1970              		.loc 3 293 0
 1971 0078 B848     		ldr	r0, .L201+24
 1972              	.L158:
 1973              	.LVL214:
 1974              		.loc 3 291 0 discriminator 1
 1975 007a 2B1C     		mov	r3, r5
 1976 007c 002A     		cmp	r2, #0
 1977 007e 00D0     		beq	.L156
 1978              		.loc 3 291 0 is_stmt 0
 1979 0080 3378     		ldrb	r3, [r6]
 1980              	.L156:
 1981              	.LVL215:
 1982              		.loc 3 293 0 is_stmt 1
 1983 0082 DB00     		lsl	r3, r3, #3
 1984              	.LVL216:
 1985 0084 C318     		add	r3, r0, r3
 1986 0086 5B88     		ldrh	r3, [r3, #2]
 1987 0088 DB0B     		lsr	r3, r3, #15
 1988              	.LBE250:
 1989              	.LBE249:
 1990              		.loc 1 58 0
 1991 008a 012B     		cmp	r3, #1
 1992 008c F5D0     		beq	.L158
 1993              		.loc 1 60 0
 1994 008e 608A     		ldrh	r0, [r4, #18]
 1995 0090 A38A     		ldrh	r3, [r4, #20]
ARM GAS  /tmp/ccvZzf3e.s 			page 36


 1996 0092 1B04     		lsl	r3, r3, #16
 1997 0094 0343     		orr	r3, r0
 1998              	.LVL217:
 1999              	.LBB251:
 2000              	.LBB252:
 2001              		.loc 2 477 0
 2002 0096 D8B2     		uxtb	r0, r3
 2003              	.LVL218:
 2004              	.LBB253:
 2005              	.LBB254:
 2006              		.loc 2 284 0
 2007 0098 002A     		cmp	r2, #0
 2008 009a 0AD1     		bne	.L159
 2009              		.loc 2 285 0
 2010 009c AB4A     		ldr	r2, .L201+8
 2011 009e 8D00     		lsl	r5, r1, #2
 2012 00a0 AE58     		ldr	r6, [r5, r2]
 2013 00a2 4F02     		lsl	r7, r1, #9
 2014 00a4 BF19     		add	r7, r7, r6
 2015 00a6 AE4E     		ldr	r6, .L201+28
 2016 00a8 B855     		strb	r0, [r7, r6]
 2017              	.LVL219:
 2018              		.loc 2 286 0
 2019 00aa A858     		ldr	r0, [r5, r2]
 2020 00ac 0130     		add	r0, r0, #1
 2021 00ae A850     		str	r0, [r5, r2]
 2022 00b0 09E0     		b	.L160
 2023              	.LVL220:
 2024              	.L159:
 2025              		.loc 2 289 0
 2026 00b2 AC4A     		ldr	r2, .L201+32
 2027 00b4 8D00     		lsl	r5, r1, #2
 2028 00b6 AE58     		ldr	r6, [r5, r2]
 2029 00b8 4F02     		lsl	r7, r1, #9
 2030 00ba BF19     		add	r7, r7, r6
 2031 00bc AA4E     		ldr	r6, .L201+36
 2032 00be B855     		strb	r0, [r7, r6]
 2033              	.LVL221:
 2034              		.loc 2 290 0
 2035 00c0 A858     		ldr	r0, [r5, r2]
 2036 00c2 0130     		add	r0, r0, #1
 2037 00c4 A850     		str	r0, [r5, r2]
 2038              	.L160:
 2039              	.LBE254:
 2040              	.LBE253:
 2041              		.loc 2 478 0
 2042 00c6 1A0A     		lsr	r2, r3, #8
 2043 00c8 D0B2     		uxtb	r0, r2
 2044              	.LVL222:
 2045              	.LBB255:
 2046              	.LBB256:
 2047              		.loc 2 284 0
 2048 00ca A14A     		ldr	r2, .L201+12
 2049              	.LVL223:
 2050 00cc 525C     		ldrb	r2, [r2, r1]
 2051 00ce 002A     		cmp	r2, #0
 2052 00d0 0AD1     		bne	.L161
ARM GAS  /tmp/ccvZzf3e.s 			page 37


 2053              		.loc 2 285 0
 2054 00d2 9E4A     		ldr	r2, .L201+8
 2055 00d4 8D00     		lsl	r5, r1, #2
 2056 00d6 AE58     		ldr	r6, [r5, r2]
 2057 00d8 4F02     		lsl	r7, r1, #9
 2058 00da BF19     		add	r7, r7, r6
 2059 00dc A04E     		ldr	r6, .L201+28
 2060 00de B855     		strb	r0, [r7, r6]
 2061              		.loc 2 286 0
 2062 00e0 A858     		ldr	r0, [r5, r2]
 2063              	.LVL224:
 2064 00e2 0130     		add	r0, r0, #1
 2065 00e4 A850     		str	r0, [r5, r2]
 2066 00e6 09E0     		b	.L162
 2067              	.L161:
 2068              		.loc 2 289 0
 2069 00e8 9E4A     		ldr	r2, .L201+32
 2070 00ea 8D00     		lsl	r5, r1, #2
 2071 00ec AE58     		ldr	r6, [r5, r2]
 2072 00ee 4F02     		lsl	r7, r1, #9
 2073 00f0 BF19     		add	r7, r7, r6
 2074 00f2 9D4E     		ldr	r6, .L201+36
 2075 00f4 B855     		strb	r0, [r7, r6]
 2076              		.loc 2 290 0
 2077 00f6 A858     		ldr	r0, [r5, r2]
 2078 00f8 0130     		add	r0, r0, #1
 2079 00fa A850     		str	r0, [r5, r2]
 2080              	.L162:
 2081              	.LBE256:
 2082              	.LBE255:
 2083              		.loc 2 479 0
 2084 00fc 1A0C     		lsr	r2, r3, #16
 2085 00fe D0B2     		uxtb	r0, r2
 2086              	.LVL225:
 2087              	.LBB257:
 2088              	.LBB258:
 2089              		.loc 2 284 0
 2090 0100 934A     		ldr	r2, .L201+12
 2091              	.LVL226:
 2092 0102 525C     		ldrb	r2, [r2, r1]
 2093 0104 002A     		cmp	r2, #0
 2094 0106 0AD1     		bne	.L163
 2095              		.loc 2 285 0
 2096 0108 904A     		ldr	r2, .L201+8
 2097 010a 8D00     		lsl	r5, r1, #2
 2098 010c AE58     		ldr	r6, [r5, r2]
 2099 010e 4F02     		lsl	r7, r1, #9
 2100 0110 BF19     		add	r7, r7, r6
 2101 0112 934E     		ldr	r6, .L201+28
 2102 0114 B855     		strb	r0, [r7, r6]
 2103              		.loc 2 286 0
 2104 0116 A858     		ldr	r0, [r5, r2]
 2105              	.LVL227:
 2106 0118 0130     		add	r0, r0, #1
 2107 011a A850     		str	r0, [r5, r2]
 2108 011c 09E0     		b	.L164
 2109              	.L163:
ARM GAS  /tmp/ccvZzf3e.s 			page 38


 2110              		.loc 2 289 0
 2111 011e 914A     		ldr	r2, .L201+32
 2112 0120 8D00     		lsl	r5, r1, #2
 2113 0122 AE58     		ldr	r6, [r5, r2]
 2114 0124 4F02     		lsl	r7, r1, #9
 2115 0126 BF19     		add	r7, r7, r6
 2116 0128 8F4E     		ldr	r6, .L201+36
 2117 012a B855     		strb	r0, [r7, r6]
 2118              		.loc 2 290 0
 2119 012c A858     		ldr	r0, [r5, r2]
 2120 012e 0130     		add	r0, r0, #1
 2121 0130 A850     		str	r0, [r5, r2]
 2122              	.L164:
 2123              	.LBE258:
 2124              	.LBE257:
 2125              		.loc 2 480 0
 2126 0132 1B0E     		lsr	r3, r3, #24
 2127              	.LVL228:
 2128              	.LBB259:
 2129              	.LBB260:
 2130              		.loc 2 284 0
 2131 0134 864A     		ldr	r2, .L201+12
 2132 0136 525C     		ldrb	r2, [r2, r1]
 2133 0138 002A     		cmp	r2, #0
 2134 013a 0AD1     		bne	.L165
 2135              		.loc 2 285 0
 2136 013c 834A     		ldr	r2, .L201+8
 2137 013e 8800     		lsl	r0, r1, #2
 2138 0140 8558     		ldr	r5, [r0, r2]
 2139 0142 4902     		lsl	r1, r1, #9
 2140 0144 4919     		add	r1, r1, r5
 2141 0146 864D     		ldr	r5, .L201+28
 2142 0148 4B55     		strb	r3, [r1, r5]
 2143              		.loc 2 286 0
 2144 014a 8358     		ldr	r3, [r0, r2]
 2145              	.LVL229:
 2146 014c 0133     		add	r3, r3, #1
 2147 014e 8350     		str	r3, [r0, r2]
 2148 0150 09E0     		b	.L166
 2149              	.LVL230:
 2150              	.L165:
 2151              		.loc 2 289 0
 2152 0152 844A     		ldr	r2, .L201+32
 2153 0154 8800     		lsl	r0, r1, #2
 2154 0156 8558     		ldr	r5, [r0, r2]
 2155 0158 4902     		lsl	r1, r1, #9
 2156 015a 4919     		add	r1, r1, r5
 2157 015c 824D     		ldr	r5, .L201+36
 2158 015e 4B55     		strb	r3, [r1, r5]
 2159              		.loc 2 290 0
 2160 0160 8358     		ldr	r3, [r0, r2]
 2161              	.LVL231:
 2162 0162 0133     		add	r3, r3, #1
 2163 0164 8350     		str	r3, [r0, r2]
 2164              	.L166:
 2165              	.LBE260:
 2166              	.LBE259:
ARM GAS  /tmp/ccvZzf3e.s 			page 39


 2167              	.LBE252:
 2168              	.LBE251:
 2169              		.loc 1 61 0
 2170 0166 A17D     		ldrb	r1, [r4, #22]
 2171              	.LVL232:
 2172              	.LBB261:
 2173              	.LBB262:
 2174              		.loc 2 284 0
 2175 0168 637B     		ldrb	r3, [r4, #13]
 2176 016a 794A     		ldr	r2, .L201+12
 2177 016c D25C     		ldrb	r2, [r2, r3]
 2178 016e 002A     		cmp	r2, #0
 2179 0170 0AD1     		bne	.L167
 2180              		.loc 2 285 0
 2181 0172 764A     		ldr	r2, .L201+8
 2182 0174 9800     		lsl	r0, r3, #2
 2183 0176 8558     		ldr	r5, [r0, r2]
 2184 0178 5B02     		lsl	r3, r3, #9
 2185 017a 5B19     		add	r3, r3, r5
 2186 017c 784D     		ldr	r5, .L201+28
 2187 017e 5955     		strb	r1, [r3, r5]
 2188              	.LVL233:
 2189              		.loc 2 286 0
 2190 0180 8358     		ldr	r3, [r0, r2]
 2191 0182 0133     		add	r3, r3, #1
 2192 0184 8350     		str	r3, [r0, r2]
 2193 0186 09E0     		b	.L168
 2194              	.LVL234:
 2195              	.L167:
 2196              		.loc 2 289 0
 2197 0188 764A     		ldr	r2, .L201+32
 2198 018a 9800     		lsl	r0, r3, #2
 2199 018c 8558     		ldr	r5, [r0, r2]
 2200 018e 5B02     		lsl	r3, r3, #9
 2201 0190 5B19     		add	r3, r3, r5
 2202 0192 754D     		ldr	r5, .L201+36
 2203 0194 5955     		strb	r1, [r3, r5]
 2204              	.LVL235:
 2205              		.loc 2 290 0
 2206 0196 8358     		ldr	r3, [r0, r2]
 2207 0198 0133     		add	r3, r3, #1
 2208 019a 8350     		str	r3, [r0, r2]
 2209              	.L168:
 2210              	.LBE262:
 2211              	.LBE261:
 2212              		.loc 1 62 0
 2213 019c E17D     		ldrb	r1, [r4, #23]
 2214              	.LVL236:
 2215              	.LBB263:
 2216              	.LBB264:
 2217              		.loc 2 284 0
 2218 019e 637B     		ldrb	r3, [r4, #13]
 2219 01a0 6B4A     		ldr	r2, .L201+12
 2220 01a2 D25C     		ldrb	r2, [r2, r3]
 2221 01a4 002A     		cmp	r2, #0
 2222 01a6 0AD1     		bne	.L169
 2223              		.loc 2 285 0
ARM GAS  /tmp/ccvZzf3e.s 			page 40


 2224 01a8 684A     		ldr	r2, .L201+8
 2225 01aa 9800     		lsl	r0, r3, #2
 2226 01ac 8558     		ldr	r5, [r0, r2]
 2227 01ae 5B02     		lsl	r3, r3, #9
 2228 01b0 5B19     		add	r3, r3, r5
 2229 01b2 6B4D     		ldr	r5, .L201+28
 2230 01b4 5955     		strb	r1, [r3, r5]
 2231              	.LVL237:
 2232              		.loc 2 286 0
 2233 01b6 8358     		ldr	r3, [r0, r2]
 2234 01b8 0133     		add	r3, r3, #1
 2235 01ba 8350     		str	r3, [r0, r2]
 2236 01bc 09E0     		b	.L170
 2237              	.LVL238:
 2238              	.L169:
 2239              		.loc 2 289 0
 2240 01be 694A     		ldr	r2, .L201+32
 2241 01c0 9800     		lsl	r0, r3, #2
 2242 01c2 8558     		ldr	r5, [r0, r2]
 2243 01c4 5B02     		lsl	r3, r3, #9
 2244 01c6 5B19     		add	r3, r3, r5
 2245 01c8 674D     		ldr	r5, .L201+36
 2246 01ca 5955     		strb	r1, [r3, r5]
 2247              	.LVL239:
 2248              		.loc 2 290 0
 2249 01cc 8358     		ldr	r3, [r0, r2]
 2250 01ce 0133     		add	r3, r3, #1
 2251 01d0 8350     		str	r3, [r0, r2]
 2252              	.L170:
 2253              	.LBE264:
 2254              	.LBE263:
 2255              		.loc 1 63 0
 2256 01d2 217E     		ldrb	r1, [r4, #24]
 2257              	.LVL240:
 2258              	.LBB265:
 2259              	.LBB266:
 2260              		.loc 2 284 0
 2261 01d4 637B     		ldrb	r3, [r4, #13]
 2262 01d6 5E4A     		ldr	r2, .L201+12
 2263 01d8 D25C     		ldrb	r2, [r2, r3]
 2264 01da 002A     		cmp	r2, #0
 2265 01dc 0AD1     		bne	.L171
 2266              		.loc 2 285 0
 2267 01de 5B4A     		ldr	r2, .L201+8
 2268 01e0 9800     		lsl	r0, r3, #2
 2269 01e2 8558     		ldr	r5, [r0, r2]
 2270 01e4 5B02     		lsl	r3, r3, #9
 2271 01e6 5B19     		add	r3, r3, r5
 2272 01e8 5D4D     		ldr	r5, .L201+28
 2273 01ea 5955     		strb	r1, [r3, r5]
 2274              	.LVL241:
 2275              		.loc 2 286 0
 2276 01ec 8358     		ldr	r3, [r0, r2]
 2277 01ee 0133     		add	r3, r3, #1
 2278 01f0 8350     		str	r3, [r0, r2]
 2279 01f2 09E0     		b	.L172
 2280              	.LVL242:
ARM GAS  /tmp/ccvZzf3e.s 			page 41


 2281              	.L171:
 2282              		.loc 2 289 0
 2283 01f4 5B4A     		ldr	r2, .L201+32
 2284 01f6 9800     		lsl	r0, r3, #2
 2285 01f8 8558     		ldr	r5, [r0, r2]
 2286 01fa 5B02     		lsl	r3, r3, #9
 2287 01fc 5B19     		add	r3, r3, r5
 2288 01fe 5A4D     		ldr	r5, .L201+36
 2289 0200 5955     		strb	r1, [r3, r5]
 2290              	.LVL243:
 2291              		.loc 2 290 0
 2292 0202 8358     		ldr	r3, [r0, r2]
 2293 0204 0133     		add	r3, r3, #1
 2294 0206 8350     		str	r3, [r0, r2]
 2295              	.L172:
 2296              	.LBE266:
 2297              	.LBE265:
 2298              		.loc 1 65 0
 2299 0208 637B     		ldrb	r3, [r4, #13]
 2300              	.LVL244:
 2301              	.LBB267:
 2302              	.LBB268:
 2303              		.loc 3 327 0
 2304 020a 514A     		ldr	r2, .L201+12
 2305 020c D25C     		ldrb	r2, [r2, r3]
 2306 020e 002A     		cmp	r2, #0
 2307 0210 07D0     		beq	.L173
 2308 0212 002B     		cmp	r3, #0
 2309 0214 01D0     		beq	.L199
 2310 0216 4F49     		ldr	r1, .L201+16
 2311              	.LVL245:
 2312 0218 00E0     		b	.L174
 2313              	.LVL246:
 2314              	.L199:
 2315 021a 4F49     		ldr	r1, .L201+20
 2316              	.LVL247:
 2317              	.L174:
 2318 021c 885C     		ldrb	r0, [r1, r2]
 2319              	.LVL248:
 2320              		.loc 3 328 0
 2321 021e 0128     		cmp	r0, #1
 2322 0220 0BD1     		bne	.L175
 2323              	.LVL249:
 2324              	.L173:
 2325              		.loc 3 329 0
 2326 0222 4A4D     		ldr	r5, .L201+8
 2327 0224 9E00     		lsl	r6, r3, #2
 2328 0226 7259     		ldr	r2, [r6, r5]
 2329 0228 5B02     		lsl	r3, r3, #9
 2330 022a 4D49     		ldr	r1, .L201+28
 2331 022c 5918     		add	r1, r3, r1
 2332 022e 0120     		mov	r0, #1
 2333 0230 FFF7FEFF 		bl	DcdDataTransfer
 2334              	.LVL250:
 2335              		.loc 3 330 0
 2336 0234 0023     		mov	r3, #0
 2337 0236 7351     		str	r3, [r6, r5]
ARM GAS  /tmp/ccvZzf3e.s 			page 42


 2338 0238 09E0     		b	.L176
 2339              	.LVL251:
 2340              	.L175:
 2341              		.loc 3 333 0
 2342 023a 4A4D     		ldr	r5, .L201+32
 2343 023c 9E00     		lsl	r6, r3, #2
 2344 023e 7259     		ldr	r2, [r6, r5]
 2345              	.LVL252:
 2346 0240 5B02     		lsl	r3, r3, #9
 2347              	.LVL253:
 2348 0242 4949     		ldr	r1, .L201+36
 2349              	.LVL254:
 2350 0244 5918     		add	r1, r3, r1
 2351 0246 FFF7FEFF 		bl	DcdDataTransfer
 2352              	.LVL255:
 2353              		.loc 3 334 0
 2354 024a 0023     		mov	r3, #0
 2355 024c 7351     		str	r3, [r6, r5]
 2356              	.L176:
 2357              	.LBE268:
 2358              	.LBE267:
 2359              		.loc 1 66 0
 2360 024e 607B     		ldrb	r0, [r4, #13]
 2361 0250 FFF7FEFF 		bl	Endpoint_ClearStatusStage
 2362              	.LVL256:
 2363 0254 8BE1     		b	.L147
 2364              	.LVL257:
 2365              	.L151:
 2366              		.loc 1 71 0
 2367 0256 3C4B     		ldr	r3, .L201+4
 2368 0258 1B78     		ldrb	r3, [r3]
 2369 025a 212B     		cmp	r3, #33
 2370 025c 00D0     		beq	.LCB2586
 2371 025e 86E1     		b	.L147	@long jump
 2372              	.LCB2586:
 2373              		.loc 1 73 0
 2374 0260 427B     		ldrb	r2, [r0, #13]
 2375              	.LVL258:
 2376              	.LBB269:
 2377              	.LBB270:
 2378              		.loc 3 318 0
 2379 0262 384B     		ldr	r3, .L201
 2380 0264 1868     		ldr	r0, [r3]
 2381              	.LVL259:
 2382 0266 8021     		mov	r1, #128
 2383 0268 4900     		lsl	r1, r1, #1
 2384 026a 0143     		orr	r1, r0
 2385 026c 1960     		str	r1, [r3]
 2386              	.LVL260:
 2387              		.loc 3 319 0
 2388 026e 9200     		lsl	r2, r2, #2
 2389              	.LVL261:
 2390 0270 0021     		mov	r1, #0
 2391 0272 364B     		ldr	r3, .L201+8
 2392 0274 D150     		str	r1, [r2, r3]
 2393              	.LBE270:
 2394              	.LBE269:
ARM GAS  /tmp/ccvZzf3e.s 			page 43


 2395              		.loc 1 75 0
 2396 0276 627B     		ldrb	r2, [r4, #13]
 2397              	.LBB271:
 2398              	.LBB272:
 2399              		.loc 3 302 0
 2400 0278 354B     		ldr	r3, .L201+12
 2401 027a 9D5C     		ldrb	r5, [r3, r2]
 2402 027c 002A     		cmp	r2, #0
 2403 027e 01D0     		beq	.L177
 2404 0280 344B     		ldr	r3, .L201+16
 2405 0282 00E0     		b	.L178
 2406              	.L177:
 2407 0284 344B     		ldr	r3, .L201+20
 2408              	.L178:
 2409 0286 5B5D     		ldrb	r3, [r3, r5]
 2410 0288 DB00     		lsl	r3, r3, #3
 2411 028a 3448     		ldr	r0, .L201+24
 2412 028c C018     		add	r0, r0, r3
 2413              	.LBE272:
 2414              	.LBE271:
 2415              		.loc 1 75 0
 2416 028e 8021     		mov	r1, #128
 2417 0290 8900     		lsl	r1, r1, #2
 2418              	.L180:
 2419              	.LVL262:
 2420              	.LBB274:
 2421              	.LBB273:
 2422              		.loc 3 302 0 discriminator 1
 2423 0292 4388     		ldrh	r3, [r0, #2]
 2424 0294 9B05     		lsl	r3, r3, #22
 2425 0296 9B0D     		lsr	r3, r3, #22
 2426              	.LBE273:
 2427              	.LBE274:
 2428              		.loc 1 75 0 discriminator 1
 2429 0298 8B42     		cmp	r3, r1
 2430 029a FAD0     		beq	.L180
 2431              	.LVL263:
 2432              	.LBB275:
 2433              	.LBB276:
 2434              	.LBB277:
 2435              	.LBB278:
 2436              		.loc 2 223 0
 2437 029c 002D     		cmp	r5, #0
 2438 029e 0ED1     		bne	.L181
 2439              		.loc 2 224 0
 2440 02a0 2A48     		ldr	r0, .L201+8
 2441 02a2 9100     		lsl	r1, r2, #2
 2442 02a4 0B58     		ldr	r3, [r1, r0]
 2443 02a6 5502     		lsl	r5, r2, #9
 2444 02a8 ED18     		add	r5, r5, r3
 2445 02aa 2D4B     		ldr	r3, .L201+28
 2446 02ac EB5C     		ldrb	r3, [r5, r3]
 2447              	.LVL264:
 2448              		.loc 2 225 0
 2449 02ae 0D58     		ldr	r5, [r1, r0]
 2450              	.LVL265:
 2451 02b0 0135     		add	r5, r5, #1
ARM GAS  /tmp/ccvZzf3e.s 			page 44


 2452 02b2 0D50     		str	r5, [r1, r0]
 2453              	.LVL266:
 2454              		.loc 2 226 0
 2455 02b4 2D48     		ldr	r0, .L201+40
 2456 02b6 0D58     		ldr	r5, [r1, r0]
 2457 02b8 013D     		sub	r5, r5, #1
 2458 02ba 0D50     		str	r5, [r1, r0]
 2459 02bc 0DE0     		b	.L182
 2460              	.LVL267:
 2461              	.L181:
 2462              		.loc 2 229 0
 2463 02be 2C48     		ldr	r0, .L201+44
 2464 02c0 9100     		lsl	r1, r2, #2
 2465 02c2 0B58     		ldr	r3, [r1, r0]
 2466 02c4 5502     		lsl	r5, r2, #9
 2467 02c6 ED18     		add	r5, r5, r3
 2468 02c8 2A4B     		ldr	r3, .L201+48
 2469 02ca EB5C     		ldrb	r3, [r5, r3]
 2470              	.LVL268:
 2471              		.loc 2 230 0
 2472 02cc 0D58     		ldr	r5, [r1, r0]
 2473              	.LVL269:
 2474 02ce 0135     		add	r5, r5, #1
 2475 02d0 0D50     		str	r5, [r1, r0]
 2476              	.LVL270:
 2477              		.loc 2 231 0
 2478 02d2 2948     		ldr	r0, .L201+52
 2479 02d4 0D58     		ldr	r5, [r1, r0]
 2480 02d6 013D     		sub	r5, r5, #1
 2481 02d8 0D50     		str	r5, [r1, r0]
 2482              	.LVL271:
 2483              	.L182:
 2484              	.LBE278:
 2485              	.LBE277:
 2486              	.LBB279:
 2487              	.LBB280:
 2488              		.loc 2 223 0
 2489 02da 1D49     		ldr	r1, .L201+12
 2490 02dc 895C     		ldrb	r1, [r1, r2]
 2491 02de 0029     		cmp	r1, #0
 2492 02e0 0ED1     		bne	.L183
 2493              		.loc 2 224 0
 2494 02e2 1A4D     		ldr	r5, .L201+8
 2495 02e4 9100     		lsl	r1, r2, #2
 2496 02e6 4859     		ldr	r0, [r1, r5]
 2497 02e8 5602     		lsl	r6, r2, #9
 2498 02ea 3618     		add	r6, r6, r0
 2499 02ec 1C48     		ldr	r0, .L201+28
 2500 02ee 305C     		ldrb	r0, [r6, r0]
 2501              	.LVL272:
 2502              		.loc 2 225 0
 2503 02f0 4E59     		ldr	r6, [r1, r5]
 2504              	.LVL273:
 2505 02f2 0136     		add	r6, r6, #1
 2506 02f4 4E51     		str	r6, [r1, r5]
 2507              		.loc 2 226 0
 2508 02f6 1D4D     		ldr	r5, .L201+40
ARM GAS  /tmp/ccvZzf3e.s 			page 45


 2509 02f8 4E59     		ldr	r6, [r1, r5]
 2510 02fa 013E     		sub	r6, r6, #1
 2511 02fc 4E51     		str	r6, [r1, r5]
 2512 02fe 0DE0     		b	.L184
 2513              	.LVL274:
 2514              	.L183:
 2515              		.loc 2 229 0
 2516 0300 1B4D     		ldr	r5, .L201+44
 2517 0302 9100     		lsl	r1, r2, #2
 2518 0304 4859     		ldr	r0, [r1, r5]
 2519 0306 5602     		lsl	r6, r2, #9
 2520 0308 3618     		add	r6, r6, r0
 2521 030a 1A48     		ldr	r0, .L201+48
 2522 030c 305C     		ldrb	r0, [r6, r0]
 2523              	.LVL275:
 2524              		.loc 2 230 0
 2525 030e 4E59     		ldr	r6, [r1, r5]
 2526              	.LVL276:
 2527 0310 0136     		add	r6, r6, #1
 2528 0312 4E51     		str	r6, [r1, r5]
 2529              		.loc 2 231 0
 2530 0314 184D     		ldr	r5, .L201+52
 2531 0316 4E59     		ldr	r6, [r1, r5]
 2532 0318 013E     		sub	r6, r6, #1
 2533 031a 4E51     		str	r6, [r1, r5]
 2534              	.LVL277:
 2535              	.L184:
 2536              	.LBE280:
 2537              	.LBE279:
 2538              	.LBB281:
 2539              	.LBB282:
 2540              		.loc 2 223 0
 2541 031c 0C49     		ldr	r1, .L201+12
 2542 031e 895C     		ldrb	r1, [r1, r2]
 2543 0320 0029     		cmp	r1, #0
 2544 0322 2BD1     		bne	.L185
 2545              		.loc 2 224 0
 2546 0324 094D     		ldr	r5, .L201+8
 2547 0326 9100     		lsl	r1, r2, #2
 2548 0328 4E59     		ldr	r6, [r1, r5]
 2549 032a 5702     		lsl	r7, r2, #9
 2550 032c BF19     		add	r7, r7, r6
 2551 032e 0C4E     		ldr	r6, .L201+28
 2552 0330 BE5D     		ldrb	r6, [r7, r6]
 2553              	.LVL278:
 2554              		.loc 2 225 0
 2555 0332 4F59     		ldr	r7, [r1, r5]
 2556              	.LVL279:
 2557 0334 0137     		add	r7, r7, #1
 2558 0336 4F51     		str	r7, [r1, r5]
 2559              		.loc 2 226 0
 2560 0338 0C4D     		ldr	r5, .L201+40
 2561 033a 4F59     		ldr	r7, [r1, r5]
 2562 033c 013F     		sub	r7, r7, #1
 2563 033e 4F51     		str	r7, [r1, r5]
 2564 0340 2AE0     		b	.L186
 2565              	.L202:
ARM GAS  /tmp/ccvZzf3e.s 			page 46


 2566 0342 C046     		.align	2
 2567              	.L201:
 2568 0344 00000840 		.word	1074266112
 2569 0348 00000000 		.word	USB_ControlRequest
 2570 034c 00000000 		.word	usb_data_buffer_index
 2571 0350 00000000 		.word	endpointselected
 2572 0354 00000000 		.word	endpointhandle1
 2573 0358 00000000 		.word	endpointhandle0
 2574 035c 00000000 		.word	EndPointCmdStsList
 2575 0360 00000000 		.word	usb_data_buffer
 2576 0364 00000000 		.word	usb_data_buffer_IN_index
 2577 0368 00000000 		.word	usb_data_buffer_IN
 2578 036c 00000000 		.word	usb_data_buffer_size
 2579 0370 00000000 		.word	usb_data_buffer_OUT_index
 2580 0374 00000000 		.word	usb_data_buffer_OUT
 2581 0378 00000000 		.word	usb_data_buffer_OUT_size
 2582              	.LVL280:
 2583              	.L185:
 2584              		.loc 2 229 0
 2585 037c 7C4D     		ldr	r5, .L203
 2586 037e 9100     		lsl	r1, r2, #2
 2587 0380 4E59     		ldr	r6, [r1, r5]
 2588 0382 5702     		lsl	r7, r2, #9
 2589 0384 BF19     		add	r7, r7, r6
 2590 0386 7B4E     		ldr	r6, .L203+4
 2591 0388 BE5D     		ldrb	r6, [r7, r6]
 2592              	.LVL281:
 2593              		.loc 2 230 0
 2594 038a 4F59     		ldr	r7, [r1, r5]
 2595              	.LVL282:
 2596 038c 0137     		add	r7, r7, #1
 2597 038e 4F51     		str	r7, [r1, r5]
 2598              		.loc 2 231 0
 2599 0390 794D     		ldr	r5, .L203+8
 2600 0392 4F59     		ldr	r7, [r1, r5]
 2601 0394 013F     		sub	r7, r7, #1
 2602 0396 4F51     		str	r7, [r1, r5]
 2603              	.LVL283:
 2604              	.L186:
 2605              	.LBE282:
 2606              	.LBE281:
 2607              	.LBB283:
 2608              	.LBB284:
 2609              		.loc 2 223 0
 2610 0398 784D     		ldr	r5, .L203+12
 2611 039a AD5C     		ldrb	r5, [r5, r2]
 2612 039c 002D     		cmp	r5, #0
 2613 039e 0ED1     		bne	.L187
 2614              		.loc 2 224 0
 2615 03a0 774D     		ldr	r5, .L203+16
 2616 03a2 9100     		lsl	r1, r2, #2
 2617 03a4 4F59     		ldr	r7, [r1, r5]
 2618 03a6 5202     		lsl	r2, r2, #9
 2619 03a8 D219     		add	r2, r2, r7
 2620 03aa 764F     		ldr	r7, .L203+20
 2621 03ac D25D     		ldrb	r2, [r2, r7]
 2622              	.LVL284:
ARM GAS  /tmp/ccvZzf3e.s 			page 47


 2623              		.loc 2 225 0
 2624 03ae 4F59     		ldr	r7, [r1, r5]
 2625 03b0 0137     		add	r7, r7, #1
 2626 03b2 4F51     		str	r7, [r1, r5]
 2627              		.loc 2 226 0
 2628 03b4 744D     		ldr	r5, .L203+24
 2629 03b6 4F59     		ldr	r7, [r1, r5]
 2630 03b8 013F     		sub	r7, r7, #1
 2631 03ba 4F51     		str	r7, [r1, r5]
 2632 03bc 0DE0     		b	.L188
 2633              	.LVL285:
 2634              	.L187:
 2635              		.loc 2 229 0
 2636 03be 6C4D     		ldr	r5, .L203
 2637 03c0 9100     		lsl	r1, r2, #2
 2638 03c2 4F59     		ldr	r7, [r1, r5]
 2639 03c4 5202     		lsl	r2, r2, #9
 2640 03c6 D219     		add	r2, r2, r7
 2641 03c8 6A4F     		ldr	r7, .L203+4
 2642 03ca D25D     		ldrb	r2, [r2, r7]
 2643              	.LVL286:
 2644              		.loc 2 230 0
 2645 03cc 4F59     		ldr	r7, [r1, r5]
 2646 03ce 0137     		add	r7, r7, #1
 2647 03d0 4F51     		str	r7, [r1, r5]
 2648              		.loc 2 231 0
 2649 03d2 694D     		ldr	r5, .L203+8
 2650 03d4 4F59     		ldr	r7, [r1, r5]
 2651 03d6 013F     		sub	r7, r7, #1
 2652 03d8 4F51     		str	r7, [r1, r5]
 2653              	.LVL287:
 2654              	.L188:
 2655              	.LBE284:
 2656              	.LBE283:
 2657              		.loc 2 433 0
 2658 03da 0002     		lsl	r0, r0, #8
 2659              	.LVL288:
 2660 03dc 0343     		orr	r3, r0
 2661              	.LVL289:
 2662 03de 3104     		lsl	r1, r6, #16
 2663 03e0 0B43     		orr	r3, r1
 2664 03e2 1206     		lsl	r2, r2, #24
 2665              	.LVL290:
 2666 03e4 1343     		orr	r3, r2
 2667              	.LBE276:
 2668              	.LBE275:
 2669              		.loc 1 77 0
 2670 03e6 6382     		strh	r3, [r4, #18]
 2671 03e8 1B0C     		lsr	r3, r3, #16
 2672 03ea A382     		strh	r3, [r4, #20]
 2673              	.LVL291:
 2674              	.LBB285:
 2675              	.LBB286:
 2676              		.loc 2 223 0
 2677 03ec 637B     		ldrb	r3, [r4, #13]
 2678 03ee 634A     		ldr	r2, .L203+12
 2679 03f0 D25C     		ldrb	r2, [r2, r3]
ARM GAS  /tmp/ccvZzf3e.s 			page 48


 2680 03f2 002A     		cmp	r2, #0
 2681 03f4 0ED1     		bne	.L189
 2682              		.loc 2 224 0
 2683 03f6 6249     		ldr	r1, .L203+16
 2684 03f8 9A00     		lsl	r2, r3, #2
 2685 03fa 5058     		ldr	r0, [r2, r1]
 2686 03fc 5B02     		lsl	r3, r3, #9
 2687 03fe 1B18     		add	r3, r3, r0
 2688 0400 6048     		ldr	r0, .L203+20
 2689 0402 1B5C     		ldrb	r3, [r3, r0]
 2690              	.LVL292:
 2691              		.loc 2 225 0
 2692 0404 5058     		ldr	r0, [r2, r1]
 2693 0406 0130     		add	r0, r0, #1
 2694 0408 5050     		str	r0, [r2, r1]
 2695              	.LVL293:
 2696              		.loc 2 226 0
 2697 040a 5F49     		ldr	r1, .L203+24
 2698 040c 5058     		ldr	r0, [r2, r1]
 2699 040e 0138     		sub	r0, r0, #1
 2700 0410 5050     		str	r0, [r2, r1]
 2701 0412 0DE0     		b	.L190
 2702              	.LVL294:
 2703              	.L189:
 2704              		.loc 2 229 0
 2705 0414 5649     		ldr	r1, .L203
 2706 0416 9A00     		lsl	r2, r3, #2
 2707 0418 5058     		ldr	r0, [r2, r1]
 2708 041a 5B02     		lsl	r3, r3, #9
 2709 041c 1B18     		add	r3, r3, r0
 2710 041e 5548     		ldr	r0, .L203+4
 2711 0420 1B5C     		ldrb	r3, [r3, r0]
 2712              	.LVL295:
 2713              		.loc 2 230 0
 2714 0422 5058     		ldr	r0, [r2, r1]
 2715 0424 0130     		add	r0, r0, #1
 2716 0426 5050     		str	r0, [r2, r1]
 2717              	.LVL296:
 2718              		.loc 2 231 0
 2719 0428 5349     		ldr	r1, .L203+8
 2720 042a 5058     		ldr	r0, [r2, r1]
 2721 042c 0138     		sub	r0, r0, #1
 2722 042e 5050     		str	r0, [r2, r1]
 2723              	.LVL297:
 2724              	.L190:
 2725              	.LBE286:
 2726              	.LBE285:
 2727              		.loc 1 78 0
 2728 0430 A375     		strb	r3, [r4, #22]
 2729              	.LVL298:
 2730              	.LBB287:
 2731              	.LBB288:
 2732              		.loc 2 223 0
 2733 0432 637B     		ldrb	r3, [r4, #13]
 2734              	.LVL299:
 2735 0434 514A     		ldr	r2, .L203+12
 2736 0436 D25C     		ldrb	r2, [r2, r3]
ARM GAS  /tmp/ccvZzf3e.s 			page 49


 2737 0438 002A     		cmp	r2, #0
 2738 043a 0ED1     		bne	.L191
 2739              		.loc 2 224 0
 2740 043c 5049     		ldr	r1, .L203+16
 2741 043e 9A00     		lsl	r2, r3, #2
 2742 0440 5058     		ldr	r0, [r2, r1]
 2743 0442 5B02     		lsl	r3, r3, #9
 2744 0444 1B18     		add	r3, r3, r0
 2745 0446 4F48     		ldr	r0, .L203+20
 2746 0448 1B5C     		ldrb	r3, [r3, r0]
 2747              	.LVL300:
 2748              		.loc 2 225 0
 2749 044a 5058     		ldr	r0, [r2, r1]
 2750 044c 0130     		add	r0, r0, #1
 2751 044e 5050     		str	r0, [r2, r1]
 2752              	.LVL301:
 2753              		.loc 2 226 0
 2754 0450 4D49     		ldr	r1, .L203+24
 2755 0452 5058     		ldr	r0, [r2, r1]
 2756 0454 0138     		sub	r0, r0, #1
 2757 0456 5050     		str	r0, [r2, r1]
 2758 0458 0DE0     		b	.L192
 2759              	.LVL302:
 2760              	.L191:
 2761              		.loc 2 229 0
 2762 045a 4549     		ldr	r1, .L203
 2763 045c 9A00     		lsl	r2, r3, #2
 2764 045e 5058     		ldr	r0, [r2, r1]
 2765 0460 5B02     		lsl	r3, r3, #9
 2766 0462 1B18     		add	r3, r3, r0
 2767 0464 4348     		ldr	r0, .L203+4
 2768 0466 1B5C     		ldrb	r3, [r3, r0]
 2769              	.LVL303:
 2770              		.loc 2 230 0
 2771 0468 5058     		ldr	r0, [r2, r1]
 2772 046a 0130     		add	r0, r0, #1
 2773 046c 5050     		str	r0, [r2, r1]
 2774              	.LVL304:
 2775              		.loc 2 231 0
 2776 046e 4249     		ldr	r1, .L203+8
 2777 0470 5058     		ldr	r0, [r2, r1]
 2778 0472 0138     		sub	r0, r0, #1
 2779 0474 5050     		str	r0, [r2, r1]
 2780              	.LVL305:
 2781              	.L192:
 2782              	.LBE288:
 2783              	.LBE287:
 2784              		.loc 1 79 0
 2785 0476 E375     		strb	r3, [r4, #23]
 2786              	.LVL306:
 2787              	.LBB289:
 2788              	.LBB290:
 2789              		.loc 2 223 0
 2790 0478 637B     		ldrb	r3, [r4, #13]
 2791              	.LVL307:
 2792 047a 404A     		ldr	r2, .L203+12
 2793 047c D25C     		ldrb	r2, [r2, r3]
ARM GAS  /tmp/ccvZzf3e.s 			page 50


 2794 047e 002A     		cmp	r2, #0
 2795 0480 0ED1     		bne	.L193
 2796              		.loc 2 224 0
 2797 0482 3F49     		ldr	r1, .L203+16
 2798 0484 9A00     		lsl	r2, r3, #2
 2799 0486 5058     		ldr	r0, [r2, r1]
 2800 0488 5B02     		lsl	r3, r3, #9
 2801 048a 1B18     		add	r3, r3, r0
 2802 048c 3D48     		ldr	r0, .L203+20
 2803 048e 1B5C     		ldrb	r3, [r3, r0]
 2804              	.LVL308:
 2805              		.loc 2 225 0
 2806 0490 5058     		ldr	r0, [r2, r1]
 2807 0492 0130     		add	r0, r0, #1
 2808 0494 5050     		str	r0, [r2, r1]
 2809              	.LVL309:
 2810              		.loc 2 226 0
 2811 0496 3C49     		ldr	r1, .L203+24
 2812 0498 5058     		ldr	r0, [r2, r1]
 2813 049a 0138     		sub	r0, r0, #1
 2814 049c 5050     		str	r0, [r2, r1]
 2815 049e 0DE0     		b	.L194
 2816              	.LVL310:
 2817              	.L193:
 2818              		.loc 2 229 0
 2819 04a0 3349     		ldr	r1, .L203
 2820 04a2 9A00     		lsl	r2, r3, #2
 2821 04a4 5058     		ldr	r0, [r2, r1]
 2822 04a6 5B02     		lsl	r3, r3, #9
 2823 04a8 1B18     		add	r3, r3, r0
 2824 04aa 3248     		ldr	r0, .L203+4
 2825 04ac 1B5C     		ldrb	r3, [r3, r0]
 2826              	.LVL311:
 2827              		.loc 2 230 0
 2828 04ae 5058     		ldr	r0, [r2, r1]
 2829 04b0 0130     		add	r0, r0, #1
 2830 04b2 5050     		str	r0, [r2, r1]
 2831              	.LVL312:
 2832              		.loc 2 231 0
 2833 04b4 3049     		ldr	r1, .L203+8
 2834 04b6 5058     		ldr	r0, [r2, r1]
 2835 04b8 0138     		sub	r0, r0, #1
 2836 04ba 5050     		str	r0, [r2, r1]
 2837              	.LVL313:
 2838              	.L194:
 2839              	.LBE290:
 2840              	.LBE289:
 2841              		.loc 1 80 0
 2842 04bc 2376     		strb	r3, [r4, #24]
 2843              		.loc 1 82 0
 2844 04be 637B     		ldrb	r3, [r4, #13]
 2845              	.LVL314:
 2846              	.LBB291:
 2847              	.LBB292:
 2848              		.loc 3 343 0
 2849 04c0 2E4A     		ldr	r2, .L203+12
 2850 04c2 D25C     		ldrb	r2, [r2, r3]
ARM GAS  /tmp/ccvZzf3e.s 			page 51


 2851 04c4 002A     		cmp	r2, #0
 2852 04c6 04D1     		bne	.L195
 2853              		.loc 3 344 0
 2854 04c8 9900     		lsl	r1, r3, #2
 2855 04ca 0025     		mov	r5, #0
 2856 04cc 2C48     		ldr	r0, .L203+16
 2857 04ce 0D50     		str	r5, [r1, r0]
 2858              	.LVL315:
 2859 04d0 03E0     		b	.L196
 2860              	.LVL316:
 2861              	.L195:
 2862              		.loc 3 346 0
 2863 04d2 9900     		lsl	r1, r3, #2
 2864 04d4 0025     		mov	r5, #0
 2865 04d6 2648     		ldr	r0, .L203
 2866 04d8 0D50     		str	r5, [r1, r0]
 2867              	.LVL317:
 2868              	.L196:
 2869              		.loc 3 348 0
 2870 04da 002B     		cmp	r3, #0
 2871 04dc 01D0     		beq	.L200
 2872 04de 2B4B     		ldr	r3, .L203+28
 2873              	.LVL318:
 2874 04e0 00E0     		b	.L197
 2875              	.LVL319:
 2876              	.L200:
 2877 04e2 2B4B     		ldr	r3, .L203+32
 2878              	.LVL320:
 2879              	.L197:
 2880 04e4 9B5C     		ldrb	r3, [r3, r2]
 2881 04e6 DB00     		lsl	r3, r3, #3
 2882 04e8 2A4A     		ldr	r2, .L203+36
 2883 04ea D318     		add	r3, r2, r3
 2884 04ec 5988     		ldrh	r1, [r3, #2]
 2885 04ee 890A     		lsr	r1, r1, #10
 2886 04f0 8902     		lsl	r1, r1, #10
 2887 04f2 8022     		mov	r2, #128
 2888 04f4 9200     		lsl	r2, r2, #2
 2889 04f6 0A43     		orr	r2, r1
 2890 04f8 5A80     		strh	r2, [r3, #2]
 2891              	.LBE292:
 2892              	.LBE291:
 2893              		.loc 1 83 0
 2894 04fa 607B     		ldrb	r0, [r4, #13]
 2895 04fc FFF7FEFF 		bl	Endpoint_ClearStatusStage
 2896              	.LVL321:
 2897              		.loc 1 85 0
 2898 0500 201C     		mov	r0, r4
 2899 0502 FFF7FEFF 		bl	EVENT_CDC_Device_LineEncodingChanged
 2900              	.LVL322:
 2901 0506 32E0     		b	.L147
 2902              	.LVL323:
 2903              	.L152:
 2904              		.loc 1 90 0
 2905 0508 234B     		ldr	r3, .L203+40
 2906 050a 1B78     		ldrb	r3, [r3]
 2907 050c 212B     		cmp	r3, #33
ARM GAS  /tmp/ccvZzf3e.s 			page 52


 2908 050e 2ED1     		bne	.L147
 2909              		.loc 1 92 0
 2910 0510 427B     		ldrb	r2, [r0, #13]
 2911              	.LVL324:
 2912              	.LBB293:
 2913              	.LBB294:
 2914              		.loc 3 318 0
 2915 0512 224B     		ldr	r3, .L203+44
 2916 0514 1868     		ldr	r0, [r3]
 2917              	.LVL325:
 2918 0516 8021     		mov	r1, #128
 2919 0518 4900     		lsl	r1, r1, #1
 2920 051a 0143     		orr	r1, r0
 2921 051c 1960     		str	r1, [r3]
 2922              	.LVL326:
 2923              		.loc 3 319 0
 2924 051e 9200     		lsl	r2, r2, #2
 2925              	.LVL327:
 2926 0520 0021     		mov	r1, #0
 2927 0522 174B     		ldr	r3, .L203+16
 2928 0524 D150     		str	r1, [r2, r3]
 2929              	.LBE294:
 2930              	.LBE293:
 2931              		.loc 1 93 0
 2932 0526 607B     		ldrb	r0, [r4, #13]
 2933 0528 FFF7FEFF 		bl	Endpoint_ClearStatusStage
 2934              	.LVL328:
 2935              		.loc 1 95 0
 2936 052c 1A4B     		ldr	r3, .L203+40
 2937 052e 9A78     		ldrb	r2, [r3, #2]
 2938 0530 DB78     		ldrb	r3, [r3, #3]
 2939 0532 1B02     		lsl	r3, r3, #8
 2940 0534 1343     		orr	r3, r2
 2941 0536 E381     		strh	r3, [r4, #14]
 2942              		.loc 1 97 0
 2943 0538 201C     		mov	r0, r4
 2944 053a FFF7FEFF 		bl	EVENT_CDC_Device_ControLineStateChanged
 2945              	.LVL329:
 2946 053e 16E0     		b	.L147
 2947              	.LVL330:
 2948              	.L153:
 2949              		.loc 1 102 0
 2950 0540 154B     		ldr	r3, .L203+40
 2951 0542 1B78     		ldrb	r3, [r3]
 2952 0544 212B     		cmp	r3, #33
 2953 0546 12D1     		bne	.L147
 2954              		.loc 1 104 0
 2955 0548 427B     		ldrb	r2, [r0, #13]
 2956              	.LVL331:
 2957              	.LBB295:
 2958              	.LBB296:
 2959              		.loc 3 318 0
 2960 054a 144B     		ldr	r3, .L203+44
 2961 054c 1868     		ldr	r0, [r3]
 2962              	.LVL332:
 2963 054e 8021     		mov	r1, #128
 2964 0550 4900     		lsl	r1, r1, #1
ARM GAS  /tmp/ccvZzf3e.s 			page 53


 2965 0552 0143     		orr	r1, r0
 2966 0554 1960     		str	r1, [r3]
 2967              	.LVL333:
 2968              		.loc 3 319 0
 2969 0556 9200     		lsl	r2, r2, #2
 2970              	.LVL334:
 2971 0558 0021     		mov	r1, #0
 2972 055a 094B     		ldr	r3, .L203+16
 2973 055c D150     		str	r1, [r2, r3]
 2974              	.LBE296:
 2975              	.LBE295:
 2976              		.loc 1 105 0
 2977 055e 607B     		ldrb	r0, [r4, #13]
 2978 0560 FFF7FEFF 		bl	Endpoint_ClearStatusStage
 2979              	.LVL335:
 2980              		.loc 1 107 0
 2981 0564 0C4B     		ldr	r3, .L203+40
 2982 0566 9978     		ldrb	r1, [r3, #2]
 2983 0568 201C     		mov	r0, r4
 2984 056a FFF7FEFF 		bl	EVENT_CDC_Device_BreakSent
 2985              	.LVL336:
 2986              	.L147:
 2987              		.loc 1 112 0
 2988              		@ sp needed
 2989              	.LVL337:
 2990 056e F8BD     		pop	{r3, r4, r5, r6, r7, pc}
 2991              	.L204:
 2992              		.align	2
 2993              	.L203:
 2994 0570 00000000 		.word	usb_data_buffer_OUT_index
 2995 0574 00000000 		.word	usb_data_buffer_OUT
 2996 0578 00000000 		.word	usb_data_buffer_OUT_size
 2997 057c 00000000 		.word	endpointselected
 2998 0580 00000000 		.word	usb_data_buffer_index
 2999 0584 00000000 		.word	usb_data_buffer
 3000 0588 00000000 		.word	usb_data_buffer_size
 3001 058c 00000000 		.word	endpointhandle1
 3002 0590 00000000 		.word	endpointhandle0
 3003 0594 00000000 		.word	EndPointCmdStsList
 3004 0598 00000000 		.word	USB_ControlRequest
 3005 059c 00000840 		.word	1074266112
 3006              		.cfi_endproc
 3007              	.LFE98:
 3008              		.size	CDC_Device_ProcessControlRequest, .-CDC_Device_ProcessControlRequest
 3009              		.section	.rodata
 3010              		.align	2
 3011              		.set	.LANCHOR0,. + 0
 3012              	.LC0:
 3013 0000 A1       		.byte	-95
 3014 0001 20       		.byte	32
 3015 0002 0000     		.short	0
 3016 0004 0000     		.short	0
 3017 0006 0200     		.short	2
 3018              		.text
 3019              	.Letext0:
 3020              		.file 4 "/usr/local/lpcxpresso_7.3.0_186/lpcxpresso/tools/arm-none-eabi/include/machine/_default_t
 3021              		.file 5 "/usr/local/lpcxpresso_7.3.0_186/lpcxpresso/tools/arm-none-eabi/include/stdint.h"
ARM GAS  /tmp/ccvZzf3e.s 			page 54


 3022              		.file 6 "/usr/local/lpcxpresso_7.3.0_186/lpcxpresso/tools/lib/gcc/arm-none-eabi/4.8.4/include/stdd
 3023              		.file 7 "CMSIS_CORE_LPC11Uxx/inc/LPC11Uxx.h"
 3024              		.file 8 "USBlib_11U14/Drivers/USB/Class/Device/../../Core/DCD/LPC11UXX/../../HAL/LPC11UXX/HAL_LPC1
 3025              		.file 9 "USBlib_11U14/Drivers/USB/Class/Device/../../Core/Device.h"
 3026              		.file 10 "USBlib_11U14/Drivers/USB/Class/Device/../../Core/StdRequestType.h"
 3027              		.file 11 "USBlib_11U14/Drivers/USB/Class/Device/../../Core/EndpointStream.h"
 3028              		.file 12 "USBlib_11U14/Drivers/USB/Class/Device/../Common/CDCClassCommon.h"
 3029              		.file 13 "USBlib_11U14/Drivers/USB/Class/Device/CDCClassDevice.h"
 3030              		.file 14 "USBlib_11U14/Drivers/USB/Class/Device/../../Core/DCD/LPC11UXX/../EndpointCommon.h"
 3031              		.file 15 "USBlib_11U14/Drivers/USB/Class/Device/../../Core/USBTask.h"
 3032              		.file 16 "/usr/local/lpcxpresso_7.3.0_186/lpcxpresso/tools/arm-none-eabi/include/string.h"
 3033              		.section	.debug_info,"",%progbits
 3034              	.Ldebug_info0:
 3035 0000 F9150000 		.4byte	0x15f9
 3036 0004 0400     		.2byte	0x4
 3037 0006 00000000 		.4byte	.Ldebug_abbrev0
 3038 000a 04       		.byte	0x4
 3039 000b 01       		.uleb128 0x1
 3040 000c 8C050000 		.4byte	.LASF170
 3041 0010 01       		.byte	0x1
 3042 0011 27000000 		.4byte	.LASF171
 3043 0015 350B0000 		.4byte	.LASF172
 3044 0019 98010000 		.4byte	.Ldebug_ranges0+0x198
 3045 001d 00000000 		.4byte	0
 3046 0021 00000000 		.4byte	.Ldebug_line0
 3047 0025 02       		.uleb128 0x2
 3048 0026 01       		.byte	0x1
 3049 0027 06       		.byte	0x6
 3050 0028 96000000 		.4byte	.LASF0
 3051 002c 03       		.uleb128 0x3
 3052 002d A2000000 		.4byte	.LASF2
 3053 0031 04       		.byte	0x4
 3054 0032 1C       		.byte	0x1c
 3055 0033 37000000 		.4byte	0x37
 3056 0037 02       		.uleb128 0x2
 3057 0038 01       		.byte	0x1
 3058 0039 08       		.byte	0x8
 3059 003a 3E090000 		.4byte	.LASF1
 3060 003e 03       		.uleb128 0x3
 3061 003f A5030000 		.4byte	.LASF3
 3062 0043 04       		.byte	0x4
 3063 0044 25       		.byte	0x25
 3064 0045 49000000 		.4byte	0x49
 3065 0049 02       		.uleb128 0x2
 3066 004a 02       		.byte	0x2
 3067 004b 05       		.byte	0x5
 3068 004c 8C090000 		.4byte	.LASF4
 3069 0050 03       		.uleb128 0x3
 3070 0051 8E0A0000 		.4byte	.LASF5
 3071 0055 04       		.byte	0x4
 3072 0056 26       		.byte	0x26
 3073 0057 5B000000 		.4byte	0x5b
 3074 005b 02       		.uleb128 0x2
 3075 005c 02       		.byte	0x2
 3076 005d 07       		.byte	0x7
 3077 005e 66080000 		.4byte	.LASF6
 3078 0062 03       		.uleb128 0x3
ARM GAS  /tmp/ccvZzf3e.s 			page 55


 3079 0063 A90A0000 		.4byte	.LASF7
 3080 0067 04       		.byte	0x4
 3081 0068 37       		.byte	0x37
 3082 0069 6D000000 		.4byte	0x6d
 3083 006d 02       		.uleb128 0x2
 3084 006e 04       		.byte	0x4
 3085 006f 05       		.byte	0x5
 3086 0070 74020000 		.4byte	.LASF8
 3087 0074 03       		.uleb128 0x3
 3088 0075 82030000 		.4byte	.LASF9
 3089 0079 04       		.byte	0x4
 3090 007a 38       		.byte	0x38
 3091 007b 7F000000 		.4byte	0x7f
 3092 007f 02       		.uleb128 0x2
 3093 0080 04       		.byte	0x4
 3094 0081 07       		.byte	0x7
 3095 0082 68040000 		.4byte	.LASF10
 3096 0086 02       		.uleb128 0x2
 3097 0087 08       		.byte	0x8
 3098 0088 05       		.byte	0x5
 3099 0089 A8010000 		.4byte	.LASF11
 3100 008d 02       		.uleb128 0x2
 3101 008e 08       		.byte	0x8
 3102 008f 07       		.byte	0x7
 3103 0090 FB000000 		.4byte	.LASF12
 3104 0094 04       		.uleb128 0x4
 3105 0095 04       		.byte	0x4
 3106 0096 05       		.byte	0x5
 3107 0097 696E7400 		.ascii	"int\000"
 3108 009b 02       		.uleb128 0x2
 3109 009c 04       		.byte	0x4
 3110 009d 07       		.byte	0x7
 3111 009e F9030000 		.4byte	.LASF13
 3112 00a2 03       		.uleb128 0x3
 3113 00a3 FE0B0000 		.4byte	.LASF14
 3114 00a7 05       		.byte	0x5
 3115 00a8 2A       		.byte	0x2a
 3116 00a9 2C000000 		.4byte	0x2c
 3117 00ad 03       		.uleb128 0x3
 3118 00ae 8A010000 		.4byte	.LASF15
 3119 00b2 05       		.byte	0x5
 3120 00b3 35       		.byte	0x35
 3121 00b4 3E000000 		.4byte	0x3e
 3122 00b8 03       		.uleb128 0x3
 3123 00b9 06040000 		.4byte	.LASF16
 3124 00bd 05       		.byte	0x5
 3125 00be 36       		.byte	0x36
 3126 00bf 50000000 		.4byte	0x50
 3127 00c3 03       		.uleb128 0x3
 3128 00c4 36090000 		.4byte	.LASF17
 3129 00c8 05       		.byte	0x5
 3130 00c9 41       		.byte	0x41
 3131 00ca 62000000 		.4byte	0x62
 3132 00ce 03       		.uleb128 0x3
 3133 00cf 920B0000 		.4byte	.LASF18
 3134 00d3 05       		.byte	0x5
 3135 00d4 42       		.byte	0x42
ARM GAS  /tmp/ccvZzf3e.s 			page 56


 3136 00d5 74000000 		.4byte	0x74
 3137 00d9 03       		.uleb128 0x3
 3138 00da 8F000000 		.4byte	.LASF19
 3139 00de 06       		.byte	0x6
 3140 00df D4       		.byte	0xd4
 3141 00e0 9B000000 		.4byte	0x9b
 3142 00e4 02       		.uleb128 0x2
 3143 00e5 04       		.byte	0x4
 3144 00e6 07       		.byte	0x7
 3145 00e7 8A070000 		.4byte	.LASF20
 3146 00eb 05       		.uleb128 0x5
 3147 00ec 04       		.byte	0x4
 3148 00ed 02       		.uleb128 0x2
 3149 00ee 01       		.byte	0x1
 3150 00ef 08       		.byte	0x8
 3151 00f0 5C0A0000 		.4byte	.LASF21
 3152 00f4 06       		.uleb128 0x6
 3153 00f5 04       		.byte	0x4
 3154 00f6 FA000000 		.4byte	0xfa
 3155 00fa 07       		.uleb128 0x7
 3156 00fb ED000000 		.4byte	0xed
 3157 00ff 08       		.uleb128 0x8
 3158 0100 CE000000 		.4byte	0xce
 3159 0104 0F010000 		.4byte	0x10f
 3160 0108 09       		.uleb128 0x9
 3161 0109 E4000000 		.4byte	0xe4
 3162 010d 00       		.byte	0
 3163 010e 00       		.byte	0
 3164 010f 07       		.uleb128 0x7
 3165 0110 14010000 		.4byte	0x114
 3166 0114 0A       		.uleb128 0xa
 3167 0115 CE000000 		.4byte	0xce
 3168 0119 0B       		.uleb128 0xb
 3169 011a 38       		.byte	0x38
 3170 011b 07       		.byte	0x7
 3171 011c 2202     		.2byte	0x222
 3172 011e D9010000 		.4byte	0x1d9
 3173 0122 0C       		.uleb128 0xc
 3174 0123 6D060000 		.4byte	.LASF22
 3175 0127 07       		.byte	0x7
 3176 0128 2302     		.2byte	0x223
 3177 012a 14010000 		.4byte	0x114
 3178 012e 00       		.byte	0
 3179 012f 0C       		.uleb128 0xc
 3180 0130 2C010000 		.4byte	.LASF23
 3181 0134 07       		.byte	0x7
 3182 0135 2402     		.2byte	0x224
 3183 0137 14010000 		.4byte	0x114
 3184 013b 04       		.byte	0x4
 3185 013c 0C       		.uleb128 0xc
 3186 013d FB060000 		.4byte	.LASF24
 3187 0141 07       		.byte	0x7
 3188 0142 2502     		.2byte	0x225
 3189 0144 14010000 		.4byte	0x114
 3190 0148 08       		.byte	0x8
 3191 0149 0C       		.uleb128 0xc
 3192 014a 62090000 		.4byte	.LASF25
ARM GAS  /tmp/ccvZzf3e.s 			page 57


 3193 014e 07       		.byte	0x7
 3194 014f 2602     		.2byte	0x226
 3195 0151 14010000 		.4byte	0x114
 3196 0155 0C       		.byte	0xc
 3197 0156 0D       		.uleb128 0xd
 3198 0157 4C504D00 		.ascii	"LPM\000"
 3199 015b 07       		.byte	0x7
 3200 015c 2702     		.2byte	0x227
 3201 015e 14010000 		.4byte	0x114
 3202 0162 10       		.byte	0x10
 3203 0163 0C       		.uleb128 0xc
 3204 0164 83070000 		.4byte	.LASF26
 3205 0168 07       		.byte	0x7
 3206 0169 2802     		.2byte	0x228
 3207 016b 14010000 		.4byte	0x114
 3208 016f 14       		.byte	0x14
 3209 0170 0C       		.uleb128 0xc
 3210 0171 F40A0000 		.4byte	.LASF27
 3211 0175 07       		.byte	0x7
 3212 0176 2902     		.2byte	0x229
 3213 0178 14010000 		.4byte	0x114
 3214 017c 18       		.byte	0x18
 3215 017d 0C       		.uleb128 0xc
 3216 017e 36040000 		.4byte	.LASF28
 3217 0182 07       		.byte	0x7
 3218 0183 2A02     		.2byte	0x22a
 3219 0185 14010000 		.4byte	0x114
 3220 0189 1C       		.byte	0x1c
 3221 018a 0C       		.uleb128 0xc
 3222 018b 890C0000 		.4byte	.LASF29
 3223 018f 07       		.byte	0x7
 3224 0190 2B02     		.2byte	0x22b
 3225 0192 14010000 		.4byte	0x114
 3226 0196 20       		.byte	0x20
 3227 0197 0C       		.uleb128 0xc
 3228 0198 FE090000 		.4byte	.LASF30
 3229 019c 07       		.byte	0x7
 3230 019d 2C02     		.2byte	0x22c
 3231 019f 14010000 		.4byte	0x114
 3232 01a3 24       		.byte	0x24
 3233 01a4 0C       		.uleb128 0xc
 3234 01a5 96090000 		.4byte	.LASF31
 3235 01a9 07       		.byte	0x7
 3236 01aa 2D02     		.2byte	0x22d
 3237 01ac 14010000 		.4byte	0x114
 3238 01b0 28       		.byte	0x28
 3239 01b1 0C       		.uleb128 0xc
 3240 01b2 64070000 		.4byte	.LASF32
 3241 01b6 07       		.byte	0x7
 3242 01b7 2E02     		.2byte	0x22e
 3243 01b9 14010000 		.4byte	0x114
 3244 01bd 2C       		.byte	0x2c
 3245 01be 0C       		.uleb128 0xc
 3246 01bf D5090000 		.4byte	.LASF33
 3247 01c3 07       		.byte	0x7
 3248 01c4 2F02     		.2byte	0x22f
 3249 01c6 D9010000 		.4byte	0x1d9
ARM GAS  /tmp/ccvZzf3e.s 			page 58


 3250 01ca 30       		.byte	0x30
 3251 01cb 0C       		.uleb128 0xc
 3252 01cc B9070000 		.4byte	.LASF34
 3253 01d0 07       		.byte	0x7
 3254 01d1 3002     		.2byte	0x230
 3255 01d3 0F010000 		.4byte	0x10f
 3256 01d7 34       		.byte	0x34
 3257 01d8 00       		.byte	0
 3258 01d9 07       		.uleb128 0x7
 3259 01da DE010000 		.4byte	0x1de
 3260 01de 0A       		.uleb128 0xa
 3261 01df FF000000 		.4byte	0xff
 3262 01e3 0E       		.uleb128 0xe
 3263 01e4 7F090000 		.4byte	.LASF35
 3264 01e8 07       		.byte	0x7
 3265 01e9 3102     		.2byte	0x231
 3266 01eb 19010000 		.4byte	0x119
 3267 01ef 0F       		.uleb128 0xf
 3268 01f0 04       		.byte	0x4
 3269 01f1 08       		.byte	0x8
 3270 01f2 3B       		.byte	0x3b
 3271 01f3 6D020000 		.4byte	0x26d
 3272 01f7 10       		.uleb128 0x10
 3273 01f8 B6020000 		.4byte	.LASF36
 3274 01fc 08       		.byte	0x8
 3275 01fd 3C       		.byte	0x3c
 3276 01fe B8000000 		.4byte	0xb8
 3277 0202 00       		.byte	0
 3278 0203 11       		.uleb128 0x11
 3279 0204 25080000 		.4byte	.LASF37
 3280 0208 08       		.byte	0x8
 3281 0209 3E       		.byte	0x3e
 3282 020a 6D020000 		.4byte	0x26d
 3283 020e 02       		.byte	0x2
 3284 020f 0A       		.byte	0xa
 3285 0210 06       		.byte	0x6
 3286 0211 02       		.byte	0x2
 3287 0212 11       		.uleb128 0x11
 3288 0213 B7060000 		.4byte	.LASF38
 3289 0217 08       		.byte	0x8
 3290 0218 3F       		.byte	0x3f
 3291 0219 B8000000 		.4byte	0xb8
 3292 021d 02       		.byte	0x2
 3293 021e 01       		.byte	0x1
 3294 021f 05       		.byte	0x5
 3295 0220 02       		.byte	0x2
 3296 0221 11       		.uleb128 0x11
 3297 0222 6F070000 		.4byte	.LASF39
 3298 0226 08       		.byte	0x8
 3299 0227 40       		.byte	0x40
 3300 0228 B8000000 		.4byte	0xb8
 3301 022c 02       		.byte	0x2
 3302 022d 01       		.byte	0x1
 3303 022e 04       		.byte	0x4
 3304 022f 02       		.byte	0x2
 3305 0230 11       		.uleb128 0x11
 3306 0231 6E0B0000 		.4byte	.LASF40
ARM GAS  /tmp/ccvZzf3e.s 			page 59


 3307 0235 08       		.byte	0x8
 3308 0236 41       		.byte	0x41
 3309 0237 B8000000 		.4byte	0xb8
 3310 023b 02       		.byte	0x2
 3311 023c 01       		.byte	0x1
 3312 023d 03       		.byte	0x3
 3313 023e 02       		.byte	0x2
 3314 023f 11       		.uleb128 0x11
 3315 0240 F8090000 		.4byte	.LASF41
 3316 0244 08       		.byte	0x8
 3317 0245 42       		.byte	0x42
 3318 0246 6D020000 		.4byte	0x26d
 3319 024a 02       		.byte	0x2
 3320 024b 01       		.byte	0x1
 3321 024c 02       		.byte	0x2
 3322 024d 02       		.byte	0x2
 3323 024e 11       		.uleb128 0x11
 3324 024f D90A0000 		.4byte	.LASF42
 3325 0253 08       		.byte	0x8
 3326 0254 43       		.byte	0x43
 3327 0255 B8000000 		.4byte	0xb8
 3328 0259 02       		.byte	0x2
 3329 025a 01       		.byte	0x1
 3330 025b 01       		.byte	0x1
 3331 025c 02       		.byte	0x2
 3332 025d 11       		.uleb128 0x11
 3333 025e 64030000 		.4byte	.LASF43
 3334 0262 08       		.byte	0x8
 3335 0263 44       		.byte	0x44
 3336 0264 6D020000 		.4byte	0x26d
 3337 0268 02       		.byte	0x2
 3338 0269 01       		.byte	0x1
 3339 026a 00       		.byte	0
 3340 026b 02       		.byte	0x2
 3341 026c 00       		.byte	0
 3342 026d 0A       		.uleb128 0xa
 3343 026e B8000000 		.4byte	0xb8
 3344 0272 03       		.uleb128 0x3
 3345 0273 18080000 		.4byte	.LASF44
 3346 0277 08       		.byte	0x8
 3347 0278 46       		.byte	0x46
 3348 0279 EF010000 		.4byte	0x1ef
 3349 027d 12       		.uleb128 0x12
 3350 027e 25050000 		.4byte	.LASF50
 3351 0282 01       		.byte	0x1
 3352 0283 02       		.byte	0x2
 3353 0284 9B       		.byte	0x9b
 3354 0285 A8020000 		.4byte	0x2a8
 3355 0289 13       		.uleb128 0x13
 3356 028a A20B0000 		.4byte	.LASF45
 3357 028e 00       		.sleb128 0
 3358 028f 13       		.uleb128 0x13
 3359 0290 43080000 		.4byte	.LASF46
 3360 0294 01       		.sleb128 1
 3361 0295 13       		.uleb128 0x13
 3362 0296 B30A0000 		.4byte	.LASF47
 3363 029a 02       		.sleb128 2
ARM GAS  /tmp/ccvZzf3e.s 			page 60


 3364 029b 13       		.uleb128 0x13
 3365 029c 130C0000 		.4byte	.LASF48
 3366 02a0 03       		.sleb128 3
 3367 02a1 13       		.uleb128 0x13
 3368 02a2 C2070000 		.4byte	.LASF49
 3369 02a6 04       		.sleb128 4
 3370 02a7 00       		.byte	0
 3371 02a8 12       		.uleb128 0x12
 3372 02a9 01030000 		.4byte	.LASF51
 3373 02ad 01       		.byte	0x1
 3374 02ae 09       		.byte	0x9
 3375 02af 48       		.byte	0x48
 3376 02b0 D9020000 		.4byte	0x2d9
 3377 02b4 13       		.uleb128 0x13
 3378 02b5 31010000 		.4byte	.LASF52
 3379 02b9 00       		.sleb128 0
 3380 02ba 13       		.uleb128 0x13
 3381 02bb 79080000 		.4byte	.LASF53
 3382 02bf 01       		.sleb128 1
 3383 02c0 13       		.uleb128 0x13
 3384 02c1 5C010000 		.4byte	.LASF54
 3385 02c5 02       		.sleb128 2
 3386 02c6 13       		.uleb128 0x13
 3387 02c7 2C080000 		.4byte	.LASF55
 3388 02cb 03       		.sleb128 3
 3389 02cc 13       		.uleb128 0x13
 3390 02cd 0D050000 		.4byte	.LASF56
 3391 02d1 04       		.sleb128 4
 3392 02d2 13       		.uleb128 0x13
 3393 02d3 CD060000 		.4byte	.LASF57
 3394 02d7 05       		.sleb128 5
 3395 02d8 00       		.byte	0
 3396 02d9 0F       		.uleb128 0xf
 3397 02da 08       		.byte	0x8
 3398 02db 0A       		.byte	0xa
 3399 02dc 9E       		.byte	0x9e
 3400 02dd 1E030000 		.4byte	0x31e
 3401 02e1 10       		.uleb128 0x10
 3402 02e2 97030000 		.4byte	.LASF58
 3403 02e6 0A       		.byte	0xa
 3404 02e7 A0       		.byte	0xa0
 3405 02e8 A2000000 		.4byte	0xa2
 3406 02ec 00       		.byte	0
 3407 02ed 10       		.uleb128 0x10
 3408 02ee A1090000 		.4byte	.LASF59
 3409 02f2 0A       		.byte	0xa
 3410 02f3 A1       		.byte	0xa1
 3411 02f4 A2000000 		.4byte	0xa2
 3412 02f8 01       		.byte	0x1
 3413 02f9 10       		.uleb128 0x10
 3414 02fa C7020000 		.4byte	.LASF60
 3415 02fe 0A       		.byte	0xa
 3416 02ff A2       		.byte	0xa2
 3417 0300 B8000000 		.4byte	0xb8
 3418 0304 02       		.byte	0x2
 3419 0305 10       		.uleb128 0x10
 3420 0306 DD030000 		.4byte	.LASF61
ARM GAS  /tmp/ccvZzf3e.s 			page 61


 3421 030a 0A       		.byte	0xa
 3422 030b A3       		.byte	0xa3
 3423 030c B8000000 		.4byte	0xb8
 3424 0310 04       		.byte	0x4
 3425 0311 10       		.uleb128 0x10
 3426 0312 0B0C0000 		.4byte	.LASF62
 3427 0316 0A       		.byte	0xa
 3428 0317 A4       		.byte	0xa4
 3429 0318 B8000000 		.4byte	0xb8
 3430 031c 06       		.byte	0x6
 3431 031d 00       		.byte	0
 3432 031e 03       		.uleb128 0x3
 3433 031f 96020000 		.4byte	.LASF63
 3434 0323 0A       		.byte	0xa
 3435 0324 A5       		.byte	0xa5
 3436 0325 D9020000 		.4byte	0x2d9
 3437 0329 12       		.uleb128 0x12
 3438 032a C9010000 		.4byte	.LASF64
 3439 032e 01       		.byte	0x1
 3440 032f 0B       		.byte	0xb
 3441 0330 3F       		.byte	0x3f
 3442 0331 5A030000 		.4byte	0x35a
 3443 0335 13       		.uleb128 0x13
 3444 0336 12010000 		.4byte	.LASF65
 3445 033a 00       		.sleb128 0
 3446 033b 13       		.uleb128 0x13
 3447 033c 21070000 		.4byte	.LASF66
 3448 0340 01       		.sleb128 1
 3449 0341 13       		.uleb128 0x13
 3450 0342 040A0000 		.4byte	.LASF67
 3451 0346 02       		.sleb128 2
 3452 0347 13       		.uleb128 0x13
 3453 0348 C60B0000 		.4byte	.LASF68
 3454 034c 03       		.sleb128 3
 3455 034d 13       		.uleb128 0x13
 3456 034e AC000000 		.4byte	.LASF69
 3457 0352 04       		.sleb128 4
 3458 0353 13       		.uleb128 0x13
 3459 0354 7A040000 		.4byte	.LASF70
 3460 0358 05       		.sleb128 5
 3461 0359 00       		.byte	0
 3462 035a 12       		.uleb128 0x12
 3463 035b 13000000 		.4byte	.LASF71
 3464 035f 01       		.byte	0x1
 3465 0360 0C       		.byte	0xc
 3466 0361 9F       		.byte	0x9f
 3467 0362 8B030000 		.4byte	0x38b
 3468 0366 13       		.uleb128 0x13
 3469 0367 5E000000 		.4byte	.LASF72
 3470 036b 00       		.sleb128 0
 3471 036c 13       		.uleb128 0x13
 3472 036d 9F040000 		.4byte	.LASF73
 3473 0371 01       		.sleb128 1
 3474 0372 13       		.uleb128 0x13
 3475 0373 22020000 		.4byte	.LASF74
 3476 0377 20       		.sleb128 32
 3477 0378 13       		.uleb128 0x13
ARM GAS  /tmp/ccvZzf3e.s 			page 62


 3478 0379 7A0B0000 		.4byte	.LASF75
 3479 037d 21       		.sleb128 33
 3480 037e 13       		.uleb128 0x13
 3481 037f AE080000 		.4byte	.LASF76
 3482 0383 22       		.sleb128 34
 3483 0384 13       		.uleb128 0x13
 3484 0385 AA090000 		.4byte	.LASF77
 3485 0389 23       		.sleb128 35
 3486 038a 00       		.byte	0
 3487 038b 12       		.uleb128 0x12
 3488 038c E8020000 		.4byte	.LASF78
 3489 0390 01       		.byte	0x1
 3490 0391 0C       		.byte	0xc
 3491 0392 AA       		.byte	0xaa
 3492 0393 9E030000 		.4byte	0x39e
 3493 0397 13       		.uleb128 0x13
 3494 0398 54050000 		.4byte	.LASF79
 3495 039c 20       		.sleb128 32
 3496 039d 00       		.byte	0
 3497 039e 0B       		.uleb128 0xb
 3498 039f 07       		.byte	0x7
 3499 03a0 0C       		.byte	0xc
 3500 03a1 6701     		.2byte	0x167
 3501 03a3 DC030000 		.4byte	0x3dc
 3502 03a7 0C       		.uleb128 0xc
 3503 03a8 E9010000 		.4byte	.LASF80
 3504 03ac 0C       		.byte	0xc
 3505 03ad 6901     		.2byte	0x169
 3506 03af CE000000 		.4byte	0xce
 3507 03b3 00       		.byte	0
 3508 03b4 0C       		.uleb128 0xc
 3509 03b5 AF030000 		.4byte	.LASF81
 3510 03b9 0C       		.byte	0xc
 3511 03ba 6A01     		.2byte	0x16a
 3512 03bc A2000000 		.4byte	0xa2
 3513 03c0 04       		.byte	0x4
 3514 03c1 0C       		.uleb128 0xc
 3515 03c2 5B0C0000 		.4byte	.LASF82
 3516 03c6 0C       		.byte	0xc
 3517 03c7 6D01     		.2byte	0x16d
 3518 03c9 A2000000 		.4byte	0xa2
 3519 03cd 05       		.byte	0x5
 3520 03ce 0C       		.uleb128 0xc
 3521 03cf BD0B0000 		.4byte	.LASF83
 3522 03d3 0C       		.byte	0xc
 3523 03d4 7001     		.2byte	0x170
 3524 03d6 A2000000 		.4byte	0xa2
 3525 03da 06       		.byte	0x6
 3526 03db 00       		.byte	0
 3527 03dc 0E       		.uleb128 0xe
 3528 03dd 78060000 		.4byte	.LASF84
 3529 03e1 0C       		.byte	0xc
 3530 03e2 7101     		.2byte	0x171
 3531 03e4 9E030000 		.4byte	0x39e
 3532 03e8 0F       		.uleb128 0xf
 3533 03e9 0E       		.byte	0xe
 3534 03ea 0D       		.byte	0xd
ARM GAS  /tmp/ccvZzf3e.s 			page 63


 3535 03eb 5C       		.byte	0x5c
 3536 03ec 75040000 		.4byte	0x475
 3537 03f0 10       		.uleb128 0x10
 3538 03f1 E4060000 		.4byte	.LASF85
 3539 03f5 0D       		.byte	0xd
 3540 03f6 5E       		.byte	0x5e
 3541 03f7 A2000000 		.4byte	0xa2
 3542 03fb 00       		.byte	0
 3543 03fc 10       		.uleb128 0x10
 3544 03fd 4F030000 		.4byte	.LASF86
 3545 0401 0D       		.byte	0xd
 3546 0402 60       		.byte	0x60
 3547 0403 A2000000 		.4byte	0xa2
 3548 0407 01       		.byte	0x1
 3549 0408 10       		.uleb128 0x10
 3550 0409 0E070000 		.4byte	.LASF87
 3551 040d 0D       		.byte	0xd
 3552 040e 61       		.byte	0x61
 3553 040f B8000000 		.4byte	0xb8
 3554 0413 02       		.byte	0x2
 3555 0414 10       		.uleb128 0x10
 3556 0415 CA080000 		.4byte	.LASF88
 3557 0419 0D       		.byte	0xd
 3558 041a 62       		.byte	0x62
 3559 041b 75040000 		.4byte	0x475
 3560 041f 04       		.byte	0x4
 3561 0420 10       		.uleb128 0x10
 3562 0421 A3070000 		.4byte	.LASF89
 3563 0425 0D       		.byte	0xd
 3564 0426 64       		.byte	0x64
 3565 0427 A2000000 		.4byte	0xa2
 3566 042b 05       		.byte	0x5
 3567 042c 10       		.uleb128 0x10
 3568 042d FC0A0000 		.4byte	.LASF90
 3569 0431 0D       		.byte	0xd
 3570 0432 65       		.byte	0x65
 3571 0433 B8000000 		.4byte	0xb8
 3572 0437 06       		.byte	0x6
 3573 0438 10       		.uleb128 0x10
 3574 0439 CE020000 		.4byte	.LASF91
 3575 043d 0D       		.byte	0xd
 3576 043e 66       		.byte	0x66
 3577 043f 75040000 		.4byte	0x475
 3578 0443 08       		.byte	0x8
 3579 0444 10       		.uleb128 0x10
 3580 0445 DD070000 		.4byte	.LASF92
 3581 0449 0D       		.byte	0xd
 3582 044a 68       		.byte	0x68
 3583 044b A2000000 		.4byte	0xa2
 3584 044f 09       		.byte	0x9
 3585 0450 10       		.uleb128 0x10
 3586 0451 DF090000 		.4byte	.LASF93
 3587 0455 0D       		.byte	0xd
 3588 0456 69       		.byte	0x69
 3589 0457 B8000000 		.4byte	0xb8
 3590 045b 0A       		.byte	0xa
 3591 045c 10       		.uleb128 0x10
ARM GAS  /tmp/ccvZzf3e.s 			page 64


 3592 045d 98060000 		.4byte	.LASF94
 3593 0461 0D       		.byte	0xd
 3594 0462 6A       		.byte	0x6a
 3595 0463 75040000 		.4byte	0x475
 3596 0467 0C       		.byte	0xc
 3597 0468 10       		.uleb128 0x10
 3598 0469 AB020000 		.4byte	.LASF95
 3599 046d 0D       		.byte	0xd
 3600 046e 6B       		.byte	0x6b
 3601 046f A2000000 		.4byte	0xa2
 3602 0473 0D       		.byte	0xd
 3603 0474 00       		.byte	0
 3604 0475 02       		.uleb128 0x2
 3605 0476 01       		.byte	0x1
 3606 0477 02       		.byte	0x2
 3607 0478 30090000 		.4byte	.LASF96
 3608 047c 0F       		.uleb128 0xf
 3609 047d 04       		.byte	0x4
 3610 047e 0D       		.byte	0xd
 3611 047f 71       		.byte	0x71
 3612 0480 9D040000 		.4byte	0x49d
 3613 0484 10       		.uleb128 0x10
 3614 0485 910C0000 		.4byte	.LASF97
 3615 0489 0D       		.byte	0xd
 3616 048a 73       		.byte	0x73
 3617 048b B8000000 		.4byte	0xb8
 3618 048f 00       		.byte	0
 3619 0490 10       		.uleb128 0x10
 3620 0491 BA030000 		.4byte	.LASF98
 3621 0495 0D       		.byte	0xd
 3622 0496 76       		.byte	0x76
 3623 0497 B8000000 		.4byte	0xb8
 3624 049b 02       		.byte	0x2
 3625 049c 00       		.byte	0
 3626 049d 0F       		.uleb128 0xf
 3627 049e 0C       		.byte	0xc
 3628 049f 0D       		.byte	0xd
 3629 04a0 6F       		.byte	0x6f
 3630 04a1 BE040000 		.4byte	0x4be
 3631 04a5 10       		.uleb128 0x10
 3632 04a6 E20A0000 		.4byte	.LASF99
 3633 04aa 0D       		.byte	0xd
 3634 04ab 7A       		.byte	0x7a
 3635 04ac 7C040000 		.4byte	0x47c
 3636 04b0 00       		.byte	0
 3637 04b1 10       		.uleb128 0x10
 3638 04b2 8B060000 		.4byte	.LASF100
 3639 04b6 0D       		.byte	0xd
 3640 04b7 7C       		.byte	0x7c
 3641 04b8 DC030000 		.4byte	0x3dc
 3642 04bc 04       		.byte	0x4
 3643 04bd 00       		.byte	0
 3644 04be 0F       		.uleb128 0xf
 3645 04bf 1A       		.byte	0x1a
 3646 04c0 0D       		.byte	0xd
 3647 04c1 5A       		.byte	0x5a
 3648 04c2 DF040000 		.4byte	0x4df
ARM GAS  /tmp/ccvZzf3e.s 			page 65


 3649 04c6 10       		.uleb128 0x10
 3650 04c7 670B0000 		.4byte	.LASF101
 3651 04cb 0D       		.byte	0xd
 3652 04cc 6C       		.byte	0x6c
 3653 04cd DF040000 		.4byte	0x4df
 3654 04d1 00       		.byte	0
 3655 04d2 10       		.uleb128 0x10
 3656 04d3 880A0000 		.4byte	.LASF102
 3657 04d7 0D       		.byte	0xd
 3658 04d8 80       		.byte	0x80
 3659 04d9 9D040000 		.4byte	0x49d
 3660 04dd 0E       		.byte	0xe
 3661 04de 00       		.byte	0
 3662 04df 07       		.uleb128 0x7
 3663 04e0 E8030000 		.4byte	0x3e8
 3664 04e4 03       		.uleb128 0x3
 3665 04e5 6E0C0000 		.4byte	.LASF103
 3666 04e9 0D       		.byte	0xd
 3667 04ea 83       		.byte	0x83
 3668 04eb BE040000 		.4byte	0x4be
 3669 04ef 14       		.uleb128 0x14
 3670 04f0 100B0000 		.4byte	.LASF104
 3671 04f4 02       		.byte	0x2
 3672 04f5 F4       		.byte	0xf4
 3673 04f6 A2000000 		.4byte	0xa2
 3674 04fa 03       		.byte	0x3
 3675 04fb 0B050000 		.4byte	0x50b
 3676 04ff 15       		.uleb128 0x15
 3677 0500 660C0000 		.4byte	.LASF106
 3678 0504 02       		.byte	0x2
 3679 0505 F4       		.byte	0xf4
 3680 0506 A2000000 		.4byte	0xa2
 3681 050a 00       		.byte	0
 3682 050b 16       		.uleb128 0x16
 3683 050c 6B030000 		.4byte	.LASF105
 3684 0510 03       		.byte	0x3
 3685 0511 2B01     		.2byte	0x12b
 3686 0513 75040000 		.4byte	0x475
 3687 0517 03       		.byte	0x3
 3688 0518 29050000 		.4byte	0x529
 3689 051c 17       		.uleb128 0x17
 3690 051d 660C0000 		.4byte	.LASF106
 3691 0521 03       		.byte	0x3
 3692 0522 2B01     		.2byte	0x12b
 3693 0524 A2000000 		.4byte	0xa2
 3694 0528 00       		.byte	0
 3695 0529 16       		.uleb128 0x16
 3696 052a F5010000 		.4byte	.LASF107
 3697 052e 03       		.byte	0x3
 3698 052f 2101     		.2byte	0x121
 3699 0531 75040000 		.4byte	0x475
 3700 0535 03       		.byte	0x3
 3701 0536 53050000 		.4byte	0x553
 3702 053a 17       		.uleb128 0x17
 3703 053b 660C0000 		.4byte	.LASF106
 3704 053f 03       		.byte	0x3
 3705 0540 2101     		.2byte	0x121
ARM GAS  /tmp/ccvZzf3e.s 			page 66


 3706 0542 A2000000 		.4byte	0xa2
 3707 0546 18       		.uleb128 0x18
 3708 0547 2A090000 		.4byte	.LASF109
 3709 054b 03       		.byte	0x3
 3710 054c 2301     		.2byte	0x123
 3711 054e CE000000 		.4byte	0xce
 3712 0552 00       		.byte	0
 3713 0553 14       		.uleb128 0x14
 3714 0554 990A0000 		.4byte	.LASF108
 3715 0558 02       		.byte	0x2
 3716 0559 DC       		.byte	0xdc
 3717 055a A2000000 		.4byte	0xa2
 3718 055e 03       		.byte	0x3
 3719 055f 7A050000 		.4byte	0x57a
 3720 0563 15       		.uleb128 0x15
 3721 0564 660C0000 		.4byte	.LASF106
 3722 0568 02       		.byte	0x2
 3723 0569 DC       		.byte	0xdc
 3724 056a A2000000 		.4byte	0xa2
 3725 056e 19       		.uleb128 0x19
 3726 056f 74656D00 		.ascii	"tem\000"
 3727 0573 02       		.byte	0x2
 3728 0574 DE       		.byte	0xde
 3729 0575 A2000000 		.4byte	0xa2
 3730 0579 00       		.byte	0
 3731 057a 1A       		.uleb128 0x1a
 3732 057b 9D080000 		.4byte	.LASF111
 3733 057f 02       		.byte	0x2
 3734 0580 1A01     		.2byte	0x11a
 3735 0582 03       		.byte	0x3
 3736 0583 A0050000 		.4byte	0x5a0
 3737 0587 17       		.uleb128 0x17
 3738 0588 660C0000 		.4byte	.LASF106
 3739 058c 02       		.byte	0x2
 3740 058d 1A01     		.2byte	0x11a
 3741 058f A2000000 		.4byte	0xa2
 3742 0593 17       		.uleb128 0x17
 3743 0594 060C0000 		.4byte	.LASF110
 3744 0598 02       		.byte	0x2
 3745 0599 1A01     		.2byte	0x11a
 3746 059b A0050000 		.4byte	0x5a0
 3747 059f 00       		.byte	0
 3748 05a0 07       		.uleb128 0x7
 3749 05a1 A2000000 		.4byte	0xa2
 3750 05a5 1B       		.uleb128 0x1b
 3751 05a6 E3000000 		.4byte	.LASF112
 3752 05aa 02       		.byte	0x2
 3753 05ab CB       		.byte	0xcb
 3754 05ac 03       		.byte	0x3
 3755 05ad C8050000 		.4byte	0x5c8
 3756 05b1 15       		.uleb128 0x15
 3757 05b2 660C0000 		.4byte	.LASF106
 3758 05b6 02       		.byte	0x2
 3759 05b7 CB       		.byte	0xcb
 3760 05b8 A2000000 		.4byte	0xa2
 3761 05bc 15       		.uleb128 0x15
 3762 05bd 8E080000 		.4byte	.LASF113
ARM GAS  /tmp/ccvZzf3e.s 			page 67


 3763 05c1 02       		.byte	0x2
 3764 05c2 CB       		.byte	0xcb
 3765 05c3 A0050000 		.4byte	0x5a0
 3766 05c7 00       		.byte	0
 3767 05c8 1A       		.uleb128 0x1a
 3768 05c9 7E000000 		.4byte	.LASF114
 3769 05cd 03       		.byte	0x3
 3770 05ce 4501     		.2byte	0x145
 3771 05d0 03       		.byte	0x3
 3772 05d1 EE050000 		.4byte	0x5ee
 3773 05d5 17       		.uleb128 0x17
 3774 05d6 660C0000 		.4byte	.LASF106
 3775 05da 03       		.byte	0x3
 3776 05db 4501     		.2byte	0x145
 3777 05dd A2000000 		.4byte	0xa2
 3778 05e1 18       		.uleb128 0x18
 3779 05e2 2A090000 		.4byte	.LASF109
 3780 05e6 03       		.byte	0x3
 3781 05e7 4701     		.2byte	0x147
 3782 05e9 A2000000 		.4byte	0xa2
 3783 05ed 00       		.byte	0
 3784 05ee 16       		.uleb128 0x16
 3785 05ef 51060000 		.4byte	.LASF115
 3786 05f3 02       		.byte	0x2
 3787 05f4 0901     		.2byte	0x109
 3788 05f6 75040000 		.4byte	0x475
 3789 05fa 03       		.byte	0x3
 3790 05fb 0C060000 		.4byte	0x60c
 3791 05ff 17       		.uleb128 0x17
 3792 0600 660C0000 		.4byte	.LASF106
 3793 0604 02       		.byte	0x2
 3794 0605 0901     		.2byte	0x109
 3795 0607 A2000000 		.4byte	0xa2
 3796 060b 00       		.byte	0
 3797 060c 16       		.uleb128 0x16
 3798 060d 430A0000 		.4byte	.LASF116
 3799 0611 03       		.byte	0x3
 3800 0612 1401     		.2byte	0x114
 3801 0614 B8000000 		.4byte	0xb8
 3802 0618 03       		.byte	0x3
 3803 0619 2A060000 		.4byte	0x62a
 3804 061d 17       		.uleb128 0x17
 3805 061e 660C0000 		.4byte	.LASF106
 3806 0622 03       		.byte	0x3
 3807 0623 1401     		.2byte	0x114
 3808 0625 A2000000 		.4byte	0xa2
 3809 0629 00       		.byte	0
 3810 062a 1A       		.uleb128 0x1a
 3811 062b 15030000 		.4byte	.LASF117
 3812 062f 03       		.byte	0x3
 3813 0630 5501     		.2byte	0x155
 3814 0632 03       		.byte	0x3
 3815 0633 44060000 		.4byte	0x644
 3816 0637 17       		.uleb128 0x17
 3817 0638 660C0000 		.4byte	.LASF106
 3818 063c 03       		.byte	0x3
 3819 063d 5501     		.2byte	0x155
ARM GAS  /tmp/ccvZzf3e.s 			page 68


 3820 063f A2000000 		.4byte	0xa2
 3821 0643 00       		.byte	0
 3822 0644 16       		.uleb128 0x16
 3823 0645 7D020000 		.4byte	.LASF118
 3824 0649 03       		.byte	0x3
 3825 064a 3401     		.2byte	0x134
 3826 064c 75040000 		.4byte	0x475
 3827 0650 03       		.byte	0x3
 3828 0651 62060000 		.4byte	0x662
 3829 0655 17       		.uleb128 0x17
 3830 0656 660C0000 		.4byte	.LASF106
 3831 065a 03       		.byte	0x3
 3832 065b 3401     		.2byte	0x134
 3833 065d A2000000 		.4byte	0xa2
 3834 0661 00       		.byte	0
 3835 0662 1A       		.uleb128 0x1a
 3836 0663 3B030000 		.4byte	.LASF119
 3837 0667 03       		.byte	0x3
 3838 0668 3C01     		.2byte	0x13c
 3839 066a 03       		.byte	0x3
 3840 066b 7C060000 		.4byte	0x67c
 3841 066f 17       		.uleb128 0x17
 3842 0670 660C0000 		.4byte	.LASF106
 3843 0674 03       		.byte	0x3
 3844 0675 3C01     		.2byte	0x13c
 3845 0677 A2000000 		.4byte	0xa2
 3846 067b 00       		.byte	0
 3847 067c 1A       		.uleb128 0x1a
 3848 067d F5080000 		.4byte	.LASF120
 3849 0681 02       		.byte	0x2
 3850 0682 DB01     		.2byte	0x1db
 3851 0684 03       		.byte	0x3
 3852 0685 A2060000 		.4byte	0x6a2
 3853 0689 17       		.uleb128 0x17
 3854 068a 660C0000 		.4byte	.LASF106
 3855 068e 02       		.byte	0x2
 3856 068f DB01     		.2byte	0x1db
 3857 0691 A2000000 		.4byte	0xa2
 3858 0695 17       		.uleb128 0x17
 3859 0696 060C0000 		.4byte	.LASF110
 3860 069a 02       		.byte	0x2
 3861 069b DB01     		.2byte	0x1db
 3862 069d A2060000 		.4byte	0x6a2
 3863 06a1 00       		.byte	0
 3864 06a2 07       		.uleb128 0x7
 3865 06a3 CE000000 		.4byte	0xce
 3866 06a7 16       		.uleb128 0x16
 3867 06a8 C6000000 		.4byte	.LASF121
 3868 06ac 02       		.byte	0x2
 3869 06ad A801     		.2byte	0x1a8
 3870 06af CE000000 		.4byte	0xce
 3871 06b3 03       		.byte	0x3
 3872 06b4 01070000 		.4byte	0x701
 3873 06b8 17       		.uleb128 0x17
 3874 06b9 660C0000 		.4byte	.LASF106
 3875 06bd 02       		.byte	0x2
 3876 06be A801     		.2byte	0x1a8
ARM GAS  /tmp/ccvZzf3e.s 			page 69


 3877 06c0 A2000000 		.4byte	0xa2
 3878 06c4 1C       		.uleb128 0x1c
 3879 06c5 74656D00 		.ascii	"tem\000"
 3880 06c9 02       		.byte	0x2
 3881 06ca AA01     		.2byte	0x1aa
 3882 06cc CE000000 		.4byte	0xce
 3883 06d0 18       		.uleb128 0x18
 3884 06d1 60020000 		.4byte	.LASF122
 3885 06d5 02       		.byte	0x2
 3886 06d6 AB01     		.2byte	0x1ab
 3887 06d8 A2000000 		.4byte	0xa2
 3888 06dc 18       		.uleb128 0x18
 3889 06dd 65020000 		.4byte	.LASF123
 3890 06e1 02       		.byte	0x2
 3891 06e2 AB01     		.2byte	0x1ab
 3892 06e4 A2000000 		.4byte	0xa2
 3893 06e8 18       		.uleb128 0x18
 3894 06e9 6A020000 		.4byte	.LASF124
 3895 06ed 02       		.byte	0x2
 3896 06ee AB01     		.2byte	0x1ab
 3897 06f0 A2000000 		.4byte	0xa2
 3898 06f4 18       		.uleb128 0x18
 3899 06f5 6F020000 		.4byte	.LASF125
 3900 06f9 02       		.byte	0x2
 3901 06fa AB01     		.2byte	0x1ab
 3902 06fc A2000000 		.4byte	0xa2
 3903 0700 00       		.byte	0
 3904 0701 1D       		.uleb128 0x1d
 3905 0702 6A0A0000 		.4byte	.LASF130
 3906 0706 01       		.byte	0x1
 3907 0707 72       		.byte	0x72
 3908 0708 75040000 		.4byte	0x475
 3909 070c 00000000 		.4byte	.LFB99
 3910 0710 94000000 		.4byte	.LFE99-.LFB99
 3911 0714 01       		.uleb128 0x1
 3912 0715 9C       		.byte	0x9c
 3913 0716 96070000 		.4byte	0x796
 3914 071a 1E       		.uleb128 0x1e
 3915 071b 4A0C0000 		.4byte	.LASF132
 3916 071f 01       		.byte	0x1
 3917 0720 72       		.byte	0x72
 3918 0721 96070000 		.4byte	0x796
 3919 0725 00000000 		.4byte	.LLST0
 3920 0729 1F       		.uleb128 0x1f
 3921 072a 49010000 		.4byte	.LASF126
 3922 072e 01       		.byte	0x1
 3923 072f 76       		.byte	0x76
 3924 0730 A2000000 		.4byte	0xa2
 3925 0734 2C000000 		.4byte	.LLST1
 3926 0738 20       		.uleb128 0x20
 3927 0739 2C000000 		.4byte	.LBB139
 3928 073d 50000000 		.4byte	.LBE139-.LBB139
 3929 0741 1F       		.uleb128 0x1f
 3930 0742 F0080000 		.4byte	.LASF127
 3931 0746 01       		.byte	0x1
 3932 0747 79       		.byte	0x79
 3933 0748 B8000000 		.4byte	0xb8
ARM GAS  /tmp/ccvZzf3e.s 			page 70


 3934 074c 63000000 		.4byte	.LLST2
 3935 0750 1F       		.uleb128 0x1f
 3936 0751 B7060000 		.4byte	.LASF38
 3937 0755 01       		.byte	0x1
 3938 0756 7A       		.byte	0x7a
 3939 0757 A2000000 		.4byte	0xa2
 3940 075b 9A000000 		.4byte	.LLST3
 3941 075f 1F       		.uleb128 0x1f
 3942 0760 8D030000 		.4byte	.LASF128
 3943 0764 01       		.byte	0x1
 3944 0765 7B       		.byte	0x7b
 3945 0766 A2000000 		.4byte	0xa2
 3946 076a D1000000 		.4byte	.LLST4
 3947 076e 1F       		.uleb128 0x1f
 3948 076f D8040000 		.4byte	.LASF129
 3949 0773 01       		.byte	0x1
 3950 0774 7C       		.byte	0x7c
 3951 0775 75040000 		.4byte	0x475
 3952 0779 0A010000 		.4byte	.LLST5
 3953 077d 21       		.uleb128 0x21
 3954 077e 78000000 		.4byte	.LVL13
 3955 0782 25150000 		.4byte	0x1525
 3956 0786 22       		.uleb128 0x22
 3957 0787 01       		.uleb128 0x1
 3958 0788 51       		.byte	0x51
 3959 0789 02       		.uleb128 0x2
 3960 078a 74       		.byte	0x74
 3961 078b 00       		.sleb128 0
 3962 078c 22       		.uleb128 0x22
 3963 078d 02       		.uleb128 0x2
 3964 078e 7D       		.byte	0x7d
 3965 078f 00       		.sleb128 0
 3966 0790 02       		.uleb128 0x2
 3967 0791 77       		.byte	0x77
 3968 0792 00       		.sleb128 0
 3969 0793 00       		.byte	0
 3970 0794 00       		.byte	0
 3971 0795 00       		.byte	0
 3972 0796 07       		.uleb128 0x7
 3973 0797 9B070000 		.4byte	0x79b
 3974 079b 06       		.uleb128 0x6
 3975 079c 04       		.byte	0x4
 3976 079d E4040000 		.4byte	0x4e4
 3977 07a1 1D       		.uleb128 0x1d
 3978 07a2 C7030000 		.4byte	.LASF131
 3979 07a6 01       		.byte	0x1
 3980 07a7 AC       		.byte	0xac
 3981 07a8 A2000000 		.4byte	0xa2
 3982 07ac 00000000 		.4byte	.LFB101
 3983 07b0 A0000000 		.4byte	.LFE101-.LFB101
 3984 07b4 01       		.uleb128 0x1
 3985 07b5 9C       		.byte	0x9c
 3986 07b6 70080000 		.4byte	0x870
 3987 07ba 1E       		.uleb128 0x1e
 3988 07bb 4A0C0000 		.4byte	.LASF132
 3989 07bf 01       		.byte	0x1
 3990 07c0 AC       		.byte	0xac
ARM GAS  /tmp/ccvZzf3e.s 			page 71


 3991 07c1 96070000 		.4byte	0x796
 3992 07c5 41010000 		.4byte	.LLST6
 3993 07c9 1E       		.uleb128 0x1e
 3994 07ca 55010000 		.4byte	.LASF133
 3995 07ce 01       		.byte	0x1
 3996 07cf AD       		.byte	0xad
 3997 07d0 70080000 		.4byte	0x870
 3998 07d4 86010000 		.4byte	.LLST7
 3999 07d8 23       		.uleb128 0x23
 4000 07d9 A5050000 		.4byte	0x5a5
 4001 07dd 1E000000 		.4byte	.LBB140
 4002 07e1 04000000 		.4byte	.LBE140-.LBB140
 4003 07e5 01       		.byte	0x1
 4004 07e6 B2       		.byte	0xb2
 4005 07e7 FE070000 		.4byte	0x7fe
 4006 07eb 24       		.uleb128 0x24
 4007 07ec BC050000 		.4byte	0x5bc
 4008 07f0 CB010000 		.4byte	.LLST8
 4009 07f4 24       		.uleb128 0x24
 4010 07f5 B1050000 		.4byte	0x5b1
 4011 07f9 EA010000 		.4byte	.LLST9
 4012 07fd 00       		.byte	0
 4013 07fe 25       		.uleb128 0x25
 4014 07ff C8050000 		.4byte	0x5c8
 4015 0803 38000000 		.4byte	.LBB142
 4016 0807 00000000 		.4byte	.Ldebug_ranges0+0
 4017 080b 01       		.byte	0x1
 4018 080c B4       		.byte	0xb4
 4019 080d 46080000 		.4byte	0x846
 4020 0811 24       		.uleb128 0x24
 4021 0812 D5050000 		.4byte	0x5d5
 4022 0816 09020000 		.4byte	.LLST10
 4023 081a 26       		.uleb128 0x26
 4024 081b 00000000 		.4byte	.Ldebug_ranges0+0
 4025 081f 27       		.uleb128 0x27
 4026 0820 E1050000 		.4byte	0x5e1
 4027 0824 5D020000 		.4byte	.LLST11
 4028 0828 28       		.uleb128 0x28
 4029 0829 60000000 		.4byte	.LVL32
 4030 082d 53150000 		.4byte	0x1553
 4031 0831 3B080000 		.4byte	0x83b
 4032 0835 22       		.uleb128 0x22
 4033 0836 01       		.uleb128 0x1
 4034 0837 50       		.byte	0x50
 4035 0838 01       		.uleb128 0x1
 4036 0839 31       		.byte	0x31
 4037 083a 00       		.byte	0
 4038 083b 29       		.uleb128 0x29
 4039 083c 78000000 		.4byte	.LVL38
 4040 0840 53150000 		.4byte	0x1553
 4041 0844 00       		.byte	0
 4042 0845 00       		.byte	0
 4043 0846 28       		.uleb128 0x28
 4044 0847 28000000 		.4byte	.LVL24
 4045 084b 74150000 		.4byte	0x1574
 4046 084f 5A080000 		.4byte	0x85a
 4047 0853 22       		.uleb128 0x22
ARM GAS  /tmp/ccvZzf3e.s 			page 72


 4048 0854 01       		.uleb128 0x1
 4049 0855 50       		.byte	0x50
 4050 0856 02       		.uleb128 0x2
 4051 0857 75       		.byte	0x75
 4052 0858 00       		.sleb128 0
 4053 0859 00       		.byte	0
 4054 085a 21       		.uleb128 0x21
 4055 085b 36000000 		.4byte	.LVL25
 4056 085f 89150000 		.4byte	0x1589
 4057 0863 22       		.uleb128 0x22
 4058 0864 01       		.uleb128 0x1
 4059 0865 53       		.byte	0x53
 4060 0866 01       		.uleb128 0x1
 4061 0867 30       		.byte	0x30
 4062 0868 22       		.uleb128 0x22
 4063 0869 01       		.uleb128 0x1
 4064 086a 51       		.byte	0x51
 4065 086b 02       		.uleb128 0x2
 4066 086c 75       		.byte	0x75
 4067 086d 00       		.sleb128 0
 4068 086e 00       		.byte	0
 4069 086f 00       		.byte	0
 4070 0870 07       		.uleb128 0x7
 4071 0871 F4000000 		.4byte	0xf4
 4072 0875 1D       		.uleb128 0x1d
 4073 0876 E5040000 		.4byte	.LASF134
 4074 087a 01       		.byte	0x1
 4075 087b B8       		.byte	0xb8
 4076 087c A2000000 		.4byte	0xa2
 4077 0880 00000000 		.4byte	.LFB102
 4078 0884 98000000 		.4byte	.LFE102-.LFB102
 4079 0888 01       		.uleb128 0x1
 4080 0889 9C       		.byte	0x9c
 4081 088a 40090000 		.4byte	0x940
 4082 088e 1E       		.uleb128 0x1e
 4083 088f 4A0C0000 		.4byte	.LASF132
 4084 0893 01       		.byte	0x1
 4085 0894 B8       		.byte	0xb8
 4086 0895 96070000 		.4byte	0x796
 4087 0899 A5020000 		.4byte	.LLST12
 4088 089d 1E       		.uleb128 0x1e
 4089 089e 9B0B0000 		.4byte	.LASF135
 4090 08a2 01       		.byte	0x1
 4091 08a3 B9       		.byte	0xb9
 4092 08a4 70080000 		.4byte	0x870
 4093 08a8 EA020000 		.4byte	.LLST13
 4094 08ac 1E       		.uleb128 0x1e
 4095 08ad 2E0B0000 		.4byte	.LASF136
 4096 08b1 01       		.byte	0x1
 4097 08b2 BA       		.byte	0xba
 4098 08b3 40090000 		.4byte	0x940
 4099 08b7 0B030000 		.4byte	.LLST14
 4100 08bb 23       		.uleb128 0x23
 4101 08bc A5050000 		.4byte	0x5a5
 4102 08c0 20000000 		.4byte	.LBB146
 4103 08c4 04000000 		.4byte	.LBE146-.LBB146
 4104 08c8 01       		.byte	0x1
ARM GAS  /tmp/ccvZzf3e.s 			page 73


 4105 08c9 BF       		.byte	0xbf
 4106 08ca E1080000 		.4byte	0x8e1
 4107 08ce 24       		.uleb128 0x24
 4108 08cf BC050000 		.4byte	0x5bc
 4109 08d3 2C030000 		.4byte	.LLST15
 4110 08d7 24       		.uleb128 0x24
 4111 08d8 B1050000 		.4byte	0x5b1
 4112 08dc 4B030000 		.4byte	.LLST16
 4113 08e0 00       		.byte	0
 4114 08e1 25       		.uleb128 0x25
 4115 08e2 C8050000 		.4byte	0x5c8
 4116 08e6 2E000000 		.4byte	.LBB148
 4117 08ea 18000000 		.4byte	.Ldebug_ranges0+0x18
 4118 08ee 01       		.byte	0x1
 4119 08ef C1       		.byte	0xc1
 4120 08f0 29090000 		.4byte	0x929
 4121 08f4 24       		.uleb128 0x24
 4122 08f5 D5050000 		.4byte	0x5d5
 4123 08f9 6A030000 		.4byte	.LLST17
 4124 08fd 26       		.uleb128 0x26
 4125 08fe 18000000 		.4byte	.Ldebug_ranges0+0x18
 4126 0902 27       		.uleb128 0x27
 4127 0903 E1050000 		.4byte	0x5e1
 4128 0907 BE030000 		.4byte	.LLST18
 4129 090b 28       		.uleb128 0x28
 4130 090c 56000000 		.4byte	.LVL51
 4131 0910 53150000 		.4byte	0x1553
 4132 0914 1E090000 		.4byte	0x91e
 4133 0918 22       		.uleb128 0x22
 4134 0919 01       		.uleb128 0x1
 4135 091a 50       		.byte	0x50
 4136 091b 01       		.uleb128 0x1
 4137 091c 31       		.byte	0x31
 4138 091d 00       		.byte	0
 4139 091e 29       		.uleb128 0x29
 4140 091f 6E000000 		.4byte	.LVL56
 4141 0923 53150000 		.4byte	0x1553
 4142 0927 00       		.byte	0
 4143 0928 00       		.byte	0
 4144 0929 21       		.uleb128 0x21
 4145 092a 2C000000 		.4byte	.LVL45
 4146 092e 89150000 		.4byte	0x1589
 4147 0932 22       		.uleb128 0x22
 4148 0933 01       		.uleb128 0x1
 4149 0934 53       		.byte	0x53
 4150 0935 01       		.uleb128 0x1
 4151 0936 30       		.byte	0x30
 4152 0937 22       		.uleb128 0x22
 4153 0938 01       		.uleb128 0x1
 4154 0939 51       		.byte	0x51
 4155 093a 03       		.uleb128 0x3
 4156 093b F3       		.byte	0xf3
 4157 093c 01       		.uleb128 0x1
 4158 093d 51       		.byte	0x51
 4159 093e 00       		.byte	0
 4160 093f 00       		.byte	0
 4161 0940 07       		.uleb128 0x7
ARM GAS  /tmp/ccvZzf3e.s 			page 74


 4162 0941 B8000000 		.4byte	0xb8
 4163 0945 1D       		.uleb128 0x1d
 4164 0946 F9040000 		.4byte	.LASF137
 4165 094a 01       		.byte	0x1
 4166 094b C5       		.byte	0xc5
 4167 094c A2000000 		.4byte	0xa2
 4168 0950 00000000 		.4byte	.LFB103
 4169 0954 44010000 		.4byte	.LFE103-.LFB103
 4170 0958 01       		.uleb128 0x1
 4171 0959 9C       		.byte	0x9c
 4172 095a B50A0000 		.4byte	0xab5
 4173 095e 1E       		.uleb128 0x1e
 4174 095f 4A0C0000 		.4byte	.LASF132
 4175 0963 01       		.byte	0x1
 4176 0964 C5       		.byte	0xc5
 4177 0965 96070000 		.4byte	0x796
 4178 0969 03040000 		.4byte	.LLST19
 4179 096d 1E       		.uleb128 0x1e
 4180 096e 060C0000 		.4byte	.LASF110
 4181 0972 01       		.byte	0x1
 4182 0973 C6       		.byte	0xc6
 4183 0974 A0050000 		.4byte	0x5a0
 4184 0978 48040000 		.4byte	.LLST20
 4185 097c 23       		.uleb128 0x23
 4186 097d A5050000 		.4byte	0x5a5
 4187 0981 20000000 		.4byte	.LBB152
 4188 0985 04000000 		.4byte	.LBE152-.LBB152
 4189 0989 01       		.byte	0x1
 4190 098a CB       		.byte	0xcb
 4191 098b A2090000 		.4byte	0x9a2
 4192 098f 24       		.uleb128 0x24
 4193 0990 BC050000 		.4byte	0x5bc
 4194 0994 69040000 		.4byte	.LLST21
 4195 0998 24       		.uleb128 0x24
 4196 0999 B1050000 		.4byte	0x5b1
 4197 099d 9E040000 		.4byte	.LLST22
 4198 09a1 00       		.byte	0
 4199 09a2 25       		.uleb128 0x25
 4200 09a3 EE050000 		.4byte	0x5ee
 4201 09a7 26000000 		.4byte	.LBB154
 4202 09ab 30000000 		.4byte	.Ldebug_ranges0+0x30
 4203 09af 01       		.byte	0x1
 4204 09b0 CD       		.byte	0xcd
 4205 09b1 200A0000 		.4byte	0xa20
 4206 09b5 24       		.uleb128 0x24
 4207 09b6 FF050000 		.4byte	0x5ff
 4208 09ba BD040000 		.4byte	.LLST23
 4209 09be 2A       		.uleb128 0x2a
 4210 09bf EF040000 		.4byte	0x4ef
 4211 09c3 26000000 		.4byte	.LBB156
 4212 09c7 48000000 		.4byte	.Ldebug_ranges0+0x48
 4213 09cb 02       		.byte	0x2
 4214 09cc 0B01     		.2byte	0x10b
 4215 09ce DC090000 		.4byte	0x9dc
 4216 09d2 24       		.uleb128 0x24
 4217 09d3 FF040000 		.4byte	0x4ff
 4218 09d7 BD040000 		.4byte	.LLST23
ARM GAS  /tmp/ccvZzf3e.s 			page 75


 4219 09db 00       		.byte	0
 4220 09dc 2A       		.uleb128 0x2a
 4221 09dd 0B050000 		.4byte	0x50b
 4222 09e1 2C000000 		.4byte	.LBB160
 4223 09e5 68000000 		.4byte	.Ldebug_ranges0+0x68
 4224 09e9 02       		.byte	0x2
 4225 09ea 0B01     		.2byte	0x10b
 4226 09ec F6090000 		.4byte	0x9f6
 4227 09f0 2B       		.uleb128 0x2b
 4228 09f1 1C050000 		.4byte	0x51c
 4229 09f5 00       		.byte	0
 4230 09f6 2C       		.uleb128 0x2c
 4231 09f7 29050000 		.4byte	0x529
 4232 09fb 46000000 		.4byte	.LBB164
 4233 09ff 88000000 		.4byte	.Ldebug_ranges0+0x88
 4234 0a03 02       		.byte	0x2
 4235 0a04 0B01     		.2byte	0x10b
 4236 0a06 24       		.uleb128 0x24
 4237 0a07 3A050000 		.4byte	0x53a
 4238 0a0b E9040000 		.4byte	.LLST25
 4239 0a0f 26       		.uleb128 0x26
 4240 0a10 88000000 		.4byte	.Ldebug_ranges0+0x88
 4241 0a14 27       		.uleb128 0x27
 4242 0a15 46050000 		.4byte	0x546
 4243 0a19 07050000 		.4byte	.LLST26
 4244 0a1d 00       		.byte	0
 4245 0a1e 00       		.byte	0
 4246 0a1f 00       		.byte	0
 4247 0a20 2D       		.uleb128 0x2d
 4248 0a21 64000000 		.4byte	.LBB173
 4249 0a25 4C000000 		.4byte	.LBE173-.LBB173
 4250 0a29 920A0000 		.4byte	0xa92
 4251 0a2d 1F       		.uleb128 0x1f
 4252 0a2e 4A050000 		.4byte	.LASF138
 4253 0a32 01       		.byte	0x1
 4254 0a33 D1       		.byte	0xd1
 4255 0a34 A2000000 		.4byte	0xa2
 4256 0a38 1A050000 		.4byte	.LLST27
 4257 0a3c 23       		.uleb128 0x23
 4258 0a3d C8050000 		.4byte	0x5c8
 4259 0a41 64000000 		.4byte	.LBB174
 4260 0a45 42000000 		.4byte	.LBE174-.LBB174
 4261 0a49 01       		.byte	0x1
 4262 0a4a CF       		.byte	0xcf
 4263 0a4b 880A0000 		.4byte	0xa88
 4264 0a4f 24       		.uleb128 0x24
 4265 0a50 D5050000 		.4byte	0x5d5
 4266 0a54 2D050000 		.4byte	.LLST28
 4267 0a58 20       		.uleb128 0x20
 4268 0a59 64000000 		.4byte	.LBB175
 4269 0a5d 42000000 		.4byte	.LBE175-.LBB175
 4270 0a61 27       		.uleb128 0x27
 4271 0a62 E1050000 		.4byte	0x5e1
 4272 0a66 63050000 		.4byte	.LLST29
 4273 0a6a 28       		.uleb128 0x28
 4274 0a6b 8A000000 		.4byte	.LVL72
 4275 0a6f 53150000 		.4byte	0x1553
ARM GAS  /tmp/ccvZzf3e.s 			page 76


 4276 0a73 7D0A0000 		.4byte	0xa7d
 4277 0a77 22       		.uleb128 0x22
 4278 0a78 01       		.uleb128 0x1
 4279 0a79 50       		.byte	0x50
 4280 0a7a 01       		.uleb128 0x1
 4281 0a7b 31       		.byte	0x31
 4282 0a7c 00       		.byte	0
 4283 0a7d 29       		.uleb128 0x29
 4284 0a7e A2000000 		.4byte	.LVL75
 4285 0a82 53150000 		.4byte	0x1553
 4286 0a86 00       		.byte	0
 4287 0a87 00       		.byte	0
 4288 0a88 29       		.uleb128 0x29
 4289 0a89 AA000000 		.4byte	.LVL76
 4290 0a8d C5150000 		.4byte	0x15c5
 4291 0a91 00       		.byte	0
 4292 0a92 2E       		.uleb128 0x2e
 4293 0a93 7A050000 		.4byte	0x57a
 4294 0a97 B0000000 		.4byte	.LBB176
 4295 0a9b 34000000 		.4byte	.LBE176-.LBB176
 4296 0a9f 01       		.byte	0x1
 4297 0aa0 D7       		.byte	0xd7
 4298 0aa1 24       		.uleb128 0x24
 4299 0aa2 93050000 		.4byte	0x593
 4300 0aa6 81050000 		.4byte	.LLST30
 4301 0aaa 24       		.uleb128 0x24
 4302 0aab 87050000 		.4byte	0x587
 4303 0aaf 94050000 		.4byte	.LLST31
 4304 0ab3 00       		.byte	0
 4305 0ab4 00       		.byte	0
 4306 0ab5 1D       		.uleb128 0x1d
 4307 0ab6 57040000 		.4byte	.LASF139
 4308 0aba 01       		.byte	0x1
 4309 0abb DB       		.byte	0xdb
 4310 0abc A2000000 		.4byte	0xa2
 4311 0ac0 00000000 		.4byte	.LFB104
 4312 0ac4 70010000 		.4byte	.LFE104-.LFB104
 4313 0ac8 01       		.uleb128 0x1
 4314 0ac9 9C       		.byte	0x9c
 4315 0aca 5A0C0000 		.4byte	0xc5a
 4316 0ace 1E       		.uleb128 0x1e
 4317 0acf 4A0C0000 		.4byte	.LASF132
 4318 0ad3 01       		.byte	0x1
 4319 0ad4 DB       		.byte	0xdb
 4320 0ad5 96070000 		.4byte	0x796
 4321 0ad9 CE050000 		.4byte	.LLST32
 4322 0add 1F       		.uleb128 0x1f
 4323 0ade 4A050000 		.4byte	.LASF138
 4324 0ae2 01       		.byte	0x1
 4325 0ae3 E0       		.byte	0xe0
 4326 0ae4 A2000000 		.4byte	0xa2
 4327 0ae8 2C060000 		.4byte	.LLST33
 4328 0aec 1F       		.uleb128 0x1f
 4329 0aed 610A0000 		.4byte	.LASF140
 4330 0af1 01       		.byte	0x1
 4331 0af2 E7       		.byte	0xe7
 4332 0af3 75040000 		.4byte	0x475
ARM GAS  /tmp/ccvZzf3e.s 			page 77


 4333 0af7 3F060000 		.4byte	.LLST34
 4334 0afb 23       		.uleb128 0x23
 4335 0afc A5050000 		.4byte	0x5a5
 4336 0b00 20000000 		.4byte	.LBB179
 4337 0b04 04000000 		.4byte	.LBE179-.LBB179
 4338 0b08 01       		.byte	0x1
 4339 0b09 E2       		.byte	0xe2
 4340 0b0a 210B0000 		.4byte	0xb21
 4341 0b0e 24       		.uleb128 0x24
 4342 0b0f BC050000 		.4byte	0x5bc
 4343 0b13 55060000 		.4byte	.LLST35
 4344 0b17 24       		.uleb128 0x24
 4345 0b18 B1050000 		.4byte	0x5b1
 4346 0b1c 7F060000 		.4byte	.LLST36
 4347 0b20 00       		.byte	0
 4348 0b21 23       		.uleb128 0x23
 4349 0b22 0C060000 		.4byte	0x60c
 4350 0b26 26000000 		.4byte	.LBB181
 4351 0b2a 18000000 		.4byte	.LBE181-.LBB181
 4352 0b2e 01       		.byte	0x1
 4353 0b2f E4       		.byte	0xe4
 4354 0b30 3E0B0000 		.4byte	0xb3e
 4355 0b34 24       		.uleb128 0x24
 4356 0b35 1D060000 		.4byte	0x61d
 4357 0b39 9E060000 		.4byte	.LLST37
 4358 0b3d 00       		.byte	0
 4359 0b3e 25       		.uleb128 0x25
 4360 0b3f EE050000 		.4byte	0x5ee
 4361 0b43 44000000 		.4byte	.LBB183
 4362 0b47 A0000000 		.4byte	.Ldebug_ranges0+0xa0
 4363 0b4b 01       		.byte	0x1
 4364 0b4c E7       		.byte	0xe7
 4365 0b4d BC0B0000 		.4byte	0xbbc
 4366 0b51 24       		.uleb128 0x24
 4367 0b52 FF050000 		.4byte	0x5ff
 4368 0b56 CA060000 		.4byte	.LLST38
 4369 0b5a 2A       		.uleb128 0x2a
 4370 0b5b EF040000 		.4byte	0x4ef
 4371 0b5f 44000000 		.4byte	.LBB185
 4372 0b63 B8000000 		.4byte	.Ldebug_ranges0+0xb8
 4373 0b67 02       		.byte	0x2
 4374 0b68 0B01     		.2byte	0x10b
 4375 0b6a 780B0000 		.4byte	0xb78
 4376 0b6e 24       		.uleb128 0x24
 4377 0b6f FF040000 		.4byte	0x4ff
 4378 0b73 CA060000 		.4byte	.LLST38
 4379 0b77 00       		.byte	0
 4380 0b78 2A       		.uleb128 0x2a
 4381 0b79 0B050000 		.4byte	0x50b
 4382 0b7d 4A000000 		.4byte	.LBB189
 4383 0b81 D8000000 		.4byte	.Ldebug_ranges0+0xd8
 4384 0b85 02       		.byte	0x2
 4385 0b86 0B01     		.2byte	0x10b
 4386 0b88 920B0000 		.4byte	0xb92
 4387 0b8c 2B       		.uleb128 0x2b
 4388 0b8d 1C050000 		.4byte	0x51c
 4389 0b91 00       		.byte	0
ARM GAS  /tmp/ccvZzf3e.s 			page 78


 4390 0b92 2C       		.uleb128 0x2c
 4391 0b93 29050000 		.4byte	0x529
 4392 0b97 64000000 		.4byte	.LBB193
 4393 0b9b F8000000 		.4byte	.Ldebug_ranges0+0xf8
 4394 0b9f 02       		.byte	0x2
 4395 0ba0 0B01     		.2byte	0x10b
 4396 0ba2 24       		.uleb128 0x24
 4397 0ba3 3A050000 		.4byte	0x53a
 4398 0ba7 0B070000 		.4byte	.LLST40
 4399 0bab 26       		.uleb128 0x26
 4400 0bac F8000000 		.4byte	.Ldebug_ranges0+0xf8
 4401 0bb0 27       		.uleb128 0x27
 4402 0bb1 46050000 		.4byte	0x546
 4403 0bb5 29070000 		.4byte	.LLST41
 4404 0bb9 00       		.byte	0
 4405 0bba 00       		.byte	0
 4406 0bbb 00       		.byte	0
 4407 0bbc 23       		.uleb128 0x23
 4408 0bbd C8050000 		.4byte	0x5c8
 4409 0bc1 7E000000 		.4byte	.LBB202
 4410 0bc5 40000000 		.4byte	.LBE202-.LBB202
 4411 0bc9 01       		.byte	0x1
 4412 0bca E9       		.byte	0xe9
 4413 0bcb 080C0000 		.4byte	0xc08
 4414 0bcf 24       		.uleb128 0x24
 4415 0bd0 D5050000 		.4byte	0x5d5
 4416 0bd4 3C070000 		.4byte	.LLST42
 4417 0bd8 20       		.uleb128 0x20
 4418 0bd9 7E000000 		.4byte	.LBB203
 4419 0bdd 40000000 		.4byte	.LBE203-.LBB203
 4420 0be1 27       		.uleb128 0x27
 4421 0be2 E1050000 		.4byte	0x5e1
 4422 0be6 72070000 		.4byte	.LLST43
 4423 0bea 28       		.uleb128 0x28
 4424 0beb A4000000 		.4byte	.LVL106
 4425 0bef 53150000 		.4byte	0x1553
 4426 0bf3 FD0B0000 		.4byte	0xbfd
 4427 0bf7 22       		.uleb128 0x22
 4428 0bf8 01       		.uleb128 0x1
 4429 0bf9 50       		.byte	0x50
 4430 0bfa 01       		.uleb128 0x1
 4431 0bfb 31       		.byte	0x31
 4432 0bfc 00       		.byte	0
 4433 0bfd 29       		.uleb128 0x29
 4434 0bfe BA000000 		.4byte	.LVL110
 4435 0c02 53150000 		.4byte	0x1553
 4436 0c06 00       		.byte	0
 4437 0c07 00       		.byte	0
 4438 0c08 25       		.uleb128 0x25
 4439 0c09 C8050000 		.4byte	0x5c8
 4440 0c0d D0000000 		.4byte	.LBB204
 4441 0c11 10010000 		.4byte	.Ldebug_ranges0+0x110
 4442 0c15 01       		.byte	0x1
 4443 0c16 F0       		.byte	0xf0
 4444 0c17 500C0000 		.4byte	0xc50
 4445 0c1b 24       		.uleb128 0x24
 4446 0c1c D5050000 		.4byte	0x5d5
ARM GAS  /tmp/ccvZzf3e.s 			page 79


 4447 0c20 A3070000 		.4byte	.LLST44
 4448 0c24 26       		.uleb128 0x26
 4449 0c25 10010000 		.4byte	.Ldebug_ranges0+0x110
 4450 0c29 27       		.uleb128 0x27
 4451 0c2a E1050000 		.4byte	0x5e1
 4452 0c2e F7070000 		.4byte	.LLST45
 4453 0c32 28       		.uleb128 0x28
 4454 0c33 FA000000 		.4byte	.LVL118
 4455 0c37 53150000 		.4byte	0x1553
 4456 0c3b 450C0000 		.4byte	0xc45
 4457 0c3f 22       		.uleb128 0x22
 4458 0c40 01       		.uleb128 0x1
 4459 0c41 50       		.byte	0x50
 4460 0c42 01       		.uleb128 0x1
 4461 0c43 31       		.byte	0x31
 4462 0c44 00       		.byte	0
 4463 0c45 29       		.uleb128 0x29
 4464 0c46 12010000 		.4byte	.LVL123
 4465 0c4a 53150000 		.4byte	0x1553
 4466 0c4e 00       		.byte	0
 4467 0c4f 00       		.byte	0
 4468 0c50 29       		.uleb128 0x29
 4469 0c51 C8000000 		.4byte	.LVL111
 4470 0c55 C5150000 		.4byte	0x15c5
 4471 0c59 00       		.byte	0
 4472 0c5a 2F       		.uleb128 0x2f
 4473 0c5b 17090000 		.4byte	.LASF144
 4474 0c5f 01       		.byte	0x1
 4475 0c60 A2       		.byte	0xa2
 4476 0c61 00000000 		.4byte	.LFB100
 4477 0c65 20000000 		.4byte	.LFE100-.LFB100
 4478 0c69 01       		.uleb128 0x1
 4479 0c6a 9C       		.byte	0x9c
 4480 0c6b 900C0000 		.4byte	0xc90
 4481 0c6f 1E       		.uleb128 0x1e
 4482 0c70 4A0C0000 		.4byte	.LASF132
 4483 0c74 01       		.byte	0x1
 4484 0c75 A2       		.byte	0xa2
 4485 0c76 96070000 		.4byte	0x796
 4486 0c7a 3C080000 		.4byte	.LLST46
 4487 0c7e 21       		.uleb128 0x21
 4488 0c7f 1A000000 		.4byte	.LVL128
 4489 0c83 B50A0000 		.4byte	0xab5
 4490 0c87 22       		.uleb128 0x22
 4491 0c88 01       		.uleb128 0x1
 4492 0c89 50       		.byte	0x50
 4493 0c8a 03       		.uleb128 0x3
 4494 0c8b F3       		.byte	0xf3
 4495 0c8c 01       		.uleb128 0x1
 4496 0c8d 50       		.byte	0x50
 4497 0c8e 00       		.byte	0
 4498 0c8f 00       		.byte	0
 4499 0c90 1D       		.uleb128 0x1d
 4500 0c91 E50B0000 		.4byte	.LASF141
 4501 0c95 01       		.byte	0x1
 4502 0c96 F6       		.byte	0xf6
 4503 0c97 B8000000 		.4byte	0xb8
ARM GAS  /tmp/ccvZzf3e.s 			page 80


 4504 0c9b 00000000 		.4byte	.LFB105
 4505 0c9f DC000000 		.4byte	.LFE105-.LFB105
 4506 0ca3 01       		.uleb128 0x1
 4507 0ca4 9C       		.byte	0x9c
 4508 0ca5 510D0000 		.4byte	0xd51
 4509 0ca9 1E       		.uleb128 0x1e
 4510 0caa 4A0C0000 		.4byte	.LASF132
 4511 0cae 01       		.byte	0x1
 4512 0caf F6       		.byte	0xf6
 4513 0cb0 96070000 		.4byte	0x796
 4514 0cb4 5D080000 		.4byte	.LLST47
 4515 0cb8 23       		.uleb128 0x23
 4516 0cb9 A5050000 		.4byte	0x5a5
 4517 0cbd 20000000 		.4byte	.LBB209
 4518 0cc1 04000000 		.4byte	.LBE209-.LBB209
 4519 0cc5 01       		.byte	0x1
 4520 0cc6 FB       		.byte	0xfb
 4521 0cc7 DE0C0000 		.4byte	0xcde
 4522 0ccb 24       		.uleb128 0x24
 4523 0ccc BC050000 		.4byte	0x5bc
 4524 0cd0 89080000 		.4byte	.LLST48
 4525 0cd4 24       		.uleb128 0x24
 4526 0cd5 B1050000 		.4byte	0x5b1
 4527 0cd9 A8080000 		.4byte	.LLST49
 4528 0cdd 00       		.byte	0
 4529 0cde 23       		.uleb128 0x23
 4530 0cdf 0B050000 		.4byte	0x50b
 4531 0ce3 26000000 		.4byte	.LBB211
 4532 0ce7 1C000000 		.4byte	.LBE211-.LBB211
 4533 0ceb 01       		.byte	0x1
 4534 0cec FD       		.byte	0xfd
 4535 0ced FB0C0000 		.4byte	0xcfb
 4536 0cf1 24       		.uleb128 0x24
 4537 0cf2 1C050000 		.4byte	0x51c
 4538 0cf6 C7080000 		.4byte	.LLST50
 4539 0cfa 00       		.byte	0
 4540 0cfb 25       		.uleb128 0x25
 4541 0cfc 0C060000 		.4byte	0x60c
 4542 0d00 4A000000 		.4byte	.LBB213
 4543 0d04 28010000 		.4byte	.Ldebug_ranges0+0x128
 4544 0d08 01       		.byte	0x1
 4545 0d09 FF       		.byte	0xff
 4546 0d0a 180D0000 		.4byte	0xd18
 4547 0d0e 24       		.uleb128 0x24
 4548 0d0f 1D060000 		.4byte	0x61d
 4549 0d13 24090000 		.4byte	.LLST51
 4550 0d17 00       		.byte	0
 4551 0d18 30       		.uleb128 0x30
 4552 0d19 2A060000 		.4byte	0x62a
 4553 0d1d 6A000000 		.4byte	.LBB217
 4554 0d21 32000000 		.4byte	.LBE217-.LBB217
 4555 0d25 01       		.byte	0x1
 4556 0d26 0101     		.2byte	0x101
 4557 0d28 360D0000 		.4byte	0xd36
 4558 0d2c 24       		.uleb128 0x24
 4559 0d2d 37060000 		.4byte	0x637
 4560 0d31 76090000 		.4byte	.LLST52
ARM GAS  /tmp/ccvZzf3e.s 			page 81


 4561 0d35 00       		.byte	0
 4562 0d36 31       		.uleb128 0x31
 4563 0d37 0C060000 		.4byte	0x60c
 4564 0d3b A0000000 		.4byte	.LBB219
 4565 0d3f 14000000 		.4byte	.LBE219-.LBB219
 4566 0d43 01       		.byte	0x1
 4567 0d44 0601     		.2byte	0x106
 4568 0d46 24       		.uleb128 0x24
 4569 0d47 1D060000 		.4byte	0x61d
 4570 0d4b 89090000 		.4byte	.LLST53
 4571 0d4f 00       		.byte	0
 4572 0d50 00       		.byte	0
 4573 0d51 32       		.uleb128 0x32
 4574 0d52 1F040000 		.4byte	.LASF142
 4575 0d56 01       		.byte	0x1
 4576 0d57 0F01     		.2byte	0x10f
 4577 0d59 AD000000 		.4byte	0xad
 4578 0d5d 00000000 		.4byte	.LFB106
 4579 0d61 58010000 		.4byte	.LFE106-.LFB106
 4580 0d65 01       		.uleb128 0x1
 4581 0d66 9C       		.byte	0x9c
 4582 0d67 580E0000 		.4byte	0xe58
 4583 0d6b 33       		.uleb128 0x33
 4584 0d6c 4A0C0000 		.4byte	.LASF132
 4585 0d70 01       		.byte	0x1
 4586 0d71 0F01     		.2byte	0x10f
 4587 0d73 96070000 		.4byte	0x796
 4588 0d77 C5090000 		.4byte	.LLST54
 4589 0d7b 34       		.uleb128 0x34
 4590 0d7c E3080000 		.4byte	.LASF143
 4591 0d80 01       		.byte	0x1
 4592 0d81 1401     		.2byte	0x114
 4593 0d83 AD000000 		.4byte	0xad
 4594 0d87 630A0000 		.4byte	.LLST55
 4595 0d8b 30       		.uleb128 0x30
 4596 0d8c A5050000 		.4byte	0x5a5
 4597 0d90 18000000 		.4byte	.LBB221
 4598 0d94 04000000 		.4byte	.LBE221-.LBB221
 4599 0d98 01       		.byte	0x1
 4600 0d99 1601     		.2byte	0x116
 4601 0d9b B20D0000 		.4byte	0xdb2
 4602 0d9f 24       		.uleb128 0x24
 4603 0da0 BC050000 		.4byte	0x5bc
 4604 0da4 9D0A0000 		.4byte	.LLST56
 4605 0da8 24       		.uleb128 0x24
 4606 0da9 B1050000 		.4byte	0x5b1
 4607 0dad C70A0000 		.4byte	.LLST57
 4608 0db1 00       		.byte	0
 4609 0db2 30       		.uleb128 0x30
 4610 0db3 0B050000 		.4byte	0x50b
 4611 0db7 1E000000 		.4byte	.LBB223
 4612 0dbb 1C000000 		.4byte	.LBE223-.LBB223
 4613 0dbf 01       		.byte	0x1
 4614 0dc0 1801     		.2byte	0x118
 4615 0dc2 D00D0000 		.4byte	0xdd0
 4616 0dc6 24       		.uleb128 0x24
 4617 0dc7 1C050000 		.4byte	0x51c
ARM GAS  /tmp/ccvZzf3e.s 			page 82


 4618 0dcb E60A0000 		.4byte	.LLST58
 4619 0dcf 00       		.byte	0
 4620 0dd0 2A       		.uleb128 0x2a
 4621 0dd1 0C060000 		.4byte	0x60c
 4622 0dd5 42000000 		.4byte	.LBB225
 4623 0dd9 40010000 		.4byte	.Ldebug_ranges0+0x140
 4624 0ddd 01       		.byte	0x1
 4625 0dde 1A01     		.2byte	0x11a
 4626 0de0 EE0D0000 		.4byte	0xdee
 4627 0de4 24       		.uleb128 0x24
 4628 0de5 1D060000 		.4byte	0x61d
 4629 0de9 730B0000 		.4byte	.LLST59
 4630 0ded 00       		.byte	0
 4631 0dee 30       		.uleb128 0x30
 4632 0def 53050000 		.4byte	0x553
 4633 0df3 62000000 		.4byte	.LBB229
 4634 0df7 3A000000 		.4byte	.LBE229-.LBB229
 4635 0dfb 01       		.byte	0x1
 4636 0dfc 1B01     		.2byte	0x11b
 4637 0dfe 1F0E0000 		.4byte	0xe1f
 4638 0e02 24       		.uleb128 0x24
 4639 0e03 63050000 		.4byte	0x563
 4640 0e07 F50B0000 		.4byte	.LLST60
 4641 0e0b 20       		.uleb128 0x20
 4642 0e0c 62000000 		.4byte	.LBB230
 4643 0e10 3A000000 		.4byte	.LBE230-.LBB230
 4644 0e14 27       		.uleb128 0x27
 4645 0e15 6E050000 		.4byte	0x56e
 4646 0e19 2B0C0000 		.4byte	.LLST61
 4647 0e1d 00       		.byte	0
 4648 0e1e 00       		.byte	0
 4649 0e1f 2A       		.uleb128 0x2a
 4650 0e20 0C060000 		.4byte	0x60c
 4651 0e24 9E000000 		.4byte	.LBB231
 4652 0e28 58010000 		.4byte	.Ldebug_ranges0+0x158
 4653 0e2c 01       		.byte	0x1
 4654 0e2d 1F01     		.2byte	0x11f
 4655 0e2f 3D0E0000 		.4byte	0xe3d
 4656 0e33 24       		.uleb128 0x24
 4657 0e34 1D060000 		.4byte	0x61d
 4658 0e38 490C0000 		.4byte	.LLST62
 4659 0e3c 00       		.byte	0
 4660 0e3d 31       		.uleb128 0x31
 4661 0e3e 2A060000 		.4byte	0x62a
 4662 0e42 C8000000 		.4byte	.LBB237
 4663 0e46 36000000 		.4byte	.LBE237-.LBB237
 4664 0e4a 01       		.byte	0x1
 4665 0e4b 2001     		.2byte	0x120
 4666 0e4d 24       		.uleb128 0x24
 4667 0e4e 37060000 		.4byte	0x637
 4668 0e52 A10C0000 		.4byte	.LLST63
 4669 0e56 00       		.byte	0
 4670 0e57 00       		.byte	0
 4671 0e58 35       		.uleb128 0x35
 4672 0e59 3A020000 		.4byte	.LASF145
 4673 0e5d 01       		.byte	0x1
 4674 0e5e 2601     		.2byte	0x126
ARM GAS  /tmp/ccvZzf3e.s 			page 83


 4675 0e60 00000000 		.4byte	.LFB107
 4676 0e64 B0000000 		.4byte	.LFE107-.LFB107
 4677 0e68 01       		.uleb128 0x1
 4678 0e69 9C       		.byte	0x9c
 4679 0e6a 5C0F0000 		.4byte	0xf5c
 4680 0e6e 33       		.uleb128 0x33
 4681 0e6f 4A0C0000 		.4byte	.LASF132
 4682 0e73 01       		.byte	0x1
 4683 0e74 2601     		.2byte	0x126
 4684 0e76 96070000 		.4byte	0x796
 4685 0e7a B40C0000 		.4byte	.LLST64
 4686 0e7e 36       		.uleb128 0x36
 4687 0e7f 0A090000 		.4byte	.LASF146
 4688 0e83 01       		.byte	0x1
 4689 0e84 2D01     		.2byte	0x12d
 4690 0e86 1E030000 		.4byte	0x31e
 4691 0e8a 02       		.uleb128 0x2
 4692 0e8b 91       		.byte	0x91
 4693 0e8c 68       		.sleb128 -24
 4694 0e8d 30       		.uleb128 0x30
 4695 0e8e A5050000 		.4byte	0x5a5
 4696 0e92 1C000000 		.4byte	.LBB241
 4697 0e96 04000000 		.4byte	.LBE241-.LBB241
 4698 0e9a 01       		.byte	0x1
 4699 0e9b 2B01     		.2byte	0x12b
 4700 0e9d B40E0000 		.4byte	0xeb4
 4701 0ea1 24       		.uleb128 0x24
 4702 0ea2 BC050000 		.4byte	0x5bc
 4703 0ea6 F90C0000 		.4byte	.LLST65
 4704 0eaa 24       		.uleb128 0x24
 4705 0eab B1050000 		.4byte	0x5b1
 4706 0eaf 180D0000 		.4byte	.LLST66
 4707 0eb3 00       		.byte	0
 4708 0eb4 30       		.uleb128 0x30
 4709 0eb5 C8050000 		.4byte	0x5c8
 4710 0eb9 46000000 		.4byte	.LBB243
 4711 0ebd 42000000 		.4byte	.LBE243-.LBB243
 4712 0ec1 01       		.byte	0x1
 4713 0ec2 3A01     		.2byte	0x13a
 4714 0ec4 010F0000 		.4byte	0xf01
 4715 0ec8 24       		.uleb128 0x24
 4716 0ec9 D5050000 		.4byte	0x5d5
 4717 0ecd 370D0000 		.4byte	.LLST67
 4718 0ed1 20       		.uleb128 0x20
 4719 0ed2 46000000 		.4byte	.LBB244
 4720 0ed6 42000000 		.4byte	.LBE244-.LBB244
 4721 0eda 27       		.uleb128 0x27
 4722 0edb E1050000 		.4byte	0x5e1
 4723 0edf 8B0D0000 		.4byte	.LLST68
 4724 0ee3 28       		.uleb128 0x28
 4725 0ee4 6E000000 		.4byte	.LVL200
 4726 0ee8 53150000 		.4byte	0x1553
 4727 0eec F60E0000 		.4byte	0xef6
 4728 0ef0 22       		.uleb128 0x22
 4729 0ef1 01       		.uleb128 0x1
 4730 0ef2 50       		.byte	0x50
 4731 0ef3 01       		.uleb128 0x1
ARM GAS  /tmp/ccvZzf3e.s 			page 84


 4732 0ef4 31       		.byte	0x31
 4733 0ef5 00       		.byte	0
 4734 0ef6 29       		.uleb128 0x29
 4735 0ef7 84000000 		.4byte	.LVL205
 4736 0efb 53150000 		.4byte	0x1553
 4737 0eff 00       		.byte	0
 4738 0f00 00       		.byte	0
 4739 0f01 28       		.uleb128 0x28
 4740 0f02 2A000000 		.4byte	.LVL192
 4741 0f06 D1150000 		.4byte	0x15d1
 4742 0f0a 230F0000 		.4byte	0xf23
 4743 0f0e 22       		.uleb128 0x22
 4744 0f0f 01       		.uleb128 0x1
 4745 0f10 52       		.byte	0x52
 4746 0f11 01       		.uleb128 0x1
 4747 0f12 38       		.byte	0x38
 4748 0f13 22       		.uleb128 0x22
 4749 0f14 01       		.uleb128 0x1
 4750 0f15 51       		.byte	0x51
 4751 0f16 05       		.uleb128 0x5
 4752 0f17 03       		.byte	0x3
 4753 0f18 00000000 		.4byte	.LANCHOR0
 4754 0f1c 22       		.uleb128 0x22
 4755 0f1d 01       		.uleb128 0x1
 4756 0f1e 50       		.byte	0x50
 4757 0f1f 02       		.uleb128 0x2
 4758 0f20 7D       		.byte	0x7d
 4759 0f21 00       		.sleb128 0
 4760 0f22 00       		.byte	0
 4761 0f23 28       		.uleb128 0x28
 4762 0f24 36000000 		.4byte	.LVL193
 4763 0f28 89150000 		.4byte	0x1589
 4764 0f2c 410F0000 		.4byte	0xf41
 4765 0f30 22       		.uleb128 0x22
 4766 0f31 01       		.uleb128 0x1
 4767 0f32 53       		.byte	0x53
 4768 0f33 01       		.uleb128 0x1
 4769 0f34 30       		.byte	0x30
 4770 0f35 22       		.uleb128 0x22
 4771 0f36 01       		.uleb128 0x1
 4772 0f37 52       		.byte	0x52
 4773 0f38 01       		.uleb128 0x1
 4774 0f39 38       		.byte	0x38
 4775 0f3a 22       		.uleb128 0x22
 4776 0f3b 01       		.uleb128 0x1
 4777 0f3c 51       		.byte	0x51
 4778 0f3d 02       		.uleb128 0x2
 4779 0f3e 7D       		.byte	0x7d
 4780 0f3f 00       		.sleb128 0
 4781 0f40 00       		.byte	0
 4782 0f41 21       		.uleb128 0x21
 4783 0f42 44000000 		.4byte	.LVL194
 4784 0f46 89150000 		.4byte	0x1589
 4785 0f4a 22       		.uleb128 0x22
 4786 0f4b 01       		.uleb128 0x1
 4787 0f4c 53       		.byte	0x53
 4788 0f4d 01       		.uleb128 0x1
ARM GAS  /tmp/ccvZzf3e.s 			page 85


 4789 0f4e 30       		.byte	0x30
 4790 0f4f 22       		.uleb128 0x22
 4791 0f50 01       		.uleb128 0x1
 4792 0f51 52       		.byte	0x52
 4793 0f52 01       		.uleb128 0x1
 4794 0f53 32       		.byte	0x32
 4795 0f54 22       		.uleb128 0x22
 4796 0f55 01       		.uleb128 0x1
 4797 0f56 51       		.byte	0x51
 4798 0f57 02       		.uleb128 0x2
 4799 0f58 74       		.byte	0x74
 4800 0f59 10       		.sleb128 16
 4801 0f5a 00       		.byte	0
 4802 0f5b 00       		.byte	0
 4803 0f5c 35       		.uleb128 0x35
 4804 0f5d 92010000 		.4byte	.LASF147
 4805 0f61 01       		.byte	0x1
 4806 0f62 6D01     		.2byte	0x16d
 4807 0f64 00000000 		.4byte	.LFB108
 4808 0f68 02000000 		.4byte	.LFE108-.LFB108
 4809 0f6c 01       		.uleb128 0x1
 4810 0f6d 9C       		.byte	0x9c
 4811 0f6e 810F0000 		.4byte	0xf81
 4812 0f72 37       		.uleb128 0x37
 4813 0f73 4A0C0000 		.4byte	.LASF132
 4814 0f77 01       		.byte	0x1
 4815 0f78 6D01     		.2byte	0x16d
 4816 0f7a 96070000 		.4byte	0x796
 4817 0f7e 01       		.uleb128 0x1
 4818 0f7f 50       		.byte	0x50
 4819 0f80 00       		.byte	0
 4820 0f81 35       		.uleb128 0x35
 4821 0f82 330C0000 		.4byte	.LASF148
 4822 0f86 01       		.byte	0x1
 4823 0f87 7201     		.2byte	0x172
 4824 0f89 00000000 		.4byte	.LFB109
 4825 0f8d 02000000 		.4byte	.LFE109-.LFB109
 4826 0f91 01       		.uleb128 0x1
 4827 0f92 9C       		.byte	0x9c
 4828 0f93 B40F0000 		.4byte	0xfb4
 4829 0f97 37       		.uleb128 0x37
 4830 0f98 4A0C0000 		.4byte	.LASF132
 4831 0f9c 01       		.byte	0x1
 4832 0f9d 7201     		.2byte	0x172
 4833 0f9f 96070000 		.4byte	0x796
 4834 0fa3 01       		.uleb128 0x1
 4835 0fa4 50       		.byte	0x50
 4836 0fa5 37       		.uleb128 0x37
 4837 0fa6 DA000000 		.4byte	.LASF149
 4838 0faa 01       		.byte	0x1
 4839 0fab 7201     		.2byte	0x172
 4840 0fad A0050000 		.4byte	0x5a0
 4841 0fb1 01       		.uleb128 0x1
 4842 0fb2 51       		.byte	0x51
 4843 0fb3 00       		.byte	0
 4844 0fb4 2F       		.uleb128 0x2f
 4845 0fb5 43070000 		.4byte	.LASF150
ARM GAS  /tmp/ccvZzf3e.s 			page 86


 4846 0fb9 01       		.byte	0x1
 4847 0fba 2B       		.byte	0x2b
 4848 0fbb 00000000 		.4byte	.LFB98
 4849 0fbf A0050000 		.4byte	.LFE98-.LFB98
 4850 0fc3 01       		.uleb128 0x1
 4851 0fc4 9C       		.byte	0x9c
 4852 0fc5 24140000 		.4byte	0x1424
 4853 0fc9 1E       		.uleb128 0x1e
 4854 0fca 4A0C0000 		.4byte	.LASF132
 4855 0fce 01       		.byte	0x1
 4856 0fcf 2B       		.byte	0x2b
 4857 0fd0 96070000 		.4byte	0x796
 4858 0fd4 BC0D0000 		.4byte	.LLST69
 4859 0fd8 23       		.uleb128 0x23
 4860 0fd9 44060000 		.4byte	0x644
 4861 0fdd 04000000 		.4byte	.LBB245
 4862 0fe1 04000000 		.4byte	.LBE245-.LBB245
 4863 0fe5 01       		.byte	0x1
 4864 0fe6 2D       		.byte	0x2d
 4865 0fe7 F50F0000 		.4byte	0xff5
 4866 0feb 24       		.uleb128 0x24
 4867 0fec 55060000 		.4byte	0x655
 4868 0ff0 2A0E0000 		.4byte	.LLST70
 4869 0ff4 00       		.byte	0
 4870 0ff5 23       		.uleb128 0x23
 4871 0ff6 62060000 		.4byte	0x662
 4872 0ffa 50000000 		.4byte	.LBB247
 4873 0ffe 14000000 		.4byte	.LBE247-.LBB247
 4874 1002 01       		.byte	0x1
 4875 1003 38       		.byte	0x38
 4876 1004 12100000 		.4byte	0x1012
 4877 1008 24       		.uleb128 0x24
 4878 1009 6F060000 		.4byte	0x66f
 4879 100d 920E0000 		.4byte	.LLST71
 4880 1011 00       		.byte	0
 4881 1012 23       		.uleb128 0x23
 4882 1013 29050000 		.4byte	0x529
 4883 1017 66000000 		.4byte	.LBB249
 4884 101b 24000000 		.4byte	.LBE249-.LBB249
 4885 101f 01       		.byte	0x1
 4886 1020 3A       		.byte	0x3a
 4887 1021 42100000 		.4byte	0x1042
 4888 1025 24       		.uleb128 0x24
 4889 1026 3A050000 		.4byte	0x53a
 4890 102a BD0E0000 		.4byte	.LLST72
 4891 102e 20       		.uleb128 0x20
 4892 102f 66000000 		.4byte	.LBB250
 4893 1033 24000000 		.4byte	.LBE250-.LBB250
 4894 1037 27       		.uleb128 0x27
 4895 1038 46050000 		.4byte	0x546
 4896 103c DD0E0000 		.4byte	.LLST73
 4897 1040 00       		.byte	0
 4898 1041 00       		.byte	0
 4899 1042 23       		.uleb128 0x23
 4900 1043 7C060000 		.4byte	0x67c
 4901 1047 96000000 		.4byte	.LBB251
 4902 104b D0000000 		.4byte	.LBE251-.LBB251
ARM GAS  /tmp/ccvZzf3e.s 			page 87


 4903 104f 01       		.byte	0x1
 4904 1050 3C       		.byte	0x3c
 4905 1051 F4100000 		.4byte	0x10f4
 4906 1055 24       		.uleb128 0x24
 4907 1056 95060000 		.4byte	0x695
 4908 105a F00E0000 		.4byte	.LLST74
 4909 105e 24       		.uleb128 0x24
 4910 105f 89060000 		.4byte	0x689
 4911 1063 030F0000 		.4byte	.LLST75
 4912 1067 30       		.uleb128 0x30
 4913 1068 7A050000 		.4byte	0x57a
 4914 106c 98000000 		.4byte	.LBB253
 4915 1070 2E000000 		.4byte	.LBE253-.LBB253
 4916 1074 02       		.byte	0x2
 4917 1075 DD01     		.2byte	0x1dd
 4918 1077 8E100000 		.4byte	0x108e
 4919 107b 24       		.uleb128 0x24
 4920 107c 93050000 		.4byte	0x593
 4921 1080 230F0000 		.4byte	.LLST76
 4922 1084 24       		.uleb128 0x24
 4923 1085 87050000 		.4byte	0x587
 4924 1089 360F0000 		.4byte	.LLST77
 4925 108d 00       		.byte	0
 4926 108e 30       		.uleb128 0x30
 4927 108f 7A050000 		.4byte	0x57a
 4928 1093 CA000000 		.4byte	.LBB255
 4929 1097 32000000 		.4byte	.LBE255-.LBB255
 4930 109b 02       		.byte	0x2
 4931 109c DE01     		.2byte	0x1de
 4932 109e B1100000 		.4byte	0x10b1
 4933 10a2 24       		.uleb128 0x24
 4934 10a3 93050000 		.4byte	0x593
 4935 10a7 560F0000 		.4byte	.LLST78
 4936 10ab 2B       		.uleb128 0x2b
 4937 10ac 87050000 		.4byte	0x587
 4938 10b0 00       		.byte	0
 4939 10b1 30       		.uleb128 0x30
 4940 10b2 7A050000 		.4byte	0x57a
 4941 10b6 00010000 		.4byte	.LBB257
 4942 10ba 32000000 		.4byte	.LBE257-.LBB257
 4943 10be 02       		.byte	0x2
 4944 10bf DF01     		.2byte	0x1df
 4945 10c1 D4100000 		.4byte	0x10d4
 4946 10c5 24       		.uleb128 0x24
 4947 10c6 93050000 		.4byte	0x593
 4948 10ca 830F0000 		.4byte	.LLST79
 4949 10ce 2B       		.uleb128 0x2b
 4950 10cf 87050000 		.4byte	0x587
 4951 10d3 00       		.byte	0
 4952 10d4 31       		.uleb128 0x31
 4953 10d5 7A050000 		.4byte	0x57a
 4954 10d9 34010000 		.4byte	.LBB259
 4955 10dd 32000000 		.4byte	.LBE259-.LBB259
 4956 10e1 02       		.byte	0x2
 4957 10e2 E001     		.2byte	0x1e0
 4958 10e4 24       		.uleb128 0x24
 4959 10e5 93050000 		.4byte	0x593
ARM GAS  /tmp/ccvZzf3e.s 			page 88


 4960 10e9 B00F0000 		.4byte	.LLST80
 4961 10ed 2B       		.uleb128 0x2b
 4962 10ee 87050000 		.4byte	0x587
 4963 10f2 00       		.byte	0
 4964 10f3 00       		.byte	0
 4965 10f4 23       		.uleb128 0x23
 4966 10f5 7A050000 		.4byte	0x57a
 4967 10f9 68010000 		.4byte	.LBB261
 4968 10fd 34000000 		.4byte	.LBE261-.LBB261
 4969 1101 01       		.byte	0x1
 4970 1102 3D       		.byte	0x3d
 4971 1103 1A110000 		.4byte	0x111a
 4972 1107 24       		.uleb128 0x24
 4973 1108 93050000 		.4byte	0x593
 4974 110c CE0F0000 		.4byte	.LLST81
 4975 1110 24       		.uleb128 0x24
 4976 1111 87050000 		.4byte	0x587
 4977 1115 04100000 		.4byte	.LLST82
 4978 1119 00       		.byte	0
 4979 111a 23       		.uleb128 0x23
 4980 111b 7A050000 		.4byte	0x57a
 4981 111f 9E010000 		.4byte	.LBB263
 4982 1123 34000000 		.4byte	.LBE263-.LBB263
 4983 1127 01       		.byte	0x1
 4984 1128 3E       		.byte	0x3e
 4985 1129 40110000 		.4byte	0x1140
 4986 112d 24       		.uleb128 0x24
 4987 112e 93050000 		.4byte	0x593
 4988 1132 24100000 		.4byte	.LLST83
 4989 1136 24       		.uleb128 0x24
 4990 1137 87050000 		.4byte	0x587
 4991 113b 5A100000 		.4byte	.LLST84
 4992 113f 00       		.byte	0
 4993 1140 23       		.uleb128 0x23
 4994 1141 7A050000 		.4byte	0x57a
 4995 1145 D4010000 		.4byte	.LBB265
 4996 1149 34000000 		.4byte	.LBE265-.LBB265
 4997 114d 01       		.byte	0x1
 4998 114e 3F       		.byte	0x3f
 4999 114f 66110000 		.4byte	0x1166
 5000 1153 24       		.uleb128 0x24
 5001 1154 93050000 		.4byte	0x593
 5002 1158 7A100000 		.4byte	.LLST85
 5003 115c 24       		.uleb128 0x24
 5004 115d 87050000 		.4byte	0x587
 5005 1161 BB100000 		.4byte	.LLST86
 5006 1165 00       		.byte	0
 5007 1166 23       		.uleb128 0x23
 5008 1167 C8050000 		.4byte	0x5c8
 5009 116b 0A020000 		.4byte	.LBB267
 5010 116f 44000000 		.4byte	.LBE267-.LBB267
 5011 1173 01       		.byte	0x1
 5012 1174 41       		.byte	0x41
 5013 1175 B2110000 		.4byte	0x11b2
 5014 1179 24       		.uleb128 0x24
 5015 117a D5050000 		.4byte	0x5d5
 5016 117e DB100000 		.4byte	.LLST87
ARM GAS  /tmp/ccvZzf3e.s 			page 89


 5017 1182 20       		.uleb128 0x20
 5018 1183 0A020000 		.4byte	.LBB268
 5019 1187 44000000 		.4byte	.LBE268-.LBB268
 5020 118b 27       		.uleb128 0x27
 5021 118c E1050000 		.4byte	0x5e1
 5022 1190 FB100000 		.4byte	.LLST88
 5023 1194 28       		.uleb128 0x28
 5024 1195 34020000 		.4byte	.LVL250
 5025 1199 53150000 		.4byte	0x1553
 5026 119d A7110000 		.4byte	0x11a7
 5027 11a1 22       		.uleb128 0x22
 5028 11a2 01       		.uleb128 0x1
 5029 11a3 50       		.byte	0x50
 5030 11a4 01       		.uleb128 0x1
 5031 11a5 31       		.byte	0x31
 5032 11a6 00       		.byte	0
 5033 11a7 29       		.uleb128 0x29
 5034 11a8 4A020000 		.4byte	.LVL255
 5035 11ac 53150000 		.4byte	0x1553
 5036 11b0 00       		.byte	0
 5037 11b1 00       		.byte	0
 5038 11b2 23       		.uleb128 0x23
 5039 11b3 62060000 		.4byte	0x662
 5040 11b7 62020000 		.4byte	.LBB269
 5041 11bb 14000000 		.4byte	.LBE269-.LBB269
 5042 11bf 01       		.byte	0x1
 5043 11c0 49       		.byte	0x49
 5044 11c1 CF110000 		.4byte	0x11cf
 5045 11c5 24       		.uleb128 0x24
 5046 11c6 6F060000 		.4byte	0x66f
 5047 11ca 59110000 		.4byte	.LLST89
 5048 11ce 00       		.byte	0
 5049 11cf 25       		.uleb128 0x25
 5050 11d0 0B050000 		.4byte	0x50b
 5051 11d4 78020000 		.4byte	.LBB271
 5052 11d8 80010000 		.4byte	.Ldebug_ranges0+0x180
 5053 11dc 01       		.byte	0x1
 5054 11dd 4B       		.byte	0x4b
 5055 11de EC110000 		.4byte	0x11ec
 5056 11e2 24       		.uleb128 0x24
 5057 11e3 1C050000 		.4byte	0x51c
 5058 11e7 84110000 		.4byte	.LLST90
 5059 11eb 00       		.byte	0
 5060 11ec 23       		.uleb128 0x23
 5061 11ed A7060000 		.4byte	0x6a7
 5062 11f1 9C020000 		.4byte	.LBB275
 5063 11f5 4A010000 		.4byte	.LBE275-.LBB275
 5064 11f9 01       		.byte	0x1
 5065 11fa 4D       		.byte	0x4d
 5066 11fb EC120000 		.4byte	0x12ec
 5067 11ff 24       		.uleb128 0x24
 5068 1200 B8060000 		.4byte	0x6b8
 5069 1204 A4110000 		.4byte	.LLST91
 5070 1208 20       		.uleb128 0x20
 5071 1209 9C020000 		.4byte	.LBB276
 5072 120d 4A010000 		.4byte	.LBE276-.LBB276
 5073 1211 27       		.uleb128 0x27
ARM GAS  /tmp/ccvZzf3e.s 			page 90


 5074 1212 C4060000 		.4byte	0x6c4
 5075 1216 C4110000 		.4byte	.LLST92
 5076 121a 38       		.uleb128 0x38
 5077 121b D0060000 		.4byte	0x6d0
 5078 121f 01       		.uleb128 0x1
 5079 1220 53       		.byte	0x53
 5080 1221 38       		.uleb128 0x38
 5081 1222 DC060000 		.4byte	0x6dc
 5082 1226 01       		.uleb128 0x1
 5083 1227 50       		.byte	0x50
 5084 1228 38       		.uleb128 0x38
 5085 1229 E8060000 		.4byte	0x6e8
 5086 122d 01       		.uleb128 0x1
 5087 122e 56       		.byte	0x56
 5088 122f 38       		.uleb128 0x38
 5089 1230 F4060000 		.4byte	0x6f4
 5090 1234 01       		.uleb128 0x1
 5091 1235 52       		.byte	0x52
 5092 1236 30       		.uleb128 0x30
 5093 1237 53050000 		.4byte	0x553
 5094 123b 9C020000 		.4byte	.LBB277
 5095 123f 3E000000 		.4byte	.LBE277-.LBB277
 5096 1243 02       		.byte	0x2
 5097 1244 AD01     		.2byte	0x1ad
 5098 1246 67120000 		.4byte	0x1267
 5099 124a 24       		.uleb128 0x24
 5100 124b 63050000 		.4byte	0x563
 5101 124f A4110000 		.4byte	.LLST91
 5102 1253 20       		.uleb128 0x20
 5103 1254 9C020000 		.4byte	.LBB278
 5104 1258 3E000000 		.4byte	.LBE278-.LBB278
 5105 125c 27       		.uleb128 0x27
 5106 125d 6E050000 		.4byte	0x56e
 5107 1261 00120000 		.4byte	.LLST94
 5108 1265 00       		.byte	0
 5109 1266 00       		.byte	0
 5110 1267 30       		.uleb128 0x30
 5111 1268 53050000 		.4byte	0x553
 5112 126c DA020000 		.4byte	.LBB279
 5113 1270 42000000 		.4byte	.LBE279-.LBB279
 5114 1274 02       		.byte	0x2
 5115 1275 AE01     		.2byte	0x1ae
 5116 1277 94120000 		.4byte	0x1294
 5117 127b 2B       		.uleb128 0x2b
 5118 127c 63050000 		.4byte	0x563
 5119 1280 20       		.uleb128 0x20
 5120 1281 DA020000 		.4byte	.LBB280
 5121 1285 42000000 		.4byte	.LBE280-.LBB280
 5122 1289 27       		.uleb128 0x27
 5123 128a 6E050000 		.4byte	0x56e
 5124 128e 36120000 		.4byte	.LLST95
 5125 1292 00       		.byte	0
 5126 1293 00       		.byte	0
 5127 1294 30       		.uleb128 0x30
 5128 1295 53050000 		.4byte	0x553
 5129 1299 1C030000 		.4byte	.LBB281
 5130 129d 7C000000 		.4byte	.LBE281-.LBB281
ARM GAS  /tmp/ccvZzf3e.s 			page 91


 5131 12a1 02       		.byte	0x2
 5132 12a2 AF01     		.2byte	0x1af
 5133 12a4 C1120000 		.4byte	0x12c1
 5134 12a8 2B       		.uleb128 0x2b
 5135 12a9 63050000 		.4byte	0x563
 5136 12ad 20       		.uleb128 0x20
 5137 12ae 1C030000 		.4byte	.LBB282
 5138 12b2 7C000000 		.4byte	.LBE282-.LBB282
 5139 12b6 27       		.uleb128 0x27
 5140 12b7 6E050000 		.4byte	0x56e
 5141 12bb 6C120000 		.4byte	.LLST96
 5142 12bf 00       		.byte	0
 5143 12c0 00       		.byte	0
 5144 12c1 31       		.uleb128 0x31
 5145 12c2 53050000 		.4byte	0x553
 5146 12c6 98030000 		.4byte	.LBB283
 5147 12ca 42000000 		.4byte	.LBE283-.LBB283
 5148 12ce 02       		.byte	0x2
 5149 12cf B001     		.2byte	0x1b0
 5150 12d1 2B       		.uleb128 0x2b
 5151 12d2 63050000 		.4byte	0x563
 5152 12d6 20       		.uleb128 0x20
 5153 12d7 98030000 		.4byte	.LBB284
 5154 12db 42000000 		.4byte	.LBE284-.LBB284
 5155 12df 27       		.uleb128 0x27
 5156 12e0 6E050000 		.4byte	0x56e
 5157 12e4 A2120000 		.4byte	.LLST97
 5158 12e8 00       		.byte	0
 5159 12e9 00       		.byte	0
 5160 12ea 00       		.byte	0
 5161 12eb 00       		.byte	0
 5162 12ec 23       		.uleb128 0x23
 5163 12ed 53050000 		.4byte	0x553
 5164 12f1 EC030000 		.4byte	.LBB285
 5165 12f5 44000000 		.4byte	.LBE285-.LBB285
 5166 12f9 01       		.byte	0x1
 5167 12fa 4E       		.byte	0x4e
 5168 12fb 1C130000 		.4byte	0x131c
 5169 12ff 24       		.uleb128 0x24
 5170 1300 63050000 		.4byte	0x563
 5171 1304 C0120000 		.4byte	.LLST98
 5172 1308 20       		.uleb128 0x20
 5173 1309 EC030000 		.4byte	.LBB286
 5174 130d 44000000 		.4byte	.LBE286-.LBB286
 5175 1311 27       		.uleb128 0x27
 5176 1312 6E050000 		.4byte	0x56e
 5177 1316 E0120000 		.4byte	.LLST99
 5178 131a 00       		.byte	0
 5179 131b 00       		.byte	0
 5180 131c 23       		.uleb128 0x23
 5181 131d 53050000 		.4byte	0x553
 5182 1321 32040000 		.4byte	.LBB287
 5183 1325 44000000 		.4byte	.LBE287-.LBB287
 5184 1329 01       		.byte	0x1
 5185 132a 4F       		.byte	0x4f
 5186 132b 4C130000 		.4byte	0x134c
 5187 132f 24       		.uleb128 0x24
ARM GAS  /tmp/ccvZzf3e.s 			page 92


 5188 1330 63050000 		.4byte	0x563
 5189 1334 FE120000 		.4byte	.LLST100
 5190 1338 20       		.uleb128 0x20
 5191 1339 32040000 		.4byte	.LBB288
 5192 133d 44000000 		.4byte	.LBE288-.LBB288
 5193 1341 27       		.uleb128 0x27
 5194 1342 6E050000 		.4byte	0x56e
 5195 1346 1E130000 		.4byte	.LLST101
 5196 134a 00       		.byte	0
 5197 134b 00       		.byte	0
 5198 134c 23       		.uleb128 0x23
 5199 134d 53050000 		.4byte	0x553
 5200 1351 78040000 		.4byte	.LBB289
 5201 1355 44000000 		.4byte	.LBE289-.LBB289
 5202 1359 01       		.byte	0x1
 5203 135a 50       		.byte	0x50
 5204 135b 7C130000 		.4byte	0x137c
 5205 135f 24       		.uleb128 0x24
 5206 1360 63050000 		.4byte	0x563
 5207 1364 3C130000 		.4byte	.LLST102
 5208 1368 20       		.uleb128 0x20
 5209 1369 78040000 		.4byte	.LBB290
 5210 136d 44000000 		.4byte	.LBE290-.LBB290
 5211 1371 27       		.uleb128 0x27
 5212 1372 6E050000 		.4byte	0x56e
 5213 1376 5C130000 		.4byte	.LLST103
 5214 137a 00       		.byte	0
 5215 137b 00       		.byte	0
 5216 137c 23       		.uleb128 0x23
 5217 137d 2A060000 		.4byte	0x62a
 5218 1381 C0040000 		.4byte	.LBB291
 5219 1385 3A000000 		.4byte	.LBE291-.LBB291
 5220 1389 01       		.byte	0x1
 5221 138a 52       		.byte	0x52
 5222 138b 99130000 		.4byte	0x1399
 5223 138f 24       		.uleb128 0x24
 5224 1390 37060000 		.4byte	0x637
 5225 1394 7A130000 		.4byte	.LLST104
 5226 1398 00       		.byte	0
 5227 1399 23       		.uleb128 0x23
 5228 139a 62060000 		.4byte	0x662
 5229 139e 12050000 		.4byte	.LBB293
 5230 13a2 14000000 		.4byte	.LBE293-.LBB293
 5231 13a6 01       		.byte	0x1
 5232 13a7 5C       		.byte	0x5c
 5233 13a8 B6130000 		.4byte	0x13b6
 5234 13ac 24       		.uleb128 0x24
 5235 13ad 6F060000 		.4byte	0x66f
 5236 13b1 BB130000 		.4byte	.LLST105
 5237 13b5 00       		.byte	0
 5238 13b6 23       		.uleb128 0x23
 5239 13b7 62060000 		.4byte	0x662
 5240 13bb 4A050000 		.4byte	.LBB295
 5241 13bf 14000000 		.4byte	.LBE295-.LBB295
 5242 13c3 01       		.byte	0x1
 5243 13c4 68       		.byte	0x68
 5244 13c5 D3130000 		.4byte	0x13d3
ARM GAS  /tmp/ccvZzf3e.s 			page 93


 5245 13c9 24       		.uleb128 0x24
 5246 13ca 6F060000 		.4byte	0x66f
 5247 13ce E6130000 		.4byte	.LLST106
 5248 13d2 00       		.byte	0
 5249 13d3 29       		.uleb128 0x29
 5250 13d4 54020000 		.4byte	.LVL256
 5251 13d8 EE150000 		.4byte	0x15ee
 5252 13dc 29       		.uleb128 0x29
 5253 13dd 00050000 		.4byte	.LVL321
 5254 13e1 EE150000 		.4byte	0x15ee
 5255 13e5 39       		.uleb128 0x39
 5256 13e6 06050000 		.4byte	.LVL322
 5257 13ea F5130000 		.4byte	0x13f5
 5258 13ee 22       		.uleb128 0x22
 5259 13ef 01       		.uleb128 0x1
 5260 13f0 50       		.byte	0x50
 5261 13f1 02       		.uleb128 0x2
 5262 13f2 74       		.byte	0x74
 5263 13f3 00       		.sleb128 0
 5264 13f4 00       		.byte	0
 5265 13f5 29       		.uleb128 0x29
 5266 13f6 2C050000 		.4byte	.LVL328
 5267 13fa EE150000 		.4byte	0x15ee
 5268 13fe 39       		.uleb128 0x39
 5269 13ff 3E050000 		.4byte	.LVL329
 5270 1403 0E140000 		.4byte	0x140e
 5271 1407 22       		.uleb128 0x22
 5272 1408 01       		.uleb128 0x1
 5273 1409 50       		.byte	0x50
 5274 140a 02       		.uleb128 0x2
 5275 140b 74       		.byte	0x74
 5276 140c 00       		.sleb128 0
 5277 140d 00       		.byte	0
 5278 140e 29       		.uleb128 0x29
 5279 140f 64050000 		.4byte	.LVL335
 5280 1413 EE150000 		.4byte	0x15ee
 5281 1417 3A       		.uleb128 0x3a
 5282 1418 6E050000 		.4byte	.LVL336
 5283 141c 22       		.uleb128 0x22
 5284 141d 01       		.uleb128 0x1
 5285 141e 50       		.byte	0x50
 5286 141f 02       		.uleb128 0x2
 5287 1420 74       		.byte	0x74
 5288 1421 00       		.sleb128 0
 5289 1422 00       		.byte	0
 5290 1423 00       		.byte	0
 5291 1424 08       		.uleb128 0x8
 5292 1425 A2000000 		.4byte	0xa2
 5293 1429 36140000 		.4byte	0x1436
 5294 142d 3B       		.uleb128 0x3b
 5295 142e 3C       		.uleb128 0x3c
 5296 142f E4000000 		.4byte	0xe4
 5297 1433 FF01     		.2byte	0x1ff
 5298 1435 00       		.byte	0
 5299 1436 3D       		.uleb128 0x3d
 5300 1437 93070000 		.4byte	.LASF151
 5301 143b 0E       		.byte	0xe
ARM GAS  /tmp/ccvZzf3e.s 			page 94


 5302 143c 36       		.byte	0x36
 5303 143d 24140000 		.4byte	0x1424
 5304 1441 3D       		.uleb128 0x3d
 5305 1442 00000000 		.4byte	.LASF152
 5306 1446 0E       		.byte	0xe
 5307 1447 38       		.byte	0x38
 5308 1448 24140000 		.4byte	0x1424
 5309 144c 3D       		.uleb128 0x3d
 5310 144d 27030000 		.4byte	.LASF153
 5311 1451 0E       		.byte	0xe
 5312 1452 3A       		.byte	0x3a
 5313 1453 24140000 		.4byte	0x1424
 5314 1457 08       		.uleb128 0x8
 5315 1458 C3000000 		.4byte	0xc3
 5316 145c 62140000 		.4byte	0x1462
 5317 1460 3B       		.uleb128 0x3b
 5318 1461 00       		.byte	0
 5319 1462 3D       		.uleb128 0x3d
 5320 1463 E4030000 		.4byte	.LASF154
 5321 1467 0E       		.byte	0xe
 5322 1468 3C       		.byte	0x3c
 5323 1469 6D140000 		.4byte	0x146d
 5324 146d 0A       		.uleb128 0xa
 5325 146e 57140000 		.4byte	0x1457
 5326 1472 08       		.uleb128 0x8
 5327 1473 CE000000 		.4byte	0xce
 5328 1477 7D140000 		.4byte	0x147d
 5329 147b 3B       		.uleb128 0x3b
 5330 147c 00       		.byte	0
 5331 147d 3D       		.uleb128 0x3d
 5332 147e 71010000 		.4byte	.LASF155
 5333 1482 0E       		.byte	0xe
 5334 1483 3E       		.byte	0x3e
 5335 1484 88140000 		.4byte	0x1488
 5336 1488 0A       		.uleb128 0xa
 5337 1489 72140000 		.4byte	0x1472
 5338 148d 3D       		.uleb128 0x3d
 5339 148e 4C090000 		.4byte	.LASF156
 5340 1492 0E       		.byte	0xe
 5341 1493 43       		.byte	0x43
 5342 1494 98140000 		.4byte	0x1498
 5343 1498 0A       		.uleb128 0xa
 5344 1499 72140000 		.4byte	0x1472
 5345 149d 3D       		.uleb128 0x3d
 5346 149e BF040000 		.4byte	.LASF157
 5347 14a2 0E       		.byte	0xe
 5348 14a3 44       		.byte	0x44
 5349 14a4 A8140000 		.4byte	0x14a8
 5350 14a8 0A       		.uleb128 0xa
 5351 14a9 72140000 		.4byte	0x1472
 5352 14ad 3D       		.uleb128 0x3d
 5353 14ae 08020000 		.4byte	.LASF158
 5354 14b2 0E       		.byte	0xe
 5355 14b3 45       		.byte	0x45
 5356 14b4 B8140000 		.4byte	0x14b8
 5357 14b8 0A       		.uleb128 0xa
 5358 14b9 72140000 		.4byte	0x1472
ARM GAS  /tmp/ccvZzf3e.s 			page 95


 5359 14bd 08       		.uleb128 0x8
 5360 14be A2000000 		.4byte	0xa2
 5361 14c2 C8140000 		.4byte	0x14c8
 5362 14c6 3B       		.uleb128 0x3b
 5363 14c7 00       		.byte	0
 5364 14c8 3D       		.uleb128 0x3d
 5365 14c9 BC060000 		.4byte	.LASF159
 5366 14cd 0E       		.byte	0xe
 5367 14ce 49       		.byte	0x49
 5368 14cf BD140000 		.4byte	0x14bd
 5369 14d3 3D       		.uleb128 0x3d
 5370 14d4 F8070000 		.4byte	.LASF160
 5371 14d8 0E       		.byte	0xe
 5372 14d9 4D       		.byte	0x4d
 5373 14da BD140000 		.4byte	0x14bd
 5374 14de 3D       		.uleb128 0x3d
 5375 14df 08080000 		.4byte	.LASF161
 5376 14e3 0E       		.byte	0xe
 5377 14e4 4E       		.byte	0x4e
 5378 14e5 BD140000 		.4byte	0x14bd
 5379 14e9 08       		.uleb128 0x8
 5380 14ea 72020000 		.4byte	0x272
 5381 14ee FF140000 		.4byte	0x14ff
 5382 14f2 09       		.uleb128 0x9
 5383 14f3 E4000000 		.4byte	0xe4
 5384 14f7 09       		.byte	0x9
 5385 14f8 09       		.uleb128 0x9
 5386 14f9 E4000000 		.4byte	0xe4
 5387 14fd 01       		.byte	0x1
 5388 14fe 00       		.byte	0
 5389 14ff 3D       		.uleb128 0x3d
 5390 1500 540B0000 		.4byte	.LASF162
 5391 1504 03       		.byte	0x3
 5392 1505 C9       		.byte	0xc9
 5393 1506 E9140000 		.4byte	0x14e9
 5394 150a 3D       		.uleb128 0x3d
 5395 150b B6010000 		.4byte	.LASF163
 5396 150f 0F       		.byte	0xf
 5397 1510 54       		.byte	0x54
 5398 1511 1E030000 		.4byte	0x31e
 5399 1515 3D       		.uleb128 0x3d
 5400 1516 0F040000 		.4byte	.LASF164
 5401 151a 0F       		.byte	0xf
 5402 151b 8B       		.byte	0x8b
 5403 151c 20150000 		.4byte	0x1520
 5404 1520 0A       		.uleb128 0xa
 5405 1521 BD140000 		.4byte	0x14bd
 5406 1525 3E       		.uleb128 0x3e
 5407 1526 71050000 		.4byte	.LASF165
 5408 152a 03       		.byte	0x3
 5409 152b CB       		.byte	0xcb
 5410 152c 75040000 		.4byte	0x475
 5411 1530 53150000 		.4byte	0x1553
 5412 1534 3F       		.uleb128 0x3f
 5413 1535 A2000000 		.4byte	0xa2
 5414 1539 3F       		.uleb128 0x3f
 5415 153a A0050000 		.4byte	0x5a0
ARM GAS  /tmp/ccvZzf3e.s 			page 96


 5416 153e 3F       		.uleb128 0x3f
 5417 153f A0050000 		.4byte	0x5a0
 5418 1543 3F       		.uleb128 0x3f
 5419 1544 A0050000 		.4byte	0x5a0
 5420 1548 3F       		.uleb128 0x3f
 5421 1549 40090000 		.4byte	0x940
 5422 154d 3F       		.uleb128 0x3f
 5423 154e A0050000 		.4byte	0x5a0
 5424 1552 00       		.byte	0
 5425 1553 40       		.uleb128 0x40
 5426 1554 6F090000 		.4byte	.LASF168
 5427 1558 03       		.byte	0x3
 5428 1559 C4       		.byte	0xc4
 5429 155a 6E150000 		.4byte	0x156e
 5430 155e 3F       		.uleb128 0x3f
 5431 155f A2000000 		.4byte	0xa2
 5432 1563 3F       		.uleb128 0x3f
 5433 1564 6E150000 		.4byte	0x156e
 5434 1568 3F       		.uleb128 0x3f
 5435 1569 CE000000 		.4byte	0xce
 5436 156d 00       		.byte	0
 5437 156e 06       		.uleb128 0x6
 5438 156f 04       		.byte	0x4
 5439 1570 A2000000 		.4byte	0xa2
 5440 1574 3E       		.uleb128 0x3e
 5441 1575 07070000 		.4byte	.LASF166
 5442 1579 10       		.byte	0x10
 5443 157a 21       		.byte	0x21
 5444 157b D9000000 		.4byte	0xd9
 5445 157f 89150000 		.4byte	0x1589
 5446 1583 3F       		.uleb128 0x3f
 5447 1584 F4000000 		.4byte	0xf4
 5448 1588 00       		.byte	0
 5449 1589 41       		.uleb128 0x41
 5450 158a BC090000 		.4byte	.LASF167
 5451 158e 0B       		.byte	0xb
 5452 158f 2201     		.2byte	0x122
 5453 1591 A2000000 		.4byte	0xa2
 5454 1595 AE150000 		.4byte	0x15ae
 5455 1599 3F       		.uleb128 0x3f
 5456 159a A2000000 		.4byte	0xa2
 5457 159e 3F       		.uleb128 0x3f
 5458 159f AE150000 		.4byte	0x15ae
 5459 15a3 3F       		.uleb128 0x3f
 5460 15a4 B8000000 		.4byte	0xb8
 5461 15a8 3F       		.uleb128 0x3f
 5462 15a9 BA150000 		.4byte	0x15ba
 5463 15ad 00       		.byte	0
 5464 15ae 07       		.uleb128 0x7
 5465 15af B3150000 		.4byte	0x15b3
 5466 15b3 06       		.uleb128 0x6
 5467 15b4 04       		.byte	0x4
 5468 15b5 B9150000 		.4byte	0x15b9
 5469 15b9 42       		.uleb128 0x42
 5470 15ba 07       		.uleb128 0x7
 5471 15bb BF150000 		.4byte	0x15bf
 5472 15bf 06       		.uleb128 0x6
ARM GAS  /tmp/ccvZzf3e.s 			page 97


 5473 15c0 04       		.byte	0x4
 5474 15c1 B8000000 		.4byte	0xb8
 5475 15c5 43       		.uleb128 0x43
 5476 15c6 3F040000 		.4byte	.LASF173
 5477 15ca 03       		.byte	0x3
 5478 15cb 8A01     		.2byte	0x18a
 5479 15cd A2000000 		.4byte	0xa2
 5480 15d1 44       		.uleb128 0x44
 5481 15d2 6A050000 		.4byte	.LASF169
 5482 15d6 EB000000 		.4byte	0xeb
 5483 15da EE150000 		.4byte	0x15ee
 5484 15de 3F       		.uleb128 0x3f
 5485 15df EB000000 		.4byte	0xeb
 5486 15e3 3F       		.uleb128 0x3f
 5487 15e4 B3150000 		.4byte	0x15b3
 5488 15e8 3F       		.uleb128 0x3f
 5489 15e9 E4000000 		.4byte	0xe4
 5490 15ed 00       		.byte	0
 5491 15ee 45       		.uleb128 0x45
 5492 15ef 290A0000 		.4byte	.LASF174
 5493 15f3 03       		.byte	0x3
 5494 15f4 8801     		.2byte	0x188
 5495 15f6 3F       		.uleb128 0x3f
 5496 15f7 A2000000 		.4byte	0xa2
 5497 15fb 00       		.byte	0
 5498 15fc 00       		.byte	0
 5499              		.section	.debug_abbrev,"",%progbits
 5500              	.Ldebug_abbrev0:
 5501 0000 01       		.uleb128 0x1
 5502 0001 11       		.uleb128 0x11
 5503 0002 01       		.byte	0x1
 5504 0003 25       		.uleb128 0x25
 5505 0004 0E       		.uleb128 0xe
 5506 0005 13       		.uleb128 0x13
 5507 0006 0B       		.uleb128 0xb
 5508 0007 03       		.uleb128 0x3
 5509 0008 0E       		.uleb128 0xe
 5510 0009 1B       		.uleb128 0x1b
 5511 000a 0E       		.uleb128 0xe
 5512 000b 55       		.uleb128 0x55
 5513 000c 17       		.uleb128 0x17
 5514 000d 11       		.uleb128 0x11
 5515 000e 01       		.uleb128 0x1
 5516 000f 10       		.uleb128 0x10
 5517 0010 17       		.uleb128 0x17
 5518 0011 00       		.byte	0
 5519 0012 00       		.byte	0
 5520 0013 02       		.uleb128 0x2
 5521 0014 24       		.uleb128 0x24
 5522 0015 00       		.byte	0
 5523 0016 0B       		.uleb128 0xb
 5524 0017 0B       		.uleb128 0xb
 5525 0018 3E       		.uleb128 0x3e
 5526 0019 0B       		.uleb128 0xb
 5527 001a 03       		.uleb128 0x3
 5528 001b 0E       		.uleb128 0xe
 5529 001c 00       		.byte	0
ARM GAS  /tmp/ccvZzf3e.s 			page 98


 5530 001d 00       		.byte	0
 5531 001e 03       		.uleb128 0x3
 5532 001f 16       		.uleb128 0x16
 5533 0020 00       		.byte	0
 5534 0021 03       		.uleb128 0x3
 5535 0022 0E       		.uleb128 0xe
 5536 0023 3A       		.uleb128 0x3a
 5537 0024 0B       		.uleb128 0xb
 5538 0025 3B       		.uleb128 0x3b
 5539 0026 0B       		.uleb128 0xb
 5540 0027 49       		.uleb128 0x49
 5541 0028 13       		.uleb128 0x13
 5542 0029 00       		.byte	0
 5543 002a 00       		.byte	0
 5544 002b 04       		.uleb128 0x4
 5545 002c 24       		.uleb128 0x24
 5546 002d 00       		.byte	0
 5547 002e 0B       		.uleb128 0xb
 5548 002f 0B       		.uleb128 0xb
 5549 0030 3E       		.uleb128 0x3e
 5550 0031 0B       		.uleb128 0xb
 5551 0032 03       		.uleb128 0x3
 5552 0033 08       		.uleb128 0x8
 5553 0034 00       		.byte	0
 5554 0035 00       		.byte	0
 5555 0036 05       		.uleb128 0x5
 5556 0037 0F       		.uleb128 0xf
 5557 0038 00       		.byte	0
 5558 0039 0B       		.uleb128 0xb
 5559 003a 0B       		.uleb128 0xb
 5560 003b 00       		.byte	0
 5561 003c 00       		.byte	0
 5562 003d 06       		.uleb128 0x6
 5563 003e 0F       		.uleb128 0xf
 5564 003f 00       		.byte	0
 5565 0040 0B       		.uleb128 0xb
 5566 0041 0B       		.uleb128 0xb
 5567 0042 49       		.uleb128 0x49
 5568 0043 13       		.uleb128 0x13
 5569 0044 00       		.byte	0
 5570 0045 00       		.byte	0
 5571 0046 07       		.uleb128 0x7
 5572 0047 26       		.uleb128 0x26
 5573 0048 00       		.byte	0
 5574 0049 49       		.uleb128 0x49
 5575 004a 13       		.uleb128 0x13
 5576 004b 00       		.byte	0
 5577 004c 00       		.byte	0
 5578 004d 08       		.uleb128 0x8
 5579 004e 01       		.uleb128 0x1
 5580 004f 01       		.byte	0x1
 5581 0050 49       		.uleb128 0x49
 5582 0051 13       		.uleb128 0x13
 5583 0052 01       		.uleb128 0x1
 5584 0053 13       		.uleb128 0x13
 5585 0054 00       		.byte	0
 5586 0055 00       		.byte	0
ARM GAS  /tmp/ccvZzf3e.s 			page 99


 5587 0056 09       		.uleb128 0x9
 5588 0057 21       		.uleb128 0x21
 5589 0058 00       		.byte	0
 5590 0059 49       		.uleb128 0x49
 5591 005a 13       		.uleb128 0x13
 5592 005b 2F       		.uleb128 0x2f
 5593 005c 0B       		.uleb128 0xb
 5594 005d 00       		.byte	0
 5595 005e 00       		.byte	0
 5596 005f 0A       		.uleb128 0xa
 5597 0060 35       		.uleb128 0x35
 5598 0061 00       		.byte	0
 5599 0062 49       		.uleb128 0x49
 5600 0063 13       		.uleb128 0x13
 5601 0064 00       		.byte	0
 5602 0065 00       		.byte	0
 5603 0066 0B       		.uleb128 0xb
 5604 0067 13       		.uleb128 0x13
 5605 0068 01       		.byte	0x1
 5606 0069 0B       		.uleb128 0xb
 5607 006a 0B       		.uleb128 0xb
 5608 006b 3A       		.uleb128 0x3a
 5609 006c 0B       		.uleb128 0xb
 5610 006d 3B       		.uleb128 0x3b
 5611 006e 05       		.uleb128 0x5
 5612 006f 01       		.uleb128 0x1
 5613 0070 13       		.uleb128 0x13
 5614 0071 00       		.byte	0
 5615 0072 00       		.byte	0
 5616 0073 0C       		.uleb128 0xc
 5617 0074 0D       		.uleb128 0xd
 5618 0075 00       		.byte	0
 5619 0076 03       		.uleb128 0x3
 5620 0077 0E       		.uleb128 0xe
 5621 0078 3A       		.uleb128 0x3a
 5622 0079 0B       		.uleb128 0xb
 5623 007a 3B       		.uleb128 0x3b
 5624 007b 05       		.uleb128 0x5
 5625 007c 49       		.uleb128 0x49
 5626 007d 13       		.uleb128 0x13
 5627 007e 38       		.uleb128 0x38
 5628 007f 0B       		.uleb128 0xb
 5629 0080 00       		.byte	0
 5630 0081 00       		.byte	0
 5631 0082 0D       		.uleb128 0xd
 5632 0083 0D       		.uleb128 0xd
 5633 0084 00       		.byte	0
 5634 0085 03       		.uleb128 0x3
 5635 0086 08       		.uleb128 0x8
 5636 0087 3A       		.uleb128 0x3a
 5637 0088 0B       		.uleb128 0xb
 5638 0089 3B       		.uleb128 0x3b
 5639 008a 05       		.uleb128 0x5
 5640 008b 49       		.uleb128 0x49
 5641 008c 13       		.uleb128 0x13
 5642 008d 38       		.uleb128 0x38
 5643 008e 0B       		.uleb128 0xb
ARM GAS  /tmp/ccvZzf3e.s 			page 100


 5644 008f 00       		.byte	0
 5645 0090 00       		.byte	0
 5646 0091 0E       		.uleb128 0xe
 5647 0092 16       		.uleb128 0x16
 5648 0093 00       		.byte	0
 5649 0094 03       		.uleb128 0x3
 5650 0095 0E       		.uleb128 0xe
 5651 0096 3A       		.uleb128 0x3a
 5652 0097 0B       		.uleb128 0xb
 5653 0098 3B       		.uleb128 0x3b
 5654 0099 05       		.uleb128 0x5
 5655 009a 49       		.uleb128 0x49
 5656 009b 13       		.uleb128 0x13
 5657 009c 00       		.byte	0
 5658 009d 00       		.byte	0
 5659 009e 0F       		.uleb128 0xf
 5660 009f 13       		.uleb128 0x13
 5661 00a0 01       		.byte	0x1
 5662 00a1 0B       		.uleb128 0xb
 5663 00a2 0B       		.uleb128 0xb
 5664 00a3 3A       		.uleb128 0x3a
 5665 00a4 0B       		.uleb128 0xb
 5666 00a5 3B       		.uleb128 0x3b
 5667 00a6 0B       		.uleb128 0xb
 5668 00a7 01       		.uleb128 0x1
 5669 00a8 13       		.uleb128 0x13
 5670 00a9 00       		.byte	0
 5671 00aa 00       		.byte	0
 5672 00ab 10       		.uleb128 0x10
 5673 00ac 0D       		.uleb128 0xd
 5674 00ad 00       		.byte	0
 5675 00ae 03       		.uleb128 0x3
 5676 00af 0E       		.uleb128 0xe
 5677 00b0 3A       		.uleb128 0x3a
 5678 00b1 0B       		.uleb128 0xb
 5679 00b2 3B       		.uleb128 0x3b
 5680 00b3 0B       		.uleb128 0xb
 5681 00b4 49       		.uleb128 0x49
 5682 00b5 13       		.uleb128 0x13
 5683 00b6 38       		.uleb128 0x38
 5684 00b7 0B       		.uleb128 0xb
 5685 00b8 00       		.byte	0
 5686 00b9 00       		.byte	0
 5687 00ba 11       		.uleb128 0x11
 5688 00bb 0D       		.uleb128 0xd
 5689 00bc 00       		.byte	0
 5690 00bd 03       		.uleb128 0x3
 5691 00be 0E       		.uleb128 0xe
 5692 00bf 3A       		.uleb128 0x3a
 5693 00c0 0B       		.uleb128 0xb
 5694 00c1 3B       		.uleb128 0x3b
 5695 00c2 0B       		.uleb128 0xb
 5696 00c3 49       		.uleb128 0x49
 5697 00c4 13       		.uleb128 0x13
 5698 00c5 0B       		.uleb128 0xb
 5699 00c6 0B       		.uleb128 0xb
 5700 00c7 0D       		.uleb128 0xd
ARM GAS  /tmp/ccvZzf3e.s 			page 101


 5701 00c8 0B       		.uleb128 0xb
 5702 00c9 0C       		.uleb128 0xc
 5703 00ca 0B       		.uleb128 0xb
 5704 00cb 38       		.uleb128 0x38
 5705 00cc 0B       		.uleb128 0xb
 5706 00cd 00       		.byte	0
 5707 00ce 00       		.byte	0
 5708 00cf 12       		.uleb128 0x12
 5709 00d0 04       		.uleb128 0x4
 5710 00d1 01       		.byte	0x1
 5711 00d2 03       		.uleb128 0x3
 5712 00d3 0E       		.uleb128 0xe
 5713 00d4 0B       		.uleb128 0xb
 5714 00d5 0B       		.uleb128 0xb
 5715 00d6 3A       		.uleb128 0x3a
 5716 00d7 0B       		.uleb128 0xb
 5717 00d8 3B       		.uleb128 0x3b
 5718 00d9 0B       		.uleb128 0xb
 5719 00da 01       		.uleb128 0x1
 5720 00db 13       		.uleb128 0x13
 5721 00dc 00       		.byte	0
 5722 00dd 00       		.byte	0
 5723 00de 13       		.uleb128 0x13
 5724 00df 28       		.uleb128 0x28
 5725 00e0 00       		.byte	0
 5726 00e1 03       		.uleb128 0x3
 5727 00e2 0E       		.uleb128 0xe
 5728 00e3 1C       		.uleb128 0x1c
 5729 00e4 0D       		.uleb128 0xd
 5730 00e5 00       		.byte	0
 5731 00e6 00       		.byte	0
 5732 00e7 14       		.uleb128 0x14
 5733 00e8 2E       		.uleb128 0x2e
 5734 00e9 01       		.byte	0x1
 5735 00ea 03       		.uleb128 0x3
 5736 00eb 0E       		.uleb128 0xe
 5737 00ec 3A       		.uleb128 0x3a
 5738 00ed 0B       		.uleb128 0xb
 5739 00ee 3B       		.uleb128 0x3b
 5740 00ef 0B       		.uleb128 0xb
 5741 00f0 27       		.uleb128 0x27
 5742 00f1 19       		.uleb128 0x19
 5743 00f2 49       		.uleb128 0x49
 5744 00f3 13       		.uleb128 0x13
 5745 00f4 20       		.uleb128 0x20
 5746 00f5 0B       		.uleb128 0xb
 5747 00f6 01       		.uleb128 0x1
 5748 00f7 13       		.uleb128 0x13
 5749 00f8 00       		.byte	0
 5750 00f9 00       		.byte	0
 5751 00fa 15       		.uleb128 0x15
 5752 00fb 05       		.uleb128 0x5
 5753 00fc 00       		.byte	0
 5754 00fd 03       		.uleb128 0x3
 5755 00fe 0E       		.uleb128 0xe
 5756 00ff 3A       		.uleb128 0x3a
 5757 0100 0B       		.uleb128 0xb
ARM GAS  /tmp/ccvZzf3e.s 			page 102


 5758 0101 3B       		.uleb128 0x3b
 5759 0102 0B       		.uleb128 0xb
 5760 0103 49       		.uleb128 0x49
 5761 0104 13       		.uleb128 0x13
 5762 0105 00       		.byte	0
 5763 0106 00       		.byte	0
 5764 0107 16       		.uleb128 0x16
 5765 0108 2E       		.uleb128 0x2e
 5766 0109 01       		.byte	0x1
 5767 010a 03       		.uleb128 0x3
 5768 010b 0E       		.uleb128 0xe
 5769 010c 3A       		.uleb128 0x3a
 5770 010d 0B       		.uleb128 0xb
 5771 010e 3B       		.uleb128 0x3b
 5772 010f 05       		.uleb128 0x5
 5773 0110 27       		.uleb128 0x27
 5774 0111 19       		.uleb128 0x19
 5775 0112 49       		.uleb128 0x49
 5776 0113 13       		.uleb128 0x13
 5777 0114 20       		.uleb128 0x20
 5778 0115 0B       		.uleb128 0xb
 5779 0116 01       		.uleb128 0x1
 5780 0117 13       		.uleb128 0x13
 5781 0118 00       		.byte	0
 5782 0119 00       		.byte	0
 5783 011a 17       		.uleb128 0x17
 5784 011b 05       		.uleb128 0x5
 5785 011c 00       		.byte	0
 5786 011d 03       		.uleb128 0x3
 5787 011e 0E       		.uleb128 0xe
 5788 011f 3A       		.uleb128 0x3a
 5789 0120 0B       		.uleb128 0xb
 5790 0121 3B       		.uleb128 0x3b
 5791 0122 05       		.uleb128 0x5
 5792 0123 49       		.uleb128 0x49
 5793 0124 13       		.uleb128 0x13
 5794 0125 00       		.byte	0
 5795 0126 00       		.byte	0
 5796 0127 18       		.uleb128 0x18
 5797 0128 34       		.uleb128 0x34
 5798 0129 00       		.byte	0
 5799 012a 03       		.uleb128 0x3
 5800 012b 0E       		.uleb128 0xe
 5801 012c 3A       		.uleb128 0x3a
 5802 012d 0B       		.uleb128 0xb
 5803 012e 3B       		.uleb128 0x3b
 5804 012f 05       		.uleb128 0x5
 5805 0130 49       		.uleb128 0x49
 5806 0131 13       		.uleb128 0x13
 5807 0132 00       		.byte	0
 5808 0133 00       		.byte	0
 5809 0134 19       		.uleb128 0x19
 5810 0135 34       		.uleb128 0x34
 5811 0136 00       		.byte	0
 5812 0137 03       		.uleb128 0x3
 5813 0138 08       		.uleb128 0x8
 5814 0139 3A       		.uleb128 0x3a
ARM GAS  /tmp/ccvZzf3e.s 			page 103


 5815 013a 0B       		.uleb128 0xb
 5816 013b 3B       		.uleb128 0x3b
 5817 013c 0B       		.uleb128 0xb
 5818 013d 49       		.uleb128 0x49
 5819 013e 13       		.uleb128 0x13
 5820 013f 00       		.byte	0
 5821 0140 00       		.byte	0
 5822 0141 1A       		.uleb128 0x1a
 5823 0142 2E       		.uleb128 0x2e
 5824 0143 01       		.byte	0x1
 5825 0144 03       		.uleb128 0x3
 5826 0145 0E       		.uleb128 0xe
 5827 0146 3A       		.uleb128 0x3a
 5828 0147 0B       		.uleb128 0xb
 5829 0148 3B       		.uleb128 0x3b
 5830 0149 05       		.uleb128 0x5
 5831 014a 27       		.uleb128 0x27
 5832 014b 19       		.uleb128 0x19
 5833 014c 20       		.uleb128 0x20
 5834 014d 0B       		.uleb128 0xb
 5835 014e 01       		.uleb128 0x1
 5836 014f 13       		.uleb128 0x13
 5837 0150 00       		.byte	0
 5838 0151 00       		.byte	0
 5839 0152 1B       		.uleb128 0x1b
 5840 0153 2E       		.uleb128 0x2e
 5841 0154 01       		.byte	0x1
 5842 0155 03       		.uleb128 0x3
 5843 0156 0E       		.uleb128 0xe
 5844 0157 3A       		.uleb128 0x3a
 5845 0158 0B       		.uleb128 0xb
 5846 0159 3B       		.uleb128 0x3b
 5847 015a 0B       		.uleb128 0xb
 5848 015b 27       		.uleb128 0x27
 5849 015c 19       		.uleb128 0x19
 5850 015d 20       		.uleb128 0x20
 5851 015e 0B       		.uleb128 0xb
 5852 015f 01       		.uleb128 0x1
 5853 0160 13       		.uleb128 0x13
 5854 0161 00       		.byte	0
 5855 0162 00       		.byte	0
 5856 0163 1C       		.uleb128 0x1c
 5857 0164 34       		.uleb128 0x34
 5858 0165 00       		.byte	0
 5859 0166 03       		.uleb128 0x3
 5860 0167 08       		.uleb128 0x8
 5861 0168 3A       		.uleb128 0x3a
 5862 0169 0B       		.uleb128 0xb
 5863 016a 3B       		.uleb128 0x3b
 5864 016b 05       		.uleb128 0x5
 5865 016c 49       		.uleb128 0x49
 5866 016d 13       		.uleb128 0x13
 5867 016e 00       		.byte	0
 5868 016f 00       		.byte	0
 5869 0170 1D       		.uleb128 0x1d
 5870 0171 2E       		.uleb128 0x2e
 5871 0172 01       		.byte	0x1
ARM GAS  /tmp/ccvZzf3e.s 			page 104


 5872 0173 3F       		.uleb128 0x3f
 5873 0174 19       		.uleb128 0x19
 5874 0175 03       		.uleb128 0x3
 5875 0176 0E       		.uleb128 0xe
 5876 0177 3A       		.uleb128 0x3a
 5877 0178 0B       		.uleb128 0xb
 5878 0179 3B       		.uleb128 0x3b
 5879 017a 0B       		.uleb128 0xb
 5880 017b 27       		.uleb128 0x27
 5881 017c 19       		.uleb128 0x19
 5882 017d 49       		.uleb128 0x49
 5883 017e 13       		.uleb128 0x13
 5884 017f 11       		.uleb128 0x11
 5885 0180 01       		.uleb128 0x1
 5886 0181 12       		.uleb128 0x12
 5887 0182 06       		.uleb128 0x6
 5888 0183 40       		.uleb128 0x40
 5889 0184 18       		.uleb128 0x18
 5890 0185 9742     		.uleb128 0x2117
 5891 0187 19       		.uleb128 0x19
 5892 0188 01       		.uleb128 0x1
 5893 0189 13       		.uleb128 0x13
 5894 018a 00       		.byte	0
 5895 018b 00       		.byte	0
 5896 018c 1E       		.uleb128 0x1e
 5897 018d 05       		.uleb128 0x5
 5898 018e 00       		.byte	0
 5899 018f 03       		.uleb128 0x3
 5900 0190 0E       		.uleb128 0xe
 5901 0191 3A       		.uleb128 0x3a
 5902 0192 0B       		.uleb128 0xb
 5903 0193 3B       		.uleb128 0x3b
 5904 0194 0B       		.uleb128 0xb
 5905 0195 49       		.uleb128 0x49
 5906 0196 13       		.uleb128 0x13
 5907 0197 02       		.uleb128 0x2
 5908 0198 17       		.uleb128 0x17
 5909 0199 00       		.byte	0
 5910 019a 00       		.byte	0
 5911 019b 1F       		.uleb128 0x1f
 5912 019c 34       		.uleb128 0x34
 5913 019d 00       		.byte	0
 5914 019e 03       		.uleb128 0x3
 5915 019f 0E       		.uleb128 0xe
 5916 01a0 3A       		.uleb128 0x3a
 5917 01a1 0B       		.uleb128 0xb
 5918 01a2 3B       		.uleb128 0x3b
 5919 01a3 0B       		.uleb128 0xb
 5920 01a4 49       		.uleb128 0x49
 5921 01a5 13       		.uleb128 0x13
 5922 01a6 02       		.uleb128 0x2
 5923 01a7 17       		.uleb128 0x17
 5924 01a8 00       		.byte	0
 5925 01a9 00       		.byte	0
 5926 01aa 20       		.uleb128 0x20
 5927 01ab 0B       		.uleb128 0xb
 5928 01ac 01       		.byte	0x1
ARM GAS  /tmp/ccvZzf3e.s 			page 105


 5929 01ad 11       		.uleb128 0x11
 5930 01ae 01       		.uleb128 0x1
 5931 01af 12       		.uleb128 0x12
 5932 01b0 06       		.uleb128 0x6
 5933 01b1 00       		.byte	0
 5934 01b2 00       		.byte	0
 5935 01b3 21       		.uleb128 0x21
 5936 01b4 898201   		.uleb128 0x4109
 5937 01b7 01       		.byte	0x1
 5938 01b8 11       		.uleb128 0x11
 5939 01b9 01       		.uleb128 0x1
 5940 01ba 31       		.uleb128 0x31
 5941 01bb 13       		.uleb128 0x13
 5942 01bc 00       		.byte	0
 5943 01bd 00       		.byte	0
 5944 01be 22       		.uleb128 0x22
 5945 01bf 8A8201   		.uleb128 0x410a
 5946 01c2 00       		.byte	0
 5947 01c3 02       		.uleb128 0x2
 5948 01c4 18       		.uleb128 0x18
 5949 01c5 9142     		.uleb128 0x2111
 5950 01c7 18       		.uleb128 0x18
 5951 01c8 00       		.byte	0
 5952 01c9 00       		.byte	0
 5953 01ca 23       		.uleb128 0x23
 5954 01cb 1D       		.uleb128 0x1d
 5955 01cc 01       		.byte	0x1
 5956 01cd 31       		.uleb128 0x31
 5957 01ce 13       		.uleb128 0x13
 5958 01cf 11       		.uleb128 0x11
 5959 01d0 01       		.uleb128 0x1
 5960 01d1 12       		.uleb128 0x12
 5961 01d2 06       		.uleb128 0x6
 5962 01d3 58       		.uleb128 0x58
 5963 01d4 0B       		.uleb128 0xb
 5964 01d5 59       		.uleb128 0x59
 5965 01d6 0B       		.uleb128 0xb
 5966 01d7 01       		.uleb128 0x1
 5967 01d8 13       		.uleb128 0x13
 5968 01d9 00       		.byte	0
 5969 01da 00       		.byte	0
 5970 01db 24       		.uleb128 0x24
 5971 01dc 05       		.uleb128 0x5
 5972 01dd 00       		.byte	0
 5973 01de 31       		.uleb128 0x31
 5974 01df 13       		.uleb128 0x13
 5975 01e0 02       		.uleb128 0x2
 5976 01e1 17       		.uleb128 0x17
 5977 01e2 00       		.byte	0
 5978 01e3 00       		.byte	0
 5979 01e4 25       		.uleb128 0x25
 5980 01e5 1D       		.uleb128 0x1d
 5981 01e6 01       		.byte	0x1
 5982 01e7 31       		.uleb128 0x31
 5983 01e8 13       		.uleb128 0x13
 5984 01e9 52       		.uleb128 0x52
 5985 01ea 01       		.uleb128 0x1
ARM GAS  /tmp/ccvZzf3e.s 			page 106


 5986 01eb 55       		.uleb128 0x55
 5987 01ec 17       		.uleb128 0x17
 5988 01ed 58       		.uleb128 0x58
 5989 01ee 0B       		.uleb128 0xb
 5990 01ef 59       		.uleb128 0x59
 5991 01f0 0B       		.uleb128 0xb
 5992 01f1 01       		.uleb128 0x1
 5993 01f2 13       		.uleb128 0x13
 5994 01f3 00       		.byte	0
 5995 01f4 00       		.byte	0
 5996 01f5 26       		.uleb128 0x26
 5997 01f6 0B       		.uleb128 0xb
 5998 01f7 01       		.byte	0x1
 5999 01f8 55       		.uleb128 0x55
 6000 01f9 17       		.uleb128 0x17
 6001 01fa 00       		.byte	0
 6002 01fb 00       		.byte	0
 6003 01fc 27       		.uleb128 0x27
 6004 01fd 34       		.uleb128 0x34
 6005 01fe 00       		.byte	0
 6006 01ff 31       		.uleb128 0x31
 6007 0200 13       		.uleb128 0x13
 6008 0201 02       		.uleb128 0x2
 6009 0202 17       		.uleb128 0x17
 6010 0203 00       		.byte	0
 6011 0204 00       		.byte	0
 6012 0205 28       		.uleb128 0x28
 6013 0206 898201   		.uleb128 0x4109
 6014 0209 01       		.byte	0x1
 6015 020a 11       		.uleb128 0x11
 6016 020b 01       		.uleb128 0x1
 6017 020c 31       		.uleb128 0x31
 6018 020d 13       		.uleb128 0x13
 6019 020e 01       		.uleb128 0x1
 6020 020f 13       		.uleb128 0x13
 6021 0210 00       		.byte	0
 6022 0211 00       		.byte	0
 6023 0212 29       		.uleb128 0x29
 6024 0213 898201   		.uleb128 0x4109
 6025 0216 00       		.byte	0
 6026 0217 11       		.uleb128 0x11
 6027 0218 01       		.uleb128 0x1
 6028 0219 31       		.uleb128 0x31
 6029 021a 13       		.uleb128 0x13
 6030 021b 00       		.byte	0
 6031 021c 00       		.byte	0
 6032 021d 2A       		.uleb128 0x2a
 6033 021e 1D       		.uleb128 0x1d
 6034 021f 01       		.byte	0x1
 6035 0220 31       		.uleb128 0x31
 6036 0221 13       		.uleb128 0x13
 6037 0222 52       		.uleb128 0x52
 6038 0223 01       		.uleb128 0x1
 6039 0224 55       		.uleb128 0x55
 6040 0225 17       		.uleb128 0x17
 6041 0226 58       		.uleb128 0x58
 6042 0227 0B       		.uleb128 0xb
ARM GAS  /tmp/ccvZzf3e.s 			page 107


 6043 0228 59       		.uleb128 0x59
 6044 0229 05       		.uleb128 0x5
 6045 022a 01       		.uleb128 0x1
 6046 022b 13       		.uleb128 0x13
 6047 022c 00       		.byte	0
 6048 022d 00       		.byte	0
 6049 022e 2B       		.uleb128 0x2b
 6050 022f 05       		.uleb128 0x5
 6051 0230 00       		.byte	0
 6052 0231 31       		.uleb128 0x31
 6053 0232 13       		.uleb128 0x13
 6054 0233 00       		.byte	0
 6055 0234 00       		.byte	0
 6056 0235 2C       		.uleb128 0x2c
 6057 0236 1D       		.uleb128 0x1d
 6058 0237 01       		.byte	0x1
 6059 0238 31       		.uleb128 0x31
 6060 0239 13       		.uleb128 0x13
 6061 023a 52       		.uleb128 0x52
 6062 023b 01       		.uleb128 0x1
 6063 023c 55       		.uleb128 0x55
 6064 023d 17       		.uleb128 0x17
 6065 023e 58       		.uleb128 0x58
 6066 023f 0B       		.uleb128 0xb
 6067 0240 59       		.uleb128 0x59
 6068 0241 05       		.uleb128 0x5
 6069 0242 00       		.byte	0
 6070 0243 00       		.byte	0
 6071 0244 2D       		.uleb128 0x2d
 6072 0245 0B       		.uleb128 0xb
 6073 0246 01       		.byte	0x1
 6074 0247 11       		.uleb128 0x11
 6075 0248 01       		.uleb128 0x1
 6076 0249 12       		.uleb128 0x12
 6077 024a 06       		.uleb128 0x6
 6078 024b 01       		.uleb128 0x1
 6079 024c 13       		.uleb128 0x13
 6080 024d 00       		.byte	0
 6081 024e 00       		.byte	0
 6082 024f 2E       		.uleb128 0x2e
 6083 0250 1D       		.uleb128 0x1d
 6084 0251 01       		.byte	0x1
 6085 0252 31       		.uleb128 0x31
 6086 0253 13       		.uleb128 0x13
 6087 0254 11       		.uleb128 0x11
 6088 0255 01       		.uleb128 0x1
 6089 0256 12       		.uleb128 0x12
 6090 0257 06       		.uleb128 0x6
 6091 0258 58       		.uleb128 0x58
 6092 0259 0B       		.uleb128 0xb
 6093 025a 59       		.uleb128 0x59
 6094 025b 0B       		.uleb128 0xb
 6095 025c 00       		.byte	0
 6096 025d 00       		.byte	0
 6097 025e 2F       		.uleb128 0x2f
 6098 025f 2E       		.uleb128 0x2e
 6099 0260 01       		.byte	0x1
ARM GAS  /tmp/ccvZzf3e.s 			page 108


 6100 0261 3F       		.uleb128 0x3f
 6101 0262 19       		.uleb128 0x19
 6102 0263 03       		.uleb128 0x3
 6103 0264 0E       		.uleb128 0xe
 6104 0265 3A       		.uleb128 0x3a
 6105 0266 0B       		.uleb128 0xb
 6106 0267 3B       		.uleb128 0x3b
 6107 0268 0B       		.uleb128 0xb
 6108 0269 27       		.uleb128 0x27
 6109 026a 19       		.uleb128 0x19
 6110 026b 11       		.uleb128 0x11
 6111 026c 01       		.uleb128 0x1
 6112 026d 12       		.uleb128 0x12
 6113 026e 06       		.uleb128 0x6
 6114 026f 40       		.uleb128 0x40
 6115 0270 18       		.uleb128 0x18
 6116 0271 9742     		.uleb128 0x2117
 6117 0273 19       		.uleb128 0x19
 6118 0274 01       		.uleb128 0x1
 6119 0275 13       		.uleb128 0x13
 6120 0276 00       		.byte	0
 6121 0277 00       		.byte	0
 6122 0278 30       		.uleb128 0x30
 6123 0279 1D       		.uleb128 0x1d
 6124 027a 01       		.byte	0x1
 6125 027b 31       		.uleb128 0x31
 6126 027c 13       		.uleb128 0x13
 6127 027d 11       		.uleb128 0x11
 6128 027e 01       		.uleb128 0x1
 6129 027f 12       		.uleb128 0x12
 6130 0280 06       		.uleb128 0x6
 6131 0281 58       		.uleb128 0x58
 6132 0282 0B       		.uleb128 0xb
 6133 0283 59       		.uleb128 0x59
 6134 0284 05       		.uleb128 0x5
 6135 0285 01       		.uleb128 0x1
 6136 0286 13       		.uleb128 0x13
 6137 0287 00       		.byte	0
 6138 0288 00       		.byte	0
 6139 0289 31       		.uleb128 0x31
 6140 028a 1D       		.uleb128 0x1d
 6141 028b 01       		.byte	0x1
 6142 028c 31       		.uleb128 0x31
 6143 028d 13       		.uleb128 0x13
 6144 028e 11       		.uleb128 0x11
 6145 028f 01       		.uleb128 0x1
 6146 0290 12       		.uleb128 0x12
 6147 0291 06       		.uleb128 0x6
 6148 0292 58       		.uleb128 0x58
 6149 0293 0B       		.uleb128 0xb
 6150 0294 59       		.uleb128 0x59
 6151 0295 05       		.uleb128 0x5
 6152 0296 00       		.byte	0
 6153 0297 00       		.byte	0
 6154 0298 32       		.uleb128 0x32
 6155 0299 2E       		.uleb128 0x2e
 6156 029a 01       		.byte	0x1
ARM GAS  /tmp/ccvZzf3e.s 			page 109


 6157 029b 3F       		.uleb128 0x3f
 6158 029c 19       		.uleb128 0x19
 6159 029d 03       		.uleb128 0x3
 6160 029e 0E       		.uleb128 0xe
 6161 029f 3A       		.uleb128 0x3a
 6162 02a0 0B       		.uleb128 0xb
 6163 02a1 3B       		.uleb128 0x3b
 6164 02a2 05       		.uleb128 0x5
 6165 02a3 27       		.uleb128 0x27
 6166 02a4 19       		.uleb128 0x19
 6167 02a5 49       		.uleb128 0x49
 6168 02a6 13       		.uleb128 0x13
 6169 02a7 11       		.uleb128 0x11
 6170 02a8 01       		.uleb128 0x1
 6171 02a9 12       		.uleb128 0x12
 6172 02aa 06       		.uleb128 0x6
 6173 02ab 40       		.uleb128 0x40
 6174 02ac 18       		.uleb128 0x18
 6175 02ad 9742     		.uleb128 0x2117
 6176 02af 19       		.uleb128 0x19
 6177 02b0 01       		.uleb128 0x1
 6178 02b1 13       		.uleb128 0x13
 6179 02b2 00       		.byte	0
 6180 02b3 00       		.byte	0
 6181 02b4 33       		.uleb128 0x33
 6182 02b5 05       		.uleb128 0x5
 6183 02b6 00       		.byte	0
 6184 02b7 03       		.uleb128 0x3
 6185 02b8 0E       		.uleb128 0xe
 6186 02b9 3A       		.uleb128 0x3a
 6187 02ba 0B       		.uleb128 0xb
 6188 02bb 3B       		.uleb128 0x3b
 6189 02bc 05       		.uleb128 0x5
 6190 02bd 49       		.uleb128 0x49
 6191 02be 13       		.uleb128 0x13
 6192 02bf 02       		.uleb128 0x2
 6193 02c0 17       		.uleb128 0x17
 6194 02c1 00       		.byte	0
 6195 02c2 00       		.byte	0
 6196 02c3 34       		.uleb128 0x34
 6197 02c4 34       		.uleb128 0x34
 6198 02c5 00       		.byte	0
 6199 02c6 03       		.uleb128 0x3
 6200 02c7 0E       		.uleb128 0xe
 6201 02c8 3A       		.uleb128 0x3a
 6202 02c9 0B       		.uleb128 0xb
 6203 02ca 3B       		.uleb128 0x3b
 6204 02cb 05       		.uleb128 0x5
 6205 02cc 49       		.uleb128 0x49
 6206 02cd 13       		.uleb128 0x13
 6207 02ce 02       		.uleb128 0x2
 6208 02cf 17       		.uleb128 0x17
 6209 02d0 00       		.byte	0
 6210 02d1 00       		.byte	0
 6211 02d2 35       		.uleb128 0x35
 6212 02d3 2E       		.uleb128 0x2e
 6213 02d4 01       		.byte	0x1
ARM GAS  /tmp/ccvZzf3e.s 			page 110


 6214 02d5 3F       		.uleb128 0x3f
 6215 02d6 19       		.uleb128 0x19
 6216 02d7 03       		.uleb128 0x3
 6217 02d8 0E       		.uleb128 0xe
 6218 02d9 3A       		.uleb128 0x3a
 6219 02da 0B       		.uleb128 0xb
 6220 02db 3B       		.uleb128 0x3b
 6221 02dc 05       		.uleb128 0x5
 6222 02dd 27       		.uleb128 0x27
 6223 02de 19       		.uleb128 0x19
 6224 02df 11       		.uleb128 0x11
 6225 02e0 01       		.uleb128 0x1
 6226 02e1 12       		.uleb128 0x12
 6227 02e2 06       		.uleb128 0x6
 6228 02e3 40       		.uleb128 0x40
 6229 02e4 18       		.uleb128 0x18
 6230 02e5 9742     		.uleb128 0x2117
 6231 02e7 19       		.uleb128 0x19
 6232 02e8 01       		.uleb128 0x1
 6233 02e9 13       		.uleb128 0x13
 6234 02ea 00       		.byte	0
 6235 02eb 00       		.byte	0
 6236 02ec 36       		.uleb128 0x36
 6237 02ed 34       		.uleb128 0x34
 6238 02ee 00       		.byte	0
 6239 02ef 03       		.uleb128 0x3
 6240 02f0 0E       		.uleb128 0xe
 6241 02f1 3A       		.uleb128 0x3a
 6242 02f2 0B       		.uleb128 0xb
 6243 02f3 3B       		.uleb128 0x3b
 6244 02f4 05       		.uleb128 0x5
 6245 02f5 49       		.uleb128 0x49
 6246 02f6 13       		.uleb128 0x13
 6247 02f7 02       		.uleb128 0x2
 6248 02f8 18       		.uleb128 0x18
 6249 02f9 00       		.byte	0
 6250 02fa 00       		.byte	0
 6251 02fb 37       		.uleb128 0x37
 6252 02fc 05       		.uleb128 0x5
 6253 02fd 00       		.byte	0
 6254 02fe 03       		.uleb128 0x3
 6255 02ff 0E       		.uleb128 0xe
 6256 0300 3A       		.uleb128 0x3a
 6257 0301 0B       		.uleb128 0xb
 6258 0302 3B       		.uleb128 0x3b
 6259 0303 05       		.uleb128 0x5
 6260 0304 49       		.uleb128 0x49
 6261 0305 13       		.uleb128 0x13
 6262 0306 02       		.uleb128 0x2
 6263 0307 18       		.uleb128 0x18
 6264 0308 00       		.byte	0
 6265 0309 00       		.byte	0
 6266 030a 38       		.uleb128 0x38
 6267 030b 34       		.uleb128 0x34
 6268 030c 00       		.byte	0
 6269 030d 31       		.uleb128 0x31
 6270 030e 13       		.uleb128 0x13
ARM GAS  /tmp/ccvZzf3e.s 			page 111


 6271 030f 02       		.uleb128 0x2
 6272 0310 18       		.uleb128 0x18
 6273 0311 00       		.byte	0
 6274 0312 00       		.byte	0
 6275 0313 39       		.uleb128 0x39
 6276 0314 898201   		.uleb128 0x4109
 6277 0317 01       		.byte	0x1
 6278 0318 11       		.uleb128 0x11
 6279 0319 01       		.uleb128 0x1
 6280 031a 01       		.uleb128 0x1
 6281 031b 13       		.uleb128 0x13
 6282 031c 00       		.byte	0
 6283 031d 00       		.byte	0
 6284 031e 3A       		.uleb128 0x3a
 6285 031f 898201   		.uleb128 0x4109
 6286 0322 01       		.byte	0x1
 6287 0323 11       		.uleb128 0x11
 6288 0324 01       		.uleb128 0x1
 6289 0325 00       		.byte	0
 6290 0326 00       		.byte	0
 6291 0327 3B       		.uleb128 0x3b
 6292 0328 21       		.uleb128 0x21
 6293 0329 00       		.byte	0
 6294 032a 00       		.byte	0
 6295 032b 00       		.byte	0
 6296 032c 3C       		.uleb128 0x3c
 6297 032d 21       		.uleb128 0x21
 6298 032e 00       		.byte	0
 6299 032f 49       		.uleb128 0x49
 6300 0330 13       		.uleb128 0x13
 6301 0331 2F       		.uleb128 0x2f
 6302 0332 05       		.uleb128 0x5
 6303 0333 00       		.byte	0
 6304 0334 00       		.byte	0
 6305 0335 3D       		.uleb128 0x3d
 6306 0336 34       		.uleb128 0x34
 6307 0337 00       		.byte	0
 6308 0338 03       		.uleb128 0x3
 6309 0339 0E       		.uleb128 0xe
 6310 033a 3A       		.uleb128 0x3a
 6311 033b 0B       		.uleb128 0xb
 6312 033c 3B       		.uleb128 0x3b
 6313 033d 0B       		.uleb128 0xb
 6314 033e 49       		.uleb128 0x49
 6315 033f 13       		.uleb128 0x13
 6316 0340 3F       		.uleb128 0x3f
 6317 0341 19       		.uleb128 0x19
 6318 0342 3C       		.uleb128 0x3c
 6319 0343 19       		.uleb128 0x19
 6320 0344 00       		.byte	0
 6321 0345 00       		.byte	0
 6322 0346 3E       		.uleb128 0x3e
 6323 0347 2E       		.uleb128 0x2e
 6324 0348 01       		.byte	0x1
 6325 0349 3F       		.uleb128 0x3f
 6326 034a 19       		.uleb128 0x19
 6327 034b 03       		.uleb128 0x3
ARM GAS  /tmp/ccvZzf3e.s 			page 112


 6328 034c 0E       		.uleb128 0xe
 6329 034d 3A       		.uleb128 0x3a
 6330 034e 0B       		.uleb128 0xb
 6331 034f 3B       		.uleb128 0x3b
 6332 0350 0B       		.uleb128 0xb
 6333 0351 27       		.uleb128 0x27
 6334 0352 19       		.uleb128 0x19
 6335 0353 49       		.uleb128 0x49
 6336 0354 13       		.uleb128 0x13
 6337 0355 3C       		.uleb128 0x3c
 6338 0356 19       		.uleb128 0x19
 6339 0357 01       		.uleb128 0x1
 6340 0358 13       		.uleb128 0x13
 6341 0359 00       		.byte	0
 6342 035a 00       		.byte	0
 6343 035b 3F       		.uleb128 0x3f
 6344 035c 05       		.uleb128 0x5
 6345 035d 00       		.byte	0
 6346 035e 49       		.uleb128 0x49
 6347 035f 13       		.uleb128 0x13
 6348 0360 00       		.byte	0
 6349 0361 00       		.byte	0
 6350 0362 40       		.uleb128 0x40
 6351 0363 2E       		.uleb128 0x2e
 6352 0364 01       		.byte	0x1
 6353 0365 3F       		.uleb128 0x3f
 6354 0366 19       		.uleb128 0x19
 6355 0367 03       		.uleb128 0x3
 6356 0368 0E       		.uleb128 0xe
 6357 0369 3A       		.uleb128 0x3a
 6358 036a 0B       		.uleb128 0xb
 6359 036b 3B       		.uleb128 0x3b
 6360 036c 0B       		.uleb128 0xb
 6361 036d 27       		.uleb128 0x27
 6362 036e 19       		.uleb128 0x19
 6363 036f 3C       		.uleb128 0x3c
 6364 0370 19       		.uleb128 0x19
 6365 0371 01       		.uleb128 0x1
 6366 0372 13       		.uleb128 0x13
 6367 0373 00       		.byte	0
 6368 0374 00       		.byte	0
 6369 0375 41       		.uleb128 0x41
 6370 0376 2E       		.uleb128 0x2e
 6371 0377 01       		.byte	0x1
 6372 0378 3F       		.uleb128 0x3f
 6373 0379 19       		.uleb128 0x19
 6374 037a 03       		.uleb128 0x3
 6375 037b 0E       		.uleb128 0xe
 6376 037c 3A       		.uleb128 0x3a
 6377 037d 0B       		.uleb128 0xb
 6378 037e 3B       		.uleb128 0x3b
 6379 037f 05       		.uleb128 0x5
 6380 0380 27       		.uleb128 0x27
 6381 0381 19       		.uleb128 0x19
 6382 0382 49       		.uleb128 0x49
 6383 0383 13       		.uleb128 0x13
 6384 0384 3C       		.uleb128 0x3c
ARM GAS  /tmp/ccvZzf3e.s 			page 113


 6385 0385 19       		.uleb128 0x19
 6386 0386 01       		.uleb128 0x1
 6387 0387 13       		.uleb128 0x13
 6388 0388 00       		.byte	0
 6389 0389 00       		.byte	0
 6390 038a 42       		.uleb128 0x42
 6391 038b 26       		.uleb128 0x26
 6392 038c 00       		.byte	0
 6393 038d 00       		.byte	0
 6394 038e 00       		.byte	0
 6395 038f 43       		.uleb128 0x43
 6396 0390 2E       		.uleb128 0x2e
 6397 0391 00       		.byte	0
 6398 0392 3F       		.uleb128 0x3f
 6399 0393 19       		.uleb128 0x19
 6400 0394 03       		.uleb128 0x3
 6401 0395 0E       		.uleb128 0xe
 6402 0396 3A       		.uleb128 0x3a
 6403 0397 0B       		.uleb128 0xb
 6404 0398 3B       		.uleb128 0x3b
 6405 0399 05       		.uleb128 0x5
 6406 039a 27       		.uleb128 0x27
 6407 039b 19       		.uleb128 0x19
 6408 039c 49       		.uleb128 0x49
 6409 039d 13       		.uleb128 0x13
 6410 039e 3C       		.uleb128 0x3c
 6411 039f 19       		.uleb128 0x19
 6412 03a0 00       		.byte	0
 6413 03a1 00       		.byte	0
 6414 03a2 44       		.uleb128 0x44
 6415 03a3 2E       		.uleb128 0x2e
 6416 03a4 01       		.byte	0x1
 6417 03a5 3F       		.uleb128 0x3f
 6418 03a6 19       		.uleb128 0x19
 6419 03a7 03       		.uleb128 0x3
 6420 03a8 0E       		.uleb128 0xe
 6421 03a9 27       		.uleb128 0x27
 6422 03aa 19       		.uleb128 0x19
 6423 03ab 49       		.uleb128 0x49
 6424 03ac 13       		.uleb128 0x13
 6425 03ad 34       		.uleb128 0x34
 6426 03ae 19       		.uleb128 0x19
 6427 03af 3C       		.uleb128 0x3c
 6428 03b0 19       		.uleb128 0x19
 6429 03b1 01       		.uleb128 0x1
 6430 03b2 13       		.uleb128 0x13
 6431 03b3 00       		.byte	0
 6432 03b4 00       		.byte	0
 6433 03b5 45       		.uleb128 0x45
 6434 03b6 2E       		.uleb128 0x2e
 6435 03b7 01       		.byte	0x1
 6436 03b8 3F       		.uleb128 0x3f
 6437 03b9 19       		.uleb128 0x19
 6438 03ba 03       		.uleb128 0x3
 6439 03bb 0E       		.uleb128 0xe
 6440 03bc 3A       		.uleb128 0x3a
 6441 03bd 0B       		.uleb128 0xb
ARM GAS  /tmp/ccvZzf3e.s 			page 114


 6442 03be 3B       		.uleb128 0x3b
 6443 03bf 05       		.uleb128 0x5
 6444 03c0 27       		.uleb128 0x27
 6445 03c1 19       		.uleb128 0x19
 6446 03c2 3C       		.uleb128 0x3c
 6447 03c3 19       		.uleb128 0x19
 6448 03c4 00       		.byte	0
 6449 03c5 00       		.byte	0
 6450 03c6 00       		.byte	0
 6451              		.section	.debug_loc,"",%progbits
 6452              	.Ldebug_loc0:
 6453              	.LLST0:
 6454 0000 00000000 		.4byte	.LVL0
 6455 0004 38000000 		.4byte	.LVL2
 6456 0008 0100     		.2byte	0x1
 6457 000a 50       		.byte	0x50
 6458 000b 38000000 		.4byte	.LVL2
 6459 000f 88000000 		.4byte	.LVL18
 6460 0013 0100     		.2byte	0x1
 6461 0015 55       		.byte	0x55
 6462 0016 88000000 		.4byte	.LVL18
 6463 001a 94000000 		.4byte	.LFE99
 6464 001e 0400     		.2byte	0x4
 6465 0020 F3       		.byte	0xf3
 6466 0021 01       		.uleb128 0x1
 6467 0022 50       		.byte	0x50
 6468 0023 9F       		.byte	0x9f
 6469 0024 00000000 		.4byte	0
 6470 0028 00000000 		.4byte	0
 6471              	.LLST1:
 6472 002c 2A000000 		.4byte	.LVL1
 6473 0030 38000000 		.4byte	.LVL2
 6474 0034 0200     		.2byte	0x2
 6475 0036 31       		.byte	0x31
 6476 0037 9F       		.byte	0x9f
 6477 0038 38000000 		.4byte	.LVL2
 6478 003c 7E000000 		.4byte	.LVL15
 6479 0040 0100     		.2byte	0x1
 6480 0042 54       		.byte	0x54
 6481 0043 7E000000 		.4byte	.LVL15
 6482 0047 80000000 		.4byte	.LVL16
 6483 004b 0300     		.2byte	0x3
 6484 004d 74       		.byte	0x74
 6485 004e 7F       		.sleb128 -1
 6486 004f 9F       		.byte	0x9f
 6487 0050 80000000 		.4byte	.LVL16
 6488 0054 86000000 		.4byte	.LVL17
 6489 0058 0100     		.2byte	0x1
 6490 005a 54       		.byte	0x54
 6491 005b 00000000 		.4byte	0
 6492 005f 00000000 		.4byte	0
 6493              	.LLST2:
 6494 0063 40000000 		.4byte	.LVL3
 6495 0067 48000000 		.4byte	.LVL5
 6496 006b 0200     		.2byte	0x2
 6497 006d 75       		.byte	0x75
 6498 006e 02       		.sleb128 2
ARM GAS  /tmp/ccvZzf3e.s 			page 115


 6499 006f 50000000 		.4byte	.LVL6
 6500 0073 58000000 		.4byte	.LVL8
 6501 0077 0200     		.2byte	0x2
 6502 0079 75       		.byte	0x75
 6503 007a 06       		.sleb128 6
 6504 007b 60000000 		.4byte	.LVL9
 6505 007f 66000000 		.4byte	.LVL11
 6506 0083 0200     		.2byte	0x2
 6507 0085 75       		.byte	0x75
 6508 0086 0A       		.sleb128 10
 6509 0087 66000000 		.4byte	.LVL11
 6510 008b 7C000000 		.4byte	.LVL14
 6511 008f 0100     		.2byte	0x1
 6512 0091 57       		.byte	0x57
 6513 0092 00000000 		.4byte	0
 6514 0096 00000000 		.4byte	0
 6515              	.LLST3:
 6516 009a 40000000 		.4byte	.LVL3
 6517 009e 48000000 		.4byte	.LVL5
 6518 00a2 0200     		.2byte	0x2
 6519 00a4 32       		.byte	0x32
 6520 00a5 9F       		.byte	0x9f
 6521 00a6 50000000 		.4byte	.LVL6
 6522 00aa 58000000 		.4byte	.LVL8
 6523 00ae 0200     		.2byte	0x2
 6524 00b0 32       		.byte	0x32
 6525 00b1 9F       		.byte	0x9f
 6526 00b2 60000000 		.4byte	.LVL9
 6527 00b6 66000000 		.4byte	.LVL11
 6528 00ba 0200     		.2byte	0x2
 6529 00bc 33       		.byte	0x33
 6530 00bd 9F       		.byte	0x9f
 6531 00be 66000000 		.4byte	.LVL11
 6532 00c2 77000000 		.4byte	.LVL13-1
 6533 00c6 0100     		.2byte	0x1
 6534 00c8 52       		.byte	0x52
 6535 00c9 00000000 		.4byte	0
 6536 00cd 00000000 		.4byte	0
 6537              	.LLST4:
 6538 00d1 40000000 		.4byte	.LVL3
 6539 00d5 48000000 		.4byte	.LVL5
 6540 00d9 0300     		.2byte	0x3
 6541 00db 09       		.byte	0x9
 6542 00dc 80       		.byte	0x80
 6543 00dd 9F       		.byte	0x9f
 6544 00de 50000000 		.4byte	.LVL6
 6545 00e2 58000000 		.4byte	.LVL8
 6546 00e6 0200     		.2byte	0x2
 6547 00e8 30       		.byte	0x30
 6548 00e9 9F       		.byte	0x9f
 6549 00ea 60000000 		.4byte	.LVL9
 6550 00ee 66000000 		.4byte	.LVL11
 6551 00f2 0300     		.2byte	0x3
 6552 00f4 09       		.byte	0x9
 6553 00f5 80       		.byte	0x80
 6554 00f6 9F       		.byte	0x9f
 6555 00f7 66000000 		.4byte	.LVL11
ARM GAS  /tmp/ccvZzf3e.s 			page 116


 6556 00fb 77000000 		.4byte	.LVL13-1
 6557 00ff 0100     		.2byte	0x1
 6558 0101 53       		.byte	0x53
 6559 0102 00000000 		.4byte	0
 6560 0106 00000000 		.4byte	0
 6561              	.LLST5:
 6562 010a 42000000 		.4byte	.LVL4
 6563 010e 48000000 		.4byte	.LVL5
 6564 0112 0200     		.2byte	0x2
 6565 0114 75       		.byte	0x75
 6566 0115 04       		.sleb128 4
 6567 0116 52000000 		.4byte	.LVL7
 6568 011a 58000000 		.4byte	.LVL8
 6569 011e 0200     		.2byte	0x2
 6570 0120 75       		.byte	0x75
 6571 0121 08       		.sleb128 8
 6572 0122 62000000 		.4byte	.LVL10
 6573 0126 66000000 		.4byte	.LVL11
 6574 012a 0200     		.2byte	0x2
 6575 012c 75       		.byte	0x75
 6576 012d 0C       		.sleb128 12
 6577 012e 66000000 		.4byte	.LVL11
 6578 0132 6C000000 		.4byte	.LVL12
 6579 0136 0100     		.2byte	0x1
 6580 0138 51       		.byte	0x51
 6581 0139 00000000 		.4byte	0
 6582 013d 00000000 		.4byte	0
 6583              	.LLST6:
 6584 0141 00000000 		.4byte	.LVL19
 6585 0145 0E000000 		.4byte	.LVL20
 6586 0149 0100     		.2byte	0x1
 6587 014b 50       		.byte	0x50
 6588 014c 0E000000 		.4byte	.LVL20
 6589 0150 50000000 		.4byte	.LVL29
 6590 0154 0100     		.2byte	0x1
 6591 0156 54       		.byte	0x54
 6592 0157 50000000 		.4byte	.LVL29
 6593 015b 68000000 		.4byte	.LVL33
 6594 015f 0400     		.2byte	0x4
 6595 0161 F3       		.byte	0xf3
 6596 0162 01       		.uleb128 0x1
 6597 0163 50       		.byte	0x50
 6598 0164 9F       		.byte	0x9f
 6599 0165 68000000 		.4byte	.LVL33
 6600 0169 6A000000 		.4byte	.LVL34
 6601 016d 0100     		.2byte	0x1
 6602 016f 54       		.byte	0x54
 6603 0170 6A000000 		.4byte	.LVL34
 6604 0174 A0000000 		.4byte	.LFE101
 6605 0178 0400     		.2byte	0x4
 6606 017a F3       		.byte	0xf3
 6607 017b 01       		.uleb128 0x1
 6608 017c 50       		.byte	0x50
 6609 017d 9F       		.byte	0x9f
 6610 017e 00000000 		.4byte	0
 6611 0182 00000000 		.4byte	0
 6612              	.LLST7:
ARM GAS  /tmp/ccvZzf3e.s 			page 117


 6613 0186 00000000 		.4byte	.LVL19
 6614 018a 14000000 		.4byte	.LVL21
 6615 018e 0100     		.2byte	0x1
 6616 0190 51       		.byte	0x51
 6617 0191 14000000 		.4byte	.LVL21
 6618 0195 52000000 		.4byte	.LVL30
 6619 0199 0100     		.2byte	0x1
 6620 019b 55       		.byte	0x55
 6621 019c 52000000 		.4byte	.LVL30
 6622 01a0 68000000 		.4byte	.LVL33
 6623 01a4 0400     		.2byte	0x4
 6624 01a6 F3       		.byte	0xf3
 6625 01a7 01       		.uleb128 0x1
 6626 01a8 51       		.byte	0x51
 6627 01a9 9F       		.byte	0x9f
 6628 01aa 68000000 		.4byte	.LVL33
 6629 01ae 6C000000 		.4byte	.LVL35
 6630 01b2 0100     		.2byte	0x1
 6631 01b4 55       		.byte	0x55
 6632 01b5 6C000000 		.4byte	.LVL35
 6633 01b9 A0000000 		.4byte	.LFE101
 6634 01bd 0400     		.2byte	0x4
 6635 01bf F3       		.byte	0xf3
 6636 01c0 01       		.uleb128 0x1
 6637 01c1 51       		.byte	0x51
 6638 01c2 9F       		.byte	0x9f
 6639 01c3 00000000 		.4byte	0
 6640 01c7 00000000 		.4byte	0
 6641              	.LLST8:
 6642 01cb 1E000000 		.4byte	.LVL22
 6643 01cf 22000000 		.4byte	.LVL23
 6644 01d3 0200     		.2byte	0x2
 6645 01d5 74       		.byte	0x74
 6646 01d6 01       		.sleb128 1
 6647 01d7 22000000 		.4byte	.LVL23
 6648 01db 27000000 		.4byte	.LVL24-1
 6649 01df 0100     		.2byte	0x1
 6650 01e1 52       		.byte	0x52
 6651 01e2 00000000 		.4byte	0
 6652 01e6 00000000 		.4byte	0
 6653              	.LLST9:
 6654 01ea 1E000000 		.4byte	.LVL22
 6655 01ee 22000000 		.4byte	.LVL23
 6656 01f2 0200     		.2byte	0x2
 6657 01f4 74       		.byte	0x74
 6658 01f5 0D       		.sleb128 13
 6659 01f6 22000000 		.4byte	.LVL23
 6660 01fa 27000000 		.4byte	.LVL24-1
 6661 01fe 0100     		.2byte	0x1
 6662 0200 53       		.byte	0x53
 6663 0201 00000000 		.4byte	0
 6664 0205 00000000 		.4byte	0
 6665              	.LLST10:
 6666 0209 38000000 		.4byte	.LVL26
 6667 020d 50000000 		.4byte	.LVL29
 6668 0211 0200     		.2byte	0x2
 6669 0213 74       		.byte	0x74
ARM GAS  /tmp/ccvZzf3e.s 			page 118


 6670 0214 0D       		.sleb128 13
 6671 0215 50000000 		.4byte	.LVL29
 6672 0219 56000000 		.4byte	.LVL31
 6673 021d 0100     		.2byte	0x1
 6674 021f 53       		.byte	0x53
 6675 0220 56000000 		.4byte	.LVL31
 6676 0224 5F000000 		.4byte	.LVL32-1
 6677 0228 0500     		.2byte	0x5
 6678 022a F3       		.byte	0xf3
 6679 022b 01       		.uleb128 0x1
 6680 022c 50       		.byte	0x50
 6681 022d 23       		.byte	0x23
 6682 022e 0D       		.uleb128 0xd
 6683 022f 68000000 		.4byte	.LVL33
 6684 0233 6A000000 		.4byte	.LVL34
 6685 0237 0200     		.2byte	0x2
 6686 0239 74       		.byte	0x74
 6687 023a 0D       		.sleb128 13
 6688 023b 6A000000 		.4byte	.LVL34
 6689 023f 70000000 		.4byte	.LVL37
 6690 0243 0100     		.2byte	0x1
 6691 0245 53       		.byte	0x53
 6692 0246 70000000 		.4byte	.LVL37
 6693 024a 77000000 		.4byte	.LVL38-1
 6694 024e 0500     		.2byte	0x5
 6695 0250 F3       		.byte	0xf3
 6696 0251 01       		.uleb128 0x1
 6697 0252 50       		.byte	0x50
 6698 0253 23       		.byte	0x23
 6699 0254 0D       		.uleb128 0xd
 6700 0255 00000000 		.4byte	0
 6701 0259 00000000 		.4byte	0
 6702              	.LLST11:
 6703 025d 4A000000 		.4byte	.LVL27
 6704 0261 4E000000 		.4byte	.LVL28
 6705 0265 0500     		.2byte	0x5
 6706 0267 71       		.byte	0x71
 6707 0268 00       		.sleb128 0
 6708 0269 72       		.byte	0x72
 6709 026a 00       		.sleb128 0
 6710 026b 22       		.byte	0x22
 6711 026c 68000000 		.4byte	.LVL33
 6712 0270 6E000000 		.4byte	.LVL36
 6713 0274 0500     		.2byte	0x5
 6714 0276 71       		.byte	0x71
 6715 0277 00       		.sleb128 0
 6716 0278 72       		.byte	0x72
 6717 0279 00       		.sleb128 0
 6718 027a 22       		.byte	0x22
 6719 027b 6E000000 		.4byte	.LVL36
 6720 027f 70000000 		.4byte	.LVL37
 6721 0283 0D00     		.2byte	0xd
 6722 0285 76       		.byte	0x76
 6723 0286 00       		.sleb128 0
 6724 0287 73       		.byte	0x73
 6725 0288 00       		.sleb128 0
 6726 0289 22       		.byte	0x22
ARM GAS  /tmp/ccvZzf3e.s 			page 119


 6727 028a 94       		.byte	0x94
 6728 028b 01       		.byte	0x1
 6729 028c 08       		.byte	0x8
 6730 028d FF       		.byte	0xff
 6731 028e 1A       		.byte	0x1a
 6732 028f 71       		.byte	0x71
 6733 0290 00       		.sleb128 0
 6734 0291 22       		.byte	0x22
 6735 0292 70000000 		.4byte	.LVL37
 6736 0296 77000000 		.4byte	.LVL38-1
 6737 029a 0100     		.2byte	0x1
 6738 029c 50       		.byte	0x50
 6739 029d 00000000 		.4byte	0
 6740 02a1 00000000 		.4byte	0
 6741              	.LLST12:
 6742 02a5 00000000 		.4byte	.LVL39
 6743 02a9 08000000 		.4byte	.LVL40
 6744 02ad 0100     		.2byte	0x1
 6745 02af 50       		.byte	0x50
 6746 02b0 08000000 		.4byte	.LVL40
 6747 02b4 46000000 		.4byte	.LVL49
 6748 02b8 0100     		.2byte	0x1
 6749 02ba 54       		.byte	0x54
 6750 02bb 46000000 		.4byte	.LVL49
 6751 02bf 5E000000 		.4byte	.LVL52
 6752 02c3 0400     		.2byte	0x4
 6753 02c5 F3       		.byte	0xf3
 6754 02c6 01       		.uleb128 0x1
 6755 02c7 50       		.byte	0x50
 6756 02c8 9F       		.byte	0x9f
 6757 02c9 5E000000 		.4byte	.LVL52
 6758 02cd 60000000 		.4byte	.LVL53
 6759 02d1 0100     		.2byte	0x1
 6760 02d3 54       		.byte	0x54
 6761 02d4 60000000 		.4byte	.LVL53
 6762 02d8 98000000 		.4byte	.LFE102
 6763 02dc 0400     		.2byte	0x4
 6764 02de F3       		.byte	0xf3
 6765 02df 01       		.uleb128 0x1
 6766 02e0 50       		.byte	0x50
 6767 02e1 9F       		.byte	0x9f
 6768 02e2 00000000 		.4byte	0
 6769 02e6 00000000 		.4byte	0
 6770              	.LLST13:
 6771 02ea 00000000 		.4byte	.LVL39
 6772 02ee 2B000000 		.4byte	.LVL45-1
 6773 02f2 0100     		.2byte	0x1
 6774 02f4 51       		.byte	0x51
 6775 02f5 2B000000 		.4byte	.LVL45-1
 6776 02f9 98000000 		.4byte	.LFE102
 6777 02fd 0400     		.2byte	0x4
 6778 02ff F3       		.byte	0xf3
 6779 0300 01       		.uleb128 0x1
 6780 0301 51       		.byte	0x51
 6781 0302 9F       		.byte	0x9f
 6782 0303 00000000 		.4byte	0
 6783 0307 00000000 		.4byte	0
ARM GAS  /tmp/ccvZzf3e.s 			page 120


 6784              	.LLST14:
 6785 030b 00000000 		.4byte	.LVL39
 6786 030f 2B000000 		.4byte	.LVL45-1
 6787 0313 0100     		.2byte	0x1
 6788 0315 52       		.byte	0x52
 6789 0316 2B000000 		.4byte	.LVL45-1
 6790 031a 98000000 		.4byte	.LFE102
 6791 031e 0400     		.2byte	0x4
 6792 0320 F3       		.byte	0xf3
 6793 0321 01       		.uleb128 0x1
 6794 0322 52       		.byte	0x52
 6795 0323 9F       		.byte	0x9f
 6796 0324 00000000 		.4byte	0
 6797 0328 00000000 		.4byte	0
 6798              	.LLST15:
 6799 032c 20000000 		.4byte	.LVL41
 6800 0330 24000000 		.4byte	.LVL42
 6801 0334 0200     		.2byte	0x2
 6802 0336 74       		.byte	0x74
 6803 0337 01       		.sleb128 1
 6804 0338 24000000 		.4byte	.LVL42
 6805 033c 26000000 		.4byte	.LVL43
 6806 0340 0100     		.2byte	0x1
 6807 0342 50       		.byte	0x50
 6808 0343 00000000 		.4byte	0
 6809 0347 00000000 		.4byte	0
 6810              	.LLST16:
 6811 034b 20000000 		.4byte	.LVL41
 6812 034f 24000000 		.4byte	.LVL42
 6813 0353 0200     		.2byte	0x2
 6814 0355 74       		.byte	0x74
 6815 0356 0D       		.sleb128 13
 6816 0357 24000000 		.4byte	.LVL42
 6817 035b 28000000 		.4byte	.LVL44
 6818 035f 0100     		.2byte	0x1
 6819 0361 53       		.byte	0x53
 6820 0362 00000000 		.4byte	0
 6821 0366 00000000 		.4byte	0
 6822              	.LLST17:
 6823 036a 2E000000 		.4byte	.LVL46
 6824 036e 46000000 		.4byte	.LVL49
 6825 0372 0200     		.2byte	0x2
 6826 0374 74       		.byte	0x74
 6827 0375 0D       		.sleb128 13
 6828 0376 46000000 		.4byte	.LVL49
 6829 037a 4C000000 		.4byte	.LVL50
 6830 037e 0100     		.2byte	0x1
 6831 0380 53       		.byte	0x53
 6832 0381 4C000000 		.4byte	.LVL50
 6833 0385 55000000 		.4byte	.LVL51-1
 6834 0389 0500     		.2byte	0x5
 6835 038b F3       		.byte	0xf3
 6836 038c 01       		.uleb128 0x1
 6837 038d 50       		.byte	0x50
 6838 038e 23       		.byte	0x23
 6839 038f 0D       		.uleb128 0xd
 6840 0390 5E000000 		.4byte	.LVL52
ARM GAS  /tmp/ccvZzf3e.s 			page 121


 6841 0394 60000000 		.4byte	.LVL53
 6842 0398 0200     		.2byte	0x2
 6843 039a 74       		.byte	0x74
 6844 039b 0D       		.sleb128 13
 6845 039c 60000000 		.4byte	.LVL53
 6846 03a0 66000000 		.4byte	.LVL55
 6847 03a4 0100     		.2byte	0x1
 6848 03a6 53       		.byte	0x53
 6849 03a7 66000000 		.4byte	.LVL55
 6850 03ab 6D000000 		.4byte	.LVL56-1
 6851 03af 0500     		.2byte	0x5
 6852 03b1 F3       		.byte	0xf3
 6853 03b2 01       		.uleb128 0x1
 6854 03b3 50       		.byte	0x50
 6855 03b4 23       		.byte	0x23
 6856 03b5 0D       		.uleb128 0xd
 6857 03b6 00000000 		.4byte	0
 6858 03ba 00000000 		.4byte	0
 6859              	.LLST18:
 6860 03be 40000000 		.4byte	.LVL47
 6861 03c2 44000000 		.4byte	.LVL48
 6862 03c6 0500     		.2byte	0x5
 6863 03c8 71       		.byte	0x71
 6864 03c9 00       		.sleb128 0
 6865 03ca 72       		.byte	0x72
 6866 03cb 00       		.sleb128 0
 6867 03cc 22       		.byte	0x22
 6868 03cd 5E000000 		.4byte	.LVL52
 6869 03d1 64000000 		.4byte	.LVL54
 6870 03d5 0500     		.2byte	0x5
 6871 03d7 71       		.byte	0x71
 6872 03d8 00       		.sleb128 0
 6873 03d9 72       		.byte	0x72
 6874 03da 00       		.sleb128 0
 6875 03db 22       		.byte	0x22
 6876 03dc 64000000 		.4byte	.LVL54
 6877 03e0 66000000 		.4byte	.LVL55
 6878 03e4 0A00     		.2byte	0xa
 6879 03e6 73       		.byte	0x73
 6880 03e7 00       		.sleb128 0
 6881 03e8 94       		.byte	0x94
 6882 03e9 01       		.byte	0x1
 6883 03ea 08       		.byte	0x8
 6884 03eb FF       		.byte	0xff
 6885 03ec 1A       		.byte	0x1a
 6886 03ed 71       		.byte	0x71
 6887 03ee 00       		.sleb128 0
 6888 03ef 22       		.byte	0x22
 6889 03f0 66000000 		.4byte	.LVL55
 6890 03f4 6D000000 		.4byte	.LVL56-1
 6891 03f8 0100     		.2byte	0x1
 6892 03fa 50       		.byte	0x50
 6893 03fb 00000000 		.4byte	0
 6894 03ff 00000000 		.4byte	0
 6895              	.LLST19:
 6896 0403 00000000 		.4byte	.LVL57
 6897 0407 0E000000 		.4byte	.LVL58
ARM GAS  /tmp/ccvZzf3e.s 			page 122


 6898 040b 0100     		.2byte	0x1
 6899 040d 50       		.byte	0x50
 6900 040e 0E000000 		.4byte	.LVL58
 6901 0412 C0000000 		.4byte	.LVL79
 6902 0416 0100     		.2byte	0x1
 6903 0418 54       		.byte	0x54
 6904 0419 C0000000 		.4byte	.LVL79
 6905 041d D0000000 		.4byte	.LVL82
 6906 0421 0400     		.2byte	0x4
 6907 0423 F3       		.byte	0xf3
 6908 0424 01       		.uleb128 0x1
 6909 0425 50       		.byte	0x50
 6910 0426 9F       		.byte	0x9f
 6911 0427 D0000000 		.4byte	.LVL82
 6912 042b 18010000 		.4byte	.LVL89
 6913 042f 0100     		.2byte	0x1
 6914 0431 54       		.byte	0x54
 6915 0432 18010000 		.4byte	.LVL89
 6916 0436 44010000 		.4byte	.LFE103
 6917 043a 0400     		.2byte	0x4
 6918 043c F3       		.byte	0xf3
 6919 043d 01       		.uleb128 0x1
 6920 043e 50       		.byte	0x50
 6921 043f 9F       		.byte	0x9f
 6922 0440 00000000 		.4byte	0
 6923 0444 00000000 		.4byte	0
 6924              	.LLST20:
 6925 0448 00000000 		.4byte	.LVL57
 6926 044c 16000000 		.4byte	.LVL59
 6927 0450 0100     		.2byte	0x1
 6928 0452 51       		.byte	0x51
 6929 0453 16000000 		.4byte	.LVL59
 6930 0457 44010000 		.4byte	.LFE103
 6931 045b 0400     		.2byte	0x4
 6932 045d F3       		.byte	0xf3
 6933 045e 01       		.uleb128 0x1
 6934 045f 51       		.byte	0x51
 6935 0460 9F       		.byte	0x9f
 6936 0461 00000000 		.4byte	0
 6937 0465 00000000 		.4byte	0
 6938              	.LLST21:
 6939 0469 20000000 		.4byte	.LVL60
 6940 046d 24000000 		.4byte	.LVL61
 6941 0471 0200     		.2byte	0x2
 6942 0473 74       		.byte	0x74
 6943 0474 01       		.sleb128 1
 6944 0475 24000000 		.4byte	.LVL61
 6945 0479 2C000000 		.4byte	.LVL63
 6946 047d 0100     		.2byte	0x1
 6947 047f 51       		.byte	0x51
 6948 0480 F0000000 		.4byte	.LVL85
 6949 0484 F6000000 		.4byte	.LVL86
 6950 0488 0100     		.2byte	0x1
 6951 048a 51       		.byte	0x51
 6952 048b 04010000 		.4byte	.LVL87
 6953 048f 0A010000 		.4byte	.LVL88
 6954 0493 0100     		.2byte	0x1
ARM GAS  /tmp/ccvZzf3e.s 			page 123


 6955 0495 51       		.byte	0x51
 6956 0496 00000000 		.4byte	0
 6957 049a 00000000 		.4byte	0
 6958              	.LLST22:
 6959 049e 20000000 		.4byte	.LVL60
 6960 04a2 24000000 		.4byte	.LVL61
 6961 04a6 0200     		.2byte	0x2
 6962 04a8 74       		.byte	0x74
 6963 04a9 0D       		.sleb128 13
 6964 04aa 24000000 		.4byte	.LVL61
 6965 04ae 26000000 		.4byte	.LVL62
 6966 04b2 0100     		.2byte	0x1
 6967 04b4 53       		.byte	0x53
 6968 04b5 00000000 		.4byte	0
 6969 04b9 00000000 		.4byte	0
 6970              	.LLST23:
 6971 04bd 26000000 		.4byte	.LVL62
 6972 04c1 89000000 		.4byte	.LVL72-1
 6973 04c5 0200     		.2byte	0x2
 6974 04c7 74       		.byte	0x74
 6975 04c8 0D       		.sleb128 13
 6976 04c9 90000000 		.4byte	.LVL73
 6977 04cd A1000000 		.4byte	.LVL75-1
 6978 04d1 0200     		.2byte	0x2
 6979 04d3 74       		.byte	0x74
 6980 04d4 0D       		.sleb128 13
 6981 04d5 E8000000 		.4byte	.LVL84
 6982 04d9 18010000 		.4byte	.LVL89
 6983 04dd 0200     		.2byte	0x2
 6984 04df 74       		.byte	0x74
 6985 04e0 0D       		.sleb128 13
 6986 04e1 00000000 		.4byte	0
 6987 04e5 00000000 		.4byte	0
 6988              	.LLST25:
 6989 04e9 46000000 		.4byte	.LVL64
 6990 04ed 60000000 		.4byte	.LVL67
 6991 04f1 0100     		.2byte	0x1
 6992 04f3 50       		.byte	0x50
 6993 04f4 E8000000 		.4byte	.LVL84
 6994 04f8 F0000000 		.4byte	.LVL85
 6995 04fc 0100     		.2byte	0x1
 6996 04fe 50       		.byte	0x50
 6997 04ff 00000000 		.4byte	0
 6998 0503 00000000 		.4byte	0
 6999              	.LLST26:
 7000 0507 52000000 		.4byte	.LVL65
 7001 050b 54000000 		.4byte	.LVL66
 7002 050f 0100     		.2byte	0x1
 7003 0511 52       		.byte	0x52
 7004 0512 00000000 		.4byte	0
 7005 0516 00000000 		.4byte	0
 7006              	.LLST27:
 7007 051a AC000000 		.4byte	.LVL77
 7008 051e B0000000 		.4byte	.LVL78
 7009 0522 0100     		.2byte	0x1
 7010 0524 50       		.byte	0x50
 7011 0525 00000000 		.4byte	0
ARM GAS  /tmp/ccvZzf3e.s 			page 124


 7012 0529 00000000 		.4byte	0
 7013              	.LLST28:
 7014 052d 64000000 		.4byte	.LVL68
 7015 0531 86000000 		.4byte	.LVL71
 7016 0535 0100     		.2byte	0x1
 7017 0537 50       		.byte	0x50
 7018 0538 86000000 		.4byte	.LVL71
 7019 053c 89000000 		.4byte	.LVL72-1
 7020 0540 0200     		.2byte	0x2
 7021 0542 74       		.byte	0x74
 7022 0543 0D       		.sleb128 13
 7023 0544 90000000 		.4byte	.LVL73
 7024 0548 98000000 		.4byte	.LVL74
 7025 054c 0100     		.2byte	0x1
 7026 054e 50       		.byte	0x50
 7027 054f 98000000 		.4byte	.LVL74
 7028 0553 A1000000 		.4byte	.LVL75-1
 7029 0557 0200     		.2byte	0x2
 7030 0559 74       		.byte	0x74
 7031 055a 0D       		.sleb128 13
 7032 055b 00000000 		.4byte	0
 7033 055f 00000000 		.4byte	0
 7034              	.LLST29:
 7035 0563 74000000 		.4byte	.LVL69
 7036 0567 78000000 		.4byte	.LVL70
 7037 056b 0100     		.2byte	0x1
 7038 056d 53       		.byte	0x53
 7039 056e 90000000 		.4byte	.LVL73
 7040 0572 A1000000 		.4byte	.LVL75-1
 7041 0576 0100     		.2byte	0x1
 7042 0578 53       		.byte	0x53
 7043 0579 00000000 		.4byte	0
 7044 057d 00000000 		.4byte	0
 7045              	.LLST30:
 7046 0581 B0000000 		.4byte	.LVL78
 7047 0585 E8000000 		.4byte	.LVL84
 7048 0589 0100     		.2byte	0x1
 7049 058b 55       		.byte	0x55
 7050 058c 00000000 		.4byte	0
 7051 0590 00000000 		.4byte	0
 7052              	.LLST31:
 7053 0594 B0000000 		.4byte	.LVL78
 7054 0598 C0000000 		.4byte	.LVL79
 7055 059c 0200     		.2byte	0x2
 7056 059e 74       		.byte	0x74
 7057 059f 0D       		.sleb128 13
 7058 05a0 C0000000 		.4byte	.LVL79
 7059 05a4 C2000000 		.4byte	.LVL80
 7060 05a8 0100     		.2byte	0x1
 7061 05aa 53       		.byte	0x53
 7062 05ab C2000000 		.4byte	.LVL80
 7063 05af C8000000 		.4byte	.LVL81
 7064 05b3 0500     		.2byte	0x5
 7065 05b5 F3       		.byte	0xf3
 7066 05b6 01       		.uleb128 0x1
 7067 05b7 50       		.byte	0x50
 7068 05b8 23       		.byte	0x23
ARM GAS  /tmp/ccvZzf3e.s 			page 125


 7069 05b9 0D       		.uleb128 0xd
 7070 05ba D0000000 		.4byte	.LVL82
 7071 05be DE000000 		.4byte	.LVL83
 7072 05c2 0200     		.2byte	0x2
 7073 05c4 74       		.byte	0x74
 7074 05c5 0D       		.sleb128 13
 7075 05c6 00000000 		.4byte	0
 7076 05ca 00000000 		.4byte	0
 7077              	.LLST32:
 7078 05ce 00000000 		.4byte	.LVL90
 7079 05d2 0C000000 		.4byte	.LVL91
 7080 05d6 0100     		.2byte	0x1
 7081 05d8 50       		.byte	0x50
 7082 05d9 0C000000 		.4byte	.LVL91
 7083 05dd EA000000 		.4byte	.LVL116
 7084 05e1 0100     		.2byte	0x1
 7085 05e3 54       		.byte	0x54
 7086 05e4 EA000000 		.4byte	.LVL116
 7087 05e8 02010000 		.4byte	.LVL119
 7088 05ec 0400     		.2byte	0x4
 7089 05ee F3       		.byte	0xf3
 7090 05ef 01       		.uleb128 0x1
 7091 05f0 50       		.byte	0x50
 7092 05f1 9F       		.byte	0x9f
 7093 05f2 02010000 		.4byte	.LVL119
 7094 05f6 04010000 		.4byte	.LVL120
 7095 05fa 0100     		.2byte	0x1
 7096 05fc 54       		.byte	0x54
 7097 05fd 04010000 		.4byte	.LVL120
 7098 0601 1A010000 		.4byte	.LVL124
 7099 0605 0400     		.2byte	0x4
 7100 0607 F3       		.byte	0xf3
 7101 0608 01       		.uleb128 0x1
 7102 0609 50       		.byte	0x50
 7103 060a 9F       		.byte	0x9f
 7104 060b 1A010000 		.4byte	.LVL124
 7105 060f 3E010000 		.4byte	.LVL126
 7106 0613 0100     		.2byte	0x1
 7107 0615 54       		.byte	0x54
 7108 0616 3E010000 		.4byte	.LVL126
 7109 061a 70010000 		.4byte	.LFE104
 7110 061e 0400     		.2byte	0x4
 7111 0620 F3       		.byte	0xf3
 7112 0621 01       		.uleb128 0x1
 7113 0622 50       		.byte	0x50
 7114 0623 9F       		.byte	0x9f
 7115 0624 00000000 		.4byte	0
 7116 0628 00000000 		.4byte	0
 7117              	.LLST33:
 7118 062c CA000000 		.4byte	.LVL112
 7119 0630 E4000000 		.4byte	.LVL114
 7120 0634 0100     		.2byte	0x1
 7121 0636 50       		.byte	0x50
 7122 0637 00000000 		.4byte	0
 7123 063b 00000000 		.4byte	0
 7124              	.LLST34:
 7125 063f 7E000000 		.4byte	.LVL102
ARM GAS  /tmp/ccvZzf3e.s 			page 126


 7126 0643 1A010000 		.4byte	.LVL124
 7127 0647 0400     		.2byte	0x4
 7128 0649 77       		.byte	0x77
 7129 064a 00       		.sleb128 0
 7130 064b 20       		.byte	0x20
 7131 064c 9F       		.byte	0x9f
 7132 064d 00000000 		.4byte	0
 7133 0651 00000000 		.4byte	0
 7134              	.LLST35:
 7135 0655 20000000 		.4byte	.LVL92
 7136 0659 24000000 		.4byte	.LVL93
 7137 065d 0200     		.2byte	0x2
 7138 065f 74       		.byte	0x74
 7139 0660 01       		.sleb128 1
 7140 0661 24000000 		.4byte	.LVL93
 7141 0665 2E000000 		.4byte	.LVL95
 7142 0669 0100     		.2byte	0x1
 7143 066b 51       		.byte	0x51
 7144 066c 36000000 		.4byte	.LVL96
 7145 0670 38000000 		.4byte	.LVL97
 7146 0674 0100     		.2byte	0x1
 7147 0676 51       		.byte	0x51
 7148 0677 00000000 		.4byte	0
 7149 067b 00000000 		.4byte	0
 7150              	.LLST36:
 7151 067f 20000000 		.4byte	.LVL92
 7152 0683 24000000 		.4byte	.LVL93
 7153 0687 0200     		.2byte	0x2
 7154 0689 74       		.byte	0x74
 7155 068a 0D       		.sleb128 13
 7156 068b 24000000 		.4byte	.LVL93
 7157 068f 26000000 		.4byte	.LVL94
 7158 0693 0100     		.2byte	0x1
 7159 0695 53       		.byte	0x53
 7160 0696 00000000 		.4byte	0
 7161 069a 00000000 		.4byte	0
 7162              	.LLST37:
 7163 069e 26000000 		.4byte	.LVL94
 7164 06a2 A3000000 		.4byte	.LVL106-1
 7165 06a6 0200     		.2byte	0x2
 7166 06a8 74       		.byte	0x74
 7167 06a9 0D       		.sleb128 13
 7168 06aa AA000000 		.4byte	.LVL107
 7169 06ae B9000000 		.4byte	.LVL110-1
 7170 06b2 0200     		.2byte	0x2
 7171 06b4 74       		.byte	0x74
 7172 06b5 0D       		.sleb128 13
 7173 06b6 1A010000 		.4byte	.LVL124
 7174 06ba 3E010000 		.4byte	.LVL126
 7175 06be 0200     		.2byte	0x2
 7176 06c0 74       		.byte	0x74
 7177 06c1 0D       		.sleb128 13
 7178 06c2 00000000 		.4byte	0
 7179 06c6 00000000 		.4byte	0
 7180              	.LLST38:
 7181 06ca 44000000 		.4byte	.LVL98
 7182 06ce 9A000000 		.4byte	.LVL105
ARM GAS  /tmp/ccvZzf3e.s 			page 127


 7183 06d2 0100     		.2byte	0x1
 7184 06d4 53       		.byte	0x53
 7185 06d5 9A000000 		.4byte	.LVL105
 7186 06d9 A3000000 		.4byte	.LVL106-1
 7187 06dd 0200     		.2byte	0x2
 7188 06df 74       		.byte	0x74
 7189 06e0 0D       		.sleb128 13
 7190 06e1 AA000000 		.4byte	.LVL107
 7191 06e5 B2000000 		.4byte	.LVL109
 7192 06e9 0100     		.2byte	0x1
 7193 06eb 53       		.byte	0x53
 7194 06ec B2000000 		.4byte	.LVL109
 7195 06f0 B9000000 		.4byte	.LVL110-1
 7196 06f4 0200     		.2byte	0x2
 7197 06f6 74       		.byte	0x74
 7198 06f7 0D       		.sleb128 13
 7199 06f8 1A010000 		.4byte	.LVL124
 7200 06fc 3E010000 		.4byte	.LVL126
 7201 0700 0100     		.2byte	0x1
 7202 0702 53       		.byte	0x53
 7203 0703 00000000 		.4byte	0
 7204 0707 00000000 		.4byte	0
 7205              	.LLST40:
 7206 070b 64000000 		.4byte	.LVL99
 7207 070f 7E000000 		.4byte	.LVL102
 7208 0713 0100     		.2byte	0x1
 7209 0715 53       		.byte	0x53
 7210 0716 1A010000 		.4byte	.LVL124
 7211 071a 22010000 		.4byte	.LVL125
 7212 071e 0100     		.2byte	0x1
 7213 0720 53       		.byte	0x53
 7214 0721 00000000 		.4byte	0
 7215 0725 00000000 		.4byte	0
 7216              	.LLST41:
 7217 0729 70000000 		.4byte	.LVL100
 7218 072d 72000000 		.4byte	.LVL101
 7219 0731 0100     		.2byte	0x1
 7220 0733 50       		.byte	0x50
 7221 0734 00000000 		.4byte	0
 7222 0738 00000000 		.4byte	0
 7223              	.LLST42:
 7224 073c 7E000000 		.4byte	.LVL102
 7225 0740 9A000000 		.4byte	.LVL105
 7226 0744 0100     		.2byte	0x1
 7227 0746 53       		.byte	0x53
 7228 0747 9A000000 		.4byte	.LVL105
 7229 074b A3000000 		.4byte	.LVL106-1
 7230 074f 0200     		.2byte	0x2
 7231 0751 74       		.byte	0x74
 7232 0752 0D       		.sleb128 13
 7233 0753 AA000000 		.4byte	.LVL107
 7234 0757 B2000000 		.4byte	.LVL109
 7235 075b 0100     		.2byte	0x1
 7236 075d 53       		.byte	0x53
 7237 075e B2000000 		.4byte	.LVL109
 7238 0762 B9000000 		.4byte	.LVL110-1
 7239 0766 0200     		.2byte	0x2
ARM GAS  /tmp/ccvZzf3e.s 			page 128


 7240 0768 74       		.byte	0x74
 7241 0769 0D       		.sleb128 13
 7242 076a 00000000 		.4byte	0
 7243 076e 00000000 		.4byte	0
 7244              	.LLST43:
 7245 0772 8E000000 		.4byte	.LVL103
 7246 0776 92000000 		.4byte	.LVL104
 7247 077a 0500     		.2byte	0x5
 7248 077c 72       		.byte	0x72
 7249 077d 00       		.sleb128 0
 7250 077e 71       		.byte	0x71
 7251 077f 00       		.sleb128 0
 7252 0780 22       		.byte	0x22
 7253 0781 AA000000 		.4byte	.LVL107
 7254 0785 B0000000 		.4byte	.LVL108
 7255 0789 0500     		.2byte	0x5
 7256 078b 72       		.byte	0x72
 7257 078c 00       		.sleb128 0
 7258 078d 71       		.byte	0x71
 7259 078e 00       		.sleb128 0
 7260 078f 22       		.byte	0x22
 7261 0790 B0000000 		.4byte	.LVL108
 7262 0794 B9000000 		.4byte	.LVL110-1
 7263 0798 0100     		.2byte	0x1
 7264 079a 50       		.byte	0x50
 7265 079b 00000000 		.4byte	0
 7266 079f 00000000 		.4byte	0
 7267              	.LLST44:
 7268 07a3 D0000000 		.4byte	.LVL113
 7269 07a7 EA000000 		.4byte	.LVL116
 7270 07ab 0200     		.2byte	0x2
 7271 07ad 74       		.byte	0x74
 7272 07ae 0D       		.sleb128 13
 7273 07af EA000000 		.4byte	.LVL116
 7274 07b3 F0000000 		.4byte	.LVL117
 7275 07b7 0100     		.2byte	0x1
 7276 07b9 53       		.byte	0x53
 7277 07ba F0000000 		.4byte	.LVL117
 7278 07be F9000000 		.4byte	.LVL118-1
 7279 07c2 0500     		.2byte	0x5
 7280 07c4 F3       		.byte	0xf3
 7281 07c5 01       		.uleb128 0x1
 7282 07c6 50       		.byte	0x50
 7283 07c7 23       		.byte	0x23
 7284 07c8 0D       		.uleb128 0xd
 7285 07c9 02010000 		.4byte	.LVL119
 7286 07cd 04010000 		.4byte	.LVL120
 7287 07d1 0200     		.2byte	0x2
 7288 07d3 74       		.byte	0x74
 7289 07d4 0D       		.sleb128 13
 7290 07d5 04010000 		.4byte	.LVL120
 7291 07d9 0A010000 		.4byte	.LVL122
 7292 07dd 0100     		.2byte	0x1
 7293 07df 53       		.byte	0x53
 7294 07e0 0A010000 		.4byte	.LVL122
 7295 07e4 11010000 		.4byte	.LVL123-1
 7296 07e8 0500     		.2byte	0x5
ARM GAS  /tmp/ccvZzf3e.s 			page 129


 7297 07ea F3       		.byte	0xf3
 7298 07eb 01       		.uleb128 0x1
 7299 07ec 50       		.byte	0x50
 7300 07ed 23       		.byte	0x23
 7301 07ee 0D       		.uleb128 0xd
 7302 07ef 00000000 		.4byte	0
 7303 07f3 00000000 		.4byte	0
 7304              	.LLST45:
 7305 07f7 E4000000 		.4byte	.LVL114
 7306 07fb E8000000 		.4byte	.LVL115
 7307 07ff 0500     		.2byte	0x5
 7308 0801 71       		.byte	0x71
 7309 0802 00       		.sleb128 0
 7310 0803 72       		.byte	0x72
 7311 0804 00       		.sleb128 0
 7312 0805 22       		.byte	0x22
 7313 0806 02010000 		.4byte	.LVL119
 7314 080a 08010000 		.4byte	.LVL121
 7315 080e 0500     		.2byte	0x5
 7316 0810 71       		.byte	0x71
 7317 0811 00       		.sleb128 0
 7318 0812 72       		.byte	0x72
 7319 0813 00       		.sleb128 0
 7320 0814 22       		.byte	0x22
 7321 0815 08010000 		.4byte	.LVL121
 7322 0819 0A010000 		.4byte	.LVL122
 7323 081d 0A00     		.2byte	0xa
 7324 081f 73       		.byte	0x73
 7325 0820 00       		.sleb128 0
 7326 0821 94       		.byte	0x94
 7327 0822 01       		.byte	0x1
 7328 0823 08       		.byte	0x8
 7329 0824 FF       		.byte	0xff
 7330 0825 1A       		.byte	0x1a
 7331 0826 71       		.byte	0x71
 7332 0827 00       		.sleb128 0
 7333 0828 22       		.byte	0x22
 7334 0829 0A010000 		.4byte	.LVL122
 7335 082d 11010000 		.4byte	.LVL123-1
 7336 0831 0100     		.2byte	0x1
 7337 0833 50       		.byte	0x50
 7338 0834 00000000 		.4byte	0
 7339 0838 00000000 		.4byte	0
 7340              	.LLST46:
 7341 083c 00000000 		.4byte	.LVL127
 7342 0840 19000000 		.4byte	.LVL128-1
 7343 0844 0100     		.2byte	0x1
 7344 0846 50       		.byte	0x50
 7345 0847 19000000 		.4byte	.LVL128-1
 7346 084b 20000000 		.4byte	.LFE100
 7347 084f 0400     		.2byte	0x4
 7348 0851 F3       		.byte	0xf3
 7349 0852 01       		.uleb128 0x1
 7350 0853 50       		.byte	0x50
 7351 0854 9F       		.byte	0x9f
 7352 0855 00000000 		.4byte	0
 7353 0859 00000000 		.4byte	0
ARM GAS  /tmp/ccvZzf3e.s 			page 130


 7354              	.LLST47:
 7355 085d 00000000 		.4byte	.LVL129
 7356 0861 0C000000 		.4byte	.LVL130
 7357 0865 0100     		.2byte	0x1
 7358 0867 50       		.byte	0x50
 7359 0868 0C000000 		.4byte	.LVL130
 7360 086c 26000000 		.4byte	.LVL133
 7361 0870 0100     		.2byte	0x1
 7362 0872 53       		.byte	0x53
 7363 0873 26000000 		.4byte	.LVL133
 7364 0877 DC000000 		.4byte	.LFE105
 7365 087b 0400     		.2byte	0x4
 7366 087d F3       		.byte	0xf3
 7367 087e 01       		.uleb128 0x1
 7368 087f 50       		.byte	0x50
 7369 0880 9F       		.byte	0x9f
 7370 0881 00000000 		.4byte	0
 7371 0885 00000000 		.4byte	0
 7372              	.LLST48:
 7373 0889 20000000 		.4byte	.LVL131
 7374 088d 24000000 		.4byte	.LVL132
 7375 0891 0200     		.2byte	0x2
 7376 0893 73       		.byte	0x73
 7377 0894 05       		.sleb128 5
 7378 0895 24000000 		.4byte	.LVL132
 7379 0899 3A000000 		.4byte	.LVL135
 7380 089d 0100     		.2byte	0x1
 7381 089f 50       		.byte	0x50
 7382 08a0 00000000 		.4byte	0
 7383 08a4 00000000 		.4byte	0
 7384              	.LLST49:
 7385 08a8 20000000 		.4byte	.LVL131
 7386 08ac 24000000 		.4byte	.LVL132
 7387 08b0 0200     		.2byte	0x2
 7388 08b2 73       		.byte	0x73
 7389 08b3 0D       		.sleb128 13
 7390 08b4 24000000 		.4byte	.LVL132
 7391 08b8 32000000 		.4byte	.LVL134
 7392 08bc 0100     		.2byte	0x1
 7393 08be 52       		.byte	0x52
 7394 08bf 00000000 		.4byte	0
 7395 08c3 00000000 		.4byte	0
 7396              	.LLST50:
 7397 08c7 26000000 		.4byte	.LVL133
 7398 08cb 82000000 		.4byte	.LVL140
 7399 08cf 0100     		.2byte	0x1
 7400 08d1 53       		.byte	0x53
 7401 08d2 84000000 		.4byte	.LVL141
 7402 08d6 86000000 		.4byte	.LVL142
 7403 08da 0100     		.2byte	0x1
 7404 08dc 53       		.byte	0x53
 7405 08dd A0000000 		.4byte	.LVL143
 7406 08e1 A2000000 		.4byte	.LVL144
 7407 08e5 0100     		.2byte	0x1
 7408 08e7 53       		.byte	0x53
 7409 08e8 A2000000 		.4byte	.LVL144
 7410 08ec AA000000 		.4byte	.LVL145
ARM GAS  /tmp/ccvZzf3e.s 			page 131


 7411 08f0 0500     		.2byte	0x5
 7412 08f2 F3       		.byte	0xf3
 7413 08f3 01       		.uleb128 0x1
 7414 08f4 50       		.byte	0x50
 7415 08f5 23       		.byte	0x23
 7416 08f6 0D       		.uleb128 0xd
 7417 08f7 AA000000 		.4byte	.LVL145
 7418 08fb AC000000 		.4byte	.LVL146
 7419 08ff 0100     		.2byte	0x1
 7420 0901 53       		.byte	0x53
 7421 0902 AC000000 		.4byte	.LVL146
 7422 0906 B4000000 		.4byte	.LVL147
 7423 090a 0500     		.2byte	0x5
 7424 090c F3       		.byte	0xf3
 7425 090d 01       		.uleb128 0x1
 7426 090e 50       		.byte	0x50
 7427 090f 23       		.byte	0x23
 7428 0910 0D       		.uleb128 0xd
 7429 0911 B4000000 		.4byte	.LVL147
 7430 0915 B6000000 		.4byte	.LVL148
 7431 0919 0100     		.2byte	0x1
 7432 091b 53       		.byte	0x53
 7433 091c 00000000 		.4byte	0
 7434 0920 00000000 		.4byte	0
 7435              	.LLST51:
 7436 0924 4A000000 		.4byte	.LVL136
 7437 0928 82000000 		.4byte	.LVL140
 7438 092c 0100     		.2byte	0x1
 7439 092e 53       		.byte	0x53
 7440 092f 84000000 		.4byte	.LVL141
 7441 0933 86000000 		.4byte	.LVL142
 7442 0937 0100     		.2byte	0x1
 7443 0939 53       		.byte	0x53
 7444 093a A0000000 		.4byte	.LVL143
 7445 093e A2000000 		.4byte	.LVL144
 7446 0942 0100     		.2byte	0x1
 7447 0944 53       		.byte	0x53
 7448 0945 A2000000 		.4byte	.LVL144
 7449 0949 AA000000 		.4byte	.LVL145
 7450 094d 0500     		.2byte	0x5
 7451 094f F3       		.byte	0xf3
 7452 0950 01       		.uleb128 0x1
 7453 0951 50       		.byte	0x50
 7454 0952 23       		.byte	0x23
 7455 0953 0D       		.uleb128 0xd
 7456 0954 AA000000 		.4byte	.LVL145
 7457 0958 AC000000 		.4byte	.LVL146
 7458 095c 0100     		.2byte	0x1
 7459 095e 53       		.byte	0x53
 7460 095f AC000000 		.4byte	.LVL146
 7461 0963 B4000000 		.4byte	.LVL147
 7462 0967 0500     		.2byte	0x5
 7463 0969 F3       		.byte	0xf3
 7464 096a 01       		.uleb128 0x1
 7465 096b 50       		.byte	0x50
 7466 096c 23       		.byte	0x23
 7467 096d 0D       		.uleb128 0xd
ARM GAS  /tmp/ccvZzf3e.s 			page 132


 7468 096e 00000000 		.4byte	0
 7469 0972 00000000 		.4byte	0
 7470              	.LLST52:
 7471 0976 6A000000 		.4byte	.LVL137
 7472 097a 7C000000 		.4byte	.LVL139
 7473 097e 0100     		.2byte	0x1
 7474 0980 53       		.byte	0x53
 7475 0981 00000000 		.4byte	0
 7476 0985 00000000 		.4byte	0
 7477              	.LLST53:
 7478 0989 A0000000 		.4byte	.LVL143
 7479 098d A2000000 		.4byte	.LVL144
 7480 0991 0100     		.2byte	0x1
 7481 0993 53       		.byte	0x53
 7482 0994 A2000000 		.4byte	.LVL144
 7483 0998 AA000000 		.4byte	.LVL145
 7484 099c 0500     		.2byte	0x5
 7485 099e F3       		.byte	0xf3
 7486 099f 01       		.uleb128 0x1
 7487 09a0 50       		.byte	0x50
 7488 09a1 23       		.byte	0x23
 7489 09a2 0D       		.uleb128 0xd
 7490 09a3 AA000000 		.4byte	.LVL145
 7491 09a7 AC000000 		.4byte	.LVL146
 7492 09ab 0100     		.2byte	0x1
 7493 09ad 53       		.byte	0x53
 7494 09ae AC000000 		.4byte	.LVL146
 7495 09b2 B4000000 		.4byte	.LVL147
 7496 09b6 0500     		.2byte	0x5
 7497 09b8 F3       		.byte	0xf3
 7498 09b9 01       		.uleb128 0x1
 7499 09ba 50       		.byte	0x50
 7500 09bb 23       		.byte	0x23
 7501 09bc 0D       		.uleb128 0xd
 7502 09bd 00000000 		.4byte	0
 7503 09c1 00000000 		.4byte	0
 7504              	.LLST54:
 7505 09c5 00000000 		.4byte	.LVL149
 7506 09c9 A2000000 		.4byte	.LVL168
 7507 09cd 0100     		.2byte	0x1
 7508 09cf 50       		.byte	0x50
 7509 09d0 A2000000 		.4byte	.LVL168
 7510 09d4 FE000000 		.4byte	.LVL174
 7511 09d8 0400     		.2byte	0x4
 7512 09da F3       		.byte	0xf3
 7513 09db 01       		.uleb128 0x1
 7514 09dc 50       		.byte	0x50
 7515 09dd 9F       		.byte	0x9f
 7516 09de FE000000 		.4byte	.LVL174
 7517 09e2 00010000 		.4byte	.LVL175
 7518 09e6 0100     		.2byte	0x1
 7519 09e8 50       		.byte	0x50
 7520 09e9 00010000 		.4byte	.LVL175
 7521 09ed 02010000 		.4byte	.LVL176
 7522 09f1 0400     		.2byte	0x4
 7523 09f3 F3       		.byte	0xf3
 7524 09f4 01       		.uleb128 0x1
ARM GAS  /tmp/ccvZzf3e.s 			page 133


 7525 09f5 50       		.byte	0x50
 7526 09f6 9F       		.byte	0x9f
 7527 09f7 02010000 		.4byte	.LVL176
 7528 09fb 04010000 		.4byte	.LVL177
 7529 09ff 0100     		.2byte	0x1
 7530 0a01 50       		.byte	0x50
 7531 0a02 04010000 		.4byte	.LVL177
 7532 0a06 06010000 		.4byte	.LVL178
 7533 0a0a 0400     		.2byte	0x4
 7534 0a0c F3       		.byte	0xf3
 7535 0a0d 01       		.uleb128 0x1
 7536 0a0e 50       		.byte	0x50
 7537 0a0f 9F       		.byte	0x9f
 7538 0a10 06010000 		.4byte	.LVL178
 7539 0a14 08010000 		.4byte	.LVL179
 7540 0a18 0100     		.2byte	0x1
 7541 0a1a 50       		.byte	0x50
 7542 0a1b 08010000 		.4byte	.LVL179
 7543 0a1f 0C010000 		.4byte	.LVL180
 7544 0a23 0400     		.2byte	0x4
 7545 0a25 F3       		.byte	0xf3
 7546 0a26 01       		.uleb128 0x1
 7547 0a27 50       		.byte	0x50
 7548 0a28 9F       		.byte	0x9f
 7549 0a29 0C010000 		.4byte	.LVL180
 7550 0a2d 14010000 		.4byte	.LVL182
 7551 0a31 0100     		.2byte	0x1
 7552 0a33 50       		.byte	0x50
 7553 0a34 14010000 		.4byte	.LVL182
 7554 0a38 18010000 		.4byte	.LVL183
 7555 0a3c 0400     		.2byte	0x4
 7556 0a3e F3       		.byte	0xf3
 7557 0a3f 01       		.uleb128 0x1
 7558 0a40 50       		.byte	0x50
 7559 0a41 9F       		.byte	0x9f
 7560 0a42 18010000 		.4byte	.LVL183
 7561 0a46 20010000 		.4byte	.LVL185
 7562 0a4a 0100     		.2byte	0x1
 7563 0a4c 50       		.byte	0x50
 7564 0a4d 20010000 		.4byte	.LVL185
 7565 0a51 58010000 		.4byte	.LFE106
 7566 0a55 0400     		.2byte	0x4
 7567 0a57 F3       		.byte	0xf3
 7568 0a58 01       		.uleb128 0x1
 7569 0a59 50       		.byte	0x50
 7570 0a5a 9F       		.byte	0x9f
 7571 0a5b 00000000 		.4byte	0
 7572 0a5f 00000000 		.4byte	0
 7573              	.LLST55:
 7574 0a63 16000000 		.4byte	.LVL150
 7575 0a67 9C000000 		.4byte	.LVL166
 7576 0a6b 0300     		.2byte	0x3
 7577 0a6d 09       		.byte	0x9
 7578 0a6e FF       		.byte	0xff
 7579 0a6f 9F       		.byte	0x9f
 7580 0a70 9C000000 		.4byte	.LVL166
 7581 0a74 DA000000 		.4byte	.LVL173
ARM GAS  /tmp/ccvZzf3e.s 			page 134


 7582 0a78 0100     		.2byte	0x1
 7583 0a7a 51       		.byte	0x51
 7584 0a7b 06010000 		.4byte	.LVL178
 7585 0a7f 08010000 		.4byte	.LVL179
 7586 0a83 0300     		.2byte	0x3
 7587 0a85 09       		.byte	0x9
 7588 0a86 FF       		.byte	0xff
 7589 0a87 9F       		.byte	0x9f
 7590 0a88 0C010000 		.4byte	.LVL180
 7591 0a8c 24010000 		.4byte	.LVL186
 7592 0a90 0300     		.2byte	0x3
 7593 0a92 09       		.byte	0x9
 7594 0a93 FF       		.byte	0xff
 7595 0a94 9F       		.byte	0x9f
 7596 0a95 00000000 		.4byte	0
 7597 0a99 00000000 		.4byte	0
 7598              	.LLST56:
 7599 0a9d 18000000 		.4byte	.LVL151
 7600 0aa1 1C000000 		.4byte	.LVL152
 7601 0aa5 0200     		.2byte	0x2
 7602 0aa7 70       		.byte	0x70
 7603 0aa8 05       		.sleb128 5
 7604 0aa9 1C000000 		.4byte	.LVL152
 7605 0aad 24000000 		.4byte	.LVL154
 7606 0ab1 0100     		.2byte	0x1
 7607 0ab3 51       		.byte	0x51
 7608 0ab4 26000000 		.4byte	.LVL155
 7609 0ab8 28000000 		.4byte	.LVL156
 7610 0abc 0100     		.2byte	0x1
 7611 0abe 51       		.byte	0x51
 7612 0abf 00000000 		.4byte	0
 7613 0ac3 00000000 		.4byte	0
 7614              	.LLST57:
 7615 0ac7 18000000 		.4byte	.LVL151
 7616 0acb 1C000000 		.4byte	.LVL152
 7617 0acf 0200     		.2byte	0x2
 7618 0ad1 70       		.byte	0x70
 7619 0ad2 0D       		.sleb128 13
 7620 0ad3 1C000000 		.4byte	.LVL152
 7621 0ad7 1E000000 		.4byte	.LVL153
 7622 0adb 0100     		.2byte	0x1
 7623 0add 53       		.byte	0x53
 7624 0ade 00000000 		.4byte	0
 7625 0ae2 00000000 		.4byte	0
 7626              	.LLST58:
 7627 0ae6 1E000000 		.4byte	.LVL153
 7628 0aea 6A000000 		.4byte	.LVL159
 7629 0aee 0100     		.2byte	0x1
 7630 0af0 53       		.byte	0x53
 7631 0af1 6A000000 		.4byte	.LVL159
 7632 0af5 76000000 		.4byte	.LVL161
 7633 0af9 0200     		.2byte	0x2
 7634 0afb 70       		.byte	0x70
 7635 0afc 0D       		.sleb128 13
 7636 0afd 80000000 		.4byte	.LVL162
 7637 0b01 88000000 		.4byte	.LVL163
 7638 0b05 0100     		.2byte	0x1
ARM GAS  /tmp/ccvZzf3e.s 			page 135


 7639 0b07 53       		.byte	0x53
 7640 0b08 88000000 		.4byte	.LVL163
 7641 0b0c 94000000 		.4byte	.LVL165
 7642 0b10 0200     		.2byte	0x2
 7643 0b12 70       		.byte	0x70
 7644 0b13 0D       		.sleb128 13
 7645 0b14 06010000 		.4byte	.LVL178
 7646 0b18 08010000 		.4byte	.LVL179
 7647 0b1c 0100     		.2byte	0x1
 7648 0b1e 53       		.byte	0x53
 7649 0b1f 0C010000 		.4byte	.LVL180
 7650 0b23 0E010000 		.4byte	.LVL181
 7651 0b27 0100     		.2byte	0x1
 7652 0b29 53       		.byte	0x53
 7653 0b2a 0E010000 		.4byte	.LVL181
 7654 0b2e 14010000 		.4byte	.LVL182
 7655 0b32 0200     		.2byte	0x2
 7656 0b34 70       		.byte	0x70
 7657 0b35 0D       		.sleb128 13
 7658 0b36 14010000 		.4byte	.LVL182
 7659 0b3a 18010000 		.4byte	.LVL183
 7660 0b3e 0500     		.2byte	0x5
 7661 0b40 F3       		.byte	0xf3
 7662 0b41 01       		.uleb128 0x1
 7663 0b42 50       		.byte	0x50
 7664 0b43 23       		.byte	0x23
 7665 0b44 0D       		.uleb128 0xd
 7666 0b45 18010000 		.4byte	.LVL183
 7667 0b49 1A010000 		.4byte	.LVL184
 7668 0b4d 0100     		.2byte	0x1
 7669 0b4f 53       		.byte	0x53
 7670 0b50 1A010000 		.4byte	.LVL184
 7671 0b54 20010000 		.4byte	.LVL185
 7672 0b58 0200     		.2byte	0x2
 7673 0b5a 70       		.byte	0x70
 7674 0b5b 0D       		.sleb128 13
 7675 0b5c 20010000 		.4byte	.LVL185
 7676 0b60 24010000 		.4byte	.LVL186
 7677 0b64 0500     		.2byte	0x5
 7678 0b66 F3       		.byte	0xf3
 7679 0b67 01       		.uleb128 0x1
 7680 0b68 50       		.byte	0x50
 7681 0b69 23       		.byte	0x23
 7682 0b6a 0D       		.uleb128 0xd
 7683 0b6b 00000000 		.4byte	0
 7684 0b6f 00000000 		.4byte	0
 7685              	.LLST59:
 7686 0b73 42000000 		.4byte	.LVL157
 7687 0b77 6A000000 		.4byte	.LVL159
 7688 0b7b 0100     		.2byte	0x1
 7689 0b7d 53       		.byte	0x53
 7690 0b7e 6A000000 		.4byte	.LVL159
 7691 0b82 76000000 		.4byte	.LVL161
 7692 0b86 0200     		.2byte	0x2
 7693 0b88 70       		.byte	0x70
 7694 0b89 0D       		.sleb128 13
 7695 0b8a 80000000 		.4byte	.LVL162
ARM GAS  /tmp/ccvZzf3e.s 			page 136


 7696 0b8e 88000000 		.4byte	.LVL163
 7697 0b92 0100     		.2byte	0x1
 7698 0b94 53       		.byte	0x53
 7699 0b95 88000000 		.4byte	.LVL163
 7700 0b99 94000000 		.4byte	.LVL165
 7701 0b9d 0200     		.2byte	0x2
 7702 0b9f 70       		.byte	0x70
 7703 0ba0 0D       		.sleb128 13
 7704 0ba1 0C010000 		.4byte	.LVL180
 7705 0ba5 0E010000 		.4byte	.LVL181
 7706 0ba9 0100     		.2byte	0x1
 7707 0bab 53       		.byte	0x53
 7708 0bac 0E010000 		.4byte	.LVL181
 7709 0bb0 14010000 		.4byte	.LVL182
 7710 0bb4 0200     		.2byte	0x2
 7711 0bb6 70       		.byte	0x70
 7712 0bb7 0D       		.sleb128 13
 7713 0bb8 14010000 		.4byte	.LVL182
 7714 0bbc 18010000 		.4byte	.LVL183
 7715 0bc0 0500     		.2byte	0x5
 7716 0bc2 F3       		.byte	0xf3
 7717 0bc3 01       		.uleb128 0x1
 7718 0bc4 50       		.byte	0x50
 7719 0bc5 23       		.byte	0x23
 7720 0bc6 0D       		.uleb128 0xd
 7721 0bc7 18010000 		.4byte	.LVL183
 7722 0bcb 1A010000 		.4byte	.LVL184
 7723 0bcf 0100     		.2byte	0x1
 7724 0bd1 53       		.byte	0x53
 7725 0bd2 1A010000 		.4byte	.LVL184
 7726 0bd6 20010000 		.4byte	.LVL185
 7727 0bda 0200     		.2byte	0x2
 7728 0bdc 70       		.byte	0x70
 7729 0bdd 0D       		.sleb128 13
 7730 0bde 20010000 		.4byte	.LVL185
 7731 0be2 24010000 		.4byte	.LVL186
 7732 0be6 0500     		.2byte	0x5
 7733 0be8 F3       		.byte	0xf3
 7734 0be9 01       		.uleb128 0x1
 7735 0bea 50       		.byte	0x50
 7736 0beb 23       		.byte	0x23
 7737 0bec 0D       		.uleb128 0xd
 7738 0bed 00000000 		.4byte	0
 7739 0bf1 00000000 		.4byte	0
 7740              	.LLST60:
 7741 0bf5 62000000 		.4byte	.LVL158
 7742 0bf9 6A000000 		.4byte	.LVL159
 7743 0bfd 0100     		.2byte	0x1
 7744 0bff 53       		.byte	0x53
 7745 0c00 6A000000 		.4byte	.LVL159
 7746 0c04 76000000 		.4byte	.LVL161
 7747 0c08 0200     		.2byte	0x2
 7748 0c0a 70       		.byte	0x70
 7749 0c0b 0D       		.sleb128 13
 7750 0c0c 80000000 		.4byte	.LVL162
 7751 0c10 88000000 		.4byte	.LVL163
 7752 0c14 0100     		.2byte	0x1
ARM GAS  /tmp/ccvZzf3e.s 			page 137


 7753 0c16 53       		.byte	0x53
 7754 0c17 88000000 		.4byte	.LVL163
 7755 0c1b 94000000 		.4byte	.LVL165
 7756 0c1f 0200     		.2byte	0x2
 7757 0c21 70       		.byte	0x70
 7758 0c22 0D       		.sleb128 13
 7759 0c23 00000000 		.4byte	0
 7760 0c27 00000000 		.4byte	0
 7761              	.LLST61:
 7762 0c2b 70000000 		.4byte	.LVL160
 7763 0c2f 80000000 		.4byte	.LVL162
 7764 0c33 0100     		.2byte	0x1
 7765 0c35 51       		.byte	0x51
 7766 0c36 8E000000 		.4byte	.LVL164
 7767 0c3a A8000000 		.4byte	.LVL169
 7768 0c3e 0100     		.2byte	0x1
 7769 0c40 51       		.byte	0x51
 7770 0c41 00000000 		.4byte	0
 7771 0c45 00000000 		.4byte	0
 7772              	.LLST62:
 7773 0c49 9E000000 		.4byte	.LVL167
 7774 0c4d A2000000 		.4byte	.LVL168
 7775 0c51 0200     		.2byte	0x2
 7776 0c53 70       		.byte	0x70
 7777 0c54 0D       		.sleb128 13
 7778 0c55 A2000000 		.4byte	.LVL168
 7779 0c59 A8000000 		.4byte	.LVL169
 7780 0c5d 0100     		.2byte	0x1
 7781 0c5f 52       		.byte	0x52
 7782 0c60 A8000000 		.4byte	.LVL169
 7783 0c64 DA000000 		.4byte	.LVL173
 7784 0c68 0100     		.2byte	0x1
 7785 0c6a 53       		.byte	0x53
 7786 0c6b 0E010000 		.4byte	.LVL181
 7787 0c6f 14010000 		.4byte	.LVL182
 7788 0c73 0200     		.2byte	0x2
 7789 0c75 70       		.byte	0x70
 7790 0c76 0D       		.sleb128 13
 7791 0c77 14010000 		.4byte	.LVL182
 7792 0c7b 18010000 		.4byte	.LVL183
 7793 0c7f 0100     		.2byte	0x1
 7794 0c81 52       		.byte	0x52
 7795 0c82 1A010000 		.4byte	.LVL184
 7796 0c86 20010000 		.4byte	.LVL185
 7797 0c8a 0200     		.2byte	0x2
 7798 0c8c 70       		.byte	0x70
 7799 0c8d 0D       		.sleb128 13
 7800 0c8e 20010000 		.4byte	.LVL185
 7801 0c92 24010000 		.4byte	.LVL186
 7802 0c96 0100     		.2byte	0x1
 7803 0c98 52       		.byte	0x52
 7804 0c99 00000000 		.4byte	0
 7805 0c9d 00000000 		.4byte	0
 7806              	.LLST63:
 7807 0ca1 C8000000 		.4byte	.LVL171
 7808 0ca5 DA000000 		.4byte	.LVL173
 7809 0ca9 0100     		.2byte	0x1
ARM GAS  /tmp/ccvZzf3e.s 			page 138


 7810 0cab 53       		.byte	0x53
 7811 0cac 00000000 		.4byte	0
 7812 0cb0 00000000 		.4byte	0
 7813              	.LLST64:
 7814 0cb4 00000000 		.4byte	.LVL187
 7815 0cb8 22000000 		.4byte	.LVL190
 7816 0cbc 0100     		.2byte	0x1
 7817 0cbe 50       		.byte	0x50
 7818 0cbf 22000000 		.4byte	.LVL190
 7819 0cc3 5E000000 		.4byte	.LVL198
 7820 0cc7 0100     		.2byte	0x1
 7821 0cc9 54       		.byte	0x54
 7822 0cca 5E000000 		.4byte	.LVL198
 7823 0cce 74000000 		.4byte	.LVL201
 7824 0cd2 0400     		.2byte	0x4
 7825 0cd4 F3       		.byte	0xf3
 7826 0cd5 01       		.uleb128 0x1
 7827 0cd6 50       		.byte	0x50
 7828 0cd7 9F       		.byte	0x9f
 7829 0cd8 74000000 		.4byte	.LVL201
 7830 0cdc 76000000 		.4byte	.LVL202
 7831 0ce0 0100     		.2byte	0x1
 7832 0ce2 54       		.byte	0x54
 7833 0ce3 76000000 		.4byte	.LVL202
 7834 0ce7 B0000000 		.4byte	.LFE107
 7835 0ceb 0400     		.2byte	0x4
 7836 0ced F3       		.byte	0xf3
 7837 0cee 01       		.uleb128 0x1
 7838 0cef 50       		.byte	0x50
 7839 0cf0 9F       		.byte	0x9f
 7840 0cf1 00000000 		.4byte	0
 7841 0cf5 00000000 		.4byte	0
 7842              	.LLST65:
 7843 0cf9 1C000000 		.4byte	.LVL188
 7844 0cfd 20000000 		.4byte	.LVL189
 7845 0d01 0200     		.2byte	0x2
 7846 0d03 70       		.byte	0x70
 7847 0d04 09       		.sleb128 9
 7848 0d05 20000000 		.4byte	.LVL189
 7849 0d09 26000000 		.4byte	.LVL191
 7850 0d0d 0100     		.2byte	0x1
 7851 0d0f 52       		.byte	0x52
 7852 0d10 00000000 		.4byte	0
 7853 0d14 00000000 		.4byte	0
 7854              	.LLST66:
 7855 0d18 1C000000 		.4byte	.LVL188
 7856 0d1c 20000000 		.4byte	.LVL189
 7857 0d20 0200     		.2byte	0x2
 7858 0d22 70       		.byte	0x70
 7859 0d23 0D       		.sleb128 13
 7860 0d24 20000000 		.4byte	.LVL189
 7861 0d28 29000000 		.4byte	.LVL192-1
 7862 0d2c 0100     		.2byte	0x1
 7863 0d2e 53       		.byte	0x53
 7864 0d2f 00000000 		.4byte	0
 7865 0d33 00000000 		.4byte	0
 7866              	.LLST67:
ARM GAS  /tmp/ccvZzf3e.s 			page 139


 7867 0d37 46000000 		.4byte	.LVL195
 7868 0d3b 5E000000 		.4byte	.LVL198
 7869 0d3f 0200     		.2byte	0x2
 7870 0d41 74       		.byte	0x74
 7871 0d42 0D       		.sleb128 13
 7872 0d43 5E000000 		.4byte	.LVL198
 7873 0d47 64000000 		.4byte	.LVL199
 7874 0d4b 0100     		.2byte	0x1
 7875 0d4d 51       		.byte	0x51
 7876 0d4e 64000000 		.4byte	.LVL199
 7877 0d52 6D000000 		.4byte	.LVL200-1
 7878 0d56 0500     		.2byte	0x5
 7879 0d58 F3       		.byte	0xf3
 7880 0d59 01       		.uleb128 0x1
 7881 0d5a 50       		.byte	0x50
 7882 0d5b 23       		.byte	0x23
 7883 0d5c 0D       		.uleb128 0xd
 7884 0d5d 74000000 		.4byte	.LVL201
 7885 0d61 76000000 		.4byte	.LVL202
 7886 0d65 0200     		.2byte	0x2
 7887 0d67 74       		.byte	0x74
 7888 0d68 0D       		.sleb128 13
 7889 0d69 76000000 		.4byte	.LVL202
 7890 0d6d 7C000000 		.4byte	.LVL204
 7891 0d71 0100     		.2byte	0x1
 7892 0d73 51       		.byte	0x51
 7893 0d74 7C000000 		.4byte	.LVL204
 7894 0d78 83000000 		.4byte	.LVL205-1
 7895 0d7c 0500     		.2byte	0x5
 7896 0d7e F3       		.byte	0xf3
 7897 0d7f 01       		.uleb128 0x1
 7898 0d80 50       		.byte	0x50
 7899 0d81 23       		.byte	0x23
 7900 0d82 0D       		.uleb128 0xd
 7901 0d83 00000000 		.4byte	0
 7902 0d87 00000000 		.4byte	0
 7903              	.LLST68:
 7904 0d8b 58000000 		.4byte	.LVL196
 7905 0d8f 5C000000 		.4byte	.LVL197
 7906 0d93 0500     		.2byte	0x5
 7907 0d95 72       		.byte	0x72
 7908 0d96 00       		.sleb128 0
 7909 0d97 73       		.byte	0x73
 7910 0d98 00       		.sleb128 0
 7911 0d99 22       		.byte	0x22
 7912 0d9a 74000000 		.4byte	.LVL201
 7913 0d9e 7A000000 		.4byte	.LVL203
 7914 0da2 0500     		.2byte	0x5
 7915 0da4 72       		.byte	0x72
 7916 0da5 00       		.sleb128 0
 7917 0da6 73       		.byte	0x73
 7918 0da7 00       		.sleb128 0
 7919 0da8 22       		.byte	0x22
 7920 0da9 7A000000 		.4byte	.LVL203
 7921 0dad 83000000 		.4byte	.LVL205-1
 7922 0db1 0100     		.2byte	0x1
 7923 0db3 50       		.byte	0x50
ARM GAS  /tmp/ccvZzf3e.s 			page 140


 7924 0db4 00000000 		.4byte	0
 7925 0db8 00000000 		.4byte	0
 7926              	.LLST69:
 7927 0dbc 00000000 		.4byte	.LVL208
 7928 0dc0 54000000 		.4byte	.LVL211
 7929 0dc4 0100     		.2byte	0x1
 7930 0dc6 50       		.byte	0x50
 7931 0dc7 54000000 		.4byte	.LVL211
 7932 0dcb 56020000 		.4byte	.LVL257
 7933 0dcf 0100     		.2byte	0x1
 7934 0dd1 54       		.byte	0x54
 7935 0dd2 56020000 		.4byte	.LVL257
 7936 0dd6 66020000 		.4byte	.LVL259
 7937 0dda 0100     		.2byte	0x1
 7938 0ddc 50       		.byte	0x50
 7939 0ddd 66020000 		.4byte	.LVL259
 7940 0de1 08050000 		.4byte	.LVL323
 7941 0de5 0100     		.2byte	0x1
 7942 0de7 54       		.byte	0x54
 7943 0de8 08050000 		.4byte	.LVL323
 7944 0dec 16050000 		.4byte	.LVL325
 7945 0df0 0100     		.2byte	0x1
 7946 0df2 50       		.byte	0x50
 7947 0df3 16050000 		.4byte	.LVL325
 7948 0df7 40050000 		.4byte	.LVL330
 7949 0dfb 0100     		.2byte	0x1
 7950 0dfd 54       		.byte	0x54
 7951 0dfe 40050000 		.4byte	.LVL330
 7952 0e02 4E050000 		.4byte	.LVL332
 7953 0e06 0100     		.2byte	0x1
 7954 0e08 50       		.byte	0x50
 7955 0e09 4E050000 		.4byte	.LVL332
 7956 0e0d 6E050000 		.4byte	.LVL337
 7957 0e11 0100     		.2byte	0x1
 7958 0e13 54       		.byte	0x54
 7959 0e14 6E050000 		.4byte	.LVL337
 7960 0e18 A0050000 		.4byte	.LFE98
 7961 0e1c 0400     		.2byte	0x4
 7962 0e1e F3       		.byte	0xf3
 7963 0e1f 01       		.uleb128 0x1
 7964 0e20 50       		.byte	0x50
 7965 0e21 9F       		.byte	0x9f
 7966 0e22 00000000 		.4byte	0
 7967 0e26 00000000 		.4byte	0
 7968              	.LLST70:
 7969 0e2a 04000000 		.4byte	.LVL209
 7970 0e2e 54000000 		.4byte	.LVL211
 7971 0e32 0200     		.2byte	0x2
 7972 0e34 70       		.byte	0x70
 7973 0e35 0D       		.sleb128 13
 7974 0e36 54000000 		.4byte	.LVL211
 7975 0e3a 5C000000 		.4byte	.LVL212
 7976 0e3e 0200     		.2byte	0x2
 7977 0e40 74       		.byte	0x74
 7978 0e41 0D       		.sleb128 13
 7979 0e42 56020000 		.4byte	.LVL257
 7980 0e46 66020000 		.4byte	.LVL259
ARM GAS  /tmp/ccvZzf3e.s 			page 141


 7981 0e4a 0200     		.2byte	0x2
 7982 0e4c 70       		.byte	0x70
 7983 0e4d 0D       		.sleb128 13
 7984 0e4e 66020000 		.4byte	.LVL259
 7985 0e52 6E020000 		.4byte	.LVL260
 7986 0e56 0200     		.2byte	0x2
 7987 0e58 74       		.byte	0x74
 7988 0e59 0D       		.sleb128 13
 7989 0e5a 08050000 		.4byte	.LVL323
 7990 0e5e 16050000 		.4byte	.LVL325
 7991 0e62 0200     		.2byte	0x2
 7992 0e64 70       		.byte	0x70
 7993 0e65 0D       		.sleb128 13
 7994 0e66 16050000 		.4byte	.LVL325
 7995 0e6a 1E050000 		.4byte	.LVL326
 7996 0e6e 0200     		.2byte	0x2
 7997 0e70 74       		.byte	0x74
 7998 0e71 0D       		.sleb128 13
 7999 0e72 40050000 		.4byte	.LVL330
 8000 0e76 4E050000 		.4byte	.LVL332
 8001 0e7a 0200     		.2byte	0x2
 8002 0e7c 70       		.byte	0x70
 8003 0e7d 0D       		.sleb128 13
 8004 0e7e 4E050000 		.4byte	.LVL332
 8005 0e82 56050000 		.4byte	.LVL333
 8006 0e86 0200     		.2byte	0x2
 8007 0e88 74       		.byte	0x74
 8008 0e89 0D       		.sleb128 13
 8009 0e8a 00000000 		.4byte	0
 8010 0e8e 00000000 		.4byte	0
 8011              	.LLST71:
 8012 0e92 50000000 		.4byte	.LVL210
 8013 0e96 54000000 		.4byte	.LVL211
 8014 0e9a 0200     		.2byte	0x2
 8015 0e9c 70       		.byte	0x70
 8016 0e9d 0D       		.sleb128 13
 8017 0e9e 54000000 		.4byte	.LVL211
 8018 0ea2 5C000000 		.4byte	.LVL212
 8019 0ea6 0200     		.2byte	0x2
 8020 0ea8 74       		.byte	0x74
 8021 0ea9 0D       		.sleb128 13
 8022 0eaa 5C000000 		.4byte	.LVL212
 8023 0eae 5E000000 		.4byte	.LVL213
 8024 0eb2 0100     		.2byte	0x1
 8025 0eb4 52       		.byte	0x52
 8026 0eb5 00000000 		.4byte	0
 8027 0eb9 00000000 		.4byte	0
 8028              	.LLST72:
 8029 0ebd 7A000000 		.4byte	.LVL214
 8030 0ec1 AA000000 		.4byte	.LVL219
 8031 0ec5 0200     		.2byte	0x2
 8032 0ec7 74       		.byte	0x74
 8033 0ec8 0D       		.sleb128 13
 8034 0ec9 B2000000 		.4byte	.LVL220
 8035 0ecd C0000000 		.4byte	.LVL221
 8036 0ed1 0200     		.2byte	0x2
 8037 0ed3 74       		.byte	0x74
ARM GAS  /tmp/ccvZzf3e.s 			page 142


 8038 0ed4 0D       		.sleb128 13
 8039 0ed5 00000000 		.4byte	0
 8040 0ed9 00000000 		.4byte	0
 8041              	.LLST73:
 8042 0edd 82000000 		.4byte	.LVL215
 8043 0ee1 84000000 		.4byte	.LVL216
 8044 0ee5 0100     		.2byte	0x1
 8045 0ee7 53       		.byte	0x53
 8046 0ee8 00000000 		.4byte	0
 8047 0eec 00000000 		.4byte	0
 8048              	.LLST74:
 8049 0ef0 96000000 		.4byte	.LVL217
 8050 0ef4 34010000 		.4byte	.LVL228
 8051 0ef8 0100     		.2byte	0x1
 8052 0efa 53       		.byte	0x53
 8053 0efb 00000000 		.4byte	0
 8054 0eff 00000000 		.4byte	0
 8055              	.LLST75:
 8056 0f03 96000000 		.4byte	.LVL217
 8057 0f07 AA000000 		.4byte	.LVL219
 8058 0f0b 0200     		.2byte	0x2
 8059 0f0d 74       		.byte	0x74
 8060 0f0e 0D       		.sleb128 13
 8061 0f0f B2000000 		.4byte	.LVL220
 8062 0f13 C0000000 		.4byte	.LVL221
 8063 0f17 0200     		.2byte	0x2
 8064 0f19 74       		.byte	0x74
 8065 0f1a 0D       		.sleb128 13
 8066 0f1b 00000000 		.4byte	0
 8067 0f1f 00000000 		.4byte	0
 8068              	.LLST76:
 8069 0f23 98000000 		.4byte	.LVL218
 8070 0f27 34010000 		.4byte	.LVL228
 8071 0f2b 0100     		.2byte	0x1
 8072 0f2d 53       		.byte	0x53
 8073 0f2e 00000000 		.4byte	0
 8074 0f32 00000000 		.4byte	0
 8075              	.LLST77:
 8076 0f36 98000000 		.4byte	.LVL218
 8077 0f3a AA000000 		.4byte	.LVL219
 8078 0f3e 0200     		.2byte	0x2
 8079 0f40 74       		.byte	0x74
 8080 0f41 0D       		.sleb128 13
 8081 0f42 B2000000 		.4byte	.LVL220
 8082 0f46 C0000000 		.4byte	.LVL221
 8083 0f4a 0200     		.2byte	0x2
 8084 0f4c 74       		.byte	0x74
 8085 0f4d 0D       		.sleb128 13
 8086 0f4e 00000000 		.4byte	0
 8087 0f52 00000000 		.4byte	0
 8088              	.LLST78:
 8089 0f56 CA000000 		.4byte	.LVL222
 8090 0f5a CC000000 		.4byte	.LVL223
 8091 0f5e 0100     		.2byte	0x1
 8092 0f60 52       		.byte	0x52
 8093 0f61 CC000000 		.4byte	.LVL223
 8094 0f65 E2000000 		.4byte	.LVL224
ARM GAS  /tmp/ccvZzf3e.s 			page 143


 8095 0f69 0100     		.2byte	0x1
 8096 0f6b 50       		.byte	0x50
 8097 0f6c E2000000 		.4byte	.LVL224
 8098 0f70 34010000 		.4byte	.LVL228
 8099 0f74 0500     		.2byte	0x5
 8100 0f76 73       		.byte	0x73
 8101 0f77 00       		.sleb128 0
 8102 0f78 38       		.byte	0x38
 8103 0f79 25       		.byte	0x25
 8104 0f7a 9F       		.byte	0x9f
 8105 0f7b 00000000 		.4byte	0
 8106 0f7f 00000000 		.4byte	0
 8107              	.LLST79:
 8108 0f83 00010000 		.4byte	.LVL225
 8109 0f87 02010000 		.4byte	.LVL226
 8110 0f8b 0100     		.2byte	0x1
 8111 0f8d 52       		.byte	0x52
 8112 0f8e 02010000 		.4byte	.LVL226
 8113 0f92 18010000 		.4byte	.LVL227
 8114 0f96 0100     		.2byte	0x1
 8115 0f98 50       		.byte	0x50
 8116 0f99 18010000 		.4byte	.LVL227
 8117 0f9d 34010000 		.4byte	.LVL228
 8118 0fa1 0500     		.2byte	0x5
 8119 0fa3 73       		.byte	0x73
 8120 0fa4 00       		.sleb128 0
 8121 0fa5 40       		.byte	0x40
 8122 0fa6 25       		.byte	0x25
 8123 0fa7 9F       		.byte	0x9f
 8124 0fa8 00000000 		.4byte	0
 8125 0fac 00000000 		.4byte	0
 8126              	.LLST80:
 8127 0fb0 34010000 		.4byte	.LVL228
 8128 0fb4 4C010000 		.4byte	.LVL229
 8129 0fb8 0100     		.2byte	0x1
 8130 0fba 53       		.byte	0x53
 8131 0fbb 52010000 		.4byte	.LVL230
 8132 0fbf 62010000 		.4byte	.LVL231
 8133 0fc3 0100     		.2byte	0x1
 8134 0fc5 53       		.byte	0x53
 8135 0fc6 00000000 		.4byte	0
 8136 0fca 00000000 		.4byte	0
 8137              	.LLST81:
 8138 0fce 68010000 		.4byte	.LVL232
 8139 0fd2 80010000 		.4byte	.LVL233
 8140 0fd6 0200     		.2byte	0x2
 8141 0fd8 74       		.byte	0x74
 8142 0fd9 16       		.sleb128 22
 8143 0fda 80010000 		.4byte	.LVL233
 8144 0fde 88010000 		.4byte	.LVL234
 8145 0fe2 0100     		.2byte	0x1
 8146 0fe4 51       		.byte	0x51
 8147 0fe5 88010000 		.4byte	.LVL234
 8148 0fe9 96010000 		.4byte	.LVL235
 8149 0fed 0200     		.2byte	0x2
 8150 0fef 74       		.byte	0x74
 8151 0ff0 16       		.sleb128 22
ARM GAS  /tmp/ccvZzf3e.s 			page 144


 8152 0ff1 96010000 		.4byte	.LVL235
 8153 0ff5 9E010000 		.4byte	.LVL236
 8154 0ff9 0100     		.2byte	0x1
 8155 0ffb 51       		.byte	0x51
 8156 0ffc 00000000 		.4byte	0
 8157 1000 00000000 		.4byte	0
 8158              	.LLST82:
 8159 1004 68010000 		.4byte	.LVL232
 8160 1008 80010000 		.4byte	.LVL233
 8161 100c 0200     		.2byte	0x2
 8162 100e 74       		.byte	0x74
 8163 100f 0D       		.sleb128 13
 8164 1010 88010000 		.4byte	.LVL234
 8165 1014 96010000 		.4byte	.LVL235
 8166 1018 0200     		.2byte	0x2
 8167 101a 74       		.byte	0x74
 8168 101b 0D       		.sleb128 13
 8169 101c 00000000 		.4byte	0
 8170 1020 00000000 		.4byte	0
 8171              	.LLST83:
 8172 1024 9E010000 		.4byte	.LVL236
 8173 1028 B6010000 		.4byte	.LVL237
 8174 102c 0200     		.2byte	0x2
 8175 102e 74       		.byte	0x74
 8176 102f 17       		.sleb128 23
 8177 1030 B6010000 		.4byte	.LVL237
 8178 1034 BE010000 		.4byte	.LVL238
 8179 1038 0100     		.2byte	0x1
 8180 103a 51       		.byte	0x51
 8181 103b BE010000 		.4byte	.LVL238
 8182 103f CC010000 		.4byte	.LVL239
 8183 1043 0200     		.2byte	0x2
 8184 1045 74       		.byte	0x74
 8185 1046 17       		.sleb128 23
 8186 1047 CC010000 		.4byte	.LVL239
 8187 104b D4010000 		.4byte	.LVL240
 8188 104f 0100     		.2byte	0x1
 8189 1051 51       		.byte	0x51
 8190 1052 00000000 		.4byte	0
 8191 1056 00000000 		.4byte	0
 8192              	.LLST84:
 8193 105a 9E010000 		.4byte	.LVL236
 8194 105e B6010000 		.4byte	.LVL237
 8195 1062 0200     		.2byte	0x2
 8196 1064 74       		.byte	0x74
 8197 1065 0D       		.sleb128 13
 8198 1066 BE010000 		.4byte	.LVL238
 8199 106a CC010000 		.4byte	.LVL239
 8200 106e 0200     		.2byte	0x2
 8201 1070 74       		.byte	0x74
 8202 1071 0D       		.sleb128 13
 8203 1072 00000000 		.4byte	0
 8204 1076 00000000 		.4byte	0
 8205              	.LLST85:
 8206 107a D4010000 		.4byte	.LVL240
 8207 107e EC010000 		.4byte	.LVL241
 8208 1082 0200     		.2byte	0x2
ARM GAS  /tmp/ccvZzf3e.s 			page 145


 8209 1084 74       		.byte	0x74
 8210 1085 18       		.sleb128 24
 8211 1086 EC010000 		.4byte	.LVL241
 8212 108a F4010000 		.4byte	.LVL242
 8213 108e 0100     		.2byte	0x1
 8214 1090 51       		.byte	0x51
 8215 1091 F4010000 		.4byte	.LVL242
 8216 1095 02020000 		.4byte	.LVL243
 8217 1099 0200     		.2byte	0x2
 8218 109b 74       		.byte	0x74
 8219 109c 18       		.sleb128 24
 8220 109d 02020000 		.4byte	.LVL243
 8221 10a1 18020000 		.4byte	.LVL245
 8222 10a5 0100     		.2byte	0x1
 8223 10a7 51       		.byte	0x51
 8224 10a8 1A020000 		.4byte	.LVL246
 8225 10ac 1C020000 		.4byte	.LVL247
 8226 10b0 0100     		.2byte	0x1
 8227 10b2 51       		.byte	0x51
 8228 10b3 00000000 		.4byte	0
 8229 10b7 00000000 		.4byte	0
 8230              	.LLST86:
 8231 10bb D4010000 		.4byte	.LVL240
 8232 10bf EC010000 		.4byte	.LVL241
 8233 10c3 0200     		.2byte	0x2
 8234 10c5 74       		.byte	0x74
 8235 10c6 0D       		.sleb128 13
 8236 10c7 F4010000 		.4byte	.LVL242
 8237 10cb 02020000 		.4byte	.LVL243
 8238 10cf 0200     		.2byte	0x2
 8239 10d1 74       		.byte	0x74
 8240 10d2 0D       		.sleb128 13
 8241 10d3 00000000 		.4byte	0
 8242 10d7 00000000 		.4byte	0
 8243              	.LLST87:
 8244 10db 0A020000 		.4byte	.LVL244
 8245 10df 33020000 		.4byte	.LVL250-1
 8246 10e3 0200     		.2byte	0x2
 8247 10e5 74       		.byte	0x74
 8248 10e6 0D       		.sleb128 13
 8249 10e7 3A020000 		.4byte	.LVL251
 8250 10eb 49020000 		.4byte	.LVL255-1
 8251 10ef 0200     		.2byte	0x2
 8252 10f1 74       		.byte	0x74
 8253 10f2 0D       		.sleb128 13
 8254 10f3 00000000 		.4byte	0
 8255 10f7 00000000 		.4byte	0
 8256              	.LLST88:
 8257 10fb 1E020000 		.4byte	.LVL248
 8258 10ff 22020000 		.4byte	.LVL249
 8259 1103 0500     		.2byte	0x5
 8260 1105 71       		.byte	0x71
 8261 1106 00       		.sleb128 0
 8262 1107 72       		.byte	0x72
 8263 1108 00       		.sleb128 0
 8264 1109 22       		.byte	0x22
 8265 110a 3A020000 		.4byte	.LVL251
ARM GAS  /tmp/ccvZzf3e.s 			page 146


 8266 110e 40020000 		.4byte	.LVL252
 8267 1112 0500     		.2byte	0x5
 8268 1114 71       		.byte	0x71
 8269 1115 00       		.sleb128 0
 8270 1116 72       		.byte	0x72
 8271 1117 00       		.sleb128 0
 8272 1118 22       		.byte	0x22
 8273 1119 40020000 		.4byte	.LVL252
 8274 111d 42020000 		.4byte	.LVL253
 8275 1121 0A00     		.2byte	0xa
 8276 1123 73       		.byte	0x73
 8277 1124 00       		.sleb128 0
 8278 1125 94       		.byte	0x94
 8279 1126 01       		.byte	0x1
 8280 1127 08       		.byte	0x8
 8281 1128 FF       		.byte	0xff
 8282 1129 1A       		.byte	0x1a
 8283 112a 71       		.byte	0x71
 8284 112b 00       		.sleb128 0
 8285 112c 22       		.byte	0x22
 8286 112d 42020000 		.4byte	.LVL253
 8287 1131 44020000 		.4byte	.LVL254
 8288 1135 0F00     		.2byte	0xf
 8289 1137 74       		.byte	0x74
 8290 1138 0D       		.sleb128 13
 8291 1139 94       		.byte	0x94
 8292 113a 01       		.byte	0x1
 8293 113b 08       		.byte	0x8
 8294 113c FF       		.byte	0xff
 8295 113d 1A       		.byte	0x1a
 8296 113e 94       		.byte	0x94
 8297 113f 01       		.byte	0x1
 8298 1140 08       		.byte	0x8
 8299 1141 FF       		.byte	0xff
 8300 1142 1A       		.byte	0x1a
 8301 1143 71       		.byte	0x71
 8302 1144 00       		.sleb128 0
 8303 1145 22       		.byte	0x22
 8304 1146 44020000 		.4byte	.LVL254
 8305 114a 49020000 		.4byte	.LVL255-1
 8306 114e 0100     		.2byte	0x1
 8307 1150 50       		.byte	0x50
 8308 1151 00000000 		.4byte	0
 8309 1155 00000000 		.4byte	0
 8310              	.LLST89:
 8311 1159 62020000 		.4byte	.LVL258
 8312 115d 66020000 		.4byte	.LVL259
 8313 1161 0200     		.2byte	0x2
 8314 1163 70       		.byte	0x70
 8315 1164 0D       		.sleb128 13
 8316 1165 66020000 		.4byte	.LVL259
 8317 1169 6E020000 		.4byte	.LVL260
 8318 116d 0200     		.2byte	0x2
 8319 116f 74       		.byte	0x74
 8320 1170 0D       		.sleb128 13
 8321 1171 6E020000 		.4byte	.LVL260
 8322 1175 70020000 		.4byte	.LVL261
ARM GAS  /tmp/ccvZzf3e.s 			page 147


 8323 1179 0100     		.2byte	0x1
 8324 117b 52       		.byte	0x52
 8325 117c 00000000 		.4byte	0
 8326 1180 00000000 		.4byte	0
 8327              	.LLST90:
 8328 1184 92020000 		.4byte	.LVL262
 8329 1188 B4020000 		.4byte	.LVL266
 8330 118c 0200     		.2byte	0x2
 8331 118e 74       		.byte	0x74
 8332 118f 0D       		.sleb128 13
 8333 1190 BE020000 		.4byte	.LVL267
 8334 1194 D2020000 		.4byte	.LVL270
 8335 1198 0200     		.2byte	0x2
 8336 119a 74       		.byte	0x74
 8337 119b 0D       		.sleb128 13
 8338 119c 00000000 		.4byte	0
 8339 11a0 00000000 		.4byte	0
 8340              	.LLST91:
 8341 11a4 9C020000 		.4byte	.LVL263
 8342 11a8 B4020000 		.4byte	.LVL266
 8343 11ac 0200     		.2byte	0x2
 8344 11ae 74       		.byte	0x74
 8345 11af 0D       		.sleb128 13
 8346 11b0 BE020000 		.4byte	.LVL267
 8347 11b4 D2020000 		.4byte	.LVL270
 8348 11b8 0200     		.2byte	0x2
 8349 11ba 74       		.byte	0x74
 8350 11bb 0D       		.sleb128 13
 8351 11bc 00000000 		.4byte	0
 8352 11c0 00000000 		.4byte	0
 8353              	.LLST92:
 8354 11c4 9C020000 		.4byte	.LVL263
 8355 11c8 DA030000 		.4byte	.LVL287
 8356 11cc 0200     		.2byte	0x2
 8357 11ce 30       		.byte	0x30
 8358 11cf 9F       		.byte	0x9f
 8359 11d0 DA030000 		.4byte	.LVL287
 8360 11d4 DC030000 		.4byte	.LVL288
 8361 11d8 1E00     		.2byte	0x1e
 8362 11da 70       		.byte	0x70
 8363 11db 00       		.sleb128 0
 8364 11dc 08       		.byte	0x8
 8365 11dd FF       		.byte	0xff
 8366 11de 1A       		.byte	0x1a
 8367 11df 38       		.byte	0x38
 8368 11e0 24       		.byte	0x24
 8369 11e1 76       		.byte	0x76
 8370 11e2 00       		.sleb128 0
 8371 11e3 08       		.byte	0x8
 8372 11e4 FF       		.byte	0xff
 8373 11e5 1A       		.byte	0x1a
 8374 11e6 40       		.byte	0x40
 8375 11e7 24       		.byte	0x24
 8376 11e8 21       		.byte	0x21
 8377 11e9 72       		.byte	0x72
 8378 11ea 00       		.sleb128 0
 8379 11eb 08       		.byte	0x8
ARM GAS  /tmp/ccvZzf3e.s 			page 148


 8380 11ec FF       		.byte	0xff
 8381 11ed 1A       		.byte	0x1a
 8382 11ee 48       		.byte	0x48
 8383 11ef 24       		.byte	0x24
 8384 11f0 21       		.byte	0x21
 8385 11f1 73       		.byte	0x73
 8386 11f2 00       		.sleb128 0
 8387 11f3 08       		.byte	0x8
 8388 11f4 FF       		.byte	0xff
 8389 11f5 1A       		.byte	0x1a
 8390 11f6 21       		.byte	0x21
 8391 11f7 9F       		.byte	0x9f
 8392 11f8 00000000 		.4byte	0
 8393 11fc 00000000 		.4byte	0
 8394              	.LLST94:
 8395 1200 AE020000 		.4byte	.LVL264
 8396 1204 B0020000 		.4byte	.LVL265
 8397 1208 0200     		.2byte	0x2
 8398 120a 75       		.byte	0x75
 8399 120b 00       		.sleb128 0
 8400 120c B0020000 		.4byte	.LVL265
 8401 1210 BE020000 		.4byte	.LVL267
 8402 1214 0100     		.2byte	0x1
 8403 1216 53       		.byte	0x53
 8404 1217 CC020000 		.4byte	.LVL268
 8405 121b CE020000 		.4byte	.LVL269
 8406 121f 0200     		.2byte	0x2
 8407 1221 75       		.byte	0x75
 8408 1222 00       		.sleb128 0
 8409 1223 CE020000 		.4byte	.LVL269
 8410 1227 DE030000 		.4byte	.LVL289
 8411 122b 0100     		.2byte	0x1
 8412 122d 53       		.byte	0x53
 8413 122e 00000000 		.4byte	0
 8414 1232 00000000 		.4byte	0
 8415              	.LLST95:
 8416 1236 F0020000 		.4byte	.LVL272
 8417 123a F2020000 		.4byte	.LVL273
 8418 123e 0200     		.2byte	0x2
 8419 1240 76       		.byte	0x76
 8420 1241 00       		.sleb128 0
 8421 1242 F2020000 		.4byte	.LVL273
 8422 1246 00030000 		.4byte	.LVL274
 8423 124a 0100     		.2byte	0x1
 8424 124c 50       		.byte	0x50
 8425 124d 0E030000 		.4byte	.LVL275
 8426 1251 10030000 		.4byte	.LVL276
 8427 1255 0200     		.2byte	0x2
 8428 1257 76       		.byte	0x76
 8429 1258 00       		.sleb128 0
 8430 1259 10030000 		.4byte	.LVL276
 8431 125d DC030000 		.4byte	.LVL288
 8432 1261 0100     		.2byte	0x1
 8433 1263 50       		.byte	0x50
 8434 1264 00000000 		.4byte	0
 8435 1268 00000000 		.4byte	0
 8436              	.LLST96:
ARM GAS  /tmp/ccvZzf3e.s 			page 149


 8437 126c 32030000 		.4byte	.LVL278
 8438 1270 34030000 		.4byte	.LVL279
 8439 1274 0200     		.2byte	0x2
 8440 1276 77       		.byte	0x77
 8441 1277 00       		.sleb128 0
 8442 1278 34030000 		.4byte	.LVL279
 8443 127c 7C030000 		.4byte	.LVL280
 8444 1280 0100     		.2byte	0x1
 8445 1282 56       		.byte	0x56
 8446 1283 8A030000 		.4byte	.LVL281
 8447 1287 8C030000 		.4byte	.LVL282
 8448 128b 0200     		.2byte	0x2
 8449 128d 77       		.byte	0x77
 8450 128e 00       		.sleb128 0
 8451 128f 8C030000 		.4byte	.LVL282
 8452 1293 08050000 		.4byte	.LVL323
 8453 1297 0100     		.2byte	0x1
 8454 1299 56       		.byte	0x56
 8455 129a 00000000 		.4byte	0
 8456 129e 00000000 		.4byte	0
 8457              	.LLST97:
 8458 12a2 AE030000 		.4byte	.LVL284
 8459 12a6 BE030000 		.4byte	.LVL285
 8460 12aa 0100     		.2byte	0x1
 8461 12ac 52       		.byte	0x52
 8462 12ad CC030000 		.4byte	.LVL286
 8463 12b1 E4030000 		.4byte	.LVL290
 8464 12b5 0100     		.2byte	0x1
 8465 12b7 52       		.byte	0x52
 8466 12b8 00000000 		.4byte	0
 8467 12bc 00000000 		.4byte	0
 8468              	.LLST98:
 8469 12c0 EC030000 		.4byte	.LVL291
 8470 12c4 0A040000 		.4byte	.LVL293
 8471 12c8 0200     		.2byte	0x2
 8472 12ca 74       		.byte	0x74
 8473 12cb 0D       		.sleb128 13
 8474 12cc 14040000 		.4byte	.LVL294
 8475 12d0 28040000 		.4byte	.LVL296
 8476 12d4 0200     		.2byte	0x2
 8477 12d6 74       		.byte	0x74
 8478 12d7 0D       		.sleb128 13
 8479 12d8 00000000 		.4byte	0
 8480 12dc 00000000 		.4byte	0
 8481              	.LLST99:
 8482 12e0 04040000 		.4byte	.LVL292
 8483 12e4 14040000 		.4byte	.LVL294
 8484 12e8 0100     		.2byte	0x1
 8485 12ea 53       		.byte	0x53
 8486 12eb 22040000 		.4byte	.LVL295
 8487 12ef 34040000 		.4byte	.LVL299
 8488 12f3 0100     		.2byte	0x1
 8489 12f5 53       		.byte	0x53
 8490 12f6 00000000 		.4byte	0
 8491 12fa 00000000 		.4byte	0
 8492              	.LLST100:
 8493 12fe 32040000 		.4byte	.LVL298
ARM GAS  /tmp/ccvZzf3e.s 			page 150


 8494 1302 50040000 		.4byte	.LVL301
 8495 1306 0200     		.2byte	0x2
 8496 1308 74       		.byte	0x74
 8497 1309 0D       		.sleb128 13
 8498 130a 5A040000 		.4byte	.LVL302
 8499 130e 6E040000 		.4byte	.LVL304
 8500 1312 0200     		.2byte	0x2
 8501 1314 74       		.byte	0x74
 8502 1315 0D       		.sleb128 13
 8503 1316 00000000 		.4byte	0
 8504 131a 00000000 		.4byte	0
 8505              	.LLST101:
 8506 131e 4A040000 		.4byte	.LVL300
 8507 1322 5A040000 		.4byte	.LVL302
 8508 1326 0100     		.2byte	0x1
 8509 1328 53       		.byte	0x53
 8510 1329 68040000 		.4byte	.LVL303
 8511 132d 7A040000 		.4byte	.LVL307
 8512 1331 0100     		.2byte	0x1
 8513 1333 53       		.byte	0x53
 8514 1334 00000000 		.4byte	0
 8515 1338 00000000 		.4byte	0
 8516              	.LLST102:
 8517 133c 78040000 		.4byte	.LVL306
 8518 1340 96040000 		.4byte	.LVL309
 8519 1344 0200     		.2byte	0x2
 8520 1346 74       		.byte	0x74
 8521 1347 0D       		.sleb128 13
 8522 1348 A0040000 		.4byte	.LVL310
 8523 134c B4040000 		.4byte	.LVL312
 8524 1350 0200     		.2byte	0x2
 8525 1352 74       		.byte	0x74
 8526 1353 0D       		.sleb128 13
 8527 1354 00000000 		.4byte	0
 8528 1358 00000000 		.4byte	0
 8529              	.LLST103:
 8530 135c 90040000 		.4byte	.LVL308
 8531 1360 A0040000 		.4byte	.LVL310
 8532 1364 0100     		.2byte	0x1
 8533 1366 53       		.byte	0x53
 8534 1367 AE040000 		.4byte	.LVL311
 8535 136b C0040000 		.4byte	.LVL314
 8536 136f 0100     		.2byte	0x1
 8537 1371 53       		.byte	0x53
 8538 1372 00000000 		.4byte	0
 8539 1376 00000000 		.4byte	0
 8540              	.LLST104:
 8541 137a C0040000 		.4byte	.LVL314
 8542 137e D0040000 		.4byte	.LVL315
 8543 1382 0200     		.2byte	0x2
 8544 1384 74       		.byte	0x74
 8545 1385 0D       		.sleb128 13
 8546 1386 D0040000 		.4byte	.LVL315
 8547 138a D2040000 		.4byte	.LVL316
 8548 138e 0100     		.2byte	0x1
 8549 1390 53       		.byte	0x53
 8550 1391 D2040000 		.4byte	.LVL316
ARM GAS  /tmp/ccvZzf3e.s 			page 151


 8551 1395 DA040000 		.4byte	.LVL317
 8552 1399 0200     		.2byte	0x2
 8553 139b 74       		.byte	0x74
 8554 139c 0D       		.sleb128 13
 8555 139d DA040000 		.4byte	.LVL317
 8556 13a1 E0040000 		.4byte	.LVL318
 8557 13a5 0100     		.2byte	0x1
 8558 13a7 53       		.byte	0x53
 8559 13a8 E2040000 		.4byte	.LVL319
 8560 13ac E4040000 		.4byte	.LVL320
 8561 13b0 0100     		.2byte	0x1
 8562 13b2 53       		.byte	0x53
 8563 13b3 00000000 		.4byte	0
 8564 13b7 00000000 		.4byte	0
 8565              	.LLST105:
 8566 13bb 12050000 		.4byte	.LVL324
 8567 13bf 16050000 		.4byte	.LVL325
 8568 13c3 0200     		.2byte	0x2
 8569 13c5 70       		.byte	0x70
 8570 13c6 0D       		.sleb128 13
 8571 13c7 16050000 		.4byte	.LVL325
 8572 13cb 1E050000 		.4byte	.LVL326
 8573 13cf 0200     		.2byte	0x2
 8574 13d1 74       		.byte	0x74
 8575 13d2 0D       		.sleb128 13
 8576 13d3 1E050000 		.4byte	.LVL326
 8577 13d7 20050000 		.4byte	.LVL327
 8578 13db 0100     		.2byte	0x1
 8579 13dd 52       		.byte	0x52
 8580 13de 00000000 		.4byte	0
 8581 13e2 00000000 		.4byte	0
 8582              	.LLST106:
 8583 13e6 4A050000 		.4byte	.LVL331
 8584 13ea 4E050000 		.4byte	.LVL332
 8585 13ee 0200     		.2byte	0x2
 8586 13f0 70       		.byte	0x70
 8587 13f1 0D       		.sleb128 13
 8588 13f2 4E050000 		.4byte	.LVL332
 8589 13f6 56050000 		.4byte	.LVL333
 8590 13fa 0200     		.2byte	0x2
 8591 13fc 74       		.byte	0x74
 8592 13fd 0D       		.sleb128 13
 8593 13fe 56050000 		.4byte	.LVL333
 8594 1402 58050000 		.4byte	.LVL334
 8595 1406 0100     		.2byte	0x1
 8596 1408 52       		.byte	0x52
 8597 1409 00000000 		.4byte	0
 8598 140d 00000000 		.4byte	0
 8599              		.section	.debug_aranges,"",%progbits
 8600 0000 74000000 		.4byte	0x74
 8601 0004 0200     		.2byte	0x2
 8602 0006 00000000 		.4byte	.Ldebug_info0
 8603 000a 04       		.byte	0x4
 8604 000b 00       		.byte	0
 8605 000c 0000     		.2byte	0
 8606 000e 0000     		.2byte	0
 8607 0010 00000000 		.4byte	.LFB99
ARM GAS  /tmp/ccvZzf3e.s 			page 152


 8608 0014 94000000 		.4byte	.LFE99-.LFB99
 8609 0018 00000000 		.4byte	.LFB101
 8610 001c A0000000 		.4byte	.LFE101-.LFB101
 8611 0020 00000000 		.4byte	.LFB102
 8612 0024 98000000 		.4byte	.LFE102-.LFB102
 8613 0028 00000000 		.4byte	.LFB103
 8614 002c 44010000 		.4byte	.LFE103-.LFB103
 8615 0030 00000000 		.4byte	.LFB104
 8616 0034 70010000 		.4byte	.LFE104-.LFB104
 8617 0038 00000000 		.4byte	.LFB100
 8618 003c 20000000 		.4byte	.LFE100-.LFB100
 8619 0040 00000000 		.4byte	.LFB105
 8620 0044 DC000000 		.4byte	.LFE105-.LFB105
 8621 0048 00000000 		.4byte	.LFB106
 8622 004c 58010000 		.4byte	.LFE106-.LFB106
 8623 0050 00000000 		.4byte	.LFB107
 8624 0054 B0000000 		.4byte	.LFE107-.LFB107
 8625 0058 00000000 		.4byte	.LFB108
 8626 005c 02000000 		.4byte	.LFE108-.LFB108
 8627 0060 00000000 		.4byte	.LFB109
 8628 0064 02000000 		.4byte	.LFE109-.LFB109
 8629 0068 00000000 		.4byte	.LFB98
 8630 006c A0050000 		.4byte	.LFE98-.LFB98
 8631 0070 00000000 		.4byte	0
 8632 0074 00000000 		.4byte	0
 8633              		.section	.debug_ranges,"",%progbits
 8634              	.Ldebug_ranges0:
 8635 0000 38000000 		.4byte	.LBB142
 8636 0004 64000000 		.4byte	.LBE142
 8637 0008 68000000 		.4byte	.LBB145
 8638 000c 7C000000 		.4byte	.LBE145
 8639 0010 00000000 		.4byte	0
 8640 0014 00000000 		.4byte	0
 8641 0018 2E000000 		.4byte	.LBB148
 8642 001c 5A000000 		.4byte	.LBE148
 8643 0020 5E000000 		.4byte	.LBB151
 8644 0024 72000000 		.4byte	.LBE151
 8645 0028 00000000 		.4byte	0
 8646 002c 00000000 		.4byte	0
 8647 0030 26000000 		.4byte	.LBB154
 8648 0034 60000000 		.4byte	.LBE154
 8649 0038 E8000000 		.4byte	.LBB178
 8650 003c 18010000 		.4byte	.LBE178
 8651 0040 00000000 		.4byte	0
 8652 0044 00000000 		.4byte	0
 8653 0048 26000000 		.4byte	.LBB156
 8654 004c 2C000000 		.4byte	.LBE156
 8655 0050 F0000000 		.4byte	.LBB168
 8656 0054 00010000 		.4byte	.LBE168
 8657 0058 04010000 		.4byte	.LBB170
 8658 005c 14010000 		.4byte	.LBE170
 8659 0060 00000000 		.4byte	0
 8660 0064 00000000 		.4byte	0
 8661 0068 2C000000 		.4byte	.LBB160
 8662 006c 46000000 		.4byte	.LBE160
 8663 0070 00010000 		.4byte	.LBB169
 8664 0074 04010000 		.4byte	.LBE169
ARM GAS  /tmp/ccvZzf3e.s 			page 153


 8665 0078 14010000 		.4byte	.LBB171
 8666 007c 18010000 		.4byte	.LBE171
 8667 0080 00000000 		.4byte	0
 8668 0084 00000000 		.4byte	0
 8669 0088 46000000 		.4byte	.LBB164
 8670 008c 60000000 		.4byte	.LBE164
 8671 0090 E8000000 		.4byte	.LBB167
 8672 0094 F0000000 		.4byte	.LBE167
 8673 0098 00000000 		.4byte	0
 8674 009c 00000000 		.4byte	0
 8675 00a0 44000000 		.4byte	.LBB183
 8676 00a4 7E000000 		.4byte	.LBE183
 8677 00a8 1A010000 		.4byte	.LBB208
 8678 00ac 3E010000 		.4byte	.LBE208
 8679 00b0 00000000 		.4byte	0
 8680 00b4 00000000 		.4byte	0
 8681 00b8 44000000 		.4byte	.LBB185
 8682 00bc 4A000000 		.4byte	.LBE185
 8683 00c0 22010000 		.4byte	.LBB197
 8684 00c4 2C010000 		.4byte	.LBE197
 8685 00c8 30010000 		.4byte	.LBB199
 8686 00cc 3A010000 		.4byte	.LBE199
 8687 00d0 00000000 		.4byte	0
 8688 00d4 00000000 		.4byte	0
 8689 00d8 4A000000 		.4byte	.LBB189
 8690 00dc 64000000 		.4byte	.LBE189
 8691 00e0 2C010000 		.4byte	.LBB198
 8692 00e4 30010000 		.4byte	.LBE198
 8693 00e8 3A010000 		.4byte	.LBB200
 8694 00ec 3E010000 		.4byte	.LBE200
 8695 00f0 00000000 		.4byte	0
 8696 00f4 00000000 		.4byte	0
 8697 00f8 64000000 		.4byte	.LBB193
 8698 00fc 7E000000 		.4byte	.LBE193
 8699 0100 1A010000 		.4byte	.LBB196
 8700 0104 22010000 		.4byte	.LBE196
 8701 0108 00000000 		.4byte	0
 8702 010c 00000000 		.4byte	0
 8703 0110 D0000000 		.4byte	.LBB204
 8704 0114 FE000000 		.4byte	.LBE204
 8705 0118 02010000 		.4byte	.LBB207
 8706 011c 16010000 		.4byte	.LBE207
 8707 0120 00000000 		.4byte	0
 8708 0124 00000000 		.4byte	0
 8709 0128 4A000000 		.4byte	.LBB213
 8710 012c 54000000 		.4byte	.LBE213
 8711 0130 5C000000 		.4byte	.LBB216
 8712 0134 62000000 		.4byte	.LBE216
 8713 0138 00000000 		.4byte	0
 8714 013c 00000000 		.4byte	0
 8715 0140 42000000 		.4byte	.LBB225
 8716 0144 4C000000 		.4byte	.LBE225
 8717 0148 54000000 		.4byte	.LBB228
 8718 014c 5A000000 		.4byte	.LBE228
 8719 0150 00000000 		.4byte	0
 8720 0154 00000000 		.4byte	0
 8721 0158 9E000000 		.4byte	.LBB231
ARM GAS  /tmp/ccvZzf3e.s 			page 154


 8722 015c AE000000 		.4byte	.LBE231
 8723 0160 B8000000 		.4byte	.LBB236
 8724 0164 BE000000 		.4byte	.LBE236
 8725 0168 0E010000 		.4byte	.LBB239
 8726 016c 14010000 		.4byte	.LBE239
 8727 0170 1A010000 		.4byte	.LBB240
 8728 0174 20010000 		.4byte	.LBE240
 8729 0178 00000000 		.4byte	0
 8730 017c 00000000 		.4byte	0
 8731 0180 78020000 		.4byte	.LBB271
 8732 0184 8E020000 		.4byte	.LBE271
 8733 0188 92020000 		.4byte	.LBB274
 8734 018c 98020000 		.4byte	.LBE274
 8735 0190 00000000 		.4byte	0
 8736 0194 00000000 		.4byte	0
 8737 0198 00000000 		.4byte	.LFB99
 8738 019c 94000000 		.4byte	.LFE99
 8739 01a0 00000000 		.4byte	.LFB101
 8740 01a4 A0000000 		.4byte	.LFE101
 8741 01a8 00000000 		.4byte	.LFB102
 8742 01ac 98000000 		.4byte	.LFE102
 8743 01b0 00000000 		.4byte	.LFB103
 8744 01b4 44010000 		.4byte	.LFE103
 8745 01b8 00000000 		.4byte	.LFB104
 8746 01bc 70010000 		.4byte	.LFE104
 8747 01c0 00000000 		.4byte	.LFB100
 8748 01c4 20000000 		.4byte	.LFE100
 8749 01c8 00000000 		.4byte	.LFB105
 8750 01cc DC000000 		.4byte	.LFE105
 8751 01d0 00000000 		.4byte	.LFB106
 8752 01d4 58010000 		.4byte	.LFE106
 8753 01d8 00000000 		.4byte	.LFB107
 8754 01dc B0000000 		.4byte	.LFE107
 8755 01e0 00000000 		.4byte	.LFB108
 8756 01e4 02000000 		.4byte	.LFE108
 8757 01e8 00000000 		.4byte	.LFB109
 8758 01ec 02000000 		.4byte	.LFE109
 8759 01f0 00000000 		.4byte	.LFB98
 8760 01f4 A0050000 		.4byte	.LFE98
 8761 01f8 00000000 		.4byte	0
 8762 01fc 00000000 		.4byte	0
 8763              		.section	.debug_line,"",%progbits
 8764              	.Ldebug_line0:
 8765 0000 31080000 		.section	.debug_str,"MS",%progbits,1
 8765      02007B03 
 8765      00000201 
 8765      FB0E0D00 
 8765      01010101 
 8766              	.LASF152:
 8767 0000 7573625F 		.ascii	"usb_data_buffer_IN\000"
 8767      64617461 
 8767      5F627566 
 8767      6665725F 
 8767      494E00
 8768              	.LASF71:
 8769 0013 4344435F 		.ascii	"CDC_ClassRequests_t\000"
 8769      436C6173 
ARM GAS  /tmp/ccvZzf3e.s 			page 155


 8769      73526571 
 8769      75657374 
 8769      735F7400 
 8770              	.LASF171:
 8771 0027 5553426C 		.ascii	"USBlib_11U14/Drivers/USB/Class/Device/CDCClassDevic"
 8771      69625F31 
 8771      31553134 
 8771      2F447269 
 8771      76657273 
 8772 005a 652E6300 		.ascii	"e.c\000"
 8773              	.LASF72:
 8774 005e 4344435F 		.ascii	"CDC_REQ_SendEncapsulatedCommand\000"
 8774      5245515F 
 8774      53656E64 
 8774      456E6361 
 8774      7073756C 
 8775              	.LASF114:
 8776 007e 456E6470 		.ascii	"Endpoint_ClearIN\000"
 8776      6F696E74 
 8776      5F436C65 
 8776      6172494E 
 8776      00
 8777              	.LASF19:
 8778 008f 73697A65 		.ascii	"size_t\000"
 8778      5F7400
 8779              	.LASF0:
 8780 0096 7369676E 		.ascii	"signed char\000"
 8780      65642063 
 8780      68617200 
 8781              	.LASF2:
 8782 00a2 5F5F7569 		.ascii	"__uint8_t\000"
 8782      6E74385F 
 8782      7400
 8783              	.LASF69:
 8784 00ac 454E4450 		.ascii	"ENDPOINT_RWSTREAM_Timeout\000"
 8784      4F494E54 
 8784      5F525753 
 8784      54524541 
 8784      4D5F5469 
 8785              	.LASF121:
 8786 00c6 456E6470 		.ascii	"Endpoint_Read_32_LE\000"
 8786      6F696E74 
 8786      5F526561 
 8786      645F3332 
 8786      5F4C4500 
 8787              	.LASF149:
 8788 00da 44757261 		.ascii	"Duration\000"
 8788      74696F6E 
 8788      00
 8789              	.LASF112:
 8790 00e3 456E6470 		.ascii	"Endpoint_SelectEndpoint\000"
 8790      6F696E74 
 8790      5F53656C 
 8790      65637445 
 8790      6E64706F 
 8791              	.LASF12:
 8792 00fb 6C6F6E67 		.ascii	"long long unsigned int\000"
ARM GAS  /tmp/ccvZzf3e.s 			page 156


 8792      206C6F6E 
 8792      6720756E 
 8792      7369676E 
 8792      65642069 
 8793              	.LASF65:
 8794 0112 454E4450 		.ascii	"ENDPOINT_RWSTREAM_NoError\000"
 8794      4F494E54 
 8794      5F525753 
 8794      54524541 
 8794      4D5F4E6F 
 8795              	.LASF23:
 8796 012c 494E464F 		.ascii	"INFO\000"
 8796      00
 8797              	.LASF52:
 8798 0131 44455649 		.ascii	"DEVICE_STATE_Unattached\000"
 8798      43455F53 
 8798      54415445 
 8798      5F556E61 
 8798      74746163 
 8799              	.LASF126:
 8800 0149 456E6470 		.ascii	"EndpointNum\000"
 8800      6F696E74 
 8800      4E756D00 
 8801              	.LASF133:
 8802 0155 53747269 		.ascii	"String\000"
 8802      6E6700
 8803              	.LASF54:
 8804 015c 44455649 		.ascii	"DEVICE_STATE_Default\000"
 8804      43455F53 
 8804      54415445 
 8804      5F446566 
 8804      61756C74 
 8805              	.LASF155:
 8806 0171 7573625F 		.ascii	"usb_data_buffer_OUT_size\000"
 8806      64617461 
 8806      5F627566 
 8806      6665725F 
 8806      4F55545F 
 8807              	.LASF15:
 8808 018a 696E7431 		.ascii	"int16_t\000"
 8808      365F7400 
 8809              	.LASF147:
 8810 0192 4344435F 		.ascii	"CDC_Device_Event_Stub\000"
 8810      44657669 
 8810      63655F45 
 8810      76656E74 
 8810      5F537475 
 8811              	.LASF11:
 8812 01a8 6C6F6E67 		.ascii	"long long int\000"
 8812      206C6F6E 
 8812      6720696E 
 8812      7400
 8813              	.LASF163:
 8814 01b6 5553425F 		.ascii	"USB_ControlRequest\000"
 8814      436F6E74 
 8814      726F6C52 
 8814      65717565 
ARM GAS  /tmp/ccvZzf3e.s 			page 157


 8814      737400
 8815              	.LASF64:
 8816 01c9 456E6470 		.ascii	"Endpoint_Stream_RW_ErrorCodes_t\000"
 8816      6F696E74 
 8816      5F537472 
 8816      65616D5F 
 8816      52575F45 
 8817              	.LASF80:
 8818 01e9 42617564 		.ascii	"BaudRateBPS\000"
 8818      52617465 
 8818      42505300 
 8819              	.LASF107:
 8820 01f5 456E6470 		.ascii	"Endpoint_IsINReady\000"
 8820      6F696E74 
 8820      5F497349 
 8820      4E526561 
 8820      647900
 8821              	.LASF158:
 8822 0208 7573625F 		.ascii	"usb_data_buffer_OUT_index\000"
 8822      64617461 
 8822      5F627566 
 8822      6665725F 
 8822      4F55545F 
 8823              	.LASF74:
 8824 0222 4344435F 		.ascii	"CDC_REQ_SetLineEncoding\000"
 8824      5245515F 
 8824      5365744C 
 8824      696E6545 
 8824      6E636F64 
 8825              	.LASF145:
 8826 023a 4344435F 		.ascii	"CDC_Device_SendControlLineStateChange\000"
 8826      44657669 
 8826      63655F53 
 8826      656E6443 
 8826      6F6E7472 
 8827              	.LASF122:
 8828 0260 74656D31 		.ascii	"tem1\000"
 8828      00
 8829              	.LASF123:
 8830 0265 74656D32 		.ascii	"tem2\000"
 8830      00
 8831              	.LASF124:
 8832 026a 74656D33 		.ascii	"tem3\000"
 8832      00
 8833              	.LASF125:
 8834 026f 74656D34 		.ascii	"tem4\000"
 8834      00
 8835              	.LASF8:
 8836 0274 6C6F6E67 		.ascii	"long int\000"
 8836      20696E74 
 8836      00
 8837              	.LASF118:
 8838 027d 456E6470 		.ascii	"Endpoint_IsSETUPReceived\000"
 8838      6F696E74 
 8838      5F497353 
 8838      45545550 
 8838      52656365 
ARM GAS  /tmp/ccvZzf3e.s 			page 158


 8839              	.LASF63:
 8840 0296 5553425F 		.ascii	"USB_Request_Header_t\000"
 8840      52657175 
 8840      6573745F 
 8840      48656164 
 8840      65725F74 
 8841              	.LASF95:
 8842 02ab 506F7274 		.ascii	"PortNumber\000"
 8842      4E756D62 
 8842      657200
 8843              	.LASF36:
 8844 02b6 42756666 		.ascii	"BufferAddrOffset\000"
 8844      65724164 
 8844      64724F66 
 8844      66736574 
 8844      00
 8845              	.LASF60:
 8846 02c7 7756616C 		.ascii	"wValue\000"
 8846      756500
 8847              	.LASF91:
 8848 02ce 44617461 		.ascii	"DataOUTEndpointDoubleBank\000"
 8848      4F555445 
 8848      6E64706F 
 8848      696E7444 
 8848      6F75626C 
 8849              	.LASF78:
 8850 02e8 4344435F 		.ascii	"CDC_ClassNotifications_t\000"
 8850      436C6173 
 8850      734E6F74 
 8850      69666963 
 8850      6174696F 
 8851              	.LASF51:
 8852 0301 5553425F 		.ascii	"USB_Device_States_t\000"
 8852      44657669 
 8852      63655F53 
 8852      74617465 
 8852      735F7400 
 8853              	.LASF117:
 8854 0315 456E6470 		.ascii	"Endpoint_ClearOUT\000"
 8854      6F696E74 
 8854      5F436C65 
 8854      61724F55 
 8854      5400
 8855              	.LASF153:
 8856 0327 7573625F 		.ascii	"usb_data_buffer_OUT\000"
 8856      64617461 
 8856      5F627566 
 8856      6665725F 
 8856      4F555400 
 8857              	.LASF119:
 8858 033b 456E6470 		.ascii	"Endpoint_ClearSETUP\000"
 8858      6F696E74 
 8858      5F436C65 
 8858      61725345 
 8858      54555000 
 8859              	.LASF86:
 8860 034f 44617461 		.ascii	"DataINEndpointNumber\000"
ARM GAS  /tmp/ccvZzf3e.s 			page 159


 8860      494E456E 
 8860      64706F69 
 8860      6E744E75 
 8860      6D626572 
 8861              	.LASF43:
 8862 0364 41637469 		.ascii	"Active\000"
 8862      766500
 8863              	.LASF105:
 8864 036b 456E6470 		.ascii	"Endpoint_IsOUTReceived\000"
 8864      6F696E74 
 8864      5F49734F 
 8864      55545265 
 8864      63656976 
 8865              	.LASF9:
 8866 0382 5F5F7569 		.ascii	"__uint32_t\000"
 8866      6E743332 
 8866      5F7400
 8867              	.LASF128:
 8868 038d 44697265 		.ascii	"Direction\000"
 8868      6374696F 
 8868      6E00
 8869              	.LASF58:
 8870 0397 626D5265 		.ascii	"bmRequestType\000"
 8870      71756573 
 8870      74547970 
 8870      6500
 8871              	.LASF3:
 8872 03a5 5F5F696E 		.ascii	"__int16_t\000"
 8872      7431365F 
 8872      7400
 8873              	.LASF81:
 8874 03af 43686172 		.ascii	"CharFormat\000"
 8874      466F726D 
 8874      617400
 8875              	.LASF98:
 8876 03ba 44657669 		.ascii	"DeviceToHost\000"
 8876      6365546F 
 8876      486F7374 
 8876      00
 8877              	.LASF131:
 8878 03c7 4344435F 		.ascii	"CDC_Device_SendString\000"
 8878      44657669 
 8878      63655F53 
 8878      656E6453 
 8878      7472696E 
 8879              	.LASF61:
 8880 03dd 77496E64 		.ascii	"wIndex\000"
 8880      657800
 8881              	.LASF154:
 8882 03e4 7573625F 		.ascii	"usb_data_buffer_size\000"
 8882      64617461 
 8882      5F627566 
 8882      6665725F 
 8882      73697A65 
 8883              	.LASF13:
 8884 03f9 756E7369 		.ascii	"unsigned int\000"
 8884      676E6564 
ARM GAS  /tmp/ccvZzf3e.s 			page 160


 8884      20696E74 
 8884      00
 8885              	.LASF16:
 8886 0406 75696E74 		.ascii	"uint16_t\000"
 8886      31365F74 
 8886      00
 8887              	.LASF164:
 8888 040f 5553425F 		.ascii	"USB_DeviceState\000"
 8888      44657669 
 8888      63655374 
 8888      61746500 
 8889              	.LASF142:
 8890 041f 4344435F 		.ascii	"CDC_Device_ReceiveByte\000"
 8890      44657669 
 8890      63655F52 
 8890      65636569 
 8890      76654279 
 8891              	.LASF28:
 8892 0436 45504255 		.ascii	"EPBUFCFG\000"
 8892      46434647 
 8892      00
 8893              	.LASF173:
 8894 043f 456E6470 		.ascii	"Endpoint_WaitUntilReady\000"
 8894      6F696E74 
 8894      5F576169 
 8894      74556E74 
 8894      696C5265 
 8895              	.LASF139:
 8896 0457 4344435F 		.ascii	"CDC_Device_Flush\000"
 8896      44657669 
 8896      63655F46 
 8896      6C757368 
 8896      00
 8897              	.LASF10:
 8898 0468 6C6F6E67 		.ascii	"long unsigned int\000"
 8898      20756E73 
 8898      69676E65 
 8898      6420696E 
 8898      7400
 8899              	.LASF70:
 8900 047a 454E4450 		.ascii	"ENDPOINT_RWSTREAM_IncompleteTransfer\000"
 8900      4F494E54 
 8900      5F525753 
 8900      54524541 
 8900      4D5F496E 
 8901              	.LASF73:
 8902 049f 4344435F 		.ascii	"CDC_REQ_GetEncapsulatedResponse\000"
 8902      5245515F 
 8902      47657445 
 8902      6E636170 
 8902      73756C61 
 8903              	.LASF157:
 8904 04bf 7573625F 		.ascii	"usb_data_buffer_IN_index\000"
 8904      64617461 
 8904      5F627566 
 8904      6665725F 
 8904      494E5F69 
ARM GAS  /tmp/ccvZzf3e.s 			page 161


 8905              	.LASF129:
 8906 04d8 446F7562 		.ascii	"DoubleBanked\000"
 8906      6C654261 
 8906      6E6B6564 
 8906      00
 8907              	.LASF134:
 8908 04e5 4344435F 		.ascii	"CDC_Device_SendData\000"
 8908      44657669 
 8908      63655F53 
 8908      656E6444 
 8908      61746100 
 8909              	.LASF137:
 8910 04f9 4344435F 		.ascii	"CDC_Device_SendByte\000"
 8910      44657669 
 8910      63655F53 
 8910      656E6442 
 8910      79746500 
 8911              	.LASF56:
 8912 050d 44455649 		.ascii	"DEVICE_STATE_Configured\000"
 8912      43455F53 
 8912      54415445 
 8912      5F436F6E 
 8912      66696775 
 8913              	.LASF50:
 8914 0525 456E6470 		.ascii	"Endpoint_WaitUntilReady_ErrorCodes_t\000"
 8914      6F696E74 
 8914      5F576169 
 8914      74556E74 
 8914      696C5265 
 8915              	.LASF138:
 8916 054a 4572726F 		.ascii	"ErrorCode\000"
 8916      72436F64 
 8916      6500
 8917              	.LASF79:
 8918 0554 4344435F 		.ascii	"CDC_NOTIF_SerialState\000"
 8918      4E4F5449 
 8918      465F5365 
 8918      7269616C 
 8918      53746174 
 8919              	.LASF169:
 8920 056a 6D656D63 		.ascii	"memcpy\000"
 8920      707900
 8921              	.LASF165:
 8922 0571 456E6470 		.ascii	"Endpoint_ConfigureEndpoint\000"
 8922      6F696E74 
 8922      5F436F6E 
 8922      66696775 
 8922      7265456E 
 8923              	.LASF170:
 8924 058c 474E5520 		.ascii	"GNU C 4.8.4 20140526 (release) [ARM/embedded-4_8-br"
 8924      4320342E 
 8924      382E3420 
 8924      32303134 
 8924      30353236 
 8925 05bf 616E6368 		.ascii	"anch revision 211358] -mcpu=cortex-m0 -mno-thumb-in"
 8925      20726576 
 8925      6973696F 
ARM GAS  /tmp/ccvZzf3e.s 			page 162


 8925      6E203231 
 8925      31333538 
 8926 05f2 74657277 		.ascii	"terwork -mthumb -ggdb -O1 -fomit-frame-pointer -ffu"
 8926      6F726B20 
 8926      2D6D7468 
 8926      756D6220 
 8926      2D676764 
 8927 0625 6E637469 		.ascii	"nction-sections -fdata-sections -fno-common\000"
 8927      6F6E2D73 
 8927      65637469 
 8927      6F6E7320 
 8927      2D666461 
 8928              	.LASF115:
 8929 0651 456E6470 		.ascii	"Endpoint_IsReadWriteAllowed\000"
 8929      6F696E74 
 8929      5F497352 
 8929      65616457 
 8929      72697465 
 8930              	.LASF22:
 8931 066d 44455643 		.ascii	"DEVCMDSTAT\000"
 8931      4D445354 
 8931      415400
 8932              	.LASF84:
 8933 0678 4344435F 		.ascii	"CDC_LineEncoding_t\000"
 8933      4C696E65 
 8933      456E636F 
 8933      64696E67 
 8933      5F7400
 8934              	.LASF100:
 8935 068b 4C696E65 		.ascii	"LineEncoding\000"
 8935      456E636F 
 8935      64696E67 
 8935      00
 8936              	.LASF94:
 8937 0698 4E6F7469 		.ascii	"NotificationEndpointDoubleBank\000"
 8937      66696361 
 8937      74696F6E 
 8937      456E6470 
 8937      6F696E74 
 8938              	.LASF38:
 8939 06b7 54797065 		.ascii	"Type\000"
 8939      00
 8940              	.LASF159:
 8941 06bc 656E6470 		.ascii	"endpointselected\000"
 8941      6F696E74 
 8941      73656C65 
 8941      63746564 
 8941      00
 8942              	.LASF57:
 8943 06cd 44455649 		.ascii	"DEVICE_STATE_Suspended\000"
 8943      43455F53 
 8943      54415445 
 8943      5F537573 
 8943      70656E64 
 8944              	.LASF85:
 8945 06e4 436F6E74 		.ascii	"ControlInterfaceNumber\000"
 8945      726F6C49 
ARM GAS  /tmp/ccvZzf3e.s 			page 163


 8945      6E746572 
 8945      66616365 
 8945      4E756D62 
 8946              	.LASF24:
 8947 06fb 45504C49 		.ascii	"EPLISTSTART\000"
 8947      53545354 
 8947      41525400 
 8948              	.LASF166:
 8949 0707 7374726C 		.ascii	"strlen\000"
 8949      656E00
 8950              	.LASF87:
 8951 070e 44617461 		.ascii	"DataINEndpointSize\000"
 8951      494E456E 
 8951      64706F69 
 8951      6E745369 
 8951      7A6500
 8952              	.LASF66:
 8953 0721 454E4450 		.ascii	"ENDPOINT_RWSTREAM_EndpointStalled\000"
 8953      4F494E54 
 8953      5F525753 
 8953      54524541 
 8953      4D5F456E 
 8954              	.LASF150:
 8955 0743 4344435F 		.ascii	"CDC_Device_ProcessControlRequest\000"
 8955      44657669 
 8955      63655F50 
 8955      726F6365 
 8955      7373436F 
 8956              	.LASF32:
 8957 0764 494E5452 		.ascii	"INTROUTING\000"
 8957      4F555449 
 8957      4E4700
 8958              	.LASF39:
 8959 076f 52617465 		.ascii	"RateFeedback_Toogle\000"
 8959      46656564 
 8959      6261636B 
 8959      5F546F6F 
 8959      676C6500 
 8960              	.LASF26:
 8961 0783 4550534B 		.ascii	"EPSKIP\000"
 8961      495000
 8962              	.LASF20:
 8963 078a 73697A65 		.ascii	"sizetype\000"
 8963      74797065 
 8963      00
 8964              	.LASF151:
 8965 0793 7573625F 		.ascii	"usb_data_buffer\000"
 8965      64617461 
 8965      5F627566 
 8965      66657200 
 8966              	.LASF89:
 8967 07a3 44617461 		.ascii	"DataOUTEndpointNumber\000"
 8967      4F555445 
 8967      6E64706F 
 8967      696E744E 
 8967      756D6265 
 8968              	.LASF34:
ARM GAS  /tmp/ccvZzf3e.s 			page 164


 8969 07b9 4550544F 		.ascii	"EPTOGGLE\000"
 8969      47474C45 
 8969      00
 8970              	.LASF49:
 8971 07c2 454E4450 		.ascii	"ENDPOINT_READYWAIT_Timeout\000"
 8971      4F494E54 
 8971      5F524541 
 8971      44595741 
 8971      49545F54 
 8972              	.LASF92:
 8973 07dd 4E6F7469 		.ascii	"NotificationEndpointNumber\000"
 8973      66696361 
 8973      74696F6E 
 8973      456E6470 
 8973      6F696E74 
 8974              	.LASF160:
 8975 07f8 656E6470 		.ascii	"endpointhandle0\000"
 8975      6F696E74 
 8975      68616E64 
 8975      6C653000 
 8976              	.LASF161:
 8977 0808 656E6470 		.ascii	"endpointhandle1\000"
 8977      6F696E74 
 8977      68616E64 
 8977      6C653100 
 8978              	.LASF44:
 8979 0818 5553425F 		.ascii	"USB_CMD_STAT\000"
 8979      434D445F 
 8979      53544154 
 8979      00
 8980              	.LASF37:
 8981 0825 4E427974 		.ascii	"NBytes\000"
 8981      657300
 8982              	.LASF55:
 8983 082c 44455649 		.ascii	"DEVICE_STATE_Addressed\000"
 8983      43455F53 
 8983      54415445 
 8983      5F416464 
 8983      72657373 
 8984              	.LASF46:
 8985 0843 454E4450 		.ascii	"ENDPOINT_READYWAIT_EndpointStalled\000"
 8985      4F494E54 
 8985      5F524541 
 8985      44595741 
 8985      49545F45 
 8986              	.LASF6:
 8987 0866 73686F72 		.ascii	"short unsigned int\000"
 8987      7420756E 
 8987      7369676E 
 8987      65642069 
 8987      6E7400
 8988              	.LASF53:
 8989 0879 44455649 		.ascii	"DEVICE_STATE_Powered\000"
 8989      43455F53 
 8989      54415445 
 8989      5F506F77 
 8989      65726564 
ARM GAS  /tmp/ccvZzf3e.s 			page 165


 8990              	.LASF113:
 8991 088e 456E6470 		.ascii	"EndpointNumber\000"
 8991      6F696E74 
 8991      4E756D62 
 8991      657200
 8992              	.LASF111:
 8993 089d 456E6470 		.ascii	"Endpoint_Write_8\000"
 8993      6F696E74 
 8993      5F577269 
 8993      74655F38 
 8993      00
 8994              	.LASF76:
 8995 08ae 4344435F 		.ascii	"CDC_REQ_SetControlLineState\000"
 8995      5245515F 
 8995      53657443 
 8995      6F6E7472 
 8995      6F6C4C69 
 8996              	.LASF88:
 8997 08ca 44617461 		.ascii	"DataINEndpointDoubleBank\000"
 8997      494E456E 
 8997      64706F69 
 8997      6E74446F 
 8997      75626C65 
 8998              	.LASF143:
 8999 08e3 52656365 		.ascii	"ReceivedByte\000"
 8999      69766564 
 8999      42797465 
 8999      00
 9000              	.LASF127:
 9001 08f0 53697A65 		.ascii	"Size\000"
 9001      00
 9002              	.LASF120:
 9003 08f5 456E6470 		.ascii	"Endpoint_Write_32_LE\000"
 9003      6F696E74 
 9003      5F577269 
 9003      74655F33 
 9003      325F4C45 
 9004              	.LASF146:
 9005 090a 4E6F7469 		.ascii	"Notification\000"
 9005      66696361 
 9005      74696F6E 
 9005      00
 9006              	.LASF144:
 9007 0917 4344435F 		.ascii	"CDC_Device_USBTask\000"
 9007      44657669 
 9007      63655F55 
 9007      53425461 
 9007      736B00
 9008              	.LASF109:
 9009 092a 50687945 		.ascii	"PhyEP\000"
 9009      5000
 9010              	.LASF96:
 9011 0930 5F426F6F 		.ascii	"_Bool\000"
 9011      6C00
 9012              	.LASF17:
 9013 0936 696E7433 		.ascii	"int32_t\000"
 9013      325F7400 
ARM GAS  /tmp/ccvZzf3e.s 			page 166


 9014              	.LASF1:
 9015 093e 756E7369 		.ascii	"unsigned char\000"
 9015      676E6564 
 9015      20636861 
 9015      7200
 9016              	.LASF156:
 9017 094c 7573625F 		.ascii	"usb_data_buffer_index\000"
 9017      64617461 
 9017      5F627566 
 9017      6665725F 
 9017      696E6465 
 9018              	.LASF25:
 9019 0962 44415441 		.ascii	"DATABUFSTART\000"
 9019      42554653 
 9019      54415254 
 9019      00
 9020              	.LASF168:
 9021 096f 44636444 		.ascii	"DcdDataTransfer\000"
 9021      61746154 
 9021      72616E73 
 9021      66657200 
 9022              	.LASF35:
 9023 097f 4C50435F 		.ascii	"LPC_USB_Type\000"
 9023      5553425F 
 9023      54797065 
 9023      00
 9024              	.LASF4:
 9025 098c 73686F72 		.ascii	"short int\000"
 9025      7420696E 
 9025      7400
 9026              	.LASF31:
 9027 0996 494E5453 		.ascii	"INTSETSTAT\000"
 9027      45545354 
 9027      415400
 9028              	.LASF59:
 9029 09a1 62526571 		.ascii	"bRequest\000"
 9029      75657374 
 9029      00
 9030              	.LASF77:
 9031 09aa 4344435F 		.ascii	"CDC_REQ_SendBreak\000"
 9031      5245515F 
 9031      53656E64 
 9031      42726561 
 9031      6B00
 9032              	.LASF167:
 9033 09bc 456E6470 		.ascii	"Endpoint_Write_Stream_LE\000"
 9033      6F696E74 
 9033      5F577269 
 9033      74655F53 
 9033      74726561 
 9034              	.LASF33:
 9035 09d5 52455345 		.ascii	"RESERVED0\000"
 9035      52564544 
 9035      3000
 9036              	.LASF93:
 9037 09df 4E6F7469 		.ascii	"NotificationEndpointSize\000"
 9037      66696361 
ARM GAS  /tmp/ccvZzf3e.s 			page 167


 9037      74696F6E 
 9037      456E6470 
 9037      6F696E74 
 9038              	.LASF41:
 9039 09f8 5374616C 		.ascii	"Stall\000"
 9039      6C00
 9040              	.LASF30:
 9041 09fe 494E5445 		.ascii	"INTEN\000"
 9041      4E00
 9042              	.LASF67:
 9043 0a04 454E4450 		.ascii	"ENDPOINT_RWSTREAM_DeviceDisconnected\000"
 9043      4F494E54 
 9043      5F525753 
 9043      54524541 
 9043      4D5F4465 
 9044              	.LASF174:
 9045 0a29 456E6470 		.ascii	"Endpoint_ClearStatusStage\000"
 9045      6F696E74 
 9045      5F436C65 
 9045      61725374 
 9045      61747573 
 9046              	.LASF116:
 9047 0a43 456E6470 		.ascii	"Endpoint_BytesInEndpoint\000"
 9047      6F696E74 
 9047      5F427974 
 9047      6573496E 
 9047      456E6470 
 9048              	.LASF21:
 9049 0a5c 63686172 		.ascii	"char\000"
 9049      00
 9050              	.LASF140:
 9051 0a61 42616E6B 		.ascii	"BankFull\000"
 9051      46756C6C 
 9051      00
 9052              	.LASF130:
 9053 0a6a 4344435F 		.ascii	"CDC_Device_ConfigureEndpoints\000"
 9053      44657669 
 9053      63655F43 
 9053      6F6E6669 
 9053      67757265 
 9054              	.LASF102:
 9055 0a88 53746174 		.ascii	"State\000"
 9055      6500
 9056              	.LASF5:
 9057 0a8e 5F5F7569 		.ascii	"__uint16_t\000"
 9057      6E743136 
 9057      5F7400
 9058              	.LASF108:
 9059 0a99 456E6470 		.ascii	"Endpoint_Read_8\000"
 9059      6F696E74 
 9059      5F526561 
 9059      645F3800 
 9060              	.LASF7:
 9061 0aa9 5F5F696E 		.ascii	"__int32_t\000"
 9061      7433325F 
 9061      7400
 9062              	.LASF47:
ARM GAS  /tmp/ccvZzf3e.s 			page 168


 9063 0ab3 454E4450 		.ascii	"ENDPOINT_READYWAIT_DeviceDisconnected\000"
 9063      4F494E54 
 9063      5F524541 
 9063      44595741 
 9063      49545F44 
 9064              	.LASF42:
 9065 0ad9 44697361 		.ascii	"Disabled\000"
 9065      626C6564 
 9065      00
 9066              	.LASF99:
 9067 0ae2 436F6E74 		.ascii	"ControlLineStates\000"
 9067      726F6C4C 
 9067      696E6553 
 9067      74617465 
 9067      7300
 9068              	.LASF27:
 9069 0af4 4550494E 		.ascii	"EPINUSE\000"
 9069      55534500 
 9070              	.LASF90:
 9071 0afc 44617461 		.ascii	"DataOUTEndpointSize\000"
 9071      4F555445 
 9071      6E64706F 
 9071      696E7453 
 9071      697A6500 
 9072              	.LASF104:
 9073 0b10 456E6470 		.ascii	"Endpoint_GetEndpointDirection\000"
 9073      6F696E74 
 9073      5F476574 
 9073      456E6470 
 9073      6F696E74 
 9074              	.LASF136:
 9075 0b2e 4C656E67 		.ascii	"Length\000"
 9075      746800
 9076              	.LASF172:
 9077 0b35 2F484444 		.ascii	"/HDD/GIT/variometer/Altimeter/\000"
 9077      2F474954 
 9077      2F766172 
 9077      696F6D65 
 9077      7465722F 
 9078              	.LASF162:
 9079 0b54 456E6450 		.ascii	"EndPointCmdStsList\000"
 9079      6F696E74 
 9079      436D6453 
 9079      74734C69 
 9079      737400
 9080              	.LASF101:
 9081 0b67 436F6E66 		.ascii	"Config\000"
 9081      696700
 9082              	.LASF40:
 9083 0b6e 546F6F67 		.ascii	"ToogleReset\000"
 9083      6C655265 
 9083      73657400 
 9084              	.LASF75:
 9085 0b7a 4344435F 		.ascii	"CDC_REQ_GetLineEncoding\000"
 9085      5245515F 
 9085      4765744C 
 9085      696E6545 
ARM GAS  /tmp/ccvZzf3e.s 			page 169


 9085      6E636F64 
 9086              	.LASF18:
 9087 0b92 75696E74 		.ascii	"uint32_t\000"
 9087      33325F74 
 9087      00
 9088              	.LASF135:
 9089 0b9b 42756666 		.ascii	"Buffer\000"
 9089      657200
 9090              	.LASF45:
 9091 0ba2 454E4450 		.ascii	"ENDPOINT_READYWAIT_NoError\000"
 9091      4F494E54 
 9091      5F524541 
 9091      44595741 
 9091      49545F4E 
 9092              	.LASF83:
 9093 0bbd 44617461 		.ascii	"DataBits\000"
 9093      42697473 
 9093      00
 9094              	.LASF68:
 9095 0bc6 454E4450 		.ascii	"ENDPOINT_RWSTREAM_BusSuspended\000"
 9095      4F494E54 
 9095      5F525753 
 9095      54524541 
 9095      4D5F4275 
 9096              	.LASF141:
 9097 0be5 4344435F 		.ascii	"CDC_Device_BytesReceived\000"
 9097      44657669 
 9097      63655F42 
 9097      79746573 
 9097      52656365 
 9098              	.LASF14:
 9099 0bfe 75696E74 		.ascii	"uint8_t\000"
 9099      385F7400 
 9100              	.LASF110:
 9101 0c06 44617461 		.ascii	"Data\000"
 9101      00
 9102              	.LASF62:
 9103 0c0b 774C656E 		.ascii	"wLength\000"
 9103      67746800 
 9104              	.LASF48:
 9105 0c13 454E4450 		.ascii	"ENDPOINT_READYWAIT_BusSuspended\000"
 9105      4F494E54 
 9105      5F524541 
 9105      44595741 
 9105      49545F42 
 9106              	.LASF148:
 9107 0c33 4344435F 		.ascii	"CDC_Device_Event_Stub2\000"
 9107      44657669 
 9107      63655F45 
 9107      76656E74 
 9107      5F537475 
 9108              	.LASF132:
 9109 0c4a 43444349 		.ascii	"CDCInterfaceInfo\000"
 9109      6E746572 
 9109      66616365 
 9109      496E666F 
 9109      00
ARM GAS  /tmp/ccvZzf3e.s 			page 170


 9110              	.LASF82:
 9111 0c5b 50617269 		.ascii	"ParityType\000"
 9111      74795479 
 9111      706500
 9112              	.LASF106:
 9113 0c66 636F7265 		.ascii	"corenum\000"
 9113      6E756D00 
 9114              	.LASF103:
 9115 0c6e 5553425F 		.ascii	"USB_ClassInfo_CDC_Device_t\000"
 9115      436C6173 
 9115      73496E66 
 9115      6F5F4344 
 9115      435F4465 
 9116              	.LASF29:
 9117 0c89 494E5453 		.ascii	"INTSTAT\000"
 9117      54415400 
 9118              	.LASF97:
 9119 0c91 486F7374 		.ascii	"HostToDevice\000"
 9119      546F4465 
 9119      76696365 
 9119      00
 9120              		.ident	"GCC: (GNU Tools for ARM Embedded Processors) 4.8.4 20140526 (release) [ARM/embedded-4_8-br
ARM GAS  /tmp/ccvZzf3e.s 			page 171


DEFINED SYMBOLS
                            *ABS*:00000000 CDCClassDevice.c
     /tmp/ccvZzf3e.s:18     .text.CDC_Device_ConfigureEndpoints:00000000 $t
     /tmp/ccvZzf3e.s:23     .text.CDC_Device_ConfigureEndpoints:00000000 CDC_Device_ConfigureEndpoints
     /tmp/ccvZzf3e.s:169    .text.CDC_Device_SendString:00000000 $t
     /tmp/ccvZzf3e.s:174    .text.CDC_Device_SendString:00000000 CDC_Device_SendString
     /tmp/ccvZzf3e.s:303    .text.CDC_Device_SendString:00000080 $d
     /tmp/ccvZzf3e.s:315    .text.CDC_Device_SendData:00000000 $t
     /tmp/ccvZzf3e.s:320    .text.CDC_Device_SendData:00000000 CDC_Device_SendData
     /tmp/ccvZzf3e.s:443    .text.CDC_Device_SendData:00000078 $d
     /tmp/ccvZzf3e.s:455    .text.CDC_Device_SendByte:00000000 $t
     /tmp/ccvZzf3e.s:460    .text.CDC_Device_SendByte:00000000 CDC_Device_SendByte
     /tmp/ccvZzf3e.s:751    .text.CDC_Device_SendByte:0000011c $d
     /tmp/ccvZzf3e.s:765    .text.CDC_Device_Flush:00000000 $t
     /tmp/ccvZzf3e.s:770    .text.CDC_Device_Flush:00000000 CDC_Device_Flush
     /tmp/ccvZzf3e.s:1102   .text.CDC_Device_Flush:00000140 $d
     /tmp/ccvZzf3e.s:1118   .text.CDC_Device_USBTask:00000000 $t
     /tmp/ccvZzf3e.s:1123   .text.CDC_Device_USBTask:00000000 CDC_Device_USBTask
     /tmp/ccvZzf3e.s:1154   .text.CDC_Device_USBTask:0000001c $d
     /tmp/ccvZzf3e.s:1159   .text.CDC_Device_BytesReceived:00000000 $t
     /tmp/ccvZzf3e.s:1164   .text.CDC_Device_BytesReceived:00000000 CDC_Device_BytesReceived
     /tmp/ccvZzf3e.s:1347   .text.CDC_Device_BytesReceived:000000b8 $d
     /tmp/ccvZzf3e.s:1360   .text.CDC_Device_ReceiveByte:00000000 $t
     /tmp/ccvZzf3e.s:1365   .text.CDC_Device_ReceiveByte:00000000 CDC_Device_ReceiveByte
     /tmp/ccvZzf3e.s:1658   .text.CDC_Device_ReceiveByte:00000128 $d
     /tmp/ccvZzf3e.s:1674   .text.CDC_Device_SendControlLineStateChange:00000000 $t
     /tmp/ccvZzf3e.s:1679   .text.CDC_Device_SendControlLineStateChange:00000000 CDC_Device_SendControlLineStateChange
     /tmp/ccvZzf3e.s:1804   .text.CDC_Device_SendControlLineStateChange:0000008c $d
     /tmp/ccvZzf3e.s:1817   .text.CDC_Device_Event_Stub:00000000 $t
     /tmp/ccvZzf3e.s:1822   .text.CDC_Device_Event_Stub:00000000 CDC_Device_Event_Stub
     /tmp/ccvZzf3e.s:1822   .text.CDC_Device_Event_Stub:00000000 EVENT_CDC_Device_LineEncodingChanged
     /tmp/ccvZzf3e.s:1822   .text.CDC_Device_Event_Stub:00000000 EVENT_CDC_Device_ControLineStateChanged
     /tmp/ccvZzf3e.s:1838   .text.CDC_Device_Event_Stub2:00000000 $t
     /tmp/ccvZzf3e.s:1843   .text.CDC_Device_Event_Stub2:00000000 CDC_Device_Event_Stub2
     /tmp/ccvZzf3e.s:1843   .text.CDC_Device_Event_Stub2:00000000 EVENT_CDC_Device_BreakSent
     /tmp/ccvZzf3e.s:1857   .text.CDC_Device_ProcessControlRequest:00000000 $t
     /tmp/ccvZzf3e.s:1862   .text.CDC_Device_ProcessControlRequest:00000000 CDC_Device_ProcessControlRequest
     /tmp/ccvZzf3e.s:2568   .text.CDC_Device_ProcessControlRequest:00000344 $d
     /tmp/ccvZzf3e.s:2585   .text.CDC_Device_ProcessControlRequest:0000037c $t
     /tmp/ccvZzf3e.s:2994   .text.CDC_Device_ProcessControlRequest:00000570 $d
     /tmp/ccvZzf3e.s:3010   .rodata:00000000 $d
                     .debug_frame:00000010 $d

UNDEFINED SYMBOLS
Endpoint_ConfigureEndpoint
strlen
Endpoint_Write_Stream_LE
DcdDataTransfer
USB_DeviceState
endpointselected
endpointhandle1
endpointhandle0
usb_data_buffer_index
usb_data_buffer
usb_data_buffer_IN_index
usb_data_buffer_IN
Endpoint_WaitUntilReady
ARM GAS  /tmp/ccvZzf3e.s 			page 172


EndPointCmdStsList
usb_data_buffer_size
usb_data_buffer_OUT_size
usb_data_buffer_OUT_index
usb_data_buffer_OUT
memcpy
Endpoint_ClearStatusStage
USB_ControlRequest
