ARM GAS  /tmp/ccRT5fnn.s 			page 1


   1              		.cpu cortex-m0
   2              		.fpu softvfp
   3              		.eabi_attribute 20, 1
   4              		.eabi_attribute 21, 1
   5              		.eabi_attribute 23, 3
   6              		.eabi_attribute 24, 1
   7              		.eabi_attribute 25, 1
   8              		.eabi_attribute 26, 1
   9              		.eabi_attribute 30, 1
  10              		.eabi_attribute 34, 0
  11              		.eabi_attribute 18, 4
  12              		.code	16
  13              		.file	"chdynamic.c"
  14              		.text
  15              	.Ltext0:
  16              		.cfi_sections	.debug_frame
  17              		.section	.text.chThdAddRef,"ax",%progbits
  18              		.align	2
  19              		.global	chThdAddRef
  20              		.code	16
  21              		.thumb_func
  22              		.type	chThdAddRef, %function
  23              	chThdAddRef:
  24              	.LFB7:
  25              		.file 1 "ChibiOS_2.6.5/os/kernel/src/chdynamic.c"
  26              		.loc 1 52 0
  27              		.cfi_startproc
  28              	.LVL0:
  29              		.loc 1 54 0
  30              	@ 54 "ChibiOS_2.6.5/os/kernel/src/chdynamic.c" 1
  31 0000 72B6     		cpsid   i
  32              	@ 0 "" 2
  33              		.loc 1 56 0
  34              		.code	16
  35 0002 837F     		ldrb	r3, [r0, #30]
  36 0004 0133     		add	r3, r3, #1
  37 0006 8377     		strb	r3, [r0, #30]
  38              		.loc 1 57 0
  39              	@ 57 "ChibiOS_2.6.5/os/kernel/src/chdynamic.c" 1
  40 0008 62B6     		cpsie   i
  41              	@ 0 "" 2
  42              		.loc 1 59 0
  43              		.code	16
  44              		@ sp needed
  45 000a 7047     		bx	lr
  46              		.cfi_endproc
  47              	.LFE7:
  48              		.size	chThdAddRef, .-chThdAddRef
  49              		.section	.text.chThdRelease,"ax",%progbits
  50              		.align	2
  51              		.global	chThdRelease
  52              		.code	16
  53              		.thumb_func
  54              		.type	chThdRelease, %function
  55              	chThdRelease:
  56              	.LFB8:
  57              		.loc 1 74 0
ARM GAS  /tmp/ccRT5fnn.s 			page 2


  58              		.cfi_startproc
  59              	.LVL1:
  60 0000 08B5     		push	{r3, lr}
  61              		.cfi_def_cfa_offset 8
  62              		.cfi_offset 3, -8
  63              		.cfi_offset 14, -4
  64 0002 011C     		mov	r1, r0
  65              		.loc 1 77 0
  66              	@ 77 "ChibiOS_2.6.5/os/kernel/src/chdynamic.c" 1
  67 0004 72B6     		cpsid   i
  68              	@ 0 "" 2
  69              		.loc 1 79 0
  70              		.code	16
  71 0006 837F     		ldrb	r3, [r0, #30]
  72 0008 013B     		sub	r3, r3, #1
  73 000a DBB2     		uxtb	r3, r3
  74 000c 8377     		strb	r3, [r0, #30]
  75              	.LVL2:
  76              		.loc 1 80 0
  77              	@ 80 "ChibiOS_2.6.5/os/kernel/src/chdynamic.c" 1
  78 000e 62B6     		cpsie   i
  79              	@ 0 "" 2
  80              		.loc 1 85 0
  81              		.code	16
  82 0010 002B     		cmp	r3, #0
  83 0012 1CD1     		bne	.L2
  84              		.loc 1 85 0 is_stmt 0 discriminator 1
  85 0014 037F     		ldrb	r3, [r0, #28]
  86              	.LVL3:
  87 0016 0E2B     		cmp	r3, #14
  88 0018 19D1     		bne	.L2
  89              		.loc 1 86 0 is_stmt 1
  90 001a 437F     		ldrb	r3, [r0, #29]
  91 001c 0322     		mov	r2, #3
  92 001e 1340     		and	r3, r2
  93 0020 012B     		cmp	r3, #1
  94 0022 02D0     		beq	.L4
  95 0024 022B     		cmp	r3, #2
  96 0026 09D0     		beq	.L5
  97 0028 11E0     		b	.L2
  98              	.L4:
  99              		.loc 1 90 0
 100 002a 4369     		ldr	r3, [r0, #20]
 101 002c 0269     		ldr	r2, [r0, #16]
 102 002e 1A61     		str	r2, [r3, #16]
 103 0030 0369     		ldr	r3, [r0, #16]
 104 0032 4269     		ldr	r2, [r0, #20]
 105 0034 5A61     		str	r2, [r3, #20]
 106              		.loc 1 92 0
 107 0036 FFF7FEFF 		bl	chHeapFree
 108              	.LVL4:
 109              		.loc 1 93 0
 110 003a 08E0     		b	.L2
 111              	.LVL5:
 112              	.L5:
 113              		.loc 1 98 0
 114 003c 4369     		ldr	r3, [r0, #20]
ARM GAS  /tmp/ccRT5fnn.s 			page 3


 115 003e 0269     		ldr	r2, [r0, #16]
 116 0040 1A61     		str	r2, [r3, #16]
 117 0042 0369     		ldr	r3, [r0, #16]
 118 0044 4269     		ldr	r2, [r0, #20]
 119 0046 5A61     		str	r2, [r3, #20]
 120              		.loc 1 100 0
 121 0048 406C     		ldr	r0, [r0, #68]
 122              	.LVL6:
 123 004a FFF7FEFF 		bl	chPoolFree
 124              	.LVL7:
 125              	.L2:
 126              		.loc 1 105 0
 127              		@ sp needed
 128 004e 08BD     		pop	{r3, pc}
 129              		.cfi_endproc
 130              	.LFE8:
 131              		.size	chThdRelease, .-chThdRelease
 132              		.section	.text.chThdCreateFromHeap,"ax",%progbits
 133              		.align	2
 134              		.global	chThdCreateFromHeap
 135              		.code	16
 136              		.thumb_func
 137              		.type	chThdCreateFromHeap, %function
 138              	chThdCreateFromHeap:
 139              	.LFB9:
 140              		.loc 1 131 0
 141              		.cfi_startproc
 142              	.LVL8:
 143 0000 70B5     		push	{r4, r5, r6, lr}
 144              		.cfi_def_cfa_offset 16
 145              		.cfi_offset 4, -16
 146              		.cfi_offset 5, -12
 147              		.cfi_offset 6, -8
 148              		.cfi_offset 14, -4
 149 0002 82B0     		sub	sp, sp, #8
 150              		.cfi_def_cfa_offset 24
 151 0004 0C1C     		mov	r4, r1
 152 0006 161C     		mov	r6, r2
 153 0008 1D1C     		mov	r5, r3
 154              		.loc 1 135 0
 155 000a FFF7FEFF 		bl	chHeapAlloc
 156              	.LVL9:
 157              		.loc 1 136 0
 158 000e 0028     		cmp	r0, #0
 159 0010 10D0     		beq	.L8
 160              		.loc 1 148 0
 161              	@ 148 "ChibiOS_2.6.5/os/kernel/src/chdynamic.c" 1
 162 0012 72B6     		cpsid   i
 163              	@ 0 "" 2
 164              		.loc 1 149 0
 165              		.code	16
 166 0014 069B     		ldr	r3, [sp, #24]
 167 0016 0093     		str	r3, [sp]
 168 0018 211C     		mov	r1, r4
 169 001a 321C     		mov	r2, r6
 170 001c 2B1C     		mov	r3, r5
 171 001e FFF7FEFF 		bl	chThdCreateI
ARM GAS  /tmp/ccRT5fnn.s 			page 4


 172              	.LVL10:
 173 0022 041C     		mov	r4, r0
 174              	.LVL11:
 175              		.loc 1 150 0
 176 0024 0123     		mov	r3, #1
 177 0026 4377     		strb	r3, [r0, #29]
 178              		.loc 1 151 0
 179 0028 0021     		mov	r1, #0
 180 002a FFF7FEFF 		bl	chSchWakeupS
 181              	.LVL12:
 182              		.loc 1 152 0
 183              	@ 152 "ChibiOS_2.6.5/os/kernel/src/chdynamic.c" 1
 184 002e 62B6     		cpsie   i
 185              	@ 0 "" 2
 186              		.loc 1 153 0
 187              		.code	16
 188 0030 201C     		mov	r0, r4
 189 0032 00E0     		b	.L7
 190              	.LVL13:
 191              	.L8:
 192              		.loc 1 137 0
 193 0034 0020     		mov	r0, #0
 194              	.LVL14:
 195              	.L7:
 196              		.loc 1 154 0
 197 0036 02B0     		add	sp, sp, #8
 198              		@ sp needed
 199              	.LVL15:
 200              	.LVL16:
 201 0038 70BD     		pop	{r4, r5, r6, pc}
 202              		.cfi_endproc
 203              	.LFE9:
 204              		.size	chThdCreateFromHeap, .-chThdCreateFromHeap
 205 003a C046     		.section	.text.chThdCreateFromMemoryPool,"ax",%progbits
 206              		.align	2
 207              		.global	chThdCreateFromMemoryPool
 208              		.code	16
 209              		.thumb_func
 210              		.type	chThdCreateFromMemoryPool, %function
 211              	chThdCreateFromMemoryPool:
 212              	.LFB10:
 213              		.loc 1 180 0
 214              		.cfi_startproc
 215              	.LVL17:
 216 0000 F0B5     		push	{r4, r5, r6, r7, lr}
 217              		.cfi_def_cfa_offset 20
 218              		.cfi_offset 4, -20
 219              		.cfi_offset 5, -16
 220              		.cfi_offset 6, -12
 221              		.cfi_offset 7, -8
 222              		.cfi_offset 14, -4
 223 0002 83B0     		sub	sp, sp, #12
 224              		.cfi_def_cfa_offset 32
 225 0004 051C     		mov	r5, r0
 226 0006 0E1C     		mov	r6, r1
 227 0008 141C     		mov	r4, r2
 228 000a 1F1C     		mov	r7, r3
ARM GAS  /tmp/ccRT5fnn.s 			page 5


 229              		.loc 1 186 0
 230 000c FFF7FEFF 		bl	chPoolAlloc
 231              	.LVL18:
 232              		.loc 1 187 0
 233 0010 0028     		cmp	r0, #0
 234 0012 10D0     		beq	.L11
 235              		.loc 1 199 0
 236              	@ 199 "ChibiOS_2.6.5/os/kernel/src/chdynamic.c" 1
 237 0014 72B6     		cpsid   i
 238              	@ 0 "" 2
 239              		.loc 1 200 0
 240              		.code	16
 241 0016 0097     		str	r7, [sp]
 242 0018 6968     		ldr	r1, [r5, #4]
 243 001a 321C     		mov	r2, r6
 244 001c 231C     		mov	r3, r4
 245 001e FFF7FEFF 		bl	chThdCreateI
 246              	.LVL19:
 247 0022 041C     		mov	r4, r0
 248              	.LVL20:
 249              		.loc 1 201 0
 250 0024 0223     		mov	r3, #2
 251 0026 4377     		strb	r3, [r0, #29]
 252              		.loc 1 202 0
 253 0028 4564     		str	r5, [r0, #68]
 254              		.loc 1 203 0
 255 002a 0021     		mov	r1, #0
 256 002c FFF7FEFF 		bl	chSchWakeupS
 257              	.LVL21:
 258              		.loc 1 204 0
 259              	@ 204 "ChibiOS_2.6.5/os/kernel/src/chdynamic.c" 1
 260 0030 62B6     		cpsie   i
 261              	@ 0 "" 2
 262              		.loc 1 205 0
 263              		.code	16
 264 0032 201C     		mov	r0, r4
 265 0034 00E0     		b	.L10
 266              	.LVL22:
 267              	.L11:
 268              		.loc 1 188 0
 269 0036 0020     		mov	r0, #0
 270              	.LVL23:
 271              	.L10:
 272              		.loc 1 206 0
 273 0038 03B0     		add	sp, sp, #12
 274              		@ sp needed
 275              	.LVL24:
 276              	.LVL25:
 277              	.LVL26:
 278 003a F0BD     		pop	{r4, r5, r6, r7, pc}
 279              		.cfi_endproc
 280              	.LFE10:
 281              		.size	chThdCreateFromMemoryPool, .-chThdCreateFromMemoryPool
 282              		.text
 283              	.Letext0:
 284              		.file 2 "/usr/local/lpcxpresso_7.3.0_186/lpcxpresso/tools/lib/gcc/arm-none-eabi/4.8.4/include/stdd
 285              		.file 3 "/usr/local/lpcxpresso_7.3.0_186/lpcxpresso/tools/arm-none-eabi/include/machine/_default_t
ARM GAS  /tmp/ccRT5fnn.s 			page 6


 286              		.file 4 "/usr/local/lpcxpresso_7.3.0_186/lpcxpresso/tools/arm-none-eabi/include/stdint.h"
 287              		.file 5 "ChibiOS_2.6.5/os/ports/GCC/ARMCMx/chtypes.h"
 288              		.file 6 "ChibiOS_2.6.5/os/kernel/include/chlists.h"
 289              		.file 7 "ChibiOS_2.6.5/os/kernel/include/chthreads.h"
 290              		.file 8 "ChibiOS_2.6.5/os/ports/GCC/ARMCMx/chcore_v6m.h"
 291              		.file 9 "ChibiOS_2.6.5/os/kernel/include/chmtx.h"
 292              		.file 10 "ChibiOS_2.6.5/os/kernel/include/chmemcore.h"
 293              		.file 11 "ChibiOS_2.6.5/os/kernel/include/chheap.h"
 294              		.file 12 "ChibiOS_2.6.5/os/kernel/include/chmempools.h"
 295              		.file 13 "ChibiOS_2.6.5/os/kernel/include/chschd.h"