ARM GAS  /tmp/ccMiMWm2.s 			page 1


   1              		.cpu cortex-m0
   2              		.fpu softvfp
   3              		.eabi_attribute 20, 1
   4              		.eabi_attribute 21, 1
   5              		.eabi_attribute 23, 3
   6              		.eabi_attribute 24, 1
   7              		.eabi_attribute 25, 1
   8              		.eabi_attribute 26, 1
   9              		.eabi_attribute 30, 1
  10              		.eabi_attribute 34, 0
  11              		.eabi_attribute 18, 4
  12              		.code	16
  13              		.file	"chevents.c"
  14              		.text
  15              	.Ltext0:
  16              		.cfi_sections	.debug_frame
  17              		.section	.text.chEvtRegisterMask,"ax",%progbits
  18              		.align	2
  19              		.global	chEvtRegisterMask
  20              		.code	16
  21              		.thumb_func
  22              		.type	chEvtRegisterMask, %function
  23              	chEvtRegisterMask:
  24              	.LFB7:
  25              		.file 1 "ChibiOS_2.6.5/os/kernel/src/chevents.c"
  26              		.loc 1 85 0
  27              		.cfi_startproc
  28              	.LVL0:
  29              		.loc 1 89 0
  30              	@ 89 "ChibiOS_2.6.5/os/kernel/src/chevents.c" 1
  31 0000 72B6     		cpsid   i
  32              	@ 0 "" 2
  33              		.loc 1 90 0
  34              		.code	16
  35 0002 0368     		ldr	r3, [r0]
  36 0004 0B60     		str	r3, [r1]
  37              		.loc 1 91 0
  38 0006 0160     		str	r1, [r0]
  39              		.loc 1 92 0
  40 0008 034B     		ldr	r3, .L2
  41 000a 9B69     		ldr	r3, [r3, #24]
  42 000c 4B60     		str	r3, [r1, #4]
  43              		.loc 1 93 0
  44 000e 8A60     		str	r2, [r1, #8]
  45              		.loc 1 94 0
  46 0010 0023     		mov	r3, #0
  47 0012 CB60     		str	r3, [r1, #12]
  48              		.loc 1 95 0
  49              	@ 95 "ChibiOS_2.6.5/os/kernel/src/chevents.c" 1
  50 0014 62B6     		cpsie   i
  51              	@ 0 "" 2
  52              		.loc 1 96 0
  53              		.code	16
  54              		@ sp needed
  55 0016 7047     		bx	lr
  56              	.L3:
  57              		.align	2
ARM GAS  /tmp/ccMiMWm2.s 			page 2


  58              	.L2:
  59 0018 00000000 		.word	rlist
  60              		.cfi_endproc
  61              	.LFE7:
  62              		.size	chEvtRegisterMask, .-chEvtRegisterMask
  63              		.section	.text.chEvtUnregister,"ax",%progbits
  64              		.align	2
  65              		.global	chEvtUnregister
  66              		.code	16
  67              		.thumb_func
  68              		.type	chEvtUnregister, %function
  69              	chEvtUnregister:
  70              	.LFB8:
  71              		.loc 1 111 0
  72              		.cfi_startproc
  73              	.LVL1:
  74              		.loc 1 117 0
  75              	@ 117 "ChibiOS_2.6.5/os/kernel/src/chevents.c" 1
  76 0000 72B6     		cpsid   i
  77              	@ 0 "" 2
  78              		.loc 1 116 0
  79              		.code	16
  80 0002 021C     		mov	r2, r0
  81              		.loc 1 118 0
  82 0004 05E0     		b	.L5
  83              	.LVL2:
  84              	.L8:
  85              		.loc 1 119 0
  86 0006 9942     		cmp	r1, r3
  87 0008 02D1     		bne	.L6
  88              		.loc 1 120 0
  89 000a 0968     		ldr	r1, [r1]
  90              	.LVL3:
  91 000c 1160     		str	r1, [r2]
  92              		.loc 1 121 0
  93 000e 03E0     		b	.L7
  94              	.LVL4:
  95              	.L6:
  96              		.loc 1 123 0
  97 0010 1A1C     		mov	r2, r3
  98              	.LVL5:
  99              	.L5:
 100              		.loc 1 118 0 discriminator 1
 101 0012 1368     		ldr	r3, [r2]
 102 0014 8342     		cmp	r3, r0
 103 0016 F6D1     		bne	.L8
 104              	.LVL6:
 105              	.L7:
 106              		.loc 1 125 0
 107              	@ 125 "ChibiOS_2.6.5/os/kernel/src/chevents.c" 1
 108 0018 62B6     		cpsie   i
 109              	@ 0 "" 2
 110              		.loc 1 126 0
 111              		.code	16
 112              		@ sp needed
 113 001a 7047     		bx	lr
 114              		.cfi_endproc
ARM GAS  /tmp/ccMiMWm2.s 			page 3


 115              	.LFE8:
 116              		.size	chEvtUnregister, .-chEvtUnregister
 117              		.section	.text.chEvtGetAndClearEvents,"ax",%progbits
 118              		.align	2
 119              		.global	chEvtGetAndClearEvents
 120              		.code	16
 121              		.thumb_func
 122              		.type	chEvtGetAndClearEvents, %function
 123              	chEvtGetAndClearEvents:
 124              	.LFB9:
 125              		.loc 1 136 0
 126              		.cfi_startproc
 127              	.LVL7:
 128              		.loc 1 139 0
 129              	@ 139 "ChibiOS_2.6.5/os/kernel/src/chevents.c" 1
 130 0000 72B6     		cpsid   i
 131              	@ 0 "" 2
 132              		.loc 1 141 0
 133              		.code	16
 134 0002 044B     		ldr	r3, .L10
 135 0004 9A69     		ldr	r2, [r3, #24]
 136 0006 936B     		ldr	r3, [r2, #56]
 137              	.LVL8:
 138              		.loc 1 142 0
 139 0008 191C     		mov	r1, r3
 140 000a 8143     		bic	r1, r0
 141 000c 9163     		str	r1, [r2, #56]
 142              		.loc 1 144 0
 143              	@ 144 "ChibiOS_2.6.5/os/kernel/src/chevents.c" 1
 144 000e 62B6     		cpsie   i
 145              	@ 0 "" 2
 146              		.loc 1 141 0
 147              		.code	16
 148 0010 1840     		and	r0, r3
 149              	.LVL9:
 150              		.loc 1 146 0
 151              		@ sp needed
 152 0012 7047     		bx	lr
 153              	.L11:
 154              		.align	2
 155              	.L10:
 156 0014 00000000 		.word	rlist
 157              		.cfi_endproc
 158              	.LFE9:
 159              		.size	chEvtGetAndClearEvents, .-chEvtGetAndClearEvents
 160              		.section	.text.chEvtAddEvents,"ax",%progbits
 161              		.align	2
 162              		.global	chEvtAddEvents
 163              		.code	16
 164              		.thumb_func
 165              		.type	chEvtAddEvents, %function
 166              	chEvtAddEvents:
 167              	.LFB10:
 168              		.loc 1 157 0
 169              		.cfi_startproc
 170              	.LVL10:
 171              		.loc 1 159 0
ARM GAS  /tmp/ccMiMWm2.s 			page 4


 172              	@ 159 "ChibiOS_2.6.5/os/kernel/src/chevents.c" 1
 173 0000 72B6     		cpsid   i
 174              	@ 0 "" 2
 175              		.loc 1 161 0
 176              		.code	16
 177 0002 034B     		ldr	r3, .L13
 178 0004 9B69     		ldr	r3, [r3, #24]
 179 0006 9A6B     		ldr	r2, [r3, #56]
 180 0008 1043     		orr	r0, r2
 181              	.LVL11:
 182 000a 9863     		str	r0, [r3, #56]
 183              	.LVL12:
 184              		.loc 1 163 0
 185              	@ 163 "ChibiOS_2.6.5/os/kernel/src/chevents.c" 1
 186 000c 62B6     		cpsie   i
 187              	@ 0 "" 2
 188              		.loc 1 165 0
 189              		.code	16
 190              		@ sp needed
 191 000e 7047     		bx	lr
 192              	.L14:
 193              		.align	2
 194              	.L13:
 195 0010 00000000 		.word	rlist
 196              		.cfi_endproc
 197              	.LFE10:
 198              		.size	chEvtAddEvents, .-chEvtAddEvents
 199              		.section	.text.chEvtGetAndClearFlags,"ax",%progbits
 200              		.align	2
 201              		.global	chEvtGetAndClearFlags
 202              		.code	16
 203              		.thumb_func
 204              		.type	chEvtGetAndClearFlags, %function
 205              	chEvtGetAndClearFlags:
 206              	.LFB12:
 207              		.loc 1 209 0
 208              		.cfi_startproc
 209              	.LVL13:
 210 0000 031C     		mov	r3, r0
 211              		.loc 1 212 0
 212              	@ 212 "ChibiOS_2.6.5/os/kernel/src/chevents.c" 1
 213 0002 72B6     		cpsid   i
 214              	@ 0 "" 2
 215              		.loc 1 214 0
 216              		.code	16
 217 0004 C068     		ldr	r0, [r0, #12]
 218              	.LVL14:
 219              		.loc 1 215 0
 220 0006 0022     		mov	r2, #0
 221 0008 DA60     		str	r2, [r3, #12]
 222              		.loc 1 217 0
 223              	@ 217 "ChibiOS_2.6.5/os/kernel/src/chevents.c" 1
 224 000a 62B6     		cpsie   i
 225              	@ 0 "" 2
 226              		.loc 1 219 0
 227              		.code	16
 228              		@ sp needed
ARM GAS  /tmp/ccMiMWm2.s 			page 5


 229 000c 7047     		bx	lr
 230              		.cfi_endproc
 231              	.LFE12:
 232              		.size	chEvtGetAndClearFlags, .-chEvtGetAndClearFlags
 233 000e C046     		.section	.text.chEvtSignalI,"ax",%progbits
 234              		.align	2
 235              		.global	chEvtSignalI
 236              		.code	16
 237              		.thumb_func
 238              		.type	chEvtSignalI, %function
 239              	chEvtSignalI:
 240              	.LFB14:
 241              		.loc 1 251 0
 242              		.cfi_startproc
 243              	.LVL15:
 244 0000 08B5     		push	{r3, lr}
 245              		.cfi_def_cfa_offset 8
 246              		.cfi_offset 3, -8
 247              		.cfi_offset 14, -4
 248              		.loc 1 256 0
 249 0002 836B     		ldr	r3, [r0, #56]
 250 0004 1943     		orr	r1, r3
 251              	.LVL16:
 252 0006 8163     		str	r1, [r0, #56]
 253              		.loc 1 258 0
 254 0008 037F     		ldrb	r3, [r0, #28]
 255 000a 082B     		cmp	r3, #8
 256 000c 03D1     		bne	.L17
 257              		.loc 1 258 0 is_stmt 0 discriminator 1
 258 000e 436A     		ldr	r3, [r0, #36]
 259 0010 0B42     		tst	r3, r1
 260 0012 06D1     		bne	.L18
 261 0014 09E0     		b	.L16
 262              	.L17:
 263              		.loc 1 259 0 is_stmt 1
 264 0016 092B     		cmp	r3, #9
 265 0018 07D1     		bne	.L16
 266              		.loc 1 261 0
 267 001a 436A     		ldr	r3, [r0, #36]
 268 001c 1940     		and	r1, r3
 269              		.loc 1 260 0
 270 001e 8B42     		cmp	r3, r1
 271 0020 03D1     		bne	.L16
 272              	.L18:
 273              		.loc 1 262 0
 274 0022 FFF7FEFF 		bl	chSchReadyI
 275              	.LVL17:
 276 0026 0023     		mov	r3, #0
 277 0028 4362     		str	r3, [r0, #36]
 278              	.L16:
 279              		.loc 1 263 0
 280              		@ sp needed
 281 002a 08BD     		pop	{r3, pc}
 282              		.cfi_endproc
 283              	.LFE14:
 284              		.size	chEvtSignalI, .-chEvtSignalI
 285              		.section	.text.chEvtBroadcastFlagsI,"ax",%progbits
ARM GAS  /tmp/ccMiMWm2.s 			page 6


 286              		.align	2
 287              		.global	chEvtBroadcastFlagsI
 288              		.code	16
 289              		.thumb_func
 290              		.type	chEvtBroadcastFlagsI, %function
 291              	chEvtBroadcastFlagsI:
 292              	.LFB11:
 293              		.loc 1 184 0
 294              		.cfi_startproc
 295              	.LVL18:
 296 0000 70B5     		push	{r4, r5, r6, lr}
 297              		.cfi_def_cfa_offset 16
 298              		.cfi_offset 4, -16
 299              		.cfi_offset 5, -12
 300              		.cfi_offset 6, -8
 301              		.cfi_offset 14, -4
 302 0002 051C     		mov	r5, r0
 303 0004 0E1C     		mov	r6, r1
 304              		.loc 1 190 0
 305 0006 0468     		ldr	r4, [r0]
 306              	.LVL19:
 307              		.loc 1 191 0
 308 0008 A042     		cmp	r0, r4
 309 000a 09D0     		beq	.L20
 310              	.LVL20:
 311              	.L22:
 312              		.loc 1 192 0
 313 000c E368     		ldr	r3, [r4, #12]
 314 000e 3343     		orr	r3, r6
 315 0010 E360     		str	r3, [r4, #12]
 316              		.loc 1 193 0
 317 0012 6068     		ldr	r0, [r4, #4]
 318 0014 A168     		ldr	r1, [r4, #8]
 319 0016 FFF7FEFF 		bl	chEvtSignalI
 320              	.LVL21:
 321              		.loc 1 194 0
 322 001a 2468     		ldr	r4, [r4]
 323              	.LVL22:
 324              		.loc 1 191 0
 325 001c A542     		cmp	r5, r4
 326 001e F5D1     		bne	.L22
 327              	.L20:
 328              		.loc 1 196 0
 329              		@ sp needed
 330              	.LVL23:
 331              	.LVL24:
 332              	.LVL25:
 333 0020 70BD     		pop	{r4, r5, r6, pc}
 334              		.cfi_endproc
 335              	.LFE11:
 336              		.size	chEvtBroadcastFlagsI, .-chEvtBroadcastFlagsI
 337 0022 C046     		.section	.text.chEvtSignal,"ax",%progbits
 338              		.align	2
 339              		.global	chEvtSignal
 340              		.code	16
 341              		.thumb_func
 342              		.type	chEvtSignal, %function
ARM GAS  /tmp/ccMiMWm2.s 			page 7


 343              	chEvtSignal:
 344              	.LFB13:
 345              		.loc 1 229 0
 346              		.cfi_startproc
 347              	.LVL26:
 348 0000 08B5     		push	{r3, lr}
 349              		.cfi_def_cfa_offset 8
 350              		.cfi_offset 3, -8
 351              		.cfi_offset 14, -4
 352              		.loc 1 233 0
 353              	@ 233 "ChibiOS_2.6.5/os/kernel/src/chevents.c" 1
 354 0002 72B6     		cpsid   i
 355              	@ 0 "" 2
 356              		.loc 1 234 0
 357              		.code	16
 358 0004 FFF7FEFF 		bl	chEvtSignalI
 359              	.LVL27:
 360              		.loc 1 235 0
 361 0008 FFF7FEFF 		bl	chSchRescheduleS
 362              	.LVL28:
 363              		.loc 1 236 0
 364              	@ 236 "ChibiOS_2.6.5/os/kernel/src/chevents.c" 1
 365 000c 62B6     		cpsie   i
 366              	@ 0 "" 2
 367              		.loc 1 237 0
 368              		.code	16
 369              		@ sp needed
 370 000e 08BD     		pop	{r3, pc}
 371              		.cfi_endproc
 372              	.LFE13:
 373              		.size	chEvtSignal, .-chEvtSignal
 374              		.section	.text.chEvtBroadcastFlags,"ax",%progbits
 375              		.align	2
 376              		.global	chEvtBroadcastFlags
 377              		.code	16
 378              		.thumb_func
 379              		.type	chEvtBroadcastFlags, %function
 380              	chEvtBroadcastFlags:
 381              	.LFB15:
 382              		.loc 1 278 0
 383              		.cfi_startproc
 384              	.LVL29:
 385 0000 08B5     		push	{r3, lr}
 386              		.cfi_def_cfa_offset 8
 387              		.cfi_offset 3, -8
 388              		.cfi_offset 14, -4
 389              		.loc 1 280 0
 390              	@ 280 "ChibiOS_2.6.5/os/kernel/src/chevents.c" 1
 391 0002 72B6     		cpsid   i
 392              	@ 0 "" 2
 393              		.loc 1 281 0
 394              		.code	16
 395 0004 FFF7FEFF 		bl	chEvtBroadcastFlagsI
 396              	.LVL30:
 397              		.loc 1 282 0
 398 0008 FFF7FEFF 		bl	chSchRescheduleS
 399              	.LVL31:
ARM GAS  /tmp/ccMiMWm2.s 			page 8


 400              		.loc 1 283 0
 401              	@ 283 "ChibiOS_2.6.5/os/kernel/src/chevents.c" 1
 402 000c 62B6     		cpsie   i
 403              	@ 0 "" 2
 404              		.loc 1 284 0
 405              		.code	16
 406              		@ sp needed
 407 000e 08BD     		pop	{r3, pc}
 408              		.cfi_endproc
 409              	.LFE15:
 410              		.size	chEvtBroadcastFlags, .-chEvtBroadcastFlags
 411              		.section	.text.chEvtGetAndClearFlagsI,"ax",%progbits
 412              		.align	2
 413              		.global	chEvtGetAndClearFlagsI
 414              		.code	16
 415              		.thumb_func
 416              		.type	chEvtGetAndClearFlagsI, %function
 417              	chEvtGetAndClearFlagsI:
 418              	.LFB16:
 419              		.loc 1 297 0
 420              		.cfi_startproc
 421              	.LVL32:
 422 0000 031C     		mov	r3, r0
 423              		.loc 1 300 0
 424 0002 C068     		ldr	r0, [r0, #12]
 425              	.LVL33:
 426              		.loc 1 301 0
 427 0004 0022     		mov	r2, #0
 428 0006 DA60     		str	r2, [r3, #12]
 429              		.loc 1 304 0
 430              		@ sp needed
 431 0008 7047     		bx	lr
 432              		.cfi_endproc
 433              	.LFE16:
 434              		.size	chEvtGetAndClearFlagsI, .-chEvtGetAndClearFlagsI
 435              		.section	.text.chEvtDispatch,"ax",%progbits
 436              		.align	2
 437              		.global	chEvtDispatch
 438              		.code	16
 439              		.thumb_func
 440              		.type	chEvtDispatch, %function
 441              	chEvtDispatch:
 442              	.LFB17:
 443              		.loc 1 315 0
 444              		.cfi_startproc
 445              	.LVL34:
 446 0000 F8B5     		push	{r3, r4, r5, r6, r7, lr}
 447              		.cfi_def_cfa_offset 24
 448              		.cfi_offset 3, -24
 449              		.cfi_offset 4, -20
 450              		.cfi_offset 5, -16
 451              		.cfi_offset 6, -12
 452              		.cfi_offset 7, -8
 453              		.cfi_offset 14, -4
 454 0002 0D1E     		sub	r5, r1, #0
 455              	.LVL35:
 456              		.loc 1 321 0
ARM GAS  /tmp/ccMiMWm2.s 			page 9


 457 0004 0ED0     		beq	.L26
 458 0006 061C     		mov	r6, r0
 459              		.loc 1 320 0
 460 0008 0024     		mov	r4, #0
 461              		.loc 1 322 0
 462 000a 0127     		mov	r7, #1
 463              	.LVL36:
 464              	.L29:
 465 000c 3B1C     		mov	r3, r7
 466 000e A340     		lsl	r3, r3, r4
 467 0010 1D42     		tst	r5, r3
 468 0012 03D0     		beq	.L28
 469              		.loc 1 326 0
 470 0014 9D43     		bic	r5, r3
 471              	.LVL37:
 472              		.loc 1 327 0
 473 0016 201C     		mov	r0, r4
 474 0018 3368     		ldr	r3, [r6]
 475 001a 9847     		blx	r3
 476              	.LVL38:
 477              	.L28:
 478              		.loc 1 329 0
 479 001c 0134     		add	r4, r4, #1
 480              	.LVL39:
 481 001e 0436     		add	r6, r6, #4
 482              		.loc 1 321 0
 483 0020 002D     		cmp	r5, #0
 484 0022 F3D1     		bne	.L29
 485              	.LVL40:
 486              	.L26:
 487              		.loc 1 331 0
 488              		@ sp needed
 489              	.LVL41:
 490 0024 F8BD     		pop	{r3, r4, r5, r6, r7, pc}
 491              		.cfi_endproc
 492              	.LFE17:
 493              		.size	chEvtDispatch, .-chEvtDispatch
 494 0026 C046     		.section	.text.chEvtWaitOne,"ax",%progbits
 495              		.align	2
 496              		.global	chEvtWaitOne
 497              		.code	16
 498              		.thumb_func
 499              		.type	chEvtWaitOne, %function
 500              	chEvtWaitOne:
 501              	.LFB18:
 502              		.loc 1 350 0
 503              		.cfi_startproc
 504              	.LVL42:
 505 0000 38B5     		push	{r3, r4, r5, lr}
 506              		.cfi_def_cfa_offset 16
 507              		.cfi_offset 3, -16
 508              		.cfi_offset 4, -12
 509              		.cfi_offset 5, -8
 510              		.cfi_offset 14, -4
 511 0002 051C     		mov	r5, r0
 512              		.loc 1 351 0
 513 0004 094B     		ldr	r3, .L32
ARM GAS  /tmp/ccMiMWm2.s 			page 10


 514 0006 9C69     		ldr	r4, [r3, #24]
 515              	.LVL43:
 516              		.loc 1 354 0
 517              	@ 354 "ChibiOS_2.6.5/os/kernel/src/chevents.c" 1
 518 0008 72B6     		cpsid   i
 519              	@ 0 "" 2
 520              		.loc 1 356 0
 521              		.code	16
 522 000a A36B     		ldr	r3, [r4, #56]
 523 000c 0340     		and	r3, r0
 524              	.LVL44:
 525 000e 05D1     		bne	.L31
 526              		.loc 1 357 0
 527 0010 6062     		str	r0, [r4, #36]
 528              		.loc 1 358 0
 529 0012 0820     		mov	r0, #8
 530              	.LVL45:
 531 0014 FFF7FEFF 		bl	chSchGoSleepS
 532              	.LVL46:
 533              		.loc 1 359 0
 534 0018 A36B     		ldr	r3, [r4, #56]
 535 001a 2B40     		and	r3, r5
 536              	.LVL47:
 537              	.L31:
 538              		.loc 1 361 0
 539 001c 5842     		neg	r0, r3
 540 001e 1840     		and	r0, r3
 541              	.LVL48:
 542              		.loc 1 362 0
 543 0020 A36B     		ldr	r3, [r4, #56]
 544 0022 8343     		bic	r3, r0
 545 0024 A363     		str	r3, [r4, #56]
 546              		.loc 1 364 0
 547              	@ 364 "ChibiOS_2.6.5/os/kernel/src/chevents.c" 1
 548 0026 62B6     		cpsie   i
 549              	@ 0 "" 2
 550              		.loc 1 366 0
 551              		.code	16
 552              		@ sp needed
 553              	.LVL49:
 554              	.LVL50:
 555 0028 38BD     		pop	{r3, r4, r5, pc}
 556              	.L33:
 557 002a C046     		.align	2
 558              	.L32:
 559 002c 00000000 		.word	rlist
 560              		.cfi_endproc
 561              	.LFE18:
 562              		.size	chEvtWaitOne, .-chEvtWaitOne
 563              		.section	.text.chEvtWaitAny,"ax",%progbits
 564              		.align	2
 565              		.global	chEvtWaitAny
 566              		.code	16
 567              		.thumb_func
 568              		.type	chEvtWaitAny, %function
 569              	chEvtWaitAny:
 570              	.LFB19:
ARM GAS  /tmp/ccMiMWm2.s 			page 11


 571              		.loc 1 379 0
 572              		.cfi_startproc
 573              	.LVL51:
 574 0000 38B5     		push	{r3, r4, r5, lr}
 575              		.cfi_def_cfa_offset 16
 576              		.cfi_offset 3, -16
 577              		.cfi_offset 4, -12
 578              		.cfi_offset 5, -8
 579              		.cfi_offset 14, -4
 580 0002 051C     		mov	r5, r0
 581              		.loc 1 380 0
 582 0004 084B     		ldr	r3, .L36
 583 0006 9C69     		ldr	r4, [r3, #24]
 584              	.LVL52:
 585              		.loc 1 383 0
 586              	@ 383 "ChibiOS_2.6.5/os/kernel/src/chevents.c" 1
 587 0008 72B6     		cpsid   i
 588              	@ 0 "" 2
 589              		.loc 1 385 0
 590              		.code	16
 591 000a A06B     		ldr	r0, [r4, #56]
 592              	.LVL53:
 593 000c 2840     		and	r0, r5
 594              	.LVL54:
 595 000e 05D1     		bne	.L35
 596              		.loc 1 386 0
 597 0010 6562     		str	r5, [r4, #36]
 598              		.loc 1 387 0
 599 0012 0820     		mov	r0, #8
 600              	.LVL55:
 601 0014 FFF7FEFF 		bl	chSchGoSleepS
 602              	.LVL56:
 603              		.loc 1 388 0
 604 0018 A06B     		ldr	r0, [r4, #56]
 605 001a 2840     		and	r0, r5
 606              	.LVL57:
 607              	.L35:
 608              		.loc 1 390 0
 609 001c A26B     		ldr	r2, [r4, #56]
 610 001e 8243     		bic	r2, r0
 611 0020 A263     		str	r2, [r4, #56]
 612              		.loc 1 392 0
 613              	@ 392 "ChibiOS_2.6.5/os/kernel/src/chevents.c" 1
 614 0022 62B6     		cpsie   i
 615              	@ 0 "" 2
 616              		.loc 1 394 0
 617              		.code	16
 618              		@ sp needed
 619              	.LVL58:
 620              	.LVL59:
 621 0024 38BD     		pop	{r3, r4, r5, pc}
 622              	.L37:
 623 0026 C046     		.align	2
 624              	.L36:
 625 0028 00000000 		.word	rlist
 626              		.cfi_endproc
 627              	.LFE19:
ARM GAS  /tmp/ccMiMWm2.s 			page 12


 628              		.size	chEvtWaitAny, .-chEvtWaitAny
 629              		.section	.text.chEvtWaitAll,"ax",%progbits
 630              		.align	2
 631              		.global	chEvtWaitAll
 632              		.code	16
 633              		.thumb_func
 634              		.type	chEvtWaitAll, %function
 635              	chEvtWaitAll:
 636              	.LFB20:
 637              		.loc 1 407 0
 638              		.cfi_startproc
 639              	.LVL60:
 640 0000 38B5     		push	{r3, r4, r5, lr}
 641              		.cfi_def_cfa_offset 16
 642              		.cfi_offset 3, -16
 643              		.cfi_offset 4, -12
 644              		.cfi_offset 5, -8
 645              		.cfi_offset 14, -4
 646 0002 041C     		mov	r4, r0
 647              		.loc 1 408 0
 648 0004 084B     		ldr	r3, .L40
 649 0006 9D69     		ldr	r5, [r3, #24]
 650              	.LVL61:
 651              		.loc 1 410 0
 652              	@ 410 "ChibiOS_2.6.5/os/kernel/src/chevents.c" 1
 653 0008 72B6     		cpsid   i
 654              	@ 0 "" 2
 655              		.loc 1 412 0
 656              		.code	16
 657 000a AB6B     		ldr	r3, [r5, #56]
 658 000c 0340     		and	r3, r0
 659 000e 8342     		cmp	r3, r0
 660 0010 03D0     		beq	.L39
 661              		.loc 1 413 0
 662 0012 6862     		str	r0, [r5, #36]
 663              		.loc 1 414 0
 664 0014 0920     		mov	r0, #9
 665              	.LVL62:
 666 0016 FFF7FEFF 		bl	chSchGoSleepS
 667              	.LVL63:
 668              	.L39:
 669              		.loc 1 416 0
 670 001a AB6B     		ldr	r3, [r5, #56]
 671 001c A343     		bic	r3, r4
 672 001e AB63     		str	r3, [r5, #56]
 673              		.loc 1 418 0
 674              	@ 418 "ChibiOS_2.6.5/os/kernel/src/chevents.c" 1
 675 0020 62B6     		cpsie   i
 676              	@ 0 "" 2
 677              		.loc 1 420 0
 678              		.code	16
 679 0022 201C     		mov	r0, r4
 680              		@ sp needed
 681              	.LVL64:
 682              	.LVL65:
 683 0024 38BD     		pop	{r3, r4, r5, pc}
 684              	.L41:
ARM GAS  /tmp/ccMiMWm2.s 			page 13


 685 0026 C046     		.align	2
 686              	.L40:
 687 0028 00000000 		.word	rlist
 688              		.cfi_endproc
 689              	.LFE20:
 690              		.size	chEvtWaitAll, .-chEvtWaitAll
 691              		.section	.text.chEvtWaitOneTimeout,"ax",%progbits
 692              		.align	2
 693              		.global	chEvtWaitOneTimeout
 694              		.code	16
 695              		.thumb_func
 696              		.type	chEvtWaitOneTimeout, %function
 697              	chEvtWaitOneTimeout:
 698              	.LFB21:
 699              		.loc 1 446 0
 700              		.cfi_startproc
 701              	.LVL66:
 702 0000 38B5     		push	{r3, r4, r5, lr}
 703              		.cfi_def_cfa_offset 16
 704              		.cfi_offset 3, -16
 705              		.cfi_offset 4, -12
 706              		.cfi_offset 5, -8
 707              		.cfi_offset 14, -4
 708 0002 051C     		mov	r5, r0
 709              		.loc 1 447 0
 710 0004 0E4B     		ldr	r3, .L47
 711 0006 9C69     		ldr	r4, [r3, #24]
 712              	.LVL67:
 713              		.loc 1 450 0
 714              	@ 450 "ChibiOS_2.6.5/os/kernel/src/chevents.c" 1
 715 0008 72B6     		cpsid   i
 716              	@ 0 "" 2
 717              		.loc 1 452 0
 718              		.code	16
 719 000a A36B     		ldr	r3, [r4, #56]
 720 000c 0340     		and	r3, r0
 721              	.LVL68:
 722 000e 0FD1     		bne	.L43
 723              		.loc 1 453 0
 724 0010 0029     		cmp	r1, #0
 725 0012 02D1     		bne	.L44
 726              		.loc 1 454 0
 727              	@ 454 "ChibiOS_2.6.5/os/kernel/src/chevents.c" 1
 728 0014 62B6     		cpsie   i
 729              	@ 0 "" 2
 730              		.loc 1 455 0
 731              		.code	16
 732 0016 0020     		mov	r0, #0
 733              	.LVL69:
 734 0018 11E0     		b	.L45
 735              	.LVL70:
 736              	.L44:
 737              		.loc 1 457 0
 738 001a 6062     		str	r0, [r4, #36]
 739              		.loc 1 458 0
 740 001c 0820     		mov	r0, #8
 741              	.LVL71:
ARM GAS  /tmp/ccMiMWm2.s 			page 14


 742 001e FFF7FEFF 		bl	chSchGoSleepTimeoutS
 743              	.LVL72:
 744 0022 0028     		cmp	r0, #0
 745 0024 02DA     		bge	.L46
 746              		.loc 1 459 0
 747              	@ 459 "ChibiOS_2.6.5/os/kernel/src/chevents.c" 1
 748 0026 62B6     		cpsie   i
 749              	@ 0 "" 2
 750              		.loc 1 460 0
 751              		.code	16
 752 0028 0020     		mov	r0, #0
 753 002a 08E0     		b	.L45
 754              	.L46:
 755              		.loc 1 462 0
 756 002c A36B     		ldr	r3, [r4, #56]
 757 002e 2B40     		and	r3, r5
 758              	.LVL73:
 759              	.L43:
 760              		.loc 1 464 0
 761 0030 5842     		neg	r0, r3
 762 0032 0340     		and	r3, r0
 763              	.LVL74:
 764              		.loc 1 465 0
 765 0034 A26B     		ldr	r2, [r4, #56]
 766 0036 9A43     		bic	r2, r3
 767 0038 A263     		str	r2, [r4, #56]
 768              		.loc 1 467 0
 769              	@ 467 "ChibiOS_2.6.5/os/kernel/src/chevents.c" 1
 770 003a 62B6     		cpsie   i
 771              	@ 0 "" 2
 772              		.loc 1 468 0
 773              		.code	16
 774 003c 181C     		mov	r0, r3
 775              	.LVL75:
 776              	.L45:
 777              		.loc 1 469 0
 778              		@ sp needed
 779              	.LVL76:
 780              	.LVL77:
 781 003e 38BD     		pop	{r3, r4, r5, pc}
 782              	.L48:
 783              		.align	2
 784              	.L47:
 785 0040 00000000 		.word	rlist
 786              		.cfi_endproc
 787              	.LFE21:
 788              		.size	chEvtWaitOneTimeout, .-chEvtWaitOneTimeout
 789              		.section	.text.chEvtWaitAnyTimeout,"ax",%progbits
 790              		.align	2
 791              		.global	chEvtWaitAnyTimeout
 792              		.code	16
 793              		.thumb_func
 794              		.type	chEvtWaitAnyTimeout, %function
 795              	chEvtWaitAnyTimeout:
 796              	.LFB22:
 797              		.loc 1 489 0
 798              		.cfi_startproc
ARM GAS  /tmp/ccMiMWm2.s 			page 15


 799              	.LVL78:
 800 0000 38B5     		push	{r3, r4, r5, lr}
 801              		.cfi_def_cfa_offset 16
 802              		.cfi_offset 3, -16
 803              		.cfi_offset 4, -12
 804              		.cfi_offset 5, -8
 805              		.cfi_offset 14, -4
 806 0002 051C     		mov	r5, r0
 807              		.loc 1 490 0
 808 0004 0D4B     		ldr	r3, .L54
 809 0006 9C69     		ldr	r4, [r3, #24]
 810              	.LVL79:
 811              		.loc 1 493 0
 812              	@ 493 "ChibiOS_2.6.5/os/kernel/src/chevents.c" 1
 813 0008 72B6     		cpsid   i
 814              	@ 0 "" 2
 815              		.loc 1 495 0
 816              		.code	16
 817 000a A36B     		ldr	r3, [r4, #56]
 818 000c 0340     		and	r3, r0
 819              	.LVL80:
 820 000e 0FD1     		bne	.L50
 821              		.loc 1 496 0
 822 0010 0029     		cmp	r1, #0
 823 0012 02D1     		bne	.L51
 824              		.loc 1 497 0
 825              	@ 497 "ChibiOS_2.6.5/os/kernel/src/chevents.c" 1
 826 0014 62B6     		cpsie   i
 827              	@ 0 "" 2
 828              		.loc 1 498 0
 829              		.code	16
 830 0016 0020     		mov	r0, #0
 831              	.LVL81:
 832 0018 0FE0     		b	.L52
 833              	.LVL82:
 834              	.L51:
 835              		.loc 1 500 0
 836 001a 6062     		str	r0, [r4, #36]
 837              		.loc 1 501 0
 838 001c 0820     		mov	r0, #8
 839              	.LVL83:
 840 001e FFF7FEFF 		bl	chSchGoSleepTimeoutS
 841              	.LVL84:
 842 0022 0028     		cmp	r0, #0
 843 0024 02DA     		bge	.L53
 844              		.loc 1 502 0
 845              	@ 502 "ChibiOS_2.6.5/os/kernel/src/chevents.c" 1
 846 0026 62B6     		cpsie   i
 847              	@ 0 "" 2
 848              		.loc 1 503 0
 849              		.code	16
 850 0028 0020     		mov	r0, #0
 851 002a 06E0     		b	.L52
 852              	.L53:
 853              		.loc 1 505 0
 854 002c A36B     		ldr	r3, [r4, #56]
 855 002e 2B40     		and	r3, r5
ARM GAS  /tmp/ccMiMWm2.s 			page 16


 856              	.LVL85:
 857              	.L50:
 858              		.loc 1 507 0
 859 0030 A26B     		ldr	r2, [r4, #56]
 860 0032 9A43     		bic	r2, r3
 861 0034 A263     		str	r2, [r4, #56]
 862              		.loc 1 509 0
 863              	@ 509 "ChibiOS_2.6.5/os/kernel/src/chevents.c" 1
 864 0036 62B6     		cpsie   i
 865              	@ 0 "" 2
 866              		.loc 1 510 0
 867              		.code	16
 868 0038 181C     		mov	r0, r3
 869              	.LVL86:
 870              	.L52:
 871              		.loc 1 511 0
 872              		@ sp needed
 873              	.LVL87:
 874              	.LVL88:
 875 003a 38BD     		pop	{r3, r4, r5, pc}
 876              	.L55:
 877              		.align	2
 878              	.L54:
 879 003c 00000000 		.word	rlist
 880              		.cfi_endproc
 881              	.LFE22:
 882              		.size	chEvtWaitAnyTimeout, .-chEvtWaitAnyTimeout
 883              		.section	.text.chEvtWaitAllTimeout,"ax",%progbits
 884              		.align	2
 885              		.global	chEvtWaitAllTimeout
 886              		.code	16
 887              		.thumb_func
 888              		.type	chEvtWaitAllTimeout, %function
 889              	chEvtWaitAllTimeout:
 890              	.LFB23:
 891              		.loc 1 530 0
 892              		.cfi_startproc
 893              	.LVL89:
 894 0000 38B5     		push	{r3, r4, r5, lr}
 895              		.cfi_def_cfa_offset 16
 896              		.cfi_offset 3, -16
 897              		.cfi_offset 4, -12
 898              		.cfi_offset 5, -8
 899              		.cfi_offset 14, -4
 900 0002 041C     		mov	r4, r0
 901              		.loc 1 531 0
 902 0004 0D4B     		ldr	r3, .L60
 903 0006 9D69     		ldr	r5, [r3, #24]
 904              	.LVL90:
 905              		.loc 1 533 0
 906              	@ 533 "ChibiOS_2.6.5/os/kernel/src/chevents.c" 1
 907 0008 72B6     		cpsid   i
 908              	@ 0 "" 2
 909              		.loc 1 535 0
 910              		.code	16
 911 000a AB6B     		ldr	r3, [r5, #56]
 912 000c 0340     		and	r3, r0
ARM GAS  /tmp/ccMiMWm2.s 			page 17


 913 000e 8342     		cmp	r3, r0
 914 0010 0DD0     		beq	.L57
 915              		.loc 1 536 0
 916 0012 0029     		cmp	r1, #0
 917 0014 02D1     		bne	.L58
 918              		.loc 1 537 0
 919              	@ 537 "ChibiOS_2.6.5/os/kernel/src/chevents.c" 1
 920 0016 62B6     		cpsie   i
 921              	@ 0 "" 2
 922              		.loc 1 538 0
 923              		.code	16
 924 0018 0020     		mov	r0, #0
 925              	.LVL91:
 926 001a 0DE0     		b	.L59
 927              	.LVL92:
 928              	.L58:
 929              		.loc 1 540 0
 930 001c 6862     		str	r0, [r5, #36]
 931              		.loc 1 541 0
 932 001e 0920     		mov	r0, #9
 933              	.LVL93:
 934 0020 FFF7FEFF 		bl	chSchGoSleepTimeoutS
 935              	.LVL94:
 936 0024 0028     		cmp	r0, #0
 937 0026 02DA     		bge	.L57
 938              		.loc 1 542 0
 939              	@ 542 "ChibiOS_2.6.5/os/kernel/src/chevents.c" 1
 940 0028 62B6     		cpsie   i
 941              	@ 0 "" 2
 942              		.loc 1 543 0
 943              		.code	16
 944 002a 0020     		mov	r0, #0
 945 002c 04E0     		b	.L59
 946              	.L57:
 947              		.loc 1 546 0
 948 002e AB6B     		ldr	r3, [r5, #56]
 949 0030 A343     		bic	r3, r4
 950 0032 AB63     		str	r3, [r5, #56]
 951              		.loc 1 548 0
 952              	@ 548 "ChibiOS_2.6.5/os/kernel/src/chevents.c" 1
 953 0034 62B6     		cpsie   i
 954              	@ 0 "" 2
 955              		.loc 1 549 0
 956              		.code	16
 957 0036 201C     		mov	r0, r4
 958              	.L59:
 959              		.loc 1 550 0
 960              		@ sp needed
 961              	.LVL95:
 962              	.LVL96:
 963 0038 38BD     		pop	{r3, r4, r5, pc}
 964              	.L61:
 965 003a C046     		.align	2
 966              	.L60:
 967 003c 00000000 		.word	rlist
 968              		.cfi_endproc
 969              	.LFE23:
ARM GAS  /tmp/ccMiMWm2.s 			page 18


 970              		.size	chEvtWaitAllTimeout, .-chEvtWaitAllTimeout
 971              		.text
 972              	.Letext0:
 973              		.file 2 "/usr/local/lpcxpresso_7.3.0_186/lpcxpresso/tools/arm-none-eabi/include/machine/_default_t
 974              		.file 3 "/usr/local/lpcxpresso_7.3.0_186/lpcxpresso/tools/arm-none-eabi/include/stdint.h"
 975              		.file 4 "ChibiOS_2.6.5/os/ports/GCC/ARMCMx/chtypes.h"
 976              		.file 5 "ChibiOS_2.6.5/os/kernel/include/chlists.h"
 977              		.file 6 "ChibiOS_2.6.5/os/kernel/include/chthreads.h"
 978              		.file 7 "ChibiOS_2.6.5/os/ports/GCC/ARMCMx/chcore_v6m.h"
 979              		.file 8 "ChibiOS_2.6.5/os/kernel/include/chschd.h"
 980              		.file 9 "ChibiOS_2.6.5/os/kernel/include/chmtx.h"
 981              		.file 10 "ChibiOS_2.6.5/os/kernel/include/chevents.h"
 982              		.section	.debug_info,"",%progbits
 983              	.Ldebug_info0:
 984 0000 F8090000 		.4byte	0x9f8
 985 0004 0400     		.2byte	0x4
 986 0006 00000000 		.4byte	.Ldebug_abbrev0
 987 000a 04       		.byte	0x4
 988 000b 01       		.uleb128 0x1
 989 000c EF010000 		.4byte	.LASF99
 990 0010 01       		.byte	0x1
 991 0011 E3040000 		.4byte	.LASF100
 992 0015 73040000 		.4byte	.LASF101
 993 0019 00000000 		.4byte	.Ldebug_ranges0+0
 994 001d 00000000 		.4byte	0
 995 0021 00000000 		.4byte	.Ldebug_line0
 996 0025 02       		.uleb128 0x2
 997 0026 04       		.byte	0x4
 998 0027 05       		.byte	0x5
 999 0028 696E7400 		.ascii	"int\000"
 1000 002c 03       		.uleb128 0x3
 1001 002d 04       		.byte	0x4
 1002 002e 07       		.byte	0x7
 1003 002f 66010000 		.4byte	.LASF0
 1004 0033 03       		.uleb128 0x3
 1005 0034 01       		.byte	0x1
 1006 0035 06       		.byte	0x6
 1007 0036 7B000000 		.4byte	.LASF1
 1008 003a 04       		.uleb128 0x4
 1009 003b 0D000000 		.4byte	.LASF5
 1010 003f 02       		.byte	0x2
 1011 0040 1C       		.byte	0x1c
 1012 0041 45000000 		.4byte	0x45
 1013 0045 03       		.uleb128 0x3
 1014 0046 01       		.byte	0x1
 1015 0047 08       		.byte	0x8
 1016 0048 5E030000 		.4byte	.LASF2
 1017 004c 03       		.uleb128 0x3
 1018 004d 02       		.byte	0x2
 1019 004e 05       		.byte	0x5
 1020 004f 98030000 		.4byte	.LASF3
 1021 0053 03       		.uleb128 0x3
 1022 0054 02       		.byte	0x2
 1023 0055 07       		.byte	0x7
 1024 0056 A4010000 		.4byte	.LASF4
 1025 005a 04       		.uleb128 0x4
 1026 005b 4E040000 		.4byte	.LASF6
ARM GAS  /tmp/ccMiMWm2.s 			page 19


 1027 005f 02       		.byte	0x2
 1028 0060 37       		.byte	0x37
 1029 0061 65000000 		.4byte	0x65
 1030 0065 03       		.uleb128 0x3
 1031 0066 04       		.byte	0x4
 1032 0067 05       		.byte	0x5
 1033 0068 B5000000 		.4byte	.LASF7
 1034 006c 04       		.uleb128 0x4
 1035 006d 17010000 		.4byte	.LASF8
 1036 0071 02       		.byte	0x2
 1037 0072 38       		.byte	0x38
 1038 0073 77000000 		.4byte	0x77
 1039 0077 03       		.uleb128 0x3
 1040 0078 04       		.byte	0x4
 1041 0079 07       		.byte	0x7
 1042 007a 73010000 		.4byte	.LASF9
 1043 007e 03       		.uleb128 0x3
 1044 007f 08       		.byte	0x8
 1045 0080 05       		.byte	0x5
 1046 0081 6D000000 		.4byte	.LASF10
 1047 0085 03       		.uleb128 0x3
 1048 0086 08       		.byte	0x8
 1049 0087 07       		.byte	0x7
 1050 0088 23000000 		.4byte	.LASF11
 1051 008c 04       		.uleb128 0x4
 1052 008d C7040000 		.4byte	.LASF12
 1053 0091 03       		.byte	0x3
 1054 0092 2A       		.byte	0x2a
 1055 0093 3A000000 		.4byte	0x3a
 1056 0097 04       		.uleb128 0x4
 1057 0098 56030000 		.4byte	.LASF13
 1058 009c 03       		.byte	0x3
 1059 009d 41       		.byte	0x41
 1060 009e 5A000000 		.4byte	0x5a
 1061 00a2 04       		.uleb128 0x4
 1062 00a3 10040000 		.4byte	.LASF14
 1063 00a7 03       		.byte	0x3
 1064 00a8 42       		.byte	0x42
 1065 00a9 6C000000 		.4byte	0x6c
 1066 00ad 03       		.uleb128 0x3
 1067 00ae 01       		.byte	0x1
 1068 00af 02       		.byte	0x2
 1069 00b0 50030000 		.4byte	.LASF15
 1070 00b4 04       		.uleb128 0x4
 1071 00b5 E0030000 		.4byte	.LASF16
 1072 00b9 04       		.byte	0x4
 1073 00ba 2C       		.byte	0x2c
 1074 00bb 8C000000 		.4byte	0x8c
 1075 00bf 04       		.uleb128 0x4
 1076 00c0 BE000000 		.4byte	.LASF17
 1077 00c4 04       		.byte	0x4
 1078 00c5 2D       		.byte	0x2d
 1079 00c6 8C000000 		.4byte	0x8c
 1080 00ca 04       		.uleb128 0x4
 1081 00cb 39030000 		.4byte	.LASF18
 1082 00cf 04       		.byte	0x4
 1083 00d0 2E       		.byte	0x2e
ARM GAS  /tmp/ccMiMWm2.s 			page 20


 1084 00d1 8C000000 		.4byte	0x8c
 1085 00d5 04       		.uleb128 0x4
 1086 00d6 AB000000 		.4byte	.LASF19
 1087 00da 04       		.byte	0x4
 1088 00db 2F       		.byte	0x2f
 1089 00dc 8C000000 		.4byte	0x8c
 1090 00e0 04       		.uleb128 0x4
 1091 00e1 48030000 		.4byte	.LASF20
 1092 00e5 04       		.byte	0x4
 1093 00e6 30       		.byte	0x30
 1094 00e7 A2000000 		.4byte	0xa2
 1095 00eb 04       		.uleb128 0x4
 1096 00ec C9010000 		.4byte	.LASF21
 1097 00f0 04       		.byte	0x4
 1098 00f1 31       		.byte	0x31
 1099 00f2 97000000 		.4byte	0x97
 1100 00f6 04       		.uleb128 0x4
 1101 00f7 44010000 		.4byte	.LASF22
 1102 00fb 04       		.byte	0x4
 1103 00fc 32       		.byte	0x32
 1104 00fd 97000000 		.4byte	0x97
 1105 0101 04       		.uleb128 0x4
 1106 0102 C0020000 		.4byte	.LASF23
 1107 0106 04       		.byte	0x4
 1108 0107 33       		.byte	0x33
 1109 0108 A2000000 		.4byte	0xa2
 1110 010c 04       		.uleb128 0x4
 1111 010d A4040000 		.4byte	.LASF24
 1112 0111 04       		.byte	0x4
 1113 0112 34       		.byte	0x34
 1114 0113 A2000000 		.4byte	0xa2
 1115 0117 04       		.uleb128 0x4
 1116 0118 39040000 		.4byte	.LASF25
 1117 011c 04       		.byte	0x4
 1118 011d 35       		.byte	0x35
 1119 011e A2000000 		.4byte	0xa2
 1120 0122 04       		.uleb128 0x4
 1121 0123 F0030000 		.4byte	.LASF26
 1122 0127 05       		.byte	0x5
 1123 0128 2A       		.byte	0x2a
 1124 0129 2D010000 		.4byte	0x12d
 1125 012d 05       		.uleb128 0x5
 1126 012e F0030000 		.4byte	.LASF26
 1127 0132 48       		.byte	0x48
 1128 0133 06       		.byte	0x6
 1129 0134 5E       		.byte	0x5e
 1130 0135 2A020000 		.4byte	0x22a
 1131 0139 06       		.uleb128 0x6
 1132 013a D9030000 		.4byte	.LASF27
 1133 013e 06       		.byte	0x6
 1134 013f 5F       		.byte	0x5f
 1135 0140 4B020000 		.4byte	0x24b
 1136 0144 00       		.byte	0
 1137 0145 06       		.uleb128 0x6
 1138 0146 41030000 		.4byte	.LASF28
 1139 014a 06       		.byte	0x6
 1140 014b 61       		.byte	0x61
ARM GAS  /tmp/ccMiMWm2.s 			page 21


 1141 014c 4B020000 		.4byte	0x24b
 1142 0150 04       		.byte	0x4
 1143 0151 06       		.uleb128 0x6
 1144 0152 66000000 		.4byte	.LASF29
 1145 0156 06       		.byte	0x6
 1146 0157 63       		.byte	0x63
 1147 0158 E0000000 		.4byte	0xe0
 1148 015c 08       		.byte	0x8
 1149 015d 06       		.uleb128 0x6
 1150 015e 3E050000 		.4byte	.LASF30
 1151 0162 06       		.byte	0x6
 1152 0163 64       		.byte	0x64
 1153 0164 FB020000 		.4byte	0x2fb
 1154 0168 0C       		.byte	0xc
 1155 0169 06       		.uleb128 0x6
 1156 016a FE000000 		.4byte	.LASF31
 1157 016e 06       		.byte	0x6
 1158 016f 66       		.byte	0x66
 1159 0170 4B020000 		.4byte	0x24b
 1160 0174 10       		.byte	0x10
 1161 0175 06       		.uleb128 0x6
 1162 0176 E9020000 		.4byte	.LASF32
 1163 017a 06       		.byte	0x6
 1164 017b 67       		.byte	0x67
 1165 017c 4B020000 		.4byte	0x24b
 1166 0180 14       		.byte	0x14
 1167 0181 06       		.uleb128 0x6
 1168 0182 11050000 		.4byte	.LASF33
 1169 0186 06       		.byte	0x6
 1170 0187 6E       		.byte	0x6e
 1171 0188 87040000 		.4byte	0x487
 1172 018c 18       		.byte	0x18
 1173 018d 06       		.uleb128 0x6
 1174 018e A2030000 		.4byte	.LASF34
 1175 0192 06       		.byte	0x6
 1176 0193 79       		.byte	0x79
 1177 0194 BF000000 		.4byte	0xbf
 1178 0198 1C       		.byte	0x1c
 1179 0199 06       		.uleb128 0x6
 1180 019a E8030000 		.4byte	.LASF35
 1181 019e 06       		.byte	0x6
 1182 019f 7D       		.byte	0x7d
 1183 01a0 B4000000 		.4byte	0xb4
 1184 01a4 1D       		.byte	0x1d
 1185 01a5 06       		.uleb128 0x6
 1186 01a6 B0040000 		.4byte	.LASF36
 1187 01aa 06       		.byte	0x6
 1188 01ab 82       		.byte	0x82
 1189 01ac CA000000 		.4byte	0xca
 1190 01b0 1E       		.byte	0x1e
 1191 01b1 06       		.uleb128 0x6
 1192 01b2 AA030000 		.4byte	.LASF37
 1193 01b6 06       		.byte	0x6
 1194 01b7 88       		.byte	0x88
 1195 01b8 D5000000 		.4byte	0xd5
 1196 01bc 1F       		.byte	0x1f
 1197 01bd 06       		.uleb128 0x6
ARM GAS  /tmp/ccMiMWm2.s 			page 22


 1198 01be 58040000 		.4byte	.LASF38
 1199 01c2 06       		.byte	0x6
 1200 01c3 8F       		.byte	0x8f
 1201 01c4 21030000 		.4byte	0x321
 1202 01c8 20       		.byte	0x20
 1203 01c9 07       		.uleb128 0x7
 1204 01ca 705F7500 		.ascii	"p_u\000"
 1205 01ce 06       		.byte	0x6
 1206 01cf B4       		.byte	0xb4
 1207 01d0 52040000 		.4byte	0x452
 1208 01d4 24       		.byte	0x24
 1209 01d5 06       		.uleb128 0x6
 1210 01d6 44050000 		.4byte	.LASF39
 1211 01da 06       		.byte	0x6
 1212 01db B9       		.byte	0xb9
 1213 01dc 71020000 		.4byte	0x271
 1214 01e0 28       		.byte	0x28
 1215 01e1 06       		.uleb128 0x6
 1216 01e2 99040000 		.4byte	.LASF40
 1217 01e6 06       		.byte	0x6
 1218 01e7 BF       		.byte	0xbf
 1219 01e8 51020000 		.4byte	0x251
 1220 01ec 2C       		.byte	0x2c
 1221 01ed 06       		.uleb128 0x6
 1222 01ee 00000000 		.4byte	.LASF41
 1223 01f2 06       		.byte	0x6
 1224 01f3 C3       		.byte	0xc3
 1225 01f4 EB000000 		.4byte	0xeb
 1226 01f8 34       		.byte	0x34
 1227 01f9 06       		.uleb128 0x6
 1228 01fa 05040000 		.4byte	.LASF42
 1229 01fe 06       		.byte	0x6
 1230 01ff C9       		.byte	0xc9
 1231 0200 01010000 		.4byte	0x101
 1232 0204 38       		.byte	0x38
 1233 0205 06       		.uleb128 0x6
 1234 0206 8E030000 		.4byte	.LASF43
 1235 020a 06       		.byte	0x6
 1236 020b D0       		.byte	0xd0
 1237 020c 99040000 		.4byte	0x499
 1238 0210 3C       		.byte	0x3c
 1239 0211 06       		.uleb128 0x6
 1240 0212 43040000 		.4byte	.LASF44
 1241 0216 06       		.byte	0x6
 1242 0217 D4       		.byte	0xd4
 1243 0218 E0000000 		.4byte	0xe0
 1244 021c 40       		.byte	0x40
 1245 021d 06       		.uleb128 0x6
 1246 021e 9B000000 		.4byte	.LASF45
 1247 0222 06       		.byte	0x6
 1248 0223 DA       		.byte	0xda
 1249 0224 87020000 		.4byte	0x287
 1250 0228 44       		.byte	0x44
 1251 0229 00       		.byte	0
 1252 022a 08       		.uleb128 0x8
 1253 022b 08       		.byte	0x8
 1254 022c 05       		.byte	0x5
ARM GAS  /tmp/ccMiMWm2.s 			page 23


 1255 022d 61       		.byte	0x61
 1256 022e 4B020000 		.4byte	0x24b
 1257 0232 06       		.uleb128 0x6
 1258 0233 D9030000 		.4byte	.LASF27
 1259 0237 05       		.byte	0x5
 1260 0238 62       		.byte	0x62
 1261 0239 4B020000 		.4byte	0x24b
 1262 023d 00       		.byte	0
 1263 023e 06       		.uleb128 0x6
 1264 023f 41030000 		.4byte	.LASF28
 1265 0243 05       		.byte	0x5
 1266 0244 64       		.byte	0x64
 1267 0245 4B020000 		.4byte	0x24b
 1268 0249 04       		.byte	0x4
 1269 024a 00       		.byte	0
 1270 024b 09       		.uleb128 0x9
 1271 024c 04       		.byte	0x4
 1272 024d 22010000 		.4byte	0x122
 1273 0251 04       		.uleb128 0x4
 1274 0252 F7020000 		.4byte	.LASF46
 1275 0256 05       		.byte	0x5
 1276 0257 66       		.byte	0x66
 1277 0258 2A020000 		.4byte	0x22a
 1278 025c 08       		.uleb128 0x8
 1279 025d 04       		.byte	0x4
 1280 025e 05       		.byte	0x5
 1281 025f 6B       		.byte	0x6b
 1282 0260 71020000 		.4byte	0x271
 1283 0264 06       		.uleb128 0x6
 1284 0265 D9030000 		.4byte	.LASF27
 1285 0269 05       		.byte	0x5
 1286 026a 6D       		.byte	0x6d
 1287 026b 4B020000 		.4byte	0x24b
 1288 026f 00       		.byte	0
 1289 0270 00       		.byte	0
 1290 0271 04       		.uleb128 0x4
 1291 0272 B4020000 		.4byte	.LASF47
 1292 0276 05       		.byte	0x5
 1293 0277 70       		.byte	0x70
 1294 0278 5C020000 		.4byte	0x25c
 1295 027c 04       		.uleb128 0x4
 1296 027d 27010000 		.4byte	.LASF48
 1297 0281 07       		.byte	0x7
 1298 0282 A7       		.byte	0xa7
 1299 0283 87020000 		.4byte	0x287
 1300 0287 0A       		.uleb128 0xa
 1301 0288 04       		.byte	0x4
 1302 0289 05       		.uleb128 0x5
 1303 028a 92040000 		.4byte	.LASF49
 1304 028e 24       		.byte	0x24
 1305 028f 07       		.byte	0x7
 1306 0290 BA       		.byte	0xba
 1307 0291 FB020000 		.4byte	0x2fb
 1308 0295 07       		.uleb128 0x7
 1309 0296 723800   		.ascii	"r8\000"
 1310 0299 07       		.byte	0x7
 1311 029a BB       		.byte	0xbb
ARM GAS  /tmp/ccMiMWm2.s 			page 24


 1312 029b 7C020000 		.4byte	0x27c
 1313 029f 00       		.byte	0
 1314 02a0 07       		.uleb128 0x7
 1315 02a1 723900   		.ascii	"r9\000"
 1316 02a4 07       		.byte	0x7
 1317 02a5 BC       		.byte	0xbc
 1318 02a6 7C020000 		.4byte	0x27c
 1319 02aa 04       		.byte	0x4
 1320 02ab 07       		.uleb128 0x7
 1321 02ac 72313000 		.ascii	"r10\000"
 1322 02b0 07       		.byte	0x7
 1323 02b1 BD       		.byte	0xbd
 1324 02b2 7C020000 		.4byte	0x27c
 1325 02b6 08       		.byte	0x8
 1326 02b7 07       		.uleb128 0x7
 1327 02b8 72313100 		.ascii	"r11\000"
 1328 02bc 07       		.byte	0x7
 1329 02bd BE       		.byte	0xbe
 1330 02be 7C020000 		.4byte	0x27c
 1331 02c2 0C       		.byte	0xc
 1332 02c3 07       		.uleb128 0x7
 1333 02c4 723400   		.ascii	"r4\000"
 1334 02c7 07       		.byte	0x7
 1335 02c8 BF       		.byte	0xbf
 1336 02c9 7C020000 		.4byte	0x27c
 1337 02cd 10       		.byte	0x10
 1338 02ce 07       		.uleb128 0x7
 1339 02cf 723500   		.ascii	"r5\000"
 1340 02d2 07       		.byte	0x7
 1341 02d3 C0       		.byte	0xc0
 1342 02d4 7C020000 		.4byte	0x27c
 1343 02d8 14       		.byte	0x14
 1344 02d9 07       		.uleb128 0x7
 1345 02da 723600   		.ascii	"r6\000"
 1346 02dd 07       		.byte	0x7
 1347 02de C1       		.byte	0xc1
 1348 02df 7C020000 		.4byte	0x27c
 1349 02e3 18       		.byte	0x18
 1350 02e4 07       		.uleb128 0x7
 1351 02e5 723700   		.ascii	"r7\000"
 1352 02e8 07       		.byte	0x7
 1353 02e9 C2       		.byte	0xc2
 1354 02ea 7C020000 		.4byte	0x27c
 1355 02ee 1C       		.byte	0x1c
 1356 02ef 07       		.uleb128 0x7
 1357 02f0 6C7200   		.ascii	"lr\000"
 1358 02f3 07       		.byte	0x7
 1359 02f4 C3       		.byte	0xc3
 1360 02f5 7C020000 		.4byte	0x27c
 1361 02f9 20       		.byte	0x20
 1362 02fa 00       		.byte	0
 1363 02fb 05       		.uleb128 0x5
 1364 02fc 9C010000 		.4byte	.LASF50
 1365 0300 04       		.byte	0x4
 1366 0301 07       		.byte	0x7
 1367 0302 CD       		.byte	0xcd
 1368 0303 14030000 		.4byte	0x314
ARM GAS  /tmp/ccMiMWm2.s 			page 25


 1369 0307 07       		.uleb128 0x7
 1370 0308 72313300 		.ascii	"r13\000"
 1371 030c 07       		.byte	0x7
 1372 030d CE       		.byte	0xce
 1373 030e 14030000 		.4byte	0x314
 1374 0312 00       		.byte	0
 1375 0313 00       		.byte	0
 1376 0314 09       		.uleb128 0x9
 1377 0315 04       		.byte	0x4
 1378 0316 89020000 		.4byte	0x289
 1379 031a 03       		.uleb128 0x3
 1380 031b 04       		.byte	0x4
 1381 031c 07       		.byte	0x7
 1382 031d D2020000 		.4byte	.LASF51
 1383 0321 0B       		.uleb128 0xb
 1384 0322 17010000 		.4byte	0x117
 1385 0326 08       		.uleb128 0x8
 1386 0327 1C       		.byte	0x1c
 1387 0328 08       		.byte	0x8
 1388 0329 5E       		.byte	0x5e
 1389 032a 77030000 		.4byte	0x377
 1390 032e 06       		.uleb128 0x6
 1391 032f 19040000 		.4byte	.LASF52
 1392 0333 08       		.byte	0x8
 1393 0334 5F       		.byte	0x5f
 1394 0335 51020000 		.4byte	0x251
 1395 0339 00       		.byte	0
 1396 033a 06       		.uleb128 0x6
 1397 033b B4030000 		.4byte	.LASF53
 1398 033f 08       		.byte	0x8
 1399 0340 60       		.byte	0x60
 1400 0341 E0000000 		.4byte	0xe0
 1401 0345 08       		.byte	0x8
 1402 0346 06       		.uleb128 0x6
 1403 0347 F1020000 		.4byte	.LASF54
 1404 034b 08       		.byte	0x8
 1405 034c 62       		.byte	0x62
 1406 034d FB020000 		.4byte	0x2fb
 1407 0351 0C       		.byte	0xc
 1408 0352 06       		.uleb128 0x6
 1409 0353 CF010000 		.4byte	.LASF55
 1410 0357 08       		.byte	0x8
 1411 0358 65       		.byte	0x65
 1412 0359 4B020000 		.4byte	0x24b
 1413 035d 10       		.byte	0x10
 1414 035e 06       		.uleb128 0x6
 1415 035f 20030000 		.4byte	.LASF56
 1416 0363 08       		.byte	0x8
 1417 0364 66       		.byte	0x66
 1418 0365 4B020000 		.4byte	0x24b
 1419 0369 14       		.byte	0x14
 1420 036a 06       		.uleb128 0x6
 1421 036b 16030000 		.4byte	.LASF57
 1422 036f 08       		.byte	0x8
 1423 0370 69       		.byte	0x69
 1424 0371 4B020000 		.4byte	0x24b
 1425 0375 18       		.byte	0x18
ARM GAS  /tmp/ccMiMWm2.s 			page 26


 1426 0376 00       		.byte	0
 1427 0377 04       		.uleb128 0x4
 1428 0378 B7040000 		.4byte	.LASF58
 1429 037c 08       		.byte	0x8
 1430 037d 6B       		.byte	0x6b
 1431 037e 26030000 		.4byte	0x326
 1432 0382 05       		.uleb128 0x5
 1433 0383 CC020000 		.4byte	.LASF59
 1434 0387 10       		.byte	0x10
 1435 0388 09       		.byte	0x9
 1436 0389 2C       		.byte	0x2c
 1437 038a B3030000 		.4byte	0x3b3
 1438 038e 06       		.uleb128 0x6
 1439 038f A3000000 		.4byte	.LASF60
 1440 0393 09       		.byte	0x9
 1441 0394 2D       		.byte	0x2d
 1442 0395 51020000 		.4byte	0x251
 1443 0399 00       		.byte	0
 1444 039a 06       		.uleb128 0x6
 1445 039b 36050000 		.4byte	.LASF61
 1446 039f 09       		.byte	0x9
 1447 03a0 2F       		.byte	0x2f
 1448 03a1 4B020000 		.4byte	0x24b
 1449 03a5 08       		.byte	0x8
 1450 03a6 06       		.uleb128 0x6
 1451 03a7 32040000 		.4byte	.LASF62
 1452 03ab 09       		.byte	0x9
 1453 03ac 31       		.byte	0x31
 1454 03ad B3030000 		.4byte	0x3b3
 1455 03b1 0C       		.byte	0xc
 1456 03b2 00       		.byte	0
 1457 03b3 09       		.uleb128 0x9
 1458 03b4 04       		.byte	0x4
 1459 03b5 82030000 		.4byte	0x382
 1460 03b9 04       		.uleb128 0x4
 1461 03ba CC020000 		.4byte	.LASF59
 1462 03be 09       		.byte	0x9
 1463 03bf 33       		.byte	0x33
 1464 03c0 82030000 		.4byte	0x382
 1465 03c4 04       		.uleb128 0x4
 1466 03c5 D5040000 		.4byte	.LASF63
 1467 03c9 0A       		.byte	0xa
 1468 03ca 2C       		.byte	0x2c
 1469 03cb CF030000 		.4byte	0x3cf
 1470 03cf 05       		.uleb128 0x5
 1471 03d0 D5040000 		.4byte	.LASF63
 1472 03d4 10       		.byte	0x10
 1473 03d5 0A       		.byte	0xa
 1474 03d6 31       		.byte	0x31
 1475 03d7 0C040000 		.4byte	0x40c
 1476 03db 06       		.uleb128 0x6
 1477 03dc D7010000 		.4byte	.LASF64
 1478 03e0 0A       		.byte	0xa
 1479 03e1 32       		.byte	0x32
 1480 03e2 0C040000 		.4byte	0x40c
 1481 03e6 00       		.byte	0
 1482 03e7 06       		.uleb128 0x6
ARM GAS  /tmp/ccMiMWm2.s 			page 27


 1483 03e8 79030000 		.4byte	.LASF65
 1484 03ec 0A       		.byte	0xa
 1485 03ed 35       		.byte	0x35
 1486 03ee 4B020000 		.4byte	0x24b
 1487 03f2 04       		.byte	0x4
 1488 03f3 06       		.uleb128 0x6
 1489 03f4 28030000 		.4byte	.LASF66
 1490 03f8 0A       		.byte	0xa
 1491 03f9 37       		.byte	0x37
 1492 03fa 01010000 		.4byte	0x101
 1493 03fe 08       		.byte	0x8
 1494 03ff 06       		.uleb128 0x6
 1495 0400 85030000 		.4byte	.LASF67
 1496 0404 0A       		.byte	0xa
 1497 0405 3A       		.byte	0x3a
 1498 0406 0C010000 		.4byte	0x10c
 1499 040a 0C       		.byte	0xc
 1500 040b 00       		.byte	0
 1501 040c 09       		.uleb128 0x9
 1502 040d 04       		.byte	0x4
 1503 040e C4030000 		.4byte	0x3c4
 1504 0412 05       		.uleb128 0x5
 1505 0413 4E010000 		.4byte	.LASF68
 1506 0417 04       		.byte	0x4
 1507 0418 0A       		.byte	0xa
 1508 0419 41       		.byte	0x41
 1509 041a 2B040000 		.4byte	0x42b
 1510 041e 06       		.uleb128 0x6
 1511 041f 18050000 		.4byte	.LASF69
 1512 0423 0A       		.byte	0xa
 1513 0424 42       		.byte	0x42
 1514 0425 0C040000 		.4byte	0x40c
 1515 0429 00       		.byte	0
 1516 042a 00       		.byte	0
 1517 042b 04       		.uleb128 0x4
 1518 042c 4E010000 		.4byte	.LASF68
 1519 0430 0A       		.byte	0xa
 1520 0431 45       		.byte	0x45
 1521 0432 12040000 		.4byte	0x412
 1522 0436 04       		.uleb128 0x4
 1523 0437 5A010000 		.4byte	.LASF70
 1524 043b 0A       		.byte	0xa
 1525 043c 4A       		.byte	0x4a
 1526 043d 41040000 		.4byte	0x441
 1527 0441 09       		.uleb128 0x9
 1528 0442 04       		.byte	0x4
 1529 0443 47040000 		.4byte	0x447
 1530 0447 0C       		.uleb128 0xc
 1531 0448 52040000 		.4byte	0x452
 1532 044c 0D       		.uleb128 0xd
 1533 044d F6000000 		.4byte	0xf6
 1534 0451 00       		.byte	0
 1535 0452 0E       		.uleb128 0xe
 1536 0453 04       		.byte	0x4
 1537 0454 06       		.byte	0x6
 1538 0455 96       		.byte	0x96
 1539 0456 87040000 		.4byte	0x487
ARM GAS  /tmp/ccMiMWm2.s 			page 28


 1540 045a 0F       		.uleb128 0xf
 1541 045b 06000000 		.4byte	.LASF71
 1542 045f 06       		.byte	0x6
 1543 0460 9D       		.byte	0x9d
 1544 0461 EB000000 		.4byte	0xeb
 1545 0465 0F       		.uleb128 0xf
 1546 0466 49000000 		.4byte	.LASF72
 1547 046a 06       		.byte	0x6
 1548 046b A4       		.byte	0xa4
 1549 046c EB000000 		.4byte	0xeb
 1550 0470 0F       		.uleb128 0xf
 1551 0471 0A050000 		.4byte	.LASF73
 1552 0475 06       		.byte	0x6
 1553 0476 AB       		.byte	0xab
 1554 0477 87020000 		.4byte	0x287
 1555 047b 0F       		.uleb128 0xf
 1556 047c D2030000 		.4byte	.LASF74
 1557 0480 06       		.byte	0x6
 1558 0481 B2       		.byte	0xb2
 1559 0482 01010000 		.4byte	0x101
 1560 0486 00       		.byte	0
 1561 0487 09       		.uleb128 0x9
 1562 0488 04       		.byte	0x4
 1563 0489 8D040000 		.4byte	0x48d
 1564 048d 10       		.uleb128 0x10
 1565 048e 92040000 		.4byte	0x492
 1566 0492 03       		.uleb128 0x3
 1567 0493 01       		.byte	0x1
 1568 0494 08       		.byte	0x8
 1569 0495 2D040000 		.4byte	.LASF75
 1570 0499 09       		.uleb128 0x9
 1571 049a 04       		.byte	0x4
 1572 049b B9030000 		.4byte	0x3b9
 1573 049f 11       		.uleb128 0x11
 1574 04a0 B7010000 		.4byte	.LASF77
 1575 04a4 01       		.byte	0x1
 1576 04a5 55       		.byte	0x55
 1577 04a6 00000000 		.4byte	.LFB7
 1578 04aa 1C000000 		.4byte	.LFE7-.LFB7
 1579 04ae 01       		.uleb128 0x1
 1580 04af 9C       		.byte	0x9c
 1581 04b0 DC040000 		.4byte	0x4dc
 1582 04b4 12       		.uleb128 0x12
 1583 04b5 65737000 		.ascii	"esp\000"
 1584 04b9 01       		.byte	0x1
 1585 04ba 55       		.byte	0x55
 1586 04bb DC040000 		.4byte	0x4dc
 1587 04bf 01       		.uleb128 0x1
 1588 04c0 50       		.byte	0x50
 1589 04c1 12       		.uleb128 0x12
 1590 04c2 656C7000 		.ascii	"elp\000"
 1591 04c6 01       		.byte	0x1
 1592 04c7 55       		.byte	0x55
 1593 04c8 0C040000 		.4byte	0x40c
 1594 04cc 01       		.uleb128 0x1
 1595 04cd 51       		.byte	0x51
 1596 04ce 13       		.uleb128 0x13
ARM GAS  /tmp/ccMiMWm2.s 			page 29


 1597 04cf 22010000 		.4byte	.LASF76
 1598 04d3 01       		.byte	0x1
 1599 04d4 55       		.byte	0x55
 1600 04d5 01010000 		.4byte	0x101
 1601 04d9 01       		.uleb128 0x1
 1602 04da 52       		.byte	0x52
 1603 04db 00       		.byte	0
 1604 04dc 09       		.uleb128 0x9
 1605 04dd 04       		.byte	0x4
 1606 04de 2B040000 		.4byte	0x42b
 1607 04e2 11       		.uleb128 0x11
 1608 04e3 DF010000 		.4byte	.LASF78
 1609 04e7 01       		.byte	0x1
 1610 04e8 6F       		.byte	0x6f
 1611 04e9 00000000 		.4byte	.LFB8
 1612 04ed 1C000000 		.4byte	.LFE8-.LFB8
 1613 04f1 01       		.uleb128 0x1
 1614 04f2 9C       		.byte	0x9c
 1615 04f3 21050000 		.4byte	0x521
 1616 04f7 12       		.uleb128 0x12
 1617 04f8 65737000 		.ascii	"esp\000"
 1618 04fc 01       		.byte	0x1
 1619 04fd 6F       		.byte	0x6f
 1620 04fe DC040000 		.4byte	0x4dc
 1621 0502 01       		.uleb128 0x1
 1622 0503 50       		.byte	0x50
 1623 0504 14       		.uleb128 0x14
 1624 0505 656C7000 		.ascii	"elp\000"
 1625 0509 01       		.byte	0x1
 1626 050a 6F       		.byte	0x6f
 1627 050b 0C040000 		.4byte	0x40c
 1628 050f 00000000 		.4byte	.LLST0
 1629 0513 15       		.uleb128 0x15
 1630 0514 7000     		.ascii	"p\000"
 1631 0516 01       		.byte	0x1
 1632 0517 70       		.byte	0x70
 1633 0518 0C040000 		.4byte	0x40c
 1634 051c 3A000000 		.4byte	.LLST1
 1635 0520 00       		.byte	0
 1636 0521 16       		.uleb128 0x16
 1637 0522 85010000 		.4byte	.LASF79
 1638 0526 01       		.byte	0x1
 1639 0527 88       		.byte	0x88
 1640 0528 01010000 		.4byte	0x101
 1641 052c 00000000 		.4byte	.LFB9
 1642 0530 18000000 		.4byte	.LFE9-.LFB9
 1643 0534 01       		.uleb128 0x1
 1644 0535 9C       		.byte	0x9c
 1645 0536 57050000 		.4byte	0x557
 1646 053a 17       		.uleb128 0x17
 1647 053b 22010000 		.4byte	.LASF76
 1648 053f 01       		.byte	0x1
 1649 0540 88       		.byte	0x88
 1650 0541 01010000 		.4byte	0x101
 1651 0545 58000000 		.4byte	.LLST2
 1652 0549 15       		.uleb128 0x15
 1653 054a 6D00     		.ascii	"m\000"
ARM GAS  /tmp/ccMiMWm2.s 			page 30


 1654 054c 01       		.byte	0x1
 1655 054d 89       		.byte	0x89
 1656 054e 01010000 		.4byte	0x101
 1657 0552 79000000 		.4byte	.LLST3
 1658 0556 00       		.byte	0
 1659 0557 16       		.uleb128 0x16
 1660 0558 3A000000 		.4byte	.LASF80
 1661 055c 01       		.byte	0x1
 1662 055d 9D       		.byte	0x9d
 1663 055e 01010000 		.4byte	0x101
 1664 0562 00000000 		.4byte	.LFB10
 1665 0566 14000000 		.4byte	.LFE10-.LFB10
 1666 056a 01       		.uleb128 0x1
 1667 056b 9C       		.byte	0x9c
 1668 056c 80050000 		.4byte	0x580
 1669 0570 17       		.uleb128 0x17
 1670 0571 22010000 		.4byte	.LASF76
 1671 0575 01       		.byte	0x1
 1672 0576 9D       		.byte	0x9d
 1673 0577 01010000 		.4byte	0x101
 1674 057b 9C000000 		.4byte	.LLST4
 1675 057f 00       		.byte	0
 1676 0580 16       		.uleb128 0x16
 1677 0581 20050000 		.4byte	.LASF81
 1678 0585 01       		.byte	0x1
 1679 0586 D1       		.byte	0xd1
 1680 0587 0C010000 		.4byte	0x10c
 1681 058b 00000000 		.4byte	.LFB12
 1682 058f 0E000000 		.4byte	.LFE12-.LFB12
 1683 0593 01       		.uleb128 0x1
 1684 0594 9C       		.byte	0x9c
 1685 0595 B6050000 		.4byte	0x5b6
 1686 0599 14       		.uleb128 0x14
 1687 059a 656C7000 		.ascii	"elp\000"
 1688 059e 01       		.byte	0x1
 1689 059f D1       		.byte	0xd1
 1690 05a0 0C040000 		.4byte	0x40c
 1691 05a4 C8000000 		.4byte	.LLST5
 1692 05a8 18       		.uleb128 0x18
 1693 05a9 CF040000 		.4byte	.LASF82
 1694 05ad 01       		.byte	0x1
 1695 05ae D2       		.byte	0xd2
 1696 05af 0C010000 		.4byte	0x10c
 1697 05b3 01       		.uleb128 0x1
 1698 05b4 50       		.byte	0x50
 1699 05b5 00       		.byte	0
 1700 05b6 11       		.uleb128 0x11
 1701 05b7 4E050000 		.4byte	.LASF83
 1702 05bb 01       		.byte	0x1
 1703 05bc FB       		.byte	0xfb
 1704 05bd 00000000 		.4byte	.LFB14
 1705 05c1 2C000000 		.4byte	.LFE14-.LFB14
 1706 05c5 01       		.uleb128 0x1
 1707 05c6 9C       		.byte	0x9c
 1708 05c7 F2050000 		.4byte	0x5f2
 1709 05cb 14       		.uleb128 0x14
 1710 05cc 747000   		.ascii	"tp\000"
ARM GAS  /tmp/ccMiMWm2.s 			page 31


 1711 05cf 01       		.byte	0x1
 1712 05d0 FB       		.byte	0xfb
 1713 05d1 4B020000 		.4byte	0x24b
 1714 05d5 E6000000 		.4byte	.LLST6
 1715 05d9 17       		.uleb128 0x17
 1716 05da 22010000 		.4byte	.LASF76
 1717 05de 01       		.byte	0x1
 1718 05df FB       		.byte	0xfb
 1719 05e0 01010000 		.4byte	0x101
 1720 05e4 07010000 		.4byte	.LLST7
 1721 05e8 19       		.uleb128 0x19
 1722 05e9 26000000 		.4byte	.LVL17
 1723 05ed B8090000 		.4byte	0x9b8
 1724 05f1 00       		.byte	0
 1725 05f2 11       		.uleb128 0x11
 1726 05f3 E9000000 		.4byte	.LASF84
 1727 05f7 01       		.byte	0x1
 1728 05f8 B8       		.byte	0xb8
 1729 05f9 00000000 		.4byte	.LFB11
 1730 05fd 22000000 		.4byte	.LFE11-.LFB11
 1731 0601 01       		.uleb128 0x1
 1732 0602 9C       		.byte	0x9c
 1733 0603 3E060000 		.4byte	0x63e
 1734 0607 14       		.uleb128 0x14
 1735 0608 65737000 		.ascii	"esp\000"
 1736 060c 01       		.byte	0x1
 1737 060d B8       		.byte	0xb8
 1738 060e DC040000 		.4byte	0x4dc
 1739 0612 28010000 		.4byte	.LLST8
 1740 0616 17       		.uleb128 0x17
 1741 0617 CF040000 		.4byte	.LASF82
 1742 061b 01       		.byte	0x1
 1743 061c B8       		.byte	0xb8
 1744 061d 0C010000 		.4byte	0x10c
 1745 0621 54010000 		.4byte	.LLST9
 1746 0625 15       		.uleb128 0x15
 1747 0626 656C7000 		.ascii	"elp\000"
 1748 062a 01       		.byte	0x1
 1749 062b B9       		.byte	0xb9
 1750 062c 0C040000 		.4byte	0x40c
 1751 0630 80010000 		.4byte	.LLST10
 1752 0634 19       		.uleb128 0x19
 1753 0635 1A000000 		.4byte	.LVL21
 1754 0639 B6050000 		.4byte	0x5b6
 1755 063d 00       		.byte	0
 1756 063e 11       		.uleb128 0x11
 1757 063f 17000000 		.4byte	.LASF85
 1758 0643 01       		.byte	0x1
 1759 0644 E5       		.byte	0xe5
 1760 0645 00000000 		.4byte	.LFB13
 1761 0649 10000000 		.4byte	.LFE13-.LFB13
 1762 064d 01       		.uleb128 0x1
 1763 064e 9C       		.byte	0x9c
 1764 064f 96060000 		.4byte	0x696
 1765 0653 14       		.uleb128 0x14
 1766 0654 747000   		.ascii	"tp\000"
 1767 0657 01       		.byte	0x1
ARM GAS  /tmp/ccMiMWm2.s 			page 32


 1768 0658 E5       		.byte	0xe5
 1769 0659 4B020000 		.4byte	0x24b
 1770 065d 93010000 		.4byte	.LLST11
 1771 0661 17       		.uleb128 0x17
 1772 0662 22010000 		.4byte	.LASF76
 1773 0666 01       		.byte	0x1
 1774 0667 E5       		.byte	0xe5
 1775 0668 01010000 		.4byte	0x101
 1776 066c B4010000 		.4byte	.LLST12
 1777 0670 1A       		.uleb128 0x1a
 1778 0671 08000000 		.4byte	.LVL27
 1779 0675 B6050000 		.4byte	0x5b6
 1780 0679 8C060000 		.4byte	0x68c
 1781 067d 1B       		.uleb128 0x1b
 1782 067e 01       		.uleb128 0x1
 1783 067f 51       		.byte	0x51
 1784 0680 03       		.uleb128 0x3
 1785 0681 F3       		.byte	0xf3
 1786 0682 01       		.uleb128 0x1
 1787 0683 51       		.byte	0x51
 1788 0684 1B       		.uleb128 0x1b
 1789 0685 01       		.uleb128 0x1
 1790 0686 50       		.byte	0x50
 1791 0687 03       		.uleb128 0x3
 1792 0688 F3       		.byte	0xf3
 1793 0689 01       		.uleb128 0x1
 1794 068a 50       		.byte	0x50
 1795 068b 00       		.byte	0
 1796 068c 19       		.uleb128 0x19
 1797 068d 0C000000 		.4byte	.LVL28
 1798 0691 CD090000 		.4byte	0x9cd
 1799 0695 00       		.byte	0
 1800 0696 1C       		.uleb128 0x1c
 1801 0697 30010000 		.4byte	.LASF86
 1802 069b 01       		.byte	0x1
 1803 069c 1601     		.2byte	0x116
 1804 069e 00000000 		.4byte	.LFB15
 1805 06a2 10000000 		.4byte	.LFE15-.LFB15
 1806 06a6 01       		.uleb128 0x1
 1807 06a7 9C       		.byte	0x9c
 1808 06a8 F2060000 		.4byte	0x6f2
 1809 06ac 1D       		.uleb128 0x1d
 1810 06ad 65737000 		.ascii	"esp\000"
 1811 06b1 01       		.byte	0x1
 1812 06b2 1601     		.2byte	0x116
 1813 06b4 DC040000 		.4byte	0x4dc
 1814 06b8 D5010000 		.4byte	.LLST13
 1815 06bc 1E       		.uleb128 0x1e
 1816 06bd CF040000 		.4byte	.LASF82
 1817 06c1 01       		.byte	0x1
 1818 06c2 1601     		.2byte	0x116
 1819 06c4 0C010000 		.4byte	0x10c
 1820 06c8 F6010000 		.4byte	.LLST14
 1821 06cc 1A       		.uleb128 0x1a
 1822 06cd 08000000 		.4byte	.LVL30
 1823 06d1 F2050000 		.4byte	0x5f2
 1824 06d5 E8060000 		.4byte	0x6e8
ARM GAS  /tmp/ccMiMWm2.s 			page 33


 1825 06d9 1B       		.uleb128 0x1b
 1826 06da 01       		.uleb128 0x1
 1827 06db 51       		.byte	0x51
 1828 06dc 03       		.uleb128 0x3
 1829 06dd F3       		.byte	0xf3
 1830 06de 01       		.uleb128 0x1
 1831 06df 51       		.byte	0x51
 1832 06e0 1B       		.uleb128 0x1b
 1833 06e1 01       		.uleb128 0x1
 1834 06e2 50       		.byte	0x50
 1835 06e3 03       		.uleb128 0x3
 1836 06e4 F3       		.byte	0xf3
 1837 06e5 01       		.uleb128 0x1
 1838 06e6 50       		.byte	0x50
 1839 06e7 00       		.byte	0
 1840 06e8 19       		.uleb128 0x19
 1841 06e9 0C000000 		.4byte	.LVL31
 1842 06ed CD090000 		.4byte	0x9cd
 1843 06f1 00       		.byte	0
 1844 06f2 1F       		.uleb128 0x1f
 1845 06f3 BB030000 		.4byte	.LASF87
 1846 06f7 01       		.byte	0x1
 1847 06f8 2901     		.2byte	0x129
 1848 06fa 0C010000 		.4byte	0x10c
 1849 06fe 00000000 		.4byte	.LFB16
 1850 0702 0A000000 		.4byte	.LFE16-.LFB16
 1851 0706 01       		.uleb128 0x1
 1852 0707 9C       		.byte	0x9c
 1853 0708 2B070000 		.4byte	0x72b
 1854 070c 1D       		.uleb128 0x1d
 1855 070d 656C7000 		.ascii	"elp\000"
 1856 0711 01       		.byte	0x1
 1857 0712 2901     		.2byte	0x129
 1858 0714 0C040000 		.4byte	0x40c
 1859 0718 17020000 		.4byte	.LLST15
 1860 071c 20       		.uleb128 0x20
 1861 071d CF040000 		.4byte	.LASF82
 1862 0721 01       		.byte	0x1
 1863 0722 2A01     		.2byte	0x12a
 1864 0724 0C010000 		.4byte	0x10c
 1865 0728 01       		.uleb128 0x1
 1866 0729 50       		.byte	0x50
 1867 072a 00       		.byte	0
 1868 072b 1C       		.uleb128 0x1c
 1869 072c DB020000 		.4byte	.LASF88
 1870 0730 01       		.byte	0x1
 1871 0731 3B01     		.2byte	0x13b
 1872 0733 00000000 		.4byte	.LFB17
 1873 0737 26000000 		.4byte	.LFE17-.LFB17
 1874 073b 01       		.uleb128 0x1
 1875 073c 9C       		.byte	0x9c
 1876 073d 7E070000 		.4byte	0x77e
 1877 0741 1E       		.uleb128 0x1e
 1878 0742 30030000 		.4byte	.LASF89
 1879 0746 01       		.byte	0x1
 1880 0747 3B01     		.2byte	0x13b
 1881 0749 7E070000 		.4byte	0x77e
ARM GAS  /tmp/ccMiMWm2.s 			page 34


 1882 074d 35020000 		.4byte	.LLST16
 1883 0751 1E       		.uleb128 0x1e
 1884 0752 22010000 		.4byte	.LASF76
 1885 0756 01       		.byte	0x1
 1886 0757 3B01     		.2byte	0x13b
 1887 0759 01010000 		.4byte	0x101
 1888 075d 56020000 		.4byte	.LLST17
 1889 0761 21       		.uleb128 0x21
 1890 0762 65696400 		.ascii	"eid\000"
 1891 0766 01       		.byte	0x1
 1892 0767 3C01     		.2byte	0x13c
 1893 0769 F6000000 		.4byte	0xf6
 1894 076d 74020000 		.4byte	.LLST18
 1895 0771 22       		.uleb128 0x22
 1896 0772 1C000000 		.4byte	.LVL38
 1897 0776 1B       		.uleb128 0x1b
 1898 0777 01       		.uleb128 0x1
 1899 0778 50       		.byte	0x50
 1900 0779 02       		.uleb128 0x2
 1901 077a 74       		.byte	0x74
 1902 077b 00       		.sleb128 0
 1903 077c 00       		.byte	0
 1904 077d 00       		.byte	0
 1905 077e 09       		.uleb128 0x9
 1906 077f 04       		.byte	0x4
 1907 0780 84070000 		.4byte	0x784
 1908 0784 10       		.uleb128 0x10
 1909 0785 36040000 		.4byte	0x436
 1910 0789 1F       		.uleb128 0x1f
 1911 078a 6C030000 		.4byte	.LASF90
 1912 078e 01       		.byte	0x1
 1913 078f 5E01     		.2byte	0x15e
 1914 0791 01010000 		.4byte	0x101
 1915 0795 00000000 		.4byte	.LFB18
 1916 0799 30000000 		.4byte	.LFE18-.LFB18
 1917 079d 01       		.uleb128 0x1
 1918 079e 9C       		.byte	0x9c
 1919 079f E1070000 		.4byte	0x7e1
 1920 07a3 1E       		.uleb128 0x1e
 1921 07a4 22010000 		.4byte	.LASF76
 1922 07a8 01       		.byte	0x1
 1923 07a9 5E01     		.2byte	0x15e
 1924 07ab 01010000 		.4byte	0x101
 1925 07af 93020000 		.4byte	.LLST19
 1926 07b3 21       		.uleb128 0x21
 1927 07b4 63747000 		.ascii	"ctp\000"
 1928 07b8 01       		.byte	0x1
 1929 07b9 5F01     		.2byte	0x15f
 1930 07bb 4B020000 		.4byte	0x24b
 1931 07bf BF020000 		.4byte	.LLST20
 1932 07c3 21       		.uleb128 0x21
 1933 07c4 6D00     		.ascii	"m\000"
 1934 07c6 01       		.byte	0x1
 1935 07c7 6001     		.2byte	0x160
 1936 07c9 01010000 		.4byte	0x101
 1937 07cd D2020000 		.4byte	.LLST21
 1938 07d1 23       		.uleb128 0x23
ARM GAS  /tmp/ccMiMWm2.s 			page 35


 1939 07d2 18000000 		.4byte	.LVL46
 1940 07d6 D4090000 		.4byte	0x9d4
 1941 07da 1B       		.uleb128 0x1b
 1942 07db 01       		.uleb128 0x1
 1943 07dc 50       		.byte	0x50
 1944 07dd 01       		.uleb128 0x1
 1945 07de 38       		.byte	0x38
 1946 07df 00       		.byte	0
 1947 07e0 00       		.byte	0
 1948 07e1 1F       		.uleb128 0x1f
 1949 07e2 C7000000 		.4byte	.LASF91
 1950 07e6 01       		.byte	0x1
 1951 07e7 7B01     		.2byte	0x17b
 1952 07e9 01010000 		.4byte	0x101
 1953 07ed 00000000 		.4byte	.LFB19
 1954 07f1 2C000000 		.4byte	.LFE19-.LFB19
 1955 07f5 01       		.uleb128 0x1
 1956 07f6 9C       		.byte	0x9c
 1957 07f7 39080000 		.4byte	0x839
 1958 07fb 1E       		.uleb128 0x1e
 1959 07fc 22010000 		.4byte	.LASF76
 1960 0800 01       		.byte	0x1
 1961 0801 7B01     		.2byte	0x17b
 1962 0803 01010000 		.4byte	0x101
 1963 0807 FB020000 		.4byte	.LLST22
 1964 080b 21       		.uleb128 0x21
 1965 080c 63747000 		.ascii	"ctp\000"
 1966 0810 01       		.byte	0x1
 1967 0811 7C01     		.2byte	0x17c
 1968 0813 4B020000 		.4byte	0x24b
 1969 0817 27030000 		.4byte	.LLST23
 1970 081b 21       		.uleb128 0x21
 1971 081c 6D00     		.ascii	"m\000"
 1972 081e 01       		.byte	0x1
 1973 081f 7D01     		.2byte	0x17d
 1974 0821 01010000 		.4byte	0x101
 1975 0825 3A030000 		.4byte	.LLST24
 1976 0829 23       		.uleb128 0x23
 1977 082a 18000000 		.4byte	.LVL56
 1978 082e D4090000 		.4byte	0x9d4
 1979 0832 1B       		.uleb128 0x1b
 1980 0833 01       		.uleb128 0x1
 1981 0834 50       		.byte	0x50
 1982 0835 01       		.uleb128 0x1
 1983 0836 38       		.byte	0x38
 1984 0837 00       		.byte	0
 1985 0838 00       		.byte	0
 1986 0839 1F       		.uleb128 0x1f
 1987 083a 09030000 		.4byte	.LASF92
 1988 083e 01       		.byte	0x1
 1989 083f 9701     		.2byte	0x197
 1990 0841 01010000 		.4byte	0x101
 1991 0845 00000000 		.4byte	.LFB20
 1992 0849 2C000000 		.4byte	.LFE20-.LFB20
 1993 084d 01       		.uleb128 0x1
 1994 084e 9C       		.byte	0x9c
 1995 084f 83080000 		.4byte	0x883
ARM GAS  /tmp/ccMiMWm2.s 			page 36


 1996 0853 1E       		.uleb128 0x1e
 1997 0854 22010000 		.4byte	.LASF76
 1998 0858 01       		.byte	0x1
 1999 0859 9701     		.2byte	0x197
 2000 085b 01010000 		.4byte	0x101
 2001 085f 69030000 		.4byte	.LLST25
 2002 0863 21       		.uleb128 0x21
 2003 0864 63747000 		.ascii	"ctp\000"
 2004 0868 01       		.byte	0x1
 2005 0869 9801     		.2byte	0x198
 2006 086b 4B020000 		.4byte	0x24b
 2007 086f 92030000 		.4byte	.LLST26
 2008 0873 23       		.uleb128 0x23
 2009 0874 1A000000 		.4byte	.LVL63
 2010 0878 D4090000 		.4byte	0x9d4
 2011 087c 1B       		.uleb128 0x1b
 2012 087d 01       		.uleb128 0x1
 2013 087e 50       		.byte	0x50
 2014 087f 01       		.uleb128 0x1
 2015 0880 39       		.byte	0x39
 2016 0881 00       		.byte	0
 2017 0882 00       		.byte	0
 2018 0883 1F       		.uleb128 0x1f
 2019 0884 5F040000 		.4byte	.LASF93
 2020 0888 01       		.byte	0x1
 2021 0889 BE01     		.2byte	0x1be
 2022 088b 01010000 		.4byte	0x101
 2023 088f 00000000 		.4byte	.LFB21
 2024 0893 44000000 		.4byte	.LFE21-.LFB21
 2025 0897 01       		.uleb128 0x1
 2026 0898 9C       		.byte	0x9c
 2027 0899 EB080000 		.4byte	0x8eb
 2028 089d 1E       		.uleb128 0x1e
 2029 089e 22010000 		.4byte	.LASF76
 2030 08a2 01       		.byte	0x1
 2031 08a3 BE01     		.2byte	0x1be
 2032 08a5 01010000 		.4byte	0x101
 2033 08a9 A5030000 		.4byte	.LLST27
 2034 08ad 1E       		.uleb128 0x1e
 2035 08ae 04030000 		.4byte	.LASF94
 2036 08b2 01       		.byte	0x1
 2037 08b3 BE01     		.2byte	0x1be
 2038 08b5 17010000 		.4byte	0x117
 2039 08b9 E7030000 		.4byte	.LLST28
 2040 08bd 21       		.uleb128 0x21
 2041 08be 63747000 		.ascii	"ctp\000"
 2042 08c2 01       		.byte	0x1
 2043 08c3 BF01     		.2byte	0x1bf
 2044 08c5 4B020000 		.4byte	0x24b
 2045 08c9 08040000 		.4byte	.LLST29
 2046 08cd 21       		.uleb128 0x21
 2047 08ce 6D00     		.ascii	"m\000"
 2048 08d0 01       		.byte	0x1
 2049 08d1 C001     		.2byte	0x1c0
 2050 08d3 01010000 		.4byte	0x101
 2051 08d7 1B040000 		.4byte	.LLST30
 2052 08db 23       		.uleb128 0x23
ARM GAS  /tmp/ccMiMWm2.s 			page 37


 2053 08dc 22000000 		.4byte	.LVL72
 2054 08e0 E5090000 		.4byte	0x9e5
 2055 08e4 1B       		.uleb128 0x1b
 2056 08e5 01       		.uleb128 0x1
 2057 08e6 50       		.byte	0x50
 2058 08e7 01       		.uleb128 0x1
 2059 08e8 38       		.byte	0x38
 2060 08e9 00       		.byte	0
 2061 08ea 00       		.byte	0
 2062 08eb 1F       		.uleb128 0x1f
 2063 08ec 52000000 		.4byte	.LASF95
 2064 08f0 01       		.byte	0x1
 2065 08f1 E901     		.2byte	0x1e9
 2066 08f3 01010000 		.4byte	0x101
 2067 08f7 00000000 		.4byte	.LFB22
 2068 08fb 40000000 		.4byte	.LFE22-.LFB22
 2069 08ff 01       		.uleb128 0x1
 2070 0900 9C       		.byte	0x9c
 2071 0901 53090000 		.4byte	0x953
 2072 0905 1E       		.uleb128 0x1e
 2073 0906 22010000 		.4byte	.LASF76
 2074 090a 01       		.byte	0x1
 2075 090b E901     		.2byte	0x1e9
 2076 090d 01010000 		.4byte	0x101
 2077 0911 39040000 		.4byte	.LLST31
 2078 0915 1E       		.uleb128 0x1e
 2079 0916 04030000 		.4byte	.LASF94
 2080 091a 01       		.byte	0x1
 2081 091b E901     		.2byte	0x1e9
 2082 091d 17010000 		.4byte	0x117
 2083 0921 7B040000 		.4byte	.LLST32
 2084 0925 21       		.uleb128 0x21
 2085 0926 63747000 		.ascii	"ctp\000"
 2086 092a 01       		.byte	0x1
 2087 092b EA01     		.2byte	0x1ea
 2088 092d 4B020000 		.4byte	0x24b
 2089 0931 9C040000 		.4byte	.LLST33
 2090 0935 21       		.uleb128 0x21
 2091 0936 6D00     		.ascii	"m\000"
 2092 0938 01       		.byte	0x1
 2093 0939 EB01     		.2byte	0x1eb
 2094 093b 01010000 		.4byte	0x101
 2095 093f AF040000 		.4byte	.LLST34
 2096 0943 23       		.uleb128 0x23
 2097 0944 22000000 		.4byte	.LVL84
 2098 0948 E5090000 		.4byte	0x9e5
 2099 094c 1B       		.uleb128 0x1b
 2100 094d 01       		.uleb128 0x1
 2101 094e 50       		.byte	0x50
 2102 094f 01       		.uleb128 0x1
 2103 0950 38       		.byte	0x38
 2104 0951 00       		.byte	0
 2105 0952 00       		.byte	0
 2106 0953 1F       		.uleb128 0x1f
 2107 0954 87000000 		.4byte	.LASF96
 2108 0958 01       		.byte	0x1
 2109 0959 1202     		.2byte	0x212
ARM GAS  /tmp/ccMiMWm2.s 			page 38


 2110 095b 01010000 		.4byte	0x101
 2111 095f 00000000 		.4byte	.LFB23
 2112 0963 40000000 		.4byte	.LFE23-.LFB23
 2113 0967 01       		.uleb128 0x1
 2114 0968 9C       		.byte	0x9c
 2115 0969 AD090000 		.4byte	0x9ad
 2116 096d 1E       		.uleb128 0x1e
 2117 096e 22010000 		.4byte	.LASF76
 2118 0972 01       		.byte	0x1
 2119 0973 1202     		.2byte	0x212
 2120 0975 01010000 		.4byte	0x101
 2121 0979 CD040000 		.4byte	.LLST35
 2122 097d 1E       		.uleb128 0x1e
 2123 097e 04030000 		.4byte	.LASF94
 2124 0982 01       		.byte	0x1
 2125 0983 1202     		.2byte	0x212
 2126 0985 17010000 		.4byte	0x117
 2127 0989 0F050000 		.4byte	.LLST36
 2128 098d 21       		.uleb128 0x21
 2129 098e 63747000 		.ascii	"ctp\000"
 2130 0992 01       		.byte	0x1
 2131 0993 1302     		.2byte	0x213
 2132 0995 4B020000 		.4byte	0x24b
 2133 0999 30050000 		.4byte	.LLST37
 2134 099d 23       		.uleb128 0x23
 2135 099e 24000000 		.4byte	.LVL94
 2136 09a2 E5090000 		.4byte	0x9e5
 2137 09a6 1B       		.uleb128 0x1b
 2138 09a7 01       		.uleb128 0x1
 2139 09a8 50       		.byte	0x50
 2140 09a9 01       		.uleb128 0x1
 2141 09aa 39       		.byte	0x39
 2142 09ab 00       		.byte	0
 2143 09ac 00       		.byte	0
 2144 09ad 24       		.uleb128 0x24
 2145 09ae C1040000 		.4byte	.LASF102
 2146 09b2 08       		.byte	0x8
 2147 09b3 6F       		.byte	0x6f
 2148 09b4 77030000 		.4byte	0x377
 2149 09b8 25       		.uleb128 0x25
 2150 09b9 21040000 		.4byte	.LASF103
 2151 09bd 08       		.byte	0x8
 2152 09be 90       		.byte	0x90
 2153 09bf 4B020000 		.4byte	0x24b
 2154 09c3 CD090000 		.4byte	0x9cd
 2155 09c7 0D       		.uleb128 0xd
 2156 09c8 4B020000 		.4byte	0x24b
 2157 09cc 00       		.byte	0
 2158 09cd 26       		.uleb128 0x26
 2159 09ce 06010000 		.4byte	.LASF104
 2160 09d2 08       		.byte	0x8
 2161 09d3 9C       		.byte	0x9c
 2162 09d4 27       		.uleb128 0x27
 2163 09d5 F7030000 		.4byte	.LASF97
 2164 09d9 08       		.byte	0x8
 2165 09da 93       		.byte	0x93
 2166 09db E5090000 		.4byte	0x9e5
ARM GAS  /tmp/ccMiMWm2.s 			page 39


 2167 09df 0D       		.uleb128 0xd
 2168 09e0 BF000000 		.4byte	0xbf
 2169 09e4 00       		.byte	0
 2170 09e5 28       		.uleb128 0x28
 2171 09e6 D4000000 		.4byte	.LASF98
 2172 09ea 08       		.byte	0x8
 2173 09eb 96       		.byte	0x96
 2174 09ec EB000000 		.4byte	0xeb
 2175 09f0 0D       		.uleb128 0xd
 2176 09f1 BF000000 		.4byte	0xbf
 2177 09f5 0D       		.uleb128 0xd
 2178 09f6 17010000 		.4byte	0x117
 2179 09fa 00       		.byte	0
 2180 09fb 00       		.byte	0
 2181              		.section	.debug_abbrev,"",%progbits
 2182              	.Ldebug_abbrev0:
 2183 0000 01       		.uleb128 0x1
 2184 0001 11       		.uleb128 0x11
 2185 0002 01       		.byte	0x1
 2186 0003 25       		.uleb128 0x25
 2187 0004 0E       		.uleb128 0xe
 2188 0005 13       		.uleb128 0x13
 2189 0006 0B       		.uleb128 0xb
 2190 0007 03       		.uleb128 0x3
 2191 0008 0E       		.uleb128 0xe
 2192 0009 1B       		.uleb128 0x1b
 2193 000a 0E       		.uleb128 0xe
 2194 000b 55       		.uleb128 0x55
 2195 000c 17       		.uleb128 0x17
 2196 000d 11       		.uleb128 0x11
 2197 000e 01       		.uleb128 0x1
 2198 000f 10       		.uleb128 0x10
 2199 0010 17       		.uleb128 0x17
 2200 0011 00       		.byte	0
 2201 0012 00       		.byte	0
 2202 0013 02       		.uleb128 0x2
 2203 0014 24       		.uleb128 0x24
 2204 0015 00       		.byte	0
 2205 0016 0B       		.uleb128 0xb
 2206 0017 0B       		.uleb128 0xb
 2207 0018 3E       		.uleb128 0x3e
 2208 0019 0B       		.uleb128 0xb
 2209 001a 03       		.uleb128 0x3
 2210 001b 08       		.uleb128 0x8
 2211 001c 00       		.byte	0
 2212 001d 00       		.byte	0
 2213 001e 03       		.uleb128 0x3
 2214 001f 24       		.uleb128 0x24
 2215 0020 00       		.byte	0
 2216 0021 0B       		.uleb128 0xb
 2217 0022 0B       		.uleb128 0xb
 2218 0023 3E       		.uleb128 0x3e
 2219 0024 0B       		.uleb128 0xb
 2220 0025 03       		.uleb128 0x3
 2221 0026 0E       		.uleb128 0xe
 2222 0027 00       		.byte	0
 2223 0028 00       		.byte	0
ARM GAS  /tmp/ccMiMWm2.s 			page 40


 2224 0029 04       		.uleb128 0x4
 2225 002a 16       		.uleb128 0x16
 2226 002b 00       		.byte	0
 2227 002c 03       		.uleb128 0x3
 2228 002d 0E       		.uleb128 0xe
 2229 002e 3A       		.uleb128 0x3a
 2230 002f 0B       		.uleb128 0xb
 2231 0030 3B       		.uleb128 0x3b
 2232 0031 0B       		.uleb128 0xb
 2233 0032 49       		.uleb128 0x49
 2234 0033 13       		.uleb128 0x13
 2235 0034 00       		.byte	0
 2236 0035 00       		.byte	0
 2237 0036 05       		.uleb128 0x5
 2238 0037 13       		.uleb128 0x13
 2239 0038 01       		.byte	0x1
 2240 0039 03       		.uleb128 0x3
 2241 003a 0E       		.uleb128 0xe
 2242 003b 0B       		.uleb128 0xb
 2243 003c 0B       		.uleb128 0xb
 2244 003d 3A       		.uleb128 0x3a
 2245 003e 0B       		.uleb128 0xb
 2246 003f 3B       		.uleb128 0x3b
 2247 0040 0B       		.uleb128 0xb
 2248 0041 01       		.uleb128 0x1
 2249 0042 13       		.uleb128 0x13
 2250 0043 00       		.byte	0
 2251 0044 00       		.byte	0
 2252 0045 06       		.uleb128 0x6
 2253 0046 0D       		.uleb128 0xd
 2254 0047 00       		.byte	0
 2255 0048 03       		.uleb128 0x3
 2256 0049 0E       		.uleb128 0xe
 2257 004a 3A       		.uleb128 0x3a
 2258 004b 0B       		.uleb128 0xb
 2259 004c 3B       		.uleb128 0x3b
 2260 004d 0B       		.uleb128 0xb
 2261 004e 49       		.uleb128 0x49
 2262 004f 13       		.uleb128 0x13
 2263 0050 38       		.uleb128 0x38
 2264 0051 0B       		.uleb128 0xb
 2265 0052 00       		.byte	0
 2266 0053 00       		.byte	0
 2267 0054 07       		.uleb128 0x7
 2268 0055 0D       		.uleb128 0xd
 2269 0056 00       		.byte	0
 2270 0057 03       		.uleb128 0x3
 2271 0058 08       		.uleb128 0x8
 2272 0059 3A       		.uleb128 0x3a
 2273 005a 0B       		.uleb128 0xb
 2274 005b 3B       		.uleb128 0x3b
 2275 005c 0B       		.uleb128 0xb
 2276 005d 49       		.uleb128 0x49
 2277 005e 13       		.uleb128 0x13
 2278 005f 38       		.uleb128 0x38
 2279 0060 0B       		.uleb128 0xb
 2280 0061 00       		.byte	0
ARM GAS  /tmp/ccMiMWm2.s 			page 41


 2281 0062 00       		.byte	0
 2282 0063 08       		.uleb128 0x8
 2283 0064 13       		.uleb128 0x13
 2284 0065 01       		.byte	0x1
 2285 0066 0B       		.uleb128 0xb
 2286 0067 0B       		.uleb128 0xb
 2287 0068 3A       		.uleb128 0x3a
 2288 0069 0B       		.uleb128 0xb
 2289 006a 3B       		.uleb128 0x3b
 2290 006b 0B       		.uleb128 0xb
 2291 006c 01       		.uleb128 0x1
 2292 006d 13       		.uleb128 0x13
 2293 006e 00       		.byte	0
 2294 006f 00       		.byte	0
 2295 0070 09       		.uleb128 0x9
 2296 0071 0F       		.uleb128 0xf
 2297 0072 00       		.byte	0
 2298 0073 0B       		.uleb128 0xb
 2299 0074 0B       		.uleb128 0xb
 2300 0075 49       		.uleb128 0x49
 2301 0076 13       		.uleb128 0x13
 2302 0077 00       		.byte	0
 2303 0078 00       		.byte	0
 2304 0079 0A       		.uleb128 0xa
 2305 007a 0F       		.uleb128 0xf
 2306 007b 00       		.byte	0
 2307 007c 0B       		.uleb128 0xb
 2308 007d 0B       		.uleb128 0xb
 2309 007e 00       		.byte	0
 2310 007f 00       		.byte	0
 2311 0080 0B       		.uleb128 0xb
 2312 0081 35       		.uleb128 0x35
 2313 0082 00       		.byte	0
 2314 0083 49       		.uleb128 0x49
 2315 0084 13       		.uleb128 0x13
 2316 0085 00       		.byte	0
 2317 0086 00       		.byte	0
 2318 0087 0C       		.uleb128 0xc
 2319 0088 15       		.uleb128 0x15
 2320 0089 01       		.byte	0x1
 2321 008a 27       		.uleb128 0x27
 2322 008b 19       		.uleb128 0x19
 2323 008c 01       		.uleb128 0x1
 2324 008d 13       		.uleb128 0x13
 2325 008e 00       		.byte	0
 2326 008f 00       		.byte	0
 2327 0090 0D       		.uleb128 0xd
 2328 0091 05       		.uleb128 0x5
 2329 0092 00       		.byte	0
 2330 0093 49       		.uleb128 0x49
 2331 0094 13       		.uleb128 0x13
 2332 0095 00       		.byte	0
 2333 0096 00       		.byte	0
 2334 0097 0E       		.uleb128 0xe
 2335 0098 17       		.uleb128 0x17
 2336 0099 01       		.byte	0x1
 2337 009a 0B       		.uleb128 0xb
ARM GAS  /tmp/ccMiMWm2.s 			page 42


 2338 009b 0B       		.uleb128 0xb
 2339 009c 3A       		.uleb128 0x3a
 2340 009d 0B       		.uleb128 0xb
 2341 009e 3B       		.uleb128 0x3b
 2342 009f 0B       		.uleb128 0xb
 2343 00a0 01       		.uleb128 0x1
 2344 00a1 13       		.uleb128 0x13
 2345 00a2 00       		.byte	0
 2346 00a3 00       		.byte	0
 2347 00a4 0F       		.uleb128 0xf
 2348 00a5 0D       		.uleb128 0xd
 2349 00a6 00       		.byte	0
 2350 00a7 03       		.uleb128 0x3
 2351 00a8 0E       		.uleb128 0xe
 2352 00a9 3A       		.uleb128 0x3a
 2353 00aa 0B       		.uleb128 0xb
 2354 00ab 3B       		.uleb128 0x3b
 2355 00ac 0B       		.uleb128 0xb
 2356 00ad 49       		.uleb128 0x49
 2357 00ae 13       		.uleb128 0x13
 2358 00af 00       		.byte	0
 2359 00b0 00       		.byte	0
 2360 00b1 10       		.uleb128 0x10
 2361 00b2 26       		.uleb128 0x26
 2362 00b3 00       		.byte	0
 2363 00b4 49       		.uleb128 0x49
 2364 00b5 13       		.uleb128 0x13
 2365 00b6 00       		.byte	0
 2366 00b7 00       		.byte	0
 2367 00b8 11       		.uleb128 0x11
 2368 00b9 2E       		.uleb128 0x2e
 2369 00ba 01       		.byte	0x1
 2370 00bb 3F       		.uleb128 0x3f
 2371 00bc 19       		.uleb128 0x19
 2372 00bd 03       		.uleb128 0x3
 2373 00be 0E       		.uleb128 0xe
 2374 00bf 3A       		.uleb128 0x3a
 2375 00c0 0B       		.uleb128 0xb
 2376 00c1 3B       		.uleb128 0x3b
 2377 00c2 0B       		.uleb128 0xb
 2378 00c3 27       		.uleb128 0x27
 2379 00c4 19       		.uleb128 0x19
 2380 00c5 11       		.uleb128 0x11
 2381 00c6 01       		.uleb128 0x1
 2382 00c7 12       		.uleb128 0x12
 2383 00c8 06       		.uleb128 0x6
 2384 00c9 40       		.uleb128 0x40
 2385 00ca 18       		.uleb128 0x18
 2386 00cb 9742     		.uleb128 0x2117
 2387 00cd 19       		.uleb128 0x19
 2388 00ce 01       		.uleb128 0x1
 2389 00cf 13       		.uleb128 0x13
 2390 00d0 00       		.byte	0
 2391 00d1 00       		.byte	0
 2392 00d2 12       		.uleb128 0x12
 2393 00d3 05       		.uleb128 0x5
 2394 00d4 00       		.byte	0
ARM GAS  /tmp/ccMiMWm2.s 			page 43


 2395 00d5 03       		.uleb128 0x3
 2396 00d6 08       		.uleb128 0x8
 2397 00d7 3A       		.uleb128 0x3a
 2398 00d8 0B       		.uleb128 0xb
 2399 00d9 3B       		.uleb128 0x3b
 2400 00da 0B       		.uleb128 0xb
 2401 00db 49       		.uleb128 0x49
 2402 00dc 13       		.uleb128 0x13
 2403 00dd 02       		.uleb128 0x2
 2404 00de 18       		.uleb128 0x18
 2405 00df 00       		.byte	0
 2406 00e0 00       		.byte	0
 2407 00e1 13       		.uleb128 0x13
 2408 00e2 05       		.uleb128 0x5
 2409 00e3 00       		.byte	0
 2410 00e4 03       		.uleb128 0x3
 2411 00e5 0E       		.uleb128 0xe
 2412 00e6 3A       		.uleb128 0x3a
 2413 00e7 0B       		.uleb128 0xb
 2414 00e8 3B       		.uleb128 0x3b
 2415 00e9 0B       		.uleb128 0xb
 2416 00ea 49       		.uleb128 0x49
 2417 00eb 13       		.uleb128 0x13
 2418 00ec 02       		.uleb128 0x2
 2419 00ed 18       		.uleb128 0x18
 2420 00ee 00       		.byte	0
 2421 00ef 00       		.byte	0
 2422 00f0 14       		.uleb128 0x14
 2423 00f1 05       		.uleb128 0x5
 2424 00f2 00       		.byte	0
 2425 00f3 03       		.uleb128 0x3
 2426 00f4 08       		.uleb128 0x8
 2427 00f5 3A       		.uleb128 0x3a
 2428 00f6 0B       		.uleb128 0xb
 2429 00f7 3B       		.uleb128 0x3b
 2430 00f8 0B       		.uleb128 0xb
 2431 00f9 49       		.uleb128 0x49
 2432 00fa 13       		.uleb128 0x13
 2433 00fb 02       		.uleb128 0x2
 2434 00fc 17       		.uleb128 0x17
 2435 00fd 00       		.byte	0
 2436 00fe 00       		.byte	0
 2437 00ff 15       		.uleb128 0x15
 2438 0100 34       		.uleb128 0x34
 2439 0101 00       		.byte	0
 2440 0102 03       		.uleb128 0x3
 2441 0103 08       		.uleb128 0x8
 2442 0104 3A       		.uleb128 0x3a
 2443 0105 0B       		.uleb128 0xb
 2444 0106 3B       		.uleb128 0x3b
 2445 0107 0B       		.uleb128 0xb
 2446 0108 49       		.uleb128 0x49
 2447 0109 13       		.uleb128 0x13
 2448 010a 02       		.uleb128 0x2
 2449 010b 17       		.uleb128 0x17
 2450 010c 00       		.byte	0
 2451 010d 00       		.byte	0
ARM GAS  /tmp/ccMiMWm2.s 			page 44


 2452 010e 16       		.uleb128 0x16
 2453 010f 2E       		.uleb128 0x2e
 2454 0110 01       		.byte	0x1
 2455 0111 3F       		.uleb128 0x3f
 2456 0112 19       		.uleb128 0x19
 2457 0113 03       		.uleb128 0x3
 2458 0114 0E       		.uleb128 0xe
 2459 0115 3A       		.uleb128 0x3a
 2460 0116 0B       		.uleb128 0xb
 2461 0117 3B       		.uleb128 0x3b
 2462 0118 0B       		.uleb128 0xb
 2463 0119 27       		.uleb128 0x27
 2464 011a 19       		.uleb128 0x19
 2465 011b 49       		.uleb128 0x49
 2466 011c 13       		.uleb128 0x13
 2467 011d 11       		.uleb128 0x11
 2468 011e 01       		.uleb128 0x1
 2469 011f 12       		.uleb128 0x12
 2470 0120 06       		.uleb128 0x6
 2471 0121 40       		.uleb128 0x40
 2472 0122 18       		.uleb128 0x18
 2473 0123 9742     		.uleb128 0x2117
 2474 0125 19       		.uleb128 0x19
 2475 0126 01       		.uleb128 0x1
 2476 0127 13       		.uleb128 0x13
 2477 0128 00       		.byte	0
 2478 0129 00       		.byte	0
 2479 012a 17       		.uleb128 0x17
 2480 012b 05       		.uleb128 0x5
 2481 012c 00       		.byte	0
 2482 012d 03       		.uleb128 0x3
 2483 012e 0E       		.uleb128 0xe
 2484 012f 3A       		.uleb128 0x3a
 2485 0130 0B       		.uleb128 0xb
 2486 0131 3B       		.uleb128 0x3b
 2487 0132 0B       		.uleb128 0xb
 2488 0133 49       		.uleb128 0x49
 2489 0134 13       		.uleb128 0x13
 2490 0135 02       		.uleb128 0x2
 2491 0136 17       		.uleb128 0x17
 2492 0137 00       		.byte	0
 2493 0138 00       		.byte	0
 2494 0139 18       		.uleb128 0x18
 2495 013a 34       		.uleb128 0x34
 2496 013b 00       		.byte	0
 2497 013c 03       		.uleb128 0x3
 2498 013d 0E       		.uleb128 0xe
 2499 013e 3A       		.uleb128 0x3a
 2500 013f 0B       		.uleb128 0xb
 2501 0140 3B       		.uleb128 0x3b
 2502 0141 0B       		.uleb128 0xb
 2503 0142 49       		.uleb128 0x49
 2504 0143 13       		.uleb128 0x13
 2505 0144 02       		.uleb128 0x2
 2506 0145 18       		.uleb128 0x18
 2507 0146 00       		.byte	0
 2508 0147 00       		.byte	0
ARM GAS  /tmp/ccMiMWm2.s 			page 45


 2509 0148 19       		.uleb128 0x19
 2510 0149 898201   		.uleb128 0x4109
 2511 014c 00       		.byte	0
 2512 014d 11       		.uleb128 0x11
 2513 014e 01       		.uleb128 0x1
 2514 014f 31       		.uleb128 0x31
 2515 0150 13       		.uleb128 0x13
 2516 0151 00       		.byte	0
 2517 0152 00       		.byte	0
 2518 0153 1A       		.uleb128 0x1a
 2519 0154 898201   		.uleb128 0x4109
 2520 0157 01       		.byte	0x1
 2521 0158 11       		.uleb128 0x11
 2522 0159 01       		.uleb128 0x1
 2523 015a 31       		.uleb128 0x31
 2524 015b 13       		.uleb128 0x13
 2525 015c 01       		.uleb128 0x1
 2526 015d 13       		.uleb128 0x13
 2527 015e 00       		.byte	0
 2528 015f 00       		.byte	0
 2529 0160 1B       		.uleb128 0x1b
 2530 0161 8A8201   		.uleb128 0x410a
 2531 0164 00       		.byte	0
 2532 0165 02       		.uleb128 0x2
 2533 0166 18       		.uleb128 0x18
 2534 0167 9142     		.uleb128 0x2111
 2535 0169 18       		.uleb128 0x18
 2536 016a 00       		.byte	0
 2537 016b 00       		.byte	0
 2538 016c 1C       		.uleb128 0x1c
 2539 016d 2E       		.uleb128 0x2e
 2540 016e 01       		.byte	0x1
 2541 016f 3F       		.uleb128 0x3f
 2542 0170 19       		.uleb128 0x19
 2543 0171 03       		.uleb128 0x3
 2544 0172 0E       		.uleb128 0xe
 2545 0173 3A       		.uleb128 0x3a
 2546 0174 0B       		.uleb128 0xb
 2547 0175 3B       		.uleb128 0x3b
 2548 0176 05       		.uleb128 0x5
 2549 0177 27       		.uleb128 0x27
 2550 0178 19       		.uleb128 0x19
 2551 0179 11       		.uleb128 0x11
 2552 017a 01       		.uleb128 0x1
 2553 017b 12       		.uleb128 0x12
 2554 017c 06       		.uleb128 0x6
 2555 017d 40       		.uleb128 0x40
 2556 017e 18       		.uleb128 0x18
 2557 017f 9742     		.uleb128 0x2117
 2558 0181 19       		.uleb128 0x19
 2559 0182 01       		.uleb128 0x1
 2560 0183 13       		.uleb128 0x13
 2561 0184 00       		.byte	0
 2562 0185 00       		.byte	0
 2563 0186 1D       		.uleb128 0x1d
 2564 0187 05       		.uleb128 0x5
 2565 0188 00       		.byte	0
ARM GAS  /tmp/ccMiMWm2.s 			page 46


 2566 0189 03       		.uleb128 0x3
 2567 018a 08       		.uleb128 0x8
 2568 018b 3A       		.uleb128 0x3a
 2569 018c 0B       		.uleb128 0xb
 2570 018d 3B       		.uleb128 0x3b
 2571 018e 05       		.uleb128 0x5
 2572 018f 49       		.uleb128 0x49
 2573 0190 13       		.uleb128 0x13
 2574 0191 02       		.uleb128 0x2
 2575 0192 17       		.uleb128 0x17
 2576 0193 00       		.byte	0
 2577 0194 00       		.byte	0
 2578 0195 1E       		.uleb128 0x1e
 2579 0196 05       		.uleb128 0x5
 2580 0197 00       		.byte	0
 2581 0198 03       		.uleb128 0x3
 2582 0199 0E       		.uleb128 0xe
 2583 019a 3A       		.uleb128 0x3a
 2584 019b 0B       		.uleb128 0xb
 2585 019c 3B       		.uleb128 0x3b
 2586 019d 05       		.uleb128 0x5
 2587 019e 49       		.uleb128 0x49
 2588 019f 13       		.uleb128 0x13
 2589 01a0 02       		.uleb128 0x2
 2590 01a1 17       		.uleb128 0x17
 2591 01a2 00       		.byte	0
 2592 01a3 00       		.byte	0
 2593 01a4 1F       		.uleb128 0x1f
 2594 01a5 2E       		.uleb128 0x2e
 2595 01a6 01       		.byte	0x1
 2596 01a7 3F       		.uleb128 0x3f
 2597 01a8 19       		.uleb128 0x19
 2598 01a9 03       		.uleb128 0x3
 2599 01aa 0E       		.uleb128 0xe
 2600 01ab 3A       		.uleb128 0x3a
 2601 01ac 0B       		.uleb128 0xb
 2602 01ad 3B       		.uleb128 0x3b
 2603 01ae 05       		.uleb128 0x5
 2604 01af 27       		.uleb128 0x27
 2605 01b0 19       		.uleb128 0x19
 2606 01b1 49       		.uleb128 0x49
 2607 01b2 13       		.uleb128 0x13
 2608 01b3 11       		.uleb128 0x11
 2609 01b4 01       		.uleb128 0x1
 2610 01b5 12       		.uleb128 0x12
 2611 01b6 06       		.uleb128 0x6
 2612 01b7 40       		.uleb128 0x40
 2613 01b8 18       		.uleb128 0x18
 2614 01b9 9742     		.uleb128 0x2117
 2615 01bb 19       		.uleb128 0x19
 2616 01bc 01       		.uleb128 0x1
 2617 01bd 13       		.uleb128 0x13
 2618 01be 00       		.byte	0
 2619 01bf 00       		.byte	0
 2620 01c0 20       		.uleb128 0x20
 2621 01c1 34       		.uleb128 0x34
 2622 01c2 00       		.byte	0
ARM GAS  /tmp/ccMiMWm2.s 			page 47


 2623 01c3 03       		.uleb128 0x3
 2624 01c4 0E       		.uleb128 0xe
 2625 01c5 3A       		.uleb128 0x3a
 2626 01c6 0B       		.uleb128 0xb
 2627 01c7 3B       		.uleb128 0x3b
 2628 01c8 05       		.uleb128 0x5
 2629 01c9 49       		.uleb128 0x49
 2630 01ca 13       		.uleb128 0x13
 2631 01cb 02       		.uleb128 0x2
 2632 01cc 18       		.uleb128 0x18
 2633 01cd 00       		.byte	0
 2634 01ce 00       		.byte	0
 2635 01cf 21       		.uleb128 0x21
 2636 01d0 34       		.uleb128 0x34
 2637 01d1 00       		.byte	0
 2638 01d2 03       		.uleb128 0x3
 2639 01d3 08       		.uleb128 0x8
 2640 01d4 3A       		.uleb128 0x3a
 2641 01d5 0B       		.uleb128 0xb
 2642 01d6 3B       		.uleb128 0x3b
 2643 01d7 05       		.uleb128 0x5
 2644 01d8 49       		.uleb128 0x49
 2645 01d9 13       		.uleb128 0x13
 2646 01da 02       		.uleb128 0x2
 2647 01db 17       		.uleb128 0x17
 2648 01dc 00       		.byte	0
 2649 01dd 00       		.byte	0
 2650 01de 22       		.uleb128 0x22
 2651 01df 898201   		.uleb128 0x4109
 2652 01e2 01       		.byte	0x1
 2653 01e3 11       		.uleb128 0x11
 2654 01e4 01       		.uleb128 0x1
 2655 01e5 00       		.byte	0
 2656 01e6 00       		.byte	0
 2657 01e7 23       		.uleb128 0x23
 2658 01e8 898201   		.uleb128 0x4109
 2659 01eb 01       		.byte	0x1
 2660 01ec 11       		.uleb128 0x11
 2661 01ed 01       		.uleb128 0x1
 2662 01ee 31       		.uleb128 0x31
 2663 01ef 13       		.uleb128 0x13
 2664 01f0 00       		.byte	0
 2665 01f1 00       		.byte	0
 2666 01f2 24       		.uleb128 0x24
 2667 01f3 34       		.uleb128 0x34
 2668 01f4 00       		.byte	0
 2669 01f5 03       		.uleb128 0x3
 2670 01f6 0E       		.uleb128 0xe
 2671 01f7 3A       		.uleb128 0x3a
 2672 01f8 0B       		.uleb128 0xb
 2673 01f9 3B       		.uleb128 0x3b
 2674 01fa 0B       		.uleb128 0xb
 2675 01fb 49       		.uleb128 0x49
 2676 01fc 13       		.uleb128 0x13
 2677 01fd 3F       		.uleb128 0x3f
 2678 01fe 19       		.uleb128 0x19
 2679 01ff 3C       		.uleb128 0x3c
ARM GAS  /tmp/ccMiMWm2.s 			page 48


 2680 0200 19       		.uleb128 0x19
 2681 0201 00       		.byte	0
 2682 0202 00       		.byte	0
 2683 0203 25       		.uleb128 0x25
 2684 0204 2E       		.uleb128 0x2e
 2685 0205 01       		.byte	0x1
 2686 0206 3F       		.uleb128 0x3f
 2687 0207 19       		.uleb128 0x19
 2688 0208 03       		.uleb128 0x3
 2689 0209 0E       		.uleb128 0xe
 2690 020a 3A       		.uleb128 0x3a
 2691 020b 0B       		.uleb128 0xb
 2692 020c 3B       		.uleb128 0x3b
 2693 020d 0B       		.uleb128 0xb
 2694 020e 27       		.uleb128 0x27
 2695 020f 19       		.uleb128 0x19
 2696 0210 49       		.uleb128 0x49
 2697 0211 13       		.uleb128 0x13
 2698 0212 3C       		.uleb128 0x3c
 2699 0213 19       		.uleb128 0x19
 2700 0214 01       		.uleb128 0x1
 2701 0215 13       		.uleb128 0x13
 2702 0216 00       		.byte	0
 2703 0217 00       		.byte	0
 2704 0218 26       		.uleb128 0x26
 2705 0219 2E       		.uleb128 0x2e
 2706 021a 00       		.byte	0
 2707 021b 3F       		.uleb128 0x3f
 2708 021c 19       		.uleb128 0x19
 2709 021d 03       		.uleb128 0x3
 2710 021e 0E       		.uleb128 0xe
 2711 021f 3A       		.uleb128 0x3a
 2712 0220 0B       		.uleb128 0xb
 2713 0221 3B       		.uleb128 0x3b
 2714 0222 0B       		.uleb128 0xb
 2715 0223 27       		.uleb128 0x27
 2716 0224 19       		.uleb128 0x19
 2717 0225 3C       		.uleb128 0x3c
 2718 0226 19       		.uleb128 0x19
 2719 0227 00       		.byte	0
 2720 0228 00       		.byte	0
 2721 0229 27       		.uleb128 0x27
 2722 022a 2E       		.uleb128 0x2e
 2723 022b 01       		.byte	0x1
 2724 022c 3F       		.uleb128 0x3f
 2725 022d 19       		.uleb128 0x19
 2726 022e 03       		.uleb128 0x3
 2727 022f 0E       		.uleb128 0xe
 2728 0230 3A       		.uleb128 0x3a
 2729 0231 0B       		.uleb128 0xb
 2730 0232 3B       		.uleb128 0x3b
 2731 0233 0B       		.uleb128 0xb
 2732 0234 27       		.uleb128 0x27
 2733 0235 19       		.uleb128 0x19
 2734 0236 3C       		.uleb128 0x3c
 2735 0237 19       		.uleb128 0x19
 2736 0238 01       		.uleb128 0x1
ARM GAS  /tmp/ccMiMWm2.s 			page 49


 2737 0239 13       		.uleb128 0x13
 2738 023a 00       		.byte	0
 2739 023b 00       		.byte	0
 2740 023c 28       		.uleb128 0x28
 2741 023d 2E       		.uleb128 0x2e
 2742 023e 01       		.byte	0x1
 2743 023f 3F       		.uleb128 0x3f
 2744 0240 19       		.uleb128 0x19
 2745 0241 03       		.uleb128 0x3
 2746 0242 0E       		.uleb128 0xe
 2747 0243 3A       		.uleb128 0x3a
 2748 0244 0B       		.uleb128 0xb
 2749 0245 3B       		.uleb128 0x3b
 2750 0246 0B       		.uleb128 0xb
 2751 0247 27       		.uleb128 0x27
 2752 0248 19       		.uleb128 0x19
 2753 0249 49       		.uleb128 0x49
 2754 024a 13       		.uleb128 0x13
 2755 024b 3C       		.uleb128 0x3c
 2756 024c 19       		.uleb128 0x19
 2757 024d 00       		.byte	0
 2758 024e 00       		.byte	0
 2759 024f 00       		.byte	0
 2760              		.section	.debug_loc,"",%progbits
 2761              	.Ldebug_loc0:
 2762              	.LLST0:
 2763 0000 00000000 		.4byte	.LVL1
 2764 0004 0C000000 		.4byte	.LVL3
 2765 0008 0100     		.2byte	0x1
 2766 000a 51       		.byte	0x51
 2767 000b 0C000000 		.4byte	.LVL3
 2768 000f 10000000 		.4byte	.LVL4
 2769 0013 0400     		.2byte	0x4
 2770 0015 F3       		.byte	0xf3
 2771 0016 01       		.uleb128 0x1
 2772 0017 51       		.byte	0x51
 2773 0018 9F       		.byte	0x9f
 2774 0019 10000000 		.4byte	.LVL4
 2775 001d 18000000 		.4byte	.LVL6
 2776 0021 0100     		.2byte	0x1
 2777 0023 51       		.byte	0x51
 2778 0024 18000000 		.4byte	.LVL6
 2779 0028 1C000000 		.4byte	.LFE8
 2780 002c 0400     		.2byte	0x4
 2781 002e F3       		.byte	0xf3
 2782 002f 01       		.uleb128 0x1
 2783 0030 51       		.byte	0x51
 2784 0031 9F       		.byte	0x9f
 2785 0032 00000000 		.4byte	0
 2786 0036 00000000 		.4byte	0
 2787              	.LLST1:
 2788 003a 00000000 		.4byte	.LVL1
 2789 003e 06000000 		.4byte	.LVL2
 2790 0042 0100     		.2byte	0x1
 2791 0044 50       		.byte	0x50
 2792 0045 06000000 		.4byte	.LVL2
 2793 0049 1C000000 		.4byte	.LFE8
ARM GAS  /tmp/ccMiMWm2.s 			page 50


 2794 004d 0100     		.2byte	0x1
 2795 004f 52       		.byte	0x52
 2796 0050 00000000 		.4byte	0
 2797 0054 00000000 		.4byte	0
 2798              	.LLST2:
 2799 0058 00000000 		.4byte	.LVL7
 2800 005c 12000000 		.4byte	.LVL9
 2801 0060 0100     		.2byte	0x1
 2802 0062 50       		.byte	0x50
 2803 0063 12000000 		.4byte	.LVL9
 2804 0067 18000000 		.4byte	.LFE9
 2805 006b 0400     		.2byte	0x4
 2806 006d F3       		.byte	0xf3
 2807 006e 01       		.uleb128 0x1
 2808 006f 50       		.byte	0x50
 2809 0070 9F       		.byte	0x9f
 2810 0071 00000000 		.4byte	0
 2811 0075 00000000 		.4byte	0
 2812              	.LLST3:
 2813 0079 08000000 		.4byte	.LVL8
 2814 007d 12000000 		.4byte	.LVL9
 2815 0081 0600     		.2byte	0x6
 2816 0083 70       		.byte	0x70
 2817 0084 00       		.sleb128 0
 2818 0085 73       		.byte	0x73
 2819 0086 00       		.sleb128 0
 2820 0087 1A       		.byte	0x1a
 2821 0088 9F       		.byte	0x9f
 2822 0089 12000000 		.4byte	.LVL9
 2823 008d 18000000 		.4byte	.LFE9
 2824 0091 0100     		.2byte	0x1
 2825 0093 50       		.byte	0x50
 2826 0094 00000000 		.4byte	0
 2827 0098 00000000 		.4byte	0
 2828              	.LLST4:
 2829 009c 00000000 		.4byte	.LVL10
 2830 00a0 0A000000 		.4byte	.LVL11
 2831 00a4 0100     		.2byte	0x1
 2832 00a6 50       		.byte	0x50
 2833 00a7 0A000000 		.4byte	.LVL11
 2834 00ab 0C000000 		.4byte	.LVL12
 2835 00af 0400     		.2byte	0x4
 2836 00b1 F3       		.byte	0xf3
 2837 00b2 01       		.uleb128 0x1
 2838 00b3 50       		.byte	0x50
 2839 00b4 9F       		.byte	0x9f
 2840 00b5 0C000000 		.4byte	.LVL12
 2841 00b9 14000000 		.4byte	.LFE10
 2842 00bd 0100     		.2byte	0x1
 2843 00bf 50       		.byte	0x50
 2844 00c0 00000000 		.4byte	0
 2845 00c4 00000000 		.4byte	0
 2846              	.LLST5:
 2847 00c8 00000000 		.4byte	.LVL13
 2848 00cc 06000000 		.4byte	.LVL14
 2849 00d0 0100     		.2byte	0x1
 2850 00d2 50       		.byte	0x50
ARM GAS  /tmp/ccMiMWm2.s 			page 51


 2851 00d3 06000000 		.4byte	.LVL14
 2852 00d7 0E000000 		.4byte	.LFE12
 2853 00db 0100     		.2byte	0x1
 2854 00dd 53       		.byte	0x53
 2855 00de 00000000 		.4byte	0
 2856 00e2 00000000 		.4byte	0
 2857              	.LLST6:
 2858 00e6 00000000 		.4byte	.LVL15
 2859 00ea 25000000 		.4byte	.LVL17-1
 2860 00ee 0100     		.2byte	0x1
 2861 00f0 50       		.byte	0x50
 2862 00f1 25000000 		.4byte	.LVL17-1
 2863 00f5 2C000000 		.4byte	.LFE14
 2864 00f9 0400     		.2byte	0x4
 2865 00fb F3       		.byte	0xf3
 2866 00fc 01       		.uleb128 0x1
 2867 00fd 50       		.byte	0x50
 2868 00fe 9F       		.byte	0x9f
 2869 00ff 00000000 		.4byte	0
 2870 0103 00000000 		.4byte	0
 2871              	.LLST7:
 2872 0107 00000000 		.4byte	.LVL15
 2873 010b 06000000 		.4byte	.LVL16
 2874 010f 0100     		.2byte	0x1
 2875 0111 51       		.byte	0x51
 2876 0112 06000000 		.4byte	.LVL16
 2877 0116 2C000000 		.4byte	.LFE14
 2878 011a 0400     		.2byte	0x4
 2879 011c F3       		.byte	0xf3
 2880 011d 01       		.uleb128 0x1
 2881 011e 51       		.byte	0x51
 2882 011f 9F       		.byte	0x9f
 2883 0120 00000000 		.4byte	0
 2884 0124 00000000 		.4byte	0
 2885              	.LLST8:
 2886 0128 00000000 		.4byte	.LVL18
 2887 012c 0C000000 		.4byte	.LVL20
 2888 0130 0100     		.2byte	0x1
 2889 0132 50       		.byte	0x50
 2890 0133 0C000000 		.4byte	.LVL20
 2891 0137 20000000 		.4byte	.LVL24
 2892 013b 0100     		.2byte	0x1
 2893 013d 55       		.byte	0x55
 2894 013e 20000000 		.4byte	.LVL24
 2895 0142 22000000 		.4byte	.LFE11
 2896 0146 0400     		.2byte	0x4
 2897 0148 F3       		.byte	0xf3
 2898 0149 01       		.uleb128 0x1
 2899 014a 50       		.byte	0x50
 2900 014b 9F       		.byte	0x9f
 2901 014c 00000000 		.4byte	0
 2902 0150 00000000 		.4byte	0
 2903              	.LLST9:
 2904 0154 00000000 		.4byte	.LVL18
 2905 0158 0C000000 		.4byte	.LVL20
 2906 015c 0100     		.2byte	0x1
 2907 015e 51       		.byte	0x51
ARM GAS  /tmp/ccMiMWm2.s 			page 52


 2908 015f 0C000000 		.4byte	.LVL20
 2909 0163 20000000 		.4byte	.LVL25
 2910 0167 0100     		.2byte	0x1
 2911 0169 56       		.byte	0x56
 2912 016a 20000000 		.4byte	.LVL25
 2913 016e 22000000 		.4byte	.LFE11
 2914 0172 0400     		.2byte	0x4
 2915 0174 F3       		.byte	0xf3
 2916 0175 01       		.uleb128 0x1
 2917 0176 51       		.byte	0x51
 2918 0177 9F       		.byte	0x9f
 2919 0178 00000000 		.4byte	0
 2920 017c 00000000 		.4byte	0
 2921              	.LLST10:
 2922 0180 08000000 		.4byte	.LVL19
 2923 0184 20000000 		.4byte	.LVL23
 2924 0188 0100     		.2byte	0x1
 2925 018a 54       		.byte	0x54
 2926 018b 00000000 		.4byte	0
 2927 018f 00000000 		.4byte	0
 2928              	.LLST11:
 2929 0193 00000000 		.4byte	.LVL26
 2930 0197 07000000 		.4byte	.LVL27-1
 2931 019b 0100     		.2byte	0x1
 2932 019d 50       		.byte	0x50
 2933 019e 07000000 		.4byte	.LVL27-1
 2934 01a2 10000000 		.4byte	.LFE13
 2935 01a6 0400     		.2byte	0x4
 2936 01a8 F3       		.byte	0xf3
 2937 01a9 01       		.uleb128 0x1
 2938 01aa 50       		.byte	0x50
 2939 01ab 9F       		.byte	0x9f
 2940 01ac 00000000 		.4byte	0
 2941 01b0 00000000 		.4byte	0
 2942              	.LLST12:
 2943 01b4 00000000 		.4byte	.LVL26
 2944 01b8 07000000 		.4byte	.LVL27-1
 2945 01bc 0100     		.2byte	0x1
 2946 01be 51       		.byte	0x51
 2947 01bf 07000000 		.4byte	.LVL27-1
 2948 01c3 10000000 		.4byte	.LFE13
 2949 01c7 0400     		.2byte	0x4
 2950 01c9 F3       		.byte	0xf3
 2951 01ca 01       		.uleb128 0x1
 2952 01cb 51       		.byte	0x51
 2953 01cc 9F       		.byte	0x9f
 2954 01cd 00000000 		.4byte	0
 2955 01d1 00000000 		.4byte	0
 2956              	.LLST13:
 2957 01d5 00000000 		.4byte	.LVL29
 2958 01d9 07000000 		.4byte	.LVL30-1
 2959 01dd 0100     		.2byte	0x1
 2960 01df 50       		.byte	0x50
 2961 01e0 07000000 		.4byte	.LVL30-1
 2962 01e4 10000000 		.4byte	.LFE15
 2963 01e8 0400     		.2byte	0x4
 2964 01ea F3       		.byte	0xf3
ARM GAS  /tmp/ccMiMWm2.s 			page 53


 2965 01eb 01       		.uleb128 0x1
 2966 01ec 50       		.byte	0x50
 2967 01ed 9F       		.byte	0x9f
 2968 01ee 00000000 		.4byte	0
 2969 01f2 00000000 		.4byte	0
 2970              	.LLST14:
 2971 01f6 00000000 		.4byte	.LVL29
 2972 01fa 07000000 		.4byte	.LVL30-1
 2973 01fe 0100     		.2byte	0x1
 2974 0200 51       		.byte	0x51
 2975 0201 07000000 		.4byte	.LVL30-1
 2976 0205 10000000 		.4byte	.LFE15
 2977 0209 0400     		.2byte	0x4
 2978 020b F3       		.byte	0xf3
 2979 020c 01       		.uleb128 0x1
 2980 020d 51       		.byte	0x51
 2981 020e 9F       		.byte	0x9f
 2982 020f 00000000 		.4byte	0
 2983 0213 00000000 		.4byte	0
 2984              	.LLST15:
 2985 0217 00000000 		.4byte	.LVL32
 2986 021b 04000000 		.4byte	.LVL33
 2987 021f 0100     		.2byte	0x1
 2988 0221 50       		.byte	0x50
 2989 0222 04000000 		.4byte	.LVL33
 2990 0226 0A000000 		.4byte	.LFE16
 2991 022a 0100     		.2byte	0x1
 2992 022c 53       		.byte	0x53
 2993 022d 00000000 		.4byte	0
 2994 0231 00000000 		.4byte	0
 2995              	.LLST16:
 2996 0235 00000000 		.4byte	.LVL34
 2997 0239 0C000000 		.4byte	.LVL36
 2998 023d 0100     		.2byte	0x1
 2999 023f 50       		.byte	0x50
 3000 0240 0C000000 		.4byte	.LVL36
 3001 0244 26000000 		.4byte	.LFE17
 3002 0248 0400     		.2byte	0x4
 3003 024a F3       		.byte	0xf3
 3004 024b 01       		.uleb128 0x1
 3005 024c 50       		.byte	0x50
 3006 024d 9F       		.byte	0x9f
 3007 024e 00000000 		.4byte	0
 3008 0252 00000000 		.4byte	0
 3009              	.LLST17:
 3010 0256 00000000 		.4byte	.LVL34
 3011 025a 0C000000 		.4byte	.LVL36
 3012 025e 0100     		.2byte	0x1
 3013 0260 51       		.byte	0x51
 3014 0261 0C000000 		.4byte	.LVL36
 3015 0265 24000000 		.4byte	.LVL41
 3016 0269 0100     		.2byte	0x1
 3017 026b 55       		.byte	0x55
 3018 026c 00000000 		.4byte	0
 3019 0270 00000000 		.4byte	0
 3020              	.LLST18:
 3021 0274 04000000 		.4byte	.LVL35
ARM GAS  /tmp/ccMiMWm2.s 			page 54


 3022 0278 0C000000 		.4byte	.LVL36
 3023 027c 0200     		.2byte	0x2
 3024 027e 30       		.byte	0x30
 3025 027f 9F       		.byte	0x9f
 3026 0280 0C000000 		.4byte	.LVL36
 3027 0284 24000000 		.4byte	.LVL40
 3028 0288 0100     		.2byte	0x1
 3029 028a 54       		.byte	0x54
 3030 028b 00000000 		.4byte	0
 3031 028f 00000000 		.4byte	0
 3032              	.LLST19:
 3033 0293 00000000 		.4byte	.LVL42
 3034 0297 14000000 		.4byte	.LVL45
 3035 029b 0100     		.2byte	0x1
 3036 029d 50       		.byte	0x50
 3037 029e 14000000 		.4byte	.LVL45
 3038 02a2 28000000 		.4byte	.LVL50
 3039 02a6 0100     		.2byte	0x1
 3040 02a8 55       		.byte	0x55
 3041 02a9 28000000 		.4byte	.LVL50
 3042 02ad 30000000 		.4byte	.LFE18
 3043 02b1 0400     		.2byte	0x4
 3044 02b3 F3       		.byte	0xf3
 3045 02b4 01       		.uleb128 0x1
 3046 02b5 50       		.byte	0x50
 3047 02b6 9F       		.byte	0x9f
 3048 02b7 00000000 		.4byte	0
 3049 02bb 00000000 		.4byte	0
 3050              	.LLST20:
 3051 02bf 08000000 		.4byte	.LVL43
 3052 02c3 28000000 		.4byte	.LVL49
 3053 02c7 0100     		.2byte	0x1
 3054 02c9 54       		.byte	0x54
 3055 02ca 00000000 		.4byte	0
 3056 02ce 00000000 		.4byte	0
 3057              	.LLST21:
 3058 02d2 0E000000 		.4byte	.LVL44
 3059 02d6 17000000 		.4byte	.LVL46-1
 3060 02da 0100     		.2byte	0x1
 3061 02dc 53       		.byte	0x53
 3062 02dd 1C000000 		.4byte	.LVL47
 3063 02e1 20000000 		.4byte	.LVL48
 3064 02e5 0100     		.2byte	0x1
 3065 02e7 53       		.byte	0x53
 3066 02e8 20000000 		.4byte	.LVL48
 3067 02ec 30000000 		.4byte	.LFE18
 3068 02f0 0100     		.2byte	0x1
 3069 02f2 50       		.byte	0x50
 3070 02f3 00000000 		.4byte	0
 3071 02f7 00000000 		.4byte	0
 3072              	.LLST22:
 3073 02fb 00000000 		.4byte	.LVL51
 3074 02ff 0C000000 		.4byte	.LVL53
 3075 0303 0100     		.2byte	0x1
 3076 0305 50       		.byte	0x50
 3077 0306 0C000000 		.4byte	.LVL53
 3078 030a 24000000 		.4byte	.LVL59
ARM GAS  /tmp/ccMiMWm2.s 			page 55


 3079 030e 0100     		.2byte	0x1
 3080 0310 55       		.byte	0x55
 3081 0311 24000000 		.4byte	.LVL59
 3082 0315 2C000000 		.4byte	.LFE19
 3083 0319 0400     		.2byte	0x4
 3084 031b F3       		.byte	0xf3
 3085 031c 01       		.uleb128 0x1
 3086 031d 50       		.byte	0x50
 3087 031e 9F       		.byte	0x9f
 3088 031f 00000000 		.4byte	0
 3089 0323 00000000 		.4byte	0
 3090              	.LLST23:
 3091 0327 08000000 		.4byte	.LVL52
 3092 032b 24000000 		.4byte	.LVL58
 3093 032f 0100     		.2byte	0x1
 3094 0331 54       		.byte	0x54
 3095 0332 00000000 		.4byte	0
 3096 0336 00000000 		.4byte	0
 3097              	.LLST24:
 3098 033a 0E000000 		.4byte	.LVL54
 3099 033e 14000000 		.4byte	.LVL55
 3100 0342 0100     		.2byte	0x1
 3101 0344 50       		.byte	0x50
 3102 0345 14000000 		.4byte	.LVL55
 3103 0349 17000000 		.4byte	.LVL56-1
 3104 034d 0700     		.2byte	0x7
 3105 034f 74       		.byte	0x74
 3106 0350 38       		.sleb128 56
 3107 0351 06       		.byte	0x6
 3108 0352 75       		.byte	0x75
 3109 0353 00       		.sleb128 0
 3110 0354 1A       		.byte	0x1a
 3111 0355 9F       		.byte	0x9f
 3112 0356 1C000000 		.4byte	.LVL57
 3113 035a 2C000000 		.4byte	.LFE19
 3114 035e 0100     		.2byte	0x1
 3115 0360 50       		.byte	0x50
 3116 0361 00000000 		.4byte	0
 3117 0365 00000000 		.4byte	0
 3118              	.LLST25:
 3119 0369 00000000 		.4byte	.LVL60
 3120 036d 16000000 		.4byte	.LVL62
 3121 0371 0100     		.2byte	0x1
 3122 0373 50       		.byte	0x50
 3123 0374 16000000 		.4byte	.LVL62
 3124 0378 24000000 		.4byte	.LVL64
 3125 037c 0100     		.2byte	0x1
 3126 037e 54       		.byte	0x54
 3127 037f 24000000 		.4byte	.LVL64
 3128 0383 2C000000 		.4byte	.LFE20
 3129 0387 0100     		.2byte	0x1
 3130 0389 50       		.byte	0x50
 3131 038a 00000000 		.4byte	0
 3132 038e 00000000 		.4byte	0
 3133              	.LLST26:
 3134 0392 08000000 		.4byte	.LVL61
 3135 0396 24000000 		.4byte	.LVL65
ARM GAS  /tmp/ccMiMWm2.s 			page 56


 3136 039a 0100     		.2byte	0x1
 3137 039c 55       		.byte	0x55
 3138 039d 00000000 		.4byte	0
 3139 03a1 00000000 		.4byte	0
 3140              	.LLST27:
 3141 03a5 00000000 		.4byte	.LVL66
 3142 03a9 18000000 		.4byte	.LVL69
 3143 03ad 0100     		.2byte	0x1
 3144 03af 50       		.byte	0x50
 3145 03b0 18000000 		.4byte	.LVL69
 3146 03b4 1A000000 		.4byte	.LVL70
 3147 03b8 0100     		.2byte	0x1
 3148 03ba 55       		.byte	0x55
 3149 03bb 1A000000 		.4byte	.LVL70
 3150 03bf 1E000000 		.4byte	.LVL71
 3151 03c3 0100     		.2byte	0x1
 3152 03c5 50       		.byte	0x50
 3153 03c6 1E000000 		.4byte	.LVL71
 3154 03ca 3E000000 		.4byte	.LVL77
 3155 03ce 0100     		.2byte	0x1
 3156 03d0 55       		.byte	0x55
 3157 03d1 3E000000 		.4byte	.LVL77
 3158 03d5 44000000 		.4byte	.LFE21
 3159 03d9 0400     		.2byte	0x4
 3160 03db F3       		.byte	0xf3
 3161 03dc 01       		.uleb128 0x1
 3162 03dd 50       		.byte	0x50
 3163 03de 9F       		.byte	0x9f
 3164 03df 00000000 		.4byte	0
 3165 03e3 00000000 		.4byte	0
 3166              	.LLST28:
 3167 03e7 00000000 		.4byte	.LVL66
 3168 03eb 21000000 		.4byte	.LVL72-1
 3169 03ef 0100     		.2byte	0x1
 3170 03f1 51       		.byte	0x51
 3171 03f2 21000000 		.4byte	.LVL72-1
 3172 03f6 44000000 		.4byte	.LFE21
 3173 03fa 0400     		.2byte	0x4
 3174 03fc F3       		.byte	0xf3
 3175 03fd 01       		.uleb128 0x1
 3176 03fe 51       		.byte	0x51
 3177 03ff 9F       		.byte	0x9f
 3178 0400 00000000 		.4byte	0
 3179 0404 00000000 		.4byte	0
 3180              	.LLST29:
 3181 0408 08000000 		.4byte	.LVL67
 3182 040c 3E000000 		.4byte	.LVL76
 3183 0410 0100     		.2byte	0x1
 3184 0412 54       		.byte	0x54
 3185 0413 00000000 		.4byte	0
 3186 0417 00000000 		.4byte	0
 3187              	.LLST30:
 3188 041b 0E000000 		.4byte	.LVL68
 3189 041f 21000000 		.4byte	.LVL72-1
 3190 0423 0100     		.2byte	0x1
 3191 0425 53       		.byte	0x53
 3192 0426 30000000 		.4byte	.LVL73
ARM GAS  /tmp/ccMiMWm2.s 			page 57


 3193 042a 3E000000 		.4byte	.LVL75
 3194 042e 0100     		.2byte	0x1
 3195 0430 53       		.byte	0x53
 3196 0431 00000000 		.4byte	0
 3197 0435 00000000 		.4byte	0
 3198              	.LLST31:
 3199 0439 00000000 		.4byte	.LVL78
 3200 043d 18000000 		.4byte	.LVL81
 3201 0441 0100     		.2byte	0x1
 3202 0443 50       		.byte	0x50
 3203 0444 18000000 		.4byte	.LVL81
 3204 0448 1A000000 		.4byte	.LVL82
 3205 044c 0100     		.2byte	0x1
 3206 044e 55       		.byte	0x55
 3207 044f 1A000000 		.4byte	.LVL82
 3208 0453 1E000000 		.4byte	.LVL83
 3209 0457 0100     		.2byte	0x1
 3210 0459 50       		.byte	0x50
 3211 045a 1E000000 		.4byte	.LVL83
 3212 045e 3A000000 		.4byte	.LVL88
 3213 0462 0100     		.2byte	0x1
 3214 0464 55       		.byte	0x55
 3215 0465 3A000000 		.4byte	.LVL88
 3216 0469 40000000 		.4byte	.LFE22
 3217 046d 0400     		.2byte	0x4
 3218 046f F3       		.byte	0xf3
 3219 0470 01       		.uleb128 0x1
 3220 0471 50       		.byte	0x50
 3221 0472 9F       		.byte	0x9f
 3222 0473 00000000 		.4byte	0
 3223 0477 00000000 		.4byte	0
 3224              	.LLST32:
 3225 047b 00000000 		.4byte	.LVL78
 3226 047f 21000000 		.4byte	.LVL84-1
 3227 0483 0100     		.2byte	0x1
 3228 0485 51       		.byte	0x51
 3229 0486 21000000 		.4byte	.LVL84-1
 3230 048a 40000000 		.4byte	.LFE22
 3231 048e 0400     		.2byte	0x4
 3232 0490 F3       		.byte	0xf3
 3233 0491 01       		.uleb128 0x1
 3234 0492 51       		.byte	0x51
 3235 0493 9F       		.byte	0x9f
 3236 0494 00000000 		.4byte	0
 3237 0498 00000000 		.4byte	0
 3238              	.LLST33:
 3239 049c 08000000 		.4byte	.LVL79
 3240 04a0 3A000000 		.4byte	.LVL87
 3241 04a4 0100     		.2byte	0x1
 3242 04a6 54       		.byte	0x54
 3243 04a7 00000000 		.4byte	0
 3244 04ab 00000000 		.4byte	0
 3245              	.LLST34:
 3246 04af 0E000000 		.4byte	.LVL80
 3247 04b3 21000000 		.4byte	.LVL84-1
 3248 04b7 0100     		.2byte	0x1
 3249 04b9 53       		.byte	0x53
ARM GAS  /tmp/ccMiMWm2.s 			page 58


 3250 04ba 30000000 		.4byte	.LVL85
 3251 04be 3A000000 		.4byte	.LVL86
 3252 04c2 0100     		.2byte	0x1
 3253 04c4 53       		.byte	0x53
 3254 04c5 00000000 		.4byte	0
 3255 04c9 00000000 		.4byte	0
 3256              	.LLST35:
 3257 04cd 00000000 		.4byte	.LVL89
 3258 04d1 1A000000 		.4byte	.LVL91
 3259 04d5 0100     		.2byte	0x1
 3260 04d7 50       		.byte	0x50
 3261 04d8 1A000000 		.4byte	.LVL91
 3262 04dc 1C000000 		.4byte	.LVL92
 3263 04e0 0100     		.2byte	0x1
 3264 04e2 54       		.byte	0x54
 3265 04e3 1C000000 		.4byte	.LVL92
 3266 04e7 20000000 		.4byte	.LVL93
 3267 04eb 0100     		.2byte	0x1
 3268 04ed 50       		.byte	0x50
 3269 04ee 20000000 		.4byte	.LVL93
 3270 04f2 38000000 		.4byte	.LVL95
 3271 04f6 0100     		.2byte	0x1
 3272 04f8 54       		.byte	0x54
 3273 04f9 38000000 		.4byte	.LVL95
 3274 04fd 40000000 		.4byte	.LFE23
 3275 0501 0400     		.2byte	0x4
 3276 0503 F3       		.byte	0xf3
 3277 0504 01       		.uleb128 0x1
 3278 0505 50       		.byte	0x50
 3279 0506 9F       		.byte	0x9f
 3280 0507 00000000 		.4byte	0
 3281 050b 00000000 		.4byte	0
 3282              	.LLST36:
 3283 050f 00000000 		.4byte	.LVL89
 3284 0513 23000000 		.4byte	.LVL94-1
 3285 0517 0100     		.2byte	0x1
 3286 0519 51       		.byte	0x51
 3287 051a 23000000 		.4byte	.LVL94-1
 3288 051e 40000000 		.4byte	.LFE23
 3289 0522 0400     		.2byte	0x4
 3290 0524 F3       		.byte	0xf3
 3291 0525 01       		.uleb128 0x1
 3292 0526 51       		.byte	0x51
 3293 0527 9F       		.byte	0x9f
 3294 0528 00000000 		.4byte	0
 3295 052c 00000000 		.4byte	0
 3296              	.LLST37:
 3297 0530 08000000 		.4byte	.LVL90
 3298 0534 38000000 		.4byte	.LVL96
 3299 0538 0100     		.2byte	0x1
 3300 053a 55       		.byte	0x55
 3301 053b 00000000 		.4byte	0
 3302 053f 00000000 		.4byte	0
 3303              		.section	.debug_aranges,"",%progbits
 3304 0000 9C000000 		.4byte	0x9c
 3305 0004 0200     		.2byte	0x2
 3306 0006 00000000 		.4byte	.Ldebug_info0
ARM GAS  /tmp/ccMiMWm2.s 			page 59


 3307 000a 04       		.byte	0x4
 3308 000b 00       		.byte	0
 3309 000c 0000     		.2byte	0
 3310 000e 0000     		.2byte	0
 3311 0010 00000000 		.4byte	.LFB7
 3312 0014 1C000000 		.4byte	.LFE7-.LFB7
 3313 0018 00000000 		.4byte	.LFB8
 3314 001c 1C000000 		.4byte	.LFE8-.LFB8
 3315 0020 00000000 		.4byte	.LFB9
 3316 0024 18000000 		.4byte	.LFE9-.LFB9
 3317 0028 00000000 		.4byte	.LFB10
 3318 002c 14000000 		.4byte	.LFE10-.LFB10
 3319 0030 00000000 		.4byte	.LFB12
 3320 0034 0E000000 		.4byte	.LFE12-.LFB12
 3321 0038 00000000 		.4byte	.LFB14
 3322 003c 2C000000 		.4byte	.LFE14-.LFB14
 3323 0040 00000000 		.4byte	.LFB11
 3324 0044 22000000 		.4byte	.LFE11-.LFB11
 3325 0048 00000000 		.4byte	.LFB13
 3326 004c 10000000 		.4byte	.LFE13-.LFB13
 3327 0050 00000000 		.4byte	.LFB15
 3328 0054 10000000 		.4byte	.LFE15-.LFB15
 3329 0058 00000000 		.4byte	.LFB16
 3330 005c 0A000000 		.4byte	.LFE16-.LFB16
 3331 0060 00000000 		.4byte	.LFB17
 3332 0064 26000000 		.4byte	.LFE17-.LFB17
 3333 0068 00000000 		.4byte	.LFB18
 3334 006c 30000000 		.4byte	.LFE18-.LFB18
 3335 0070 00000000 		.4byte	.LFB19
 3336 0074 2C000000 		.4byte	.LFE19-.LFB19
 3337 0078 00000000 		.4byte	.LFB20
 3338 007c 2C000000 		.4byte	.LFE20-.LFB20
 3339 0080 00000000 		.4byte	.LFB21
 3340 0084 44000000 		.4byte	.LFE21-.LFB21
 3341 0088 00000000 		.4byte	.LFB22
 3342 008c 40000000 		.4byte	.LFE22-.LFB22
 3343 0090 00000000 		.4byte	.LFB23
 3344 0094 40000000 		.4byte	.LFE23-.LFB23
 3345 0098 00000000 		.4byte	0
 3346 009c 00000000 		.4byte	0
 3347              		.section	.debug_ranges,"",%progbits
 3348              	.Ldebug_ranges0:
 3349 0000 00000000 		.4byte	.LFB7
 3350 0004 1C000000 		.4byte	.LFE7
 3351 0008 00000000 		.4byte	.LFB8
 3352 000c 1C000000 		.4byte	.LFE8
 3353 0010 00000000 		.4byte	.LFB9
 3354 0014 18000000 		.4byte	.LFE9
 3355 0018 00000000 		.4byte	.LFB10
 3356 001c 14000000 		.4byte	.LFE10
 3357 0020 00000000 		.4byte	.LFB12
 3358 0024 0E000000 		.4byte	.LFE12
 3359 0028 00000000 		.4byte	.LFB14
 3360 002c 2C000000 		.4byte	.LFE14
 3361 0030 00000000 		.4byte	.LFB11
 3362 0034 22000000 		.4byte	.LFE11
 3363 0038 00000000 		.4byte	.LFB13
ARM GAS  /tmp/ccMiMWm2.s 			page 60


 3364 003c 10000000 		.4byte	.LFE13
 3365 0040 00000000 		.4byte	.LFB15
 3366 0044 10000000 		.4byte	.LFE15
 3367 0048 00000000 		.4byte	.LFB16
 3368 004c 0A000000 		.4byte	.LFE16
 3369 0050 00000000 		.4byte	.LFB17
 3370 0054 26000000 		.4byte	.LFE17
 3371 0058 00000000 		.4byte	.LFB18
 3372 005c 30000000 		.4byte	.LFE18
 3373 0060 00000000 		.4byte	.LFB19
 3374 0064 2C000000 		.4byte	.LFE19
 3375 0068 00000000 		.4byte	.LFB20
 3376 006c 2C000000 		.4byte	.LFE20
 3377 0070 00000000 		.4byte	.LFB21
 3378 0074 44000000 		.4byte	.LFE21
 3379 0078 00000000 		.4byte	.LFB22
 3380 007c 40000000 		.4byte	.LFE22
 3381 0080 00000000 		.4byte	.LFB23
 3382 0084 40000000 		.4byte	.LFE23
 3383 0088 00000000 		.4byte	0
 3384 008c 00000000 		.4byte	0
 3385              		.section	.debug_line,"",%progbits
 3386              	.Ldebug_line0:
 3387 0000 44030000 		.section	.debug_str,"MS",%progbits,1
 3387      02009301 
 3387      00000201 
 3387      FB0E0D00 
 3387      01010101 
 3388              	.LASF41:
 3389 0000 705F6D73 		.ascii	"p_msg\000"
 3389      6700
 3390              	.LASF71:
 3391 0006 7264796D 		.ascii	"rdymsg\000"
 3391      736700
 3392              	.LASF5:
 3393 000d 5F5F7569 		.ascii	"__uint8_t\000"
 3393      6E74385F 
 3393      7400
 3394              	.LASF85:
 3395 0017 63684576 		.ascii	"chEvtSignal\000"
 3395      74536967 
 3395      6E616C00 
 3396              	.LASF11:
 3397 0023 6C6F6E67 		.ascii	"long long unsigned int\000"
 3397      206C6F6E 
 3397      6720756E 
 3397      7369676E 
 3397      65642069 
 3398              	.LASF80:
 3399 003a 63684576 		.ascii	"chEvtAddEvents\000"
 3399      74416464 
 3399      4576656E 
 3399      747300
 3400              	.LASF72:
 3401 0049 65786974 		.ascii	"exitcode\000"
 3401      636F6465 
 3401      00
ARM GAS  /tmp/ccMiMWm2.s 			page 61


 3402              	.LASF95:
 3403 0052 63684576 		.ascii	"chEvtWaitAnyTimeout\000"
 3403      74576169 
 3403      74416E79 
 3403      54696D65 
 3403      6F757400 
 3404              	.LASF29:
 3405 0066 705F7072 		.ascii	"p_prio\000"
 3405      696F00
 3406              	.LASF10:
 3407 006d 6C6F6E67 		.ascii	"long long int\000"
 3407      206C6F6E 
 3407      6720696E 
 3407      7400
 3408              	.LASF1:
 3409 007b 7369676E 		.ascii	"signed char\000"
 3409      65642063 
 3409      68617200 
 3410              	.LASF96:
 3411 0087 63684576 		.ascii	"chEvtWaitAllTimeout\000"
 3411      74576169 
 3411      74416C6C 
 3411      54696D65 
 3411      6F757400 
 3412              	.LASF45:
 3413 009b 705F6D70 		.ascii	"p_mpool\000"
 3413      6F6F6C00 
 3414              	.LASF60:
 3415 00a3 6D5F7175 		.ascii	"m_queue\000"
 3415      65756500 
 3416              	.LASF19:
 3417 00ab 74736C69 		.ascii	"tslices_t\000"
 3417      6365735F 
 3417      7400
 3418              	.LASF7:
 3419 00b5 6C6F6E67 		.ascii	"long int\000"
 3419      20696E74 
 3419      00
 3420              	.LASF17:
 3421 00be 74737461 		.ascii	"tstate_t\000"
 3421      74655F74 
 3421      00
 3422              	.LASF91:
 3423 00c7 63684576 		.ascii	"chEvtWaitAny\000"
 3423      74576169 
 3423      74416E79 
 3423      00
 3424              	.LASF98:
 3425 00d4 63685363 		.ascii	"chSchGoSleepTimeoutS\000"
 3425      68476F53 
 3425      6C656570 
 3425      54696D65 
 3425      6F757453 
 3426              	.LASF84:
 3427 00e9 63684576 		.ascii	"chEvtBroadcastFlagsI\000"
 3427      7442726F 
 3427      61646361 
ARM GAS  /tmp/ccMiMWm2.s 			page 62


 3427      7374466C 
 3427      61677349 
 3428              	.LASF31:
 3429 00fe 705F6E65 		.ascii	"p_newer\000"
 3429      77657200 
 3430              	.LASF104:
 3431 0106 63685363 		.ascii	"chSchRescheduleS\000"
 3431      68526573 
 3431      63686564 
 3431      756C6553 
 3431      00
 3432              	.LASF8:
 3433 0117 5F5F7569 		.ascii	"__uint32_t\000"
 3433      6E743332 
 3433      5F7400
 3434              	.LASF76:
 3435 0122 6D61736B 		.ascii	"mask\000"
 3435      00
 3436              	.LASF48:
 3437 0127 72656761 		.ascii	"regarm_t\000"
 3437      726D5F74 
 3437      00
 3438              	.LASF86:
 3439 0130 63684576 		.ascii	"chEvtBroadcastFlags\000"
 3439      7442726F 
 3439      61646361 
 3439      7374466C 
 3439      61677300 
 3440              	.LASF22:
 3441 0144 6576656E 		.ascii	"eventid_t\000"
 3441      7469645F 
 3441      7400
 3442              	.LASF68:
 3443 014e 4576656E 		.ascii	"EventSource\000"
 3443      74536F75 
 3443      72636500 
 3444              	.LASF70:
 3445 015a 65766861 		.ascii	"evhandler_t\000"
 3445      6E646C65 
 3445      725F7400 
 3446              	.LASF0:
 3447 0166 756E7369 		.ascii	"unsigned int\000"
 3447      676E6564 
 3447      20696E74 
 3447      00
 3448              	.LASF9:
 3449 0173 6C6F6E67 		.ascii	"long unsigned int\000"
 3449      20756E73 
 3449      69676E65 
 3449      6420696E 
 3449      7400
 3450              	.LASF79:
 3451 0185 63684576 		.ascii	"chEvtGetAndClearEvents\000"
 3451      74476574 
 3451      416E6443 
 3451      6C656172 
 3451      4576656E 
ARM GAS  /tmp/ccMiMWm2.s 			page 63


 3452              	.LASF50:
 3453 019c 636F6E74 		.ascii	"context\000"
 3453      65787400 
 3454              	.LASF4:
 3455 01a4 73686F72 		.ascii	"short unsigned int\000"
 3455      7420756E 
 3455      7369676E 
 3455      65642069 
 3455      6E7400
 3456              	.LASF77:
 3457 01b7 63684576 		.ascii	"chEvtRegisterMask\000"
 3457      74526567 
 3457      69737465 
 3457      724D6173 
 3457      6B00
 3458              	.LASF21:
 3459 01c9 6D73675F 		.ascii	"msg_t\000"
 3459      7400
 3460              	.LASF55:
 3461 01cf 725F6E65 		.ascii	"r_newer\000"
 3461      77657200 
 3462              	.LASF64:
 3463 01d7 656C5F6E 		.ascii	"el_next\000"
 3463      65787400 
 3464              	.LASF78:
 3465 01df 63684576 		.ascii	"chEvtUnregister\000"
 3465      74556E72 
 3465      65676973 
 3465      74657200 
 3466              	.LASF99:
 3467 01ef 474E5520 		.ascii	"GNU C 4.8.4 20140526 (release) [ARM/embedded-4_8-br"
 3467      4320342E 
 3467      382E3420 
 3467      32303134 
 3467      30353236 
 3468 0222 616E6368 		.ascii	"anch revision 211358] -mcpu=cortex-m0 -mno-thumb-in"
 3468      20726576 
 3468      6973696F 
 3468      6E203231 
 3468      31333538 
 3469 0255 74657277 		.ascii	"terwork -mthumb -ggdb -O1 -fomit-frame-pointer -ffu"
 3469      6F726B20 
 3469      2D6D7468 
 3469      756D6220 
 3469      2D676764 
 3470 0288 6E637469 		.ascii	"nction-sections -fdata-sections -fno-common\000"
 3470      6F6E2D73 
 3470      65637469 
 3470      6F6E7320 
 3470      2D666461 
 3471              	.LASF47:
 3472 02b4 54687265 		.ascii	"ThreadsList\000"
 3472      6164734C 
 3472      69737400 
 3473              	.LASF23:
 3474 02c0 6576656E 		.ascii	"eventmask_t\000"
 3474      746D6173 
ARM GAS  /tmp/ccMiMWm2.s 			page 64


 3474      6B5F7400 
 3475              	.LASF59:
 3476 02cc 4D757465 		.ascii	"Mutex\000"
 3476      7800
 3477              	.LASF51:
 3478 02d2 73697A65 		.ascii	"sizetype\000"
 3478      74797065 
 3478      00
 3479              	.LASF88:
 3480 02db 63684576 		.ascii	"chEvtDispatch\000"
 3480      74446973 
 3480      70617463 
 3480      6800
 3481              	.LASF32:
 3482 02e9 705F6F6C 		.ascii	"p_older\000"
 3482      64657200 
 3483              	.LASF54:
 3484 02f1 725F6374 		.ascii	"r_ctx\000"
 3484      7800
 3485              	.LASF46:
 3486 02f7 54687265 		.ascii	"ThreadsQueue\000"
 3486      61647351 
 3486      75657565 
 3486      00
 3487              	.LASF94:
 3488 0304 74696D65 		.ascii	"time\000"
 3488      00
 3489              	.LASF92:
 3490 0309 63684576 		.ascii	"chEvtWaitAll\000"
 3490      74576169 
 3490      74416C6C 
 3490      00
 3491              	.LASF57:
 3492 0316 725F6375 		.ascii	"r_current\000"
 3492      7272656E 
 3492      7400
 3493              	.LASF56:
 3494 0320 725F6F6C 		.ascii	"r_older\000"
 3494      64657200 
 3495              	.LASF66:
 3496 0328 656C5F6D 		.ascii	"el_mask\000"
 3496      61736B00 
 3497              	.LASF89:
 3498 0330 68616E64 		.ascii	"handlers\000"
 3498      6C657273 
 3498      00
 3499              	.LASF18:
 3500 0339 74726566 		.ascii	"trefs_t\000"
 3500      735F7400 
 3501              	.LASF28:
 3502 0341 705F7072 		.ascii	"p_prev\000"
 3502      657600
 3503              	.LASF20:
 3504 0348 74707269 		.ascii	"tprio_t\000"
 3504      6F5F7400 
 3505              	.LASF15:
 3506 0350 5F426F6F 		.ascii	"_Bool\000"
ARM GAS  /tmp/ccMiMWm2.s 			page 65


 3506      6C00
 3507              	.LASF13:
 3508 0356 696E7433 		.ascii	"int32_t\000"
 3508      325F7400 
 3509              	.LASF2:
 3510 035e 756E7369 		.ascii	"unsigned char\000"
 3510      676E6564 
 3510      20636861 
 3510      7200
 3511              	.LASF90:
 3512 036c 63684576 		.ascii	"chEvtWaitOne\000"
 3512      74576169 
 3512      744F6E65 
 3512      00
 3513              	.LASF65:
 3514 0379 656C5F6C 		.ascii	"el_listener\000"
 3514      69737465 
 3514      6E657200 
 3515              	.LASF67:
 3516 0385 656C5F66 		.ascii	"el_flags\000"
 3516      6C616773 
 3516      00
 3517              	.LASF43:
 3518 038e 705F6D74 		.ascii	"p_mtxlist\000"
 3518      786C6973 
 3518      7400
 3519              	.LASF3:
 3520 0398 73686F72 		.ascii	"short int\000"
 3520      7420696E 
 3520      7400
 3521              	.LASF34:
 3522 03a2 705F7374 		.ascii	"p_state\000"
 3522      61746500 
 3523              	.LASF37:
 3524 03aa 705F7072 		.ascii	"p_preempt\000"
 3524      65656D70 
 3524      7400
 3525              	.LASF53:
 3526 03b4 725F7072 		.ascii	"r_prio\000"
 3526      696F00
 3527              	.LASF87:
 3528 03bb 63684576 		.ascii	"chEvtGetAndClearFlagsI\000"
 3528      74476574 
 3528      416E6443 
 3528      6C656172 
 3528      466C6167 
 3529              	.LASF74:
 3530 03d2 65776D61 		.ascii	"ewmask\000"
 3530      736B00
 3531              	.LASF27:
 3532 03d9 705F6E65 		.ascii	"p_next\000"
 3532      787400
 3533              	.LASF16:
 3534 03e0 746D6F64 		.ascii	"tmode_t\000"
 3534      655F7400 
 3535              	.LASF35:
 3536 03e8 705F666C 		.ascii	"p_flags\000"
ARM GAS  /tmp/ccMiMWm2.s 			page 66


 3536      61677300 
 3537              	.LASF26:
 3538 03f0 54687265 		.ascii	"Thread\000"
 3538      616400
 3539              	.LASF97:
 3540 03f7 63685363 		.ascii	"chSchGoSleepS\000"
 3540      68476F53 
 3540      6C656570 
 3540      5300
 3541              	.LASF42:
 3542 0405 705F6570 		.ascii	"p_epending\000"
 3542      656E6469 
 3542      6E6700
 3543              	.LASF14:
 3544 0410 75696E74 		.ascii	"uint32_t\000"
 3544      33325F74 
 3544      00
 3545              	.LASF52:
 3546 0419 725F7175 		.ascii	"r_queue\000"
 3546      65756500 
 3547              	.LASF103:
 3548 0421 63685363 		.ascii	"chSchReadyI\000"
 3548      68526561 
 3548      64794900 
 3549              	.LASF75:
 3550 042d 63686172 		.ascii	"char\000"
 3550      00
 3551              	.LASF62:
 3552 0432 6D5F6E65 		.ascii	"m_next\000"
 3552      787400
 3553              	.LASF25:
 3554 0439 73797374 		.ascii	"systime_t\000"
 3554      696D655F 
 3554      7400
 3555              	.LASF44:
 3556 0443 705F7265 		.ascii	"p_realprio\000"
 3556      616C7072 
 3556      696F00
 3557              	.LASF6:
 3558 044e 5F5F696E 		.ascii	"__int32_t\000"
 3558      7433325F 
 3558      7400
 3559              	.LASF38:
 3560 0458 705F7469 		.ascii	"p_time\000"
 3560      6D6500
 3561              	.LASF93:
 3562 045f 63684576 		.ascii	"chEvtWaitOneTimeout\000"
 3562      74576169 
 3562      744F6E65 
 3562      54696D65 
 3562      6F757400 
 3563              	.LASF101:
 3564 0473 2F484444 		.ascii	"/HDD/GIT/variometer/Altimeter/\000"
 3564      2F474954 
 3564      2F766172 
 3564      696F6D65 
 3564      7465722F 
ARM GAS  /tmp/ccMiMWm2.s 			page 67


 3565              	.LASF49:
 3566 0492 696E7463 		.ascii	"intctx\000"
 3566      747800
 3567              	.LASF40:
 3568 0499 705F6D73 		.ascii	"p_msgqueue\000"
 3568      67717565 
 3568      756500
 3569              	.LASF24:
 3570 04a4 666C6167 		.ascii	"flagsmask_t\000"
 3570      736D6173 
 3570      6B5F7400 
 3571              	.LASF36:
 3572 04b0 705F7265 		.ascii	"p_refs\000"
 3572      667300
 3573              	.LASF58:
 3574 04b7 52656164 		.ascii	"ReadyList\000"
 3574      794C6973 
 3574      7400
 3575              	.LASF102:
 3576 04c1 726C6973 		.ascii	"rlist\000"
 3576      7400
 3577              	.LASF12:
 3578 04c7 75696E74 		.ascii	"uint8_t\000"
 3578      385F7400 
 3579              	.LASF82:
 3580 04cf 666C6167 		.ascii	"flags\000"
 3580      7300
 3581              	.LASF63:
 3582 04d5 4576656E 		.ascii	"EventListener\000"
 3582      744C6973 
 3582      74656E65 
 3582      7200
 3583              	.LASF100:
 3584 04e3 43686962 		.ascii	"ChibiOS_2.6.5/os/kernel/src/chevents.c\000"
 3584      694F535F 
 3584      322E362E 
 3584      352F6F73 
 3584      2F6B6572 
 3585              	.LASF73:
 3586 050a 77746F62 		.ascii	"wtobjp\000"
 3586      6A7000
 3587              	.LASF33:
 3588 0511 705F6E61 		.ascii	"p_name\000"
 3588      6D6500
 3589              	.LASF69:
 3590 0518 65735F6E 		.ascii	"es_next\000"
 3590      65787400 
 3591              	.LASF81:
 3592 0520 63684576 		.ascii	"chEvtGetAndClearFlags\000"
 3592      74476574 
 3592      416E6443 
 3592      6C656172 
 3592      466C6167 
 3593              	.LASF61:
 3594 0536 6D5F6F77 		.ascii	"m_owner\000"
 3594      6E657200 
 3595              	.LASF30:
ARM GAS  /tmp/ccMiMWm2.s 			page 68


 3596 053e 705F6374 		.ascii	"p_ctx\000"
 3596      7800
 3597              	.LASF39:
 3598 0544 705F7761 		.ascii	"p_waiting\000"
 3598      6974696E 
 3598      6700
 3599              	.LASF83:
 3600 054e 63684576 		.ascii	"chEvtSignalI\000"
 3600      74536967 
 3600      6E616C49 
 3600      00
 3601              		.ident	"GCC: (GNU Tools for ARM Embedded Processors) 4.8.4 20140526 (release) [ARM/embedded-4_8-br
ARM GAS  /tmp/ccMiMWm2.s 			page 69


DEFINED SYMBOLS
                            *ABS*:00000000 chevents.c
     /tmp/ccMiMWm2.s:18     .text.chEvtRegisterMask:00000000 $t
     /tmp/ccMiMWm2.s:23     .text.chEvtRegisterMask:00000000 chEvtRegisterMask
     /tmp/ccMiMWm2.s:59     .text.chEvtRegisterMask:00000018 $d
     /tmp/ccMiMWm2.s:64     .text.chEvtUnregister:00000000 $t
     /tmp/ccMiMWm2.s:69     .text.chEvtUnregister:00000000 chEvtUnregister
     /tmp/ccMiMWm2.s:118    .text.chEvtGetAndClearEvents:00000000 $t
     /tmp/ccMiMWm2.s:123    .text.chEvtGetAndClearEvents:00000000 chEvtGetAndClearEvents
     /tmp/ccMiMWm2.s:156    .text.chEvtGetAndClearEvents:00000014 $d
     /tmp/ccMiMWm2.s:161    .text.chEvtAddEvents:00000000 $t
     /tmp/ccMiMWm2.s:166    .text.chEvtAddEvents:00000000 chEvtAddEvents
     /tmp/ccMiMWm2.s:195    .text.chEvtAddEvents:00000010 $d
     /tmp/ccMiMWm2.s:200    .text.chEvtGetAndClearFlags:00000000 $t
     /tmp/ccMiMWm2.s:205    .text.chEvtGetAndClearFlags:00000000 chEvtGetAndClearFlags
     /tmp/ccMiMWm2.s:234    .text.chEvtSignalI:00000000 $t
     /tmp/ccMiMWm2.s:239    .text.chEvtSignalI:00000000 chEvtSignalI
     /tmp/ccMiMWm2.s:286    .text.chEvtBroadcastFlagsI:00000000 $t
     /tmp/ccMiMWm2.s:291    .text.chEvtBroadcastFlagsI:00000000 chEvtBroadcastFlagsI
     /tmp/ccMiMWm2.s:338    .text.chEvtSignal:00000000 $t
     /tmp/ccMiMWm2.s:343    .text.chEvtSignal:00000000 chEvtSignal
     /tmp/ccMiMWm2.s:375    .text.chEvtBroadcastFlags:00000000 $t
     /tmp/ccMiMWm2.s:380    .text.chEvtBroadcastFlags:00000000 chEvtBroadcastFlags
     /tmp/ccMiMWm2.s:412    .text.chEvtGetAndClearFlagsI:00000000 $t
     /tmp/ccMiMWm2.s:417    .text.chEvtGetAndClearFlagsI:00000000 chEvtGetAndClearFlagsI
     /tmp/ccMiMWm2.s:436    .text.chEvtDispatch:00000000 $t
     /tmp/ccMiMWm2.s:441    .text.chEvtDispatch:00000000 chEvtDispatch
     /tmp/ccMiMWm2.s:495    .text.chEvtWaitOne:00000000 $t
     /tmp/ccMiMWm2.s:500    .text.chEvtWaitOne:00000000 chEvtWaitOne
     /tmp/ccMiMWm2.s:559    .text.chEvtWaitOne:0000002c $d
     /tmp/ccMiMWm2.s:564    .text.chEvtWaitAny:00000000 $t
     /tmp/ccMiMWm2.s:569    .text.chEvtWaitAny:00000000 chEvtWaitAny
     /tmp/ccMiMWm2.s:625    .text.chEvtWaitAny:00000028 $d
     /tmp/ccMiMWm2.s:630    .text.chEvtWaitAll:00000000 $t
     /tmp/ccMiMWm2.s:635    .text.chEvtWaitAll:00000000 chEvtWaitAll
     /tmp/ccMiMWm2.s:687    .text.chEvtWaitAll:00000028 $d
     /tmp/ccMiMWm2.s:692    .text.chEvtWaitOneTimeout:00000000 $t
     /tmp/ccMiMWm2.s:697    .text.chEvtWaitOneTimeout:00000000 chEvtWaitOneTimeout
     /tmp/ccMiMWm2.s:785    .text.chEvtWaitOneTimeout:00000040 $d
     /tmp/ccMiMWm2.s:790    .text.chEvtWaitAnyTimeout:00000000 $t
     /tmp/ccMiMWm2.s:795    .text.chEvtWaitAnyTimeout:00000000 chEvtWaitAnyTimeout
     /tmp/ccMiMWm2.s:879    .text.chEvtWaitAnyTimeout:0000003c $d
     /tmp/ccMiMWm2.s:884    .text.chEvtWaitAllTimeout:00000000 $t
     /tmp/ccMiMWm2.s:889    .text.chEvtWaitAllTimeout:00000000 chEvtWaitAllTimeout
     /tmp/ccMiMWm2.s:967    .text.chEvtWaitAllTimeout:0000003c $d
                     .debug_frame:00000010 $d

UNDEFINED SYMBOLS
rlist
chSchReadyI
chSchRescheduleS
chSchGoSleepS
chSchGoSleepTimeoutS
