ARM GAS  /tmp/ccMiMWm2.s 			page 1


   1              		.cpu cortex-m0
   2              		.fpu softvfp
   3              		.eabi_attribute 20, 1
   4              		.eabi_attribute 21, 1
   5              		.eabi_attribute 23, 3
   6              		.eabi_attribute 24, 1
   7              		.eabi_attribute 25, 1
   8              		.eabi_attribute 26, 1
   9              		.eabi_attribute 30, 1
  10              		.eabi_attribute 34, 0
  11              		.eabi_attribute 18, 4
  12              		.code	16
  13              		.file	"chevents.c"
  14              		.text
  15              	.Ltext0:
  16              		.cfi_sections	.debug_frame
  17              		.section	.text.chEvtRegisterMask,"ax",%progbits
  18              		.align	2
  19              		.global	chEvtRegisterMask
  20              		.code	16
  21              		.thumb_func
  22              		.type	chEvtRegisterMask, %function
  23              	chEvtRegisterMask:
  24              	.LFB7:
  25              		.file 1 "ChibiOS_2.6.5/os/kernel/src/chevents.c"
  26              		.loc 1 85 0
  27              		.cfi_startproc
  28              	.LVL0:
  29              		.loc 1 89 0
  30              	@ 89 "ChibiOS_2.6.5/os/kernel/src/chevents.c" 1
  31 0000 72B6     		cpsid   i
  32              	@ 0 "" 2
  33              		.loc 1 90 0
  34              		.code	16
  35 0002 0368     		ldr	r3, [r0]
  36 0004 0B60     		str	r3, [r1]
  37              		.loc 1 91 0
  38 0006 0160     		str	r1, [r0]
  39              		.loc 1 92 0
  40 0008 034B     		ldr	r3, .L2
  41 000a 9B69     		ldr	r3, [r3, #24]
  42 000c 4B60     		str	r3, [r1, #4]
  43              		.loc 1 93 0
  44 000e 8A60     		str	r2, [r1, #8]
  45              		.loc 1 94 0
  46 0010 0023     		mov	r3, #0
  47 0012 CB60     		str	r3, [r1, #12]
  48              		.loc 1 95 0
  49              	@ 95 "ChibiOS_2.6.5/os/kernel/src/chevents.c" 1
  50 0014 62B6     		cpsie   i
  51              	@ 0 "" 2
  52              		.loc 1 96 0
  53              		.code	16
  54              		@ sp needed
  55 0016 7047     		bx	lr
  56              	.L3:
  57              		.align	2
ARM GAS  /tmp/ccMiMWm2.s 			page 2


  58              	.L2:
  59 0018 00000000 		.word	rlist
  60              		.cfi_endproc
  61              	.LFE7:
  62              		.size	chEvtRegisterMask, .-chEvtRegisterMask
  63              		.section	.text.chEvtUnregister,"ax",%progbits
  64              		.align	2
  65              		.global	chEvtUnregister
  66              		.code	16
  67              		.thumb_func
  68              		.type	chEvtUnregister, %function
  69              	chEvtUnregister:
  70              	.LFB8:
  71              		.loc 1 111 0
  72              		.cfi_startproc
  73              	.LVL1:
  74              		.loc 1 117 0
  75              	@ 117 "ChibiOS_2.6.5/os/kernel/src/chevents.c" 1
  76 0000 72B6     		cpsid   i
  77              	@ 0 "" 2
  78              		.loc 1 116 0
  79              		.code	16
  80 0002 021C     		mov	r2, r0
  81              		.loc 1 118 0
  82 0004 05E0     		b	.L5
  83              	.LVL2:
  84              	.L8:
  85              		.loc 1 119 0
  86 0006 9942     		cmp	r1, r3
  87 0008 02D1     		bne	.L6
  88              		.loc 1 120 0
  89 000a 0968     		ldr	r1, [r1]
  90              	.LVL3:
  91 000c 1160     		str	r1, [r2]
  92              		.loc 1 121 0
  93 000e 03E0     		b	.L7
  94              	.LVL4:
  95              	.L6:
  96              		.loc 1 123 0
  97 0010 1A1C     		mov	r2, r3
  98              	.LVL5:
  99              	.L5:
 100              		.loc 1 118 0 discriminator 1
 101 0012 1368     		ldr	r3, [r2]
 102 0014 8342     		cmp	r3, r0
 103 0016 F6D1     		bne	.L8
 104              	.LVL6:
 105              	.L7:
 106              		.loc 1 125 0
 107              	@ 125 "ChibiOS_2.6.5/os/kernel/src/chevents.c" 1
 108 0018 62B6     		cpsie   i
 109              	@ 0 "" 2
 110              		.loc 1 126 0
 111              		.code	16
 112              		@ sp needed
 113 001a 7047     		bx	lr
 114              		.cfi_endproc
ARM GAS  /tmp/ccMiMWm2.s 			page 3


 115              	.LFE8:
 116              		.size	chEvtUnregister, .-chEvtUnregister
 117              		.section	.text.chEvtGetAndClearEvents,"ax",%progbits
 118              		.align	2
 119              		.global	chEvtGetAndClearEvents
 120              		.code	16
 121              		.thumb_func
 122              		.type	chEvtGetAndClearEvents, %function
 123              	chEvtGetAndClearEvents:
 124              	.LFB9:
 125              		.loc 1 136 0
 126              		.cfi_startproc
 127              	.LVL7:
 128              		.loc 1 139 0
 129              	@ 139 "ChibiOS_2.6.5/os/kernel/src/chevents.c" 1
 130 0000 72B6     		cpsid   i
 131              	@ 0 "" 2
 132              		.loc 1 141 0
 133              		.code	16
 134 0002 044B     		ldr	r3, .L10
 135 0004 9A69     		ldr	r2, [r3, #24]
 136 0006 936B     		ldr	r3, [r2, #56]
 137              	.LVL8:
 138              		.loc 1 142 0
 139 0008 191C     		mov	r1, r3
 140 000a 8143     		bic	r1, r0
 141 000c 9163     		str	r1, [r2, #56]
 142              		.loc 1 144 0
 143              	@ 144 "ChibiOS_2.6.5/os/kernel/src/chevents.c" 1
 144 000e 62B6     		cpsie   i
 145              	@ 0 "" 2
 146              		.loc 1 141 0
 147              		.code	16
 148 0010 1840     		and	r0, r3
 149              	.LVL9:
 150              		.loc 1 146 0
 151              		@ sp needed
 152 0012 7047     		bx	lr
 153              	.L11:
 154              		.align	2
 155              	.L10:
 156 0014 00000000 		.word	rlist
 157              		.cfi_endproc
 158              	.LFE9:
 159              		.size	chEvtGetAndClearEvents, .-chEvtGetAndClearEvents
 160              		.section	.text.chEvtAddEvents,"ax",%progbits
 161              		.align	2
 162              		.global	chEvtAddEvents
 163              		.code	16
 164              		.thumb_func
 165              		.type	chEvtAddEvents, %function
 166              	chEvtAddEvents:
 167              	.LFB10:
 168              		.loc 1 157 0
 169              		.cfi_startproc
 170              	.LVL10:
 171              		.loc 1 159 0
ARM GAS  /tmp/ccMiMWm2.s 			page 4


 172              	@ 159 "ChibiOS_2.6.5/os/kernel/src/chevents.c" 1
 173 0000 72B6     		cpsid   i
 174              	@ 0 "" 2
 175              		.loc 1 161 0
 176              		.code	16
 177 0002 034B     		ldr	r3, .L13
 178 0004 9B69     		ldr	r3, [r3, #24]
 179 0006 9A6B     		ldr	r2, [r3, #56]
 180 0008 1043     		orr	r0, r2
 181              	.LVL11:
 182 000a 9863     		str	r0, [r3, #56]
 183              	.LVL12:
 184              		.loc 1 163 0
 185              	@ 163 "ChibiOS_2.6.5/os/kernel/src/chevents.c" 1
 186 000c 62B6     		cpsie   i
 187              	@ 0 "" 2
 188              		.loc 1 165 0
 189              		.code	16
 190              		@ sp needed
 191 000e 7047     		bx	lr
 192              	.L14:
 193              		.align	2
 194              	.L13:
 195 0010 00000000 		.word	rlist
 196              		.cfi_endproc
 197              	.LFE10:
 198              		.size	chEvtAddEvents, .-chEvtAddEvents
 199              		.section	.text.chEvtGetAndClearFlags,"ax",%progbits
 200              		.align	2
 201              		.global	chEvtGetAndClearFlags
 202              		.code	16
 203              		.thumb_func
 204              		.type	chEvtGetAndClearFlags, %function
 205              	chEvtGetAndClearFlags:
 206              	.LFB12:
 207              		.loc 1 209 0
 208              		.cfi_startproc
 209              	.LVL13:
 210 0000 031C     		mov	r3, r0
 211              		.loc 1 212 0
 212              	@ 212 "ChibiOS_2.6.5/os/kernel/src/chevents.c" 1
 213 0002 72B6     		cpsid   i
 214              	@ 0 "" 2
 215              		.loc 1 214 0
 216              		.code	16
 217 0004 C068     		ldr	r0, [r0, #12]
 218              	.LVL14:
 219              		.loc 1 215 0
 220 0006 0022     		mov	r2, #0
 221 0008 DA60     		str	r2, [r3, #12]
 222              		.loc 1 217 0
 223              	@ 217 "ChibiOS_2.6.5/os/kernel/src/chevents.c" 1
 224 000a 62B6     		cpsie   i
 225              	@ 0 "" 2
 226              		.loc 1 219 0
 227              		.code	16
 228              		@ sp needed
ARM GAS  /tmp/ccMiMWm2.s 			page 5


 229 000c 7047     		bx	lr
 230              		.cfi_endproc
 231              	.LFE12:
 232              		.size	chEvtGetAndClearFlags, .-chEvtGetAndClearFlags
 233 000e C046     		.section	.text.chEvtSignalI,"ax",%progbits
 234              		.align	2
 235              		.global	chEvtSignalI
 236              		.code	16
 237              		.thumb_func
 238              		.type	chEvtSignalI, %function
 239              	chEvtSignalI:
 240              	.LFB14:
 241              		.loc 1 251 0
 242              		.cfi_startproc
 243              	.LVL15:
 244 0000 08B5     		push	{r3, lr}
 245              		.cfi_def_cfa_offset 8
 246              		.cfi_offset 3, -8
 247              		.cfi_offset 14, -4
 248              		.loc 1 256 0
 249 0002 836B     		ldr	r3, [r0, #56]
 250 0004 1943     		orr	r1, r3
 251              	.LVL16:
 252 0006 8163     		str	r1, [r0, #56]
 253              		.loc 1 258 0
 254 0008 037F     		ldrb	r3, [r0, #28]
 255 000a 082B     		cmp	r3, #8
 256 000c 03D1     		bne	.L17
 257              		.loc 1 258 0 is_stmt 0 discriminator 1
 258 000e 436A     		ldr	r3, [r0, #36]
 259 0010 0B42     		tst	r3, r1
 260 0012 06D1     		bne	.L18
 261 0014 09E0     		b	.L16
 262              	.L17:
 263              		.loc 1 259 0 is_stmt 1
 264 0016 092B     		cmp	r3, #9
 265 0018 07D1     		bne	.L16
 266              		.loc 1 261 0
 267 001a 436A     		ldr	r3, [r0, #36]
 268 001c 1940     		and	r1, r3
 269              		.loc 1 260 0
 270 001e 8B42     		cmp	r3, r1
 271 0020 03D1     		bne	.L16
 272              	.L18:
 273              		.loc 1 262 0
 274 0022 FFF7FEFF 		bl	chSchReadyI
 275              	.LVL17:
 276 0026 0023     		mov	r3, #0
 277 0028 4362     		str	r3, [r0, #36]
 278              	.L16:
 279              		.loc 1 263 0
 280              		@ sp needed
 281 002a 08BD     		pop	{r3, pc}
 282              		.cfi_endproc
 283              	.LFE14:
 284              		.size	chEvtSignalI, .-chEvtSignalI
 285              		.section	.text.chEvtBroadcastFlagsI,"ax",%progbits
ARM GAS  /tmp/ccMiMWm2.s 			page 6


 286              		.align	2
 287              		.global	chEvtBroadcastFlagsI
 288              		.code	16
 289              		.thumb_func
 290              		.type	chEvtBroadcastFlagsI, %function
 291              	chEvtBroadcastFlagsI:
 292              	.LFB11:
 293              		.loc 1 184 0
 294              		.cfi_startproc
 295              	.LVL18:
 296 0000 70B5     		push	{r4, r5, r6, lr}
 297              		.cfi_def_cfa_offset 16
 298              		.cfi_offset 4, -16
 299              		.cfi_offset 5, -12
 300              		.cfi_offset 6, -8
 301              		.cfi_offset 14, -4
 302 0002 051C     		mov	r5, r0
 303 0004 0E1C     		mov	r6, r1
 304              		.loc 1 190 0
 305 0006 0468     		ldr	r4, [r0]
 306              	.LVL19:
 307              		.loc 1 191 0
 308 0008 A042     		cmp	r0, r4
 309 000a 09D0     		beq	.L20
 310              	.LVL20:
 311              	.L22:
 312              		.loc 1 192 0
 313 000c E368     		ldr	r3, [r4, #12]
 314 000e 3343     		orr	r3, r6
 315 0010 E360     		str	r3, [r4, #12]
 316              		.loc 1 193 0
 317 0012 6068     		ldr	r0, [r4, #4]
 318 0014 A168     		ldr	r1, [r4, #8]
 319 0016 FFF7FEFF 		bl	chEvtSignalI
 320              	.LVL21:
 321              		.loc 1 194 0
 322 001a 2468     		ldr	r4, [r4]
 323              	.LVL22:
 324              		.loc 1 191 0
 325 001c A542     		cmp	r5, r4
 326 001e F5D1     		bne	.L22
 327              	.L20:
 328              		.loc 1 196 0
 329              		@ sp needed
 330              	.LVL23:
 331              	.LVL24:
 332              	.LVL25:
 333 0020 70BD     		pop	{r4, r5, r6, pc}
 334              		.cfi_endproc
 335              	.LFE11:
 336              		.size	chEvtBroadcastFlagsI, .-chEvtBroadcastFlagsI
 337 0022 C046     		.section	.text.chEvtSignal,"ax",%progbits
 338              		.align	2
 339              		.global	chEvtSignal
 340              		.code	16
 341              		.thumb_func
 342              		.type	chEvtSignal, %function
ARM GAS  /tmp/ccMiMWm2.s 			page 7


 343              	chEvtSignal:
 344              	.LFB13:
 345              		.loc 1 229 0
 346              		.cfi_startproc
 347              	.LVL26:
 348 0000 08B5     		push	{r3, lr}
 349              		.cfi_def_cfa_offset 8
 350              		.cfi_offset 3, -8
 351              		.cfi_offset 14, -4
 352              		.loc 1 233 0
 353              	@ 233 "ChibiOS_2.6.5/os/kernel/src/chevents.c" 1
 354 0002 72B6     		cpsid   i
 355              	@ 0 "" 2
 356              		.loc 1 234 0
 357              		.code	16
 358 0004 FFF7FEFF 		bl	chEvtSignalI
 359              	.LVL27:
 360              		.loc 1 235 0
 361 0008 FFF7FEFF 		bl	chSchRescheduleS
 362              	.LVL28:
 363              		.loc 1 236 0
 364              	@ 236 "ChibiOS_2.6.5/os/kernel/src/chevents.c" 1
 365 000c 62B6     		cpsie   i
 366              	@ 0 "" 2
 367              		.loc 1 237 0
 368              		.code	16
 369              		@ sp needed
 370 000e 08BD     		pop	{r3, pc}
 371              		.cfi_endproc
 372              	.LFE13:
 373              		.size	chEvtSignal, .-chEvtSignal
 374              		.section	.text.chEvtBroadcastFlags,"ax",%progbits
 375              		.align	2
 376              		.global	chEvtBroadcastFlags
 377              		.code	16
 378              		.thumb_func
 379              		.type	chEvtBroadcastFlags, %function
 380              	chEvtBroadcastFlags:
 381              	.LFB15:
 382              		.loc 1 278 0
 383              		.cfi_startproc
 384              	.LVL29:
 385 0000 08B5     		push	{r3, lr}
 386              		.cfi_def_cfa_offset 8
 387              		.cfi_offset 3, -8
 388              		.cfi_offset 14, -4
 389              		.loc 1 280 0
 390              	@ 280 "ChibiOS_2.6.5/os/kernel/src/chevents.c" 1
 391 0002 72B6     		cpsid   i
 392              	@ 0 "" 2
 393              		.loc 1 281 0
 394              		.code	16
 395 0004 FFF7FEFF 		bl	chEvtBroadcastFlagsI
 396              	.LVL30:
 397              		.loc 1 282 0
 398 0008 FFF7FEFF 		bl	chSchRescheduleS
 399              	.LVL31:
ARM GAS  /tmp/ccMiMWm2.s 			page 8


 400              		.loc 1 283 0
 401              	@ 283 "ChibiOS_2.6.5/os/kernel/src/chevents.c" 1
 402 000c 62B6     		cpsie   i
 403              	@ 0 "" 2
 404              		.loc 1 284 0
 405              		.code	16
 406              		@ sp needed
 407 000e 08BD     		pop	{r3, pc}
 408              		.cfi_endproc
 409              	.LFE15:
 410              		.size	chEvtBroadcastFlags, .-chEvtBroadcastFlags
 411              		.section	.text.chEvtGetAndClearFlagsI,"ax",%progbits
 412              		.align	2
 413              		.global	chEvtGetAndClearFlagsI
 414              		.code	16
 415              		.thumb_func
 416              		.type	chEvtGetAndClearFlagsI, %function
 417              	chEvtGetAndClearFlagsI:
 418              	.LFB16:
 419              		.loc 1 297 0
 420              		.cfi_startproc
 421              	.LVL32:
 422 0000 031C     		mov	r3, r0
 423              		.loc 1 300 0
 424 0002 C068     		ldr	r0, [r0, #12]
 425              	.LVL33:
 426              		.loc 1 301 0
 427 0004 0022     		mov	r2, #0
 428 0006 DA60     		str	r2, [r3, #12]
 429              		.loc 1 304 0
 430              		@ sp needed
 431 0008 7047     		bx	lr
 432              		.cfi_endproc
 433              	.LFE16:
 434              		.size	chEvtGetAndClearFlagsI, .-chEvtGetAndClearFlagsI
 435              		.section	.text.chEvtDispatch,"ax",%progbits
 436              		.align	2
 437              		.global	chEvtDispatch
 438              		.code	16
 439              		.thumb_func
 440              		.type	chEvtDispatch, %function
 441              	chEvtDispatch:
 442              	.LFB17:
 443              		.loc 1 315 0
 444              		.cfi_startproc
 445              	.LVL34:
 446 0000 F8B5     		push	{r3, r4, r5, r6, r7, lr}
 447              		.cfi_def_cfa_offset 24
 448              		.cfi_offset 3, -24
 449              		.cfi_offset 4, -20
 450              		.cfi_offset 5, -16
 451              		.cfi_offset 6, -12
 452              		.cfi_offset 7, -8
 453              		.cfi_offset 14, -4
 454 0002 0D1E     		sub	r5, r1, #0
 455              	.LVL35:
 456              		.loc 1 321 0
ARM GAS  /tmp/ccMiMWm2.s 			page 9


 457 0004 0ED0     		beq	.L26
 458 0006 061C     		mov	r6, r0
 459              		.loc 1 320 0
 460 0008 0024     		mov	r4, #0
 461              		.loc 1 322 0
 462 000a 0127     		mov	r7, #1
 463              	.LVL36:
 464              	.L29:
 465 000c 3B1C     		mov	r3, r7
 466 000e A340     		lsl	r3, r3, r4
 467 0010 1D42     		tst	r5, r3
 468 0012 03D0     		beq	.L28
 469              		.loc 1 326 0
 470 0014 9D43     		bic	r5, r3
 471              	.LVL37:
 472              		.loc 1 327 0
 473 0016 201C     		mov	r0, r4
 474 0018 3368     		ldr	r3, [r6]
 475 001a 9847     		blx	r3
 476              	.LVL38:
 477              	.L28:
 478              		.loc 1 329 0
 479 001c 0134     		add	r4, r4, #1
 480              	.LVL39:
 481 001e 0436     		add	r6, r6, #4
 482              		.loc 1 321 0
 483 0020 002D     		cmp	r5, #0
 484 0022 F3D1     		bne	.L29
 485              	.LVL40:
 486              	.L26:
 487              		.loc 1 331 0
 488              		@ sp needed
 489              	.LVL41:
 490 0024 F8BD     		pop	{r3, r4, r5, r6, r7, pc}
 491              		.cfi_endproc
 492              	.LFE17:
 493              		.size	chEvtDispatch, .-chEvtDispatch
 494 0026 C046     		.section	.text.chEvtWaitOne,"ax",%progbits
 495              		.align	2
 496              		.global	chEvtWaitOne
 497              		.code	16
 498              		.thumb_func
 499              		.type	chEvtWaitOne, %function
 500              	chEvtWaitOne:
 501              	.LFB18:
 502              		.loc 1 350 0
 503              		.cfi_startproc
 504              	.LVL42:
 505 0000 38B5     		push	{r3, r4, r5, lr}
 506              		.cfi_def_cfa_offset 16
 507              		.cfi_offset 3, -16
 508              		.cfi_offset 4, -12
 509              		.cfi_offset 5, -8
 510              		.cfi_offset 14, -4
 511 0002 051C     		mov	r5, r0
 512              		.loc 1 351 0
 513 0004 094B     		ldr	r3, .L32
ARM GAS  /tmp/ccMiMWm2.s 			page 10


 514 0006 9C69     		ldr	r4, [r3, #24]
 515              	.LVL43:
 516              		.loc 1 354 0
 517              	@ 354 "ChibiOS_2.6.5/os/kernel/src/chevents.c" 1
 518 0008 72B6     		cpsid   i
 519              	@ 0 "" 2
 520              		.loc 1 356 0
 521              		.code	16
 522 000a A36B     		ldr	r3, [r4, #56]
 523 000c 0340     		and	r3, r0
 524              	.LVL44:
 525 000e 05D1     		bne	.L31
 526              		.loc 1 357 0
 527 0010 6062     		str	r0, [r4, #36]
 528              		.loc 1 358 0
 529 0012 0820     		mov	r0, #8
 530              	.LVL45:
 531 0014 FFF7FEFF 		bl	chSchGoSleepS
 532              	.LVL46:
 533              		.loc 1 359 0
 534 0018 A36B     		ldr	r3, [r4, #56]
 535 001a 2B40     		and	r3, r5
 536              	.LVL47:
 537              	.L31:
 538              		.loc 1 361 0
 539 001c 5842     		neg	r0, r3
 540 001e 1840     		and	r0, r3
 541              	.LVL48:
 542              		.loc 1 362 0
 543 0020 A36B     		ldr	r3, [r4, #56]
 544 0022 8343     		bic	r3, r0
 545 0024 A363     		str	r3, [r4, #56]
 546              		.loc 1 364 0
 547              	@ 364 "ChibiOS_2.6.5/os/kernel/src/chevents.c" 1
 548 0026 62B6     		cpsie   i
 549              	@ 0 "" 2
 550              		.loc 1 366 0
 551              		.code	16
 552              		@ sp needed
 553              	.LVL49:
 554              	.LVL50:
 555 0028 38BD     		pop	{r3, r4, r5, pc}
 556              	.L33:
 557 002a C046     		.align	2
 558              	.L32:
 559 002c 00000000 		.word	rlist
 560              		.cfi_endproc
 561              	.LFE18:
 562              		.size	chEvtWaitOne, .-chEvtWaitOne
 563              		.section	.text.chEvtWaitAny,"ax",%progbits
 564              		.align	2
 565              		.global	chEvtWaitAny
 566              		.code	16
 567              		.thumb_func
 568              		.type	chEvtWaitAny, %function
 569              	chEvtWaitAny:
 570              	.LFB19:
ARM GAS  /tmp/ccMiMWm2.s 			page 11


 571              		.loc 1 379 0
 572              		.cfi_startproc
 573              	.LVL51:
 574 0000 38B5     		push	{r3, r4, r5, lr}
 575              		.cfi_def_cfa_offset 16
 576              		.cfi_offset 3, -16
 577              		.cfi_offset 4, -12
 578              		.cfi_offset 5, -8
 579              		.cfi_offset 14, -4
 580 0002 051C     		mov	r5, r0
 581              		.loc 1 380 0
 582 0004 084B     		ldr	r3, .L36
 583 0006 9C69     		ldr	r4, [r3, #24]
 584              	.LVL52:
 585              		.loc 1 383 0
 586              	@ 383 "ChibiOS_2.6.5/os/kernel/src/chevents.c" 1
 587 0008 72B6     		cpsid   i
 588              	@ 0 "" 2
 589              		.loc 1 385 0
 590              		.code	16
 591 000a A06B     		ldr	r0, [r4, #56]
 592              	.LVL53:
 593 000c 2840     		and	r0, r5
 594              	.LVL54:
 595 000e 05D1     		bne	.L35
 596              		.loc 1 386 0
 597 0010 6562     		str	r5, [r4, #36]
 598              		.loc 1 387 0
 599 0012 0820     		mov	r0, #8
 600              	.LVL55:
 601 0014 FFF7FEFF 		bl	chSchGoSleepS
 602              	.LVL56:
 603              		.loc 1 388 0
 604 0018 A06B     		ldr	r0, [r4, #56]
 605 001a 2840     		and	r0, r5
 606              	.LVL57:
 607              	.L35:
 608              		.loc 1 390 0
 609 001c A26B     		ldr	r2, [r4, #56]
 610 001e 8243     		bic	r2, r0
 611 0020 A263     		str	r2, [r4, #56]
 612              		.loc 1 392 0
 613              	@ 392 "ChibiOS_2.6.5/os/kernel/src/chevents.c" 1
 614 0022 62B6     		cpsie   i
 615              	@ 0 "" 2
 616              		.loc 1 394 0
 617              		.code	16
 618              		@ sp needed
 619              	.LVL58:
 620              	.LVL59:
 621 0024 38BD     		pop	{r3, r4, r5, pc}
 622              	.L37:
 623 0026 C046     		.align	2
 624              	.L36:
 625 0028 00000000 		.word	rlist
 626              		.cfi_endproc
 627              	.LFE19:
ARM GAS  /tmp/ccMiMWm2.s 			page 12


 628              		.size	chEvtWaitAny, .-chEvtWaitAny
 629              		.section	.text.chEvtWaitAll,"ax",%progbits
 630              		.align	2
 631              		.global	chEvtWaitAll
 632              		.code	16
 633              		.thumb_func
 634              		.type	chEvtWaitAll, %function
 635              	chEvtWaitAll:
 636              	.LFB20:
 637              		.loc 1 407 0
 638              		.cfi_startproc
 639              	.LVL60:
 640 0000 38B5     		push	{r3, r4, r5, lr}
 641              		.cfi_def_cfa_offset 16
 642              		.cfi_offset 3, -16
 643              		.cfi_offset 4, -12
 644              		.cfi_offset 5, -8
 645              		.cfi_offset 14, -4
 646 0002 041C     		mov	r4, r0
 647              		.loc 1 408 0
 648 0004 084B     		ldr	r3, .L40
 649 0006 9D69     		ldr	r5, [r3, #24]
 650              	.LVL61:
 651              		.loc 1 410 0
 652              	@ 410 "ChibiOS_2.6.5/os/kernel/src/chevents.c" 1
 653 0008 72B6     		cpsid   i
 654              	@ 0 "" 2
 655              		.loc 1 412 0
 656              		.code	16
 657 000a AB6B     		ldr	r3, [r5, #56]
 658 000c 0340     		and	r3, r0
 659 000e 8342     		cmp	r3, r0
 660 0010 03D0     		beq	.L39
 661              		.loc 1 413 0
 662 0012 6862     		str	r0, [r5, #36]
 663              		.loc 1 414 0
 664 0014 0920     		mov	r0, #9
 665              	.LVL62:
 666 0016 FFF7FEFF 		bl	chSchGoSleepS
 667              	.LVL63:
 668              	.L39:
 669              		.loc 1 416 0
 670 001a AB6B     		ldr	r3, [r5, #56]
 671 001c A343     		bic	r3, r4
 672 001e AB63     		str	r3, [r5, #56]
 673              		.loc 1 418 0
 674              	@ 418 "ChibiOS_2.6.5/os/kernel/src/chevents.c" 1
 675 0020 62B6     		cpsie   i
 676              	@ 0 "" 2
 677              		.loc 1 420 0
 678              		.code	16
 679 0022 201C     		mov	r0, r4
 680              		@ sp needed
 681              	.LVL64:
 682              	.LVL65:
 683 0024 38BD     		pop	{r3, r4, r5, pc}
 684              	.L41:
ARM GAS  /tmp/ccMiMWm2.s 			page 13


 685 0026 C046     		.align	2
 686              	.L40:
 687 0028 00000000 		.word	rlist
 688              		.cfi_endproc
 689              	.LFE20:
 690              		.size	chEvtWaitAll, .-chEvtWaitAll
 691              		.section	.text.chEvtWaitOneTimeout,"ax",%progbits
 692              		.align	2
 693              		.global	chEvtWaitOneTimeout
 694              		.code	16
 695              		.thumb_func
 696              		.type	chEvtWaitOneTimeout, %function
 697              	chEvtWaitOneTimeout:
 698              	.LFB21:
 699              		.loc 1 446 0
 700              		.cfi_startproc
 701              	.LVL66:
 702 0000 38B5     		push	{r3, r4, r5, lr}
 703              		.cfi_def_cfa_offset 16
 704              		.cfi_offset 3, -16
 705              		.cfi_offset 4, -12
 706              		.cfi_offset 5, -8
 707              		.cfi_offset 14, -4
 708 0002 051C     		mov	r5, r0
 709              		.loc 1 447 0
 710 0004 0E4B     		ldr	r3, .L47
 711 0006 9C69     		ldr	r4, [r3, #24]
 712              	.LVL67:
 713              		.loc 1 450 0
 714              	@ 450 "ChibiOS_2.6.5/os/kernel/src/chevents.c" 1
 715 0008 72B6     		cpsid   i
 716              	@ 0 "" 2
 717              		.loc 1 452 0
 718              		.code	16
 719 000a A36B     		ldr	r3, [r4, #56]
 720 000c 0340     		and	r3, r0
 721              	.LVL68:
 722 000e 0FD1     		bne	.L43
 723              		.loc 1 453 0
 724 0010 0029     		cmp	r1, #0
 725 0012 02D1     		bne	.L44
 726              		.loc 1 454 0
 727              	@ 454 "ChibiOS_2.6.5/os/kernel/src/chevents.c" 1
 728 0014 62B6     		cpsie   i
 729              	@ 0 "" 2
 730              		.loc 1 455 0
 731              		.code	16
 732 0016 0020     		mov	r0, #0
 733              	.LVL69:
 734 0018 11E0     		b	.L45
 735              	.LVL70:
 736              	.L44:
 737              		.loc 1 457 0
 738 001a 6062     		str	r0, [r4, #36]
 739              		.loc 1 458 0
 740 001c 0820     		mov	r0, #8
 741              	.LVL71:
ARM GAS  /tmp/ccMiMWm2.s 			page 14


 742 001e FFF7FEFF 		bl	chSchGoSleepTimeoutS
 743              	.LVL72:
 744 0022 0028     		cmp	r0, #0
 745 0024 02DA     		bge	.L46
 746              		.loc 1 459 0
 747              	@ 459 "ChibiOS_2.6.5/os/kernel/src/chevents.c" 1
 748 0026 62B6     		cpsie   i
 749              	@ 0 "" 2
 750              		.loc 1 460 0
 751              		.code	16
 752 0028 0020     		mov	r0, #0
 753 002a 08E0     		b	.L45
 754              	.L46:
 755              		.loc 1 462 0
 756 002c A36B     		ldr	r3, [r4, #56]
 757 002e 2B40     		and	r3, r5
 758              	.LVL73:
 759              	.L43:
 760              		.loc 1 464 0
 761 0030 5842     		neg	r0, r3
 762 0032 0340     		and	r3, r0
 763              	.LVL74:
 764              		.loc 1 465 0
 765 0034 A26B     		ldr	r2, [r4, #56]
 766 0036 9A43     		bic	r2, r3
 767 0038 A263     		str	r2, [r4, #56]
 768              		.loc 1 467 0
 769              	@ 467 "ChibiOS_2.6.5/os/kernel/src/chevents.c" 1
 770 003a 62B6     		cpsie   i
 771              	@ 0 "" 2
 772              		.loc 1 468 0
 773              		.code	16
 774 003c 181C     		mov	r0, r3
 775              	.LVL75:
 776              	.L45:
 777              		.loc 1 469 0
 778              		@ sp needed
 779              	.LVL76:
 780              	.LVL77:
 781 003e 38BD     		pop	{r3, r4, r5, pc}
 782              	.L48:
 783              		.align	2
 784              	.L47:
 785 0040 00000000 		.word	rlist
 786              		.cfi_endproc
 787              	.LFE21:
 788              		.size	chEvtWaitOneTimeout, .-chEvtWaitOneTimeout
 789              		.section	.text.chEvtWaitAnyTimeout,"ax",%progbits
 790              		.align	2
 791              		.global	chEvtWaitAnyTimeout
 792              		.code	16
 793              		.thumb_func
 794              		.type	chEvtWaitAnyTimeout, %function
 795              	chEvtWaitAnyTimeout:
 796              	.LFB22:
 797              		.loc 1 489 0
 798              		.cfi_startproc
ARM GAS  /tmp/ccMiMWm2.s 			page 15


 799              	.LVL78:
 800 0000 38B5     		push	{r3, r4, r5, lr}
 801              		.cfi_def_cfa_offset 16
 802              		.cfi_offset 3, -16
 803              		.cfi_offset 4, -12
 804              		.cfi_offset 5, -8
 805              		.cfi_offset 14, -4
 806 0002 051C     		mov	r5, r0
 807              		.loc 1 490 0
 808 0004 0D4B     		ldr	r3, .L54
 809 0006 9C69     		ldr	r4, [r3, #24]
 810              	.LVL79:
 811              		.loc 1 493 0
 812              	@ 493 "ChibiOS_2.6.5/os/kernel/src/chevents.c" 1
 813 0008 72B6     		cpsid   i
 814              	@ 0 "" 2
 815              		.loc 1 495 0
 816              		.code	16
 817 000a A36B     		ldr	r3, [r4, #56]
 818 000c 0340     		and	r3, r0
 819              	.LVL80:
 820 000e 0FD1     		bne	.L50
 821              		.loc 1 496 0
 822 0010 0029     		cmp	r1, #0
 823 0012 02D1     		bne	.L51
 824              		.loc 1 497 0
 825              	@ 497 "ChibiOS_2.6.5/os/kernel/src/chevents.c" 1
 826 0014 62B6     		cpsie   i
 827              	@ 0 "" 2
 828              		.loc 1 498 0
 829              		.code	16
 830 0016 0020     		mov	r0, #0
 831              	.LVL81:
 832 0018 0FE0     		b	.L52
 833              	.LVL82:
 834              	.L51:
 835              		.loc 1 500 0
 836 001a 6062     		str	r0, [r4, #36]
 837              		.loc 1 501 0
 838 001c 0820     		mov	r0, #8
 839              	.LVL83:
 840 001e FFF7FEFF 		bl	chSchGoSleepTimeoutS
 841              	.LVL84:
 842 0022 0028     		cmp	r0, #0
 843 0024 02DA     		bge	.L53
 844              		.loc 1 502 0
 845              	@ 502 "ChibiOS_2.6.5/os/kernel/src/chevents.c" 1
 846 0026 62B6     		cpsie   i
 847              	@ 0 "" 2
 848              		.loc 1 503 0
 849              		.code	16
 850 0028 0020     		mov	r0, #0
 851 002a 06E0     		b	.L52
 852              	.L53:
 853              		.loc 1 505 0
 854 002c A36B     		ldr	r3, [r4, #56]
 855 002e 2B40     		and	r3, r5
ARM GAS  /tmp/ccMiMWm2.s 			page 16


 856              	.LVL85:
 857              	.L50:
 858              		.loc 1 507 0
 859 0030 A26B     		ldr	r2, [r4, #56]
 860 0032 9A43     		bic	r2, r3
 861 0034 A263     		str	r2, [r4, #56]
 862              		.loc 1 509 0
 863              	@ 509 "ChibiOS_2.6.5/os/kernel/src/chevents.c" 1
 864 0036 62B6     		cpsie   i
 865              	@ 0 "" 2
 866              		.loc 1 510 0
 867              		.code	16
 868 0038 181C     		mov	r0, r3
 869              	.LVL86:
 870              	.L52:
 871              		.loc 1 511 0
 872              		@ sp needed
 873              	.LVL87:
 874              	.LVL88:
 875 003a 38BD     		pop	{r3, r4, r5, pc}
 876              	.L55:
 877              		.align	2
 878              	.L54:
 879 003c 00000000 		.word	rlist
 880              		.cfi_endproc
 881              	.LFE22:
 882              		.size	chEvtWaitAnyTimeout, .-chEvtWaitAnyTimeout
 883              		.section	.text.chEvtWaitAllTimeout,"ax",%progbits
 884              		.align	2
 885              		.global	chEvtWaitAllTimeout
 886              		.code	16
 887              		.thumb_func
 888              		.type	chEvtWaitAllTimeout, %function
 889              	chEvtWaitAllTimeout:
 890              	.LFB23:
 891              		.loc 1 530 0
 892              		.cfi_startproc
 893              	.LVL89:
 894 0000 38B5     		push	{r3, r4, r5, lr}
 895              		.cfi_def_cfa_offset 16
 896              		.cfi_offset 3, -16
 897              		.cfi_offset 4, -12
 898              		.cfi_offset 5, -8
 899              		.cfi_offset 14, -4
 900 0002 041C     		mov	r4, r0
 901              		.loc 1 531 0
 902 0004 0D4B     		ldr	r3, .L60
 903 0006 9D69     		ldr	r5, [r3, #24]
 904              	.LVL90:
 905              		.loc 1 533 0
 906              	@ 533 "ChibiOS_2.6.5/os/kernel/src/chevents.c" 1
 907 0008 72B6     		cpsid   i
 908              	@ 0 "" 2
 909              		.loc 1 535 0
 910              		.code	16
 911 000a AB6B     		ldr	r3, [r5, #56]
 912 000c 0340     		and	r3, r0
ARM GAS  /tmp/ccMiMWm2.s 			page 17


 913 000e 8342     		cmp	r3, r0
 914 0010 0DD0     		beq	.L57
 915              		.loc 1 536 0
 916 0012 0029     		cmp	r1, #0
 917 0014 02D1     		bne	.L58
 918              		.loc 1 537 0
 919              	@ 537 "ChibiOS_2.6.5/os/kernel/src/chevents.c" 1
 920 0016 62B6     		cpsie   i
 921              	@ 0 "" 2
 922              		.loc 1 538 0
 923              		.code	16
 924 0018 0020     		mov	r0, #0
 925              	.LVL91:
 926 001a 0DE0     		b	.L59
 927              	.LVL92:
 928              	.L58:
 929              		.loc 1 540 0
 930 001c 6862     		str	r0, [r5, #36]
 931              		.loc 1 541 0
 932 001e 0920     		mov	r0, #9
 933              	.LVL93:
 934 0020 FFF7FEFF 		bl	chSchGoSleepTimeoutS
 935              	.LVL94:
 936 0024 0028     		cmp	r0, #0
 937 0026 02DA     		bge	.L57
 938              		.loc 1 542 0
 939              	@ 542 "ChibiOS_2.6.5/os/kernel/src/chevents.c" 1
 940 0028 62B6     		cpsie   i
 941              	@ 0 "" 2
 942              		.loc 1 543 0
 943              		.code	16
 944 002a 0020     		mov	r0, #0
 945 002c 04E0     		b	.L59
 946              	.L57:
 947              		.loc 1 546 0
 948 002e AB6B     		ldr	r3, [r5, #56]
 949 0030 A343     		bic	r3, r4
 950 0032 AB63     		str	r3, [r5, #56]
 951              		.loc 1 548 0
 952              	@ 548 "ChibiOS_2.6.5/os/kernel/src/chevents.c" 1
 953 0034 62B6     		cpsie   i
 954              	@ 0 "" 2
 955              		.loc 1 549 0
 956              		.code	16
 957 0036 201C     		mov	r0, r4
 958              	.L59:
 959              		.loc 1 550 0
 960              		@ sp needed
 961              	.LVL95:
 962              	.LVL96:
 963 0038 38BD     		pop	{r3, r4, r5, pc}
 964              	.L61:
 965 003a C046     		.align	2
 966              	.L60:
 967 003c 00000000 		.word	rlist
 968              		.cfi_endproc
 969              	.LFE23:
ARM GAS  /tmp/ccMiMWm2.s 			page 18


 970              		.size	chEvtWaitAllTimeout, .-chEvtWaitAllTimeout
 971              		.text
 972              	.Letext0:
 973              		.file 2 "/usr/local/lpcxpresso_7.3.0_186/lpcxpresso/tools/arm-none-eabi/include/machine/_default_t
 974              		.file 3 "/usr/local/lpcxpresso_7.3.0_186/lpcxpresso/tools/arm-none-eabi/include/stdint.h"
 975              		.file 4 "ChibiOS_2.6.5/os/ports/GCC/ARMCMx/chtypes.h"
 976              		.file 5 "ChibiOS_2.6.5/os/kernel/include/chlists.h"
 977              		.file 6 "ChibiOS_2.6.5/os/kernel/include/chthreads.h"
 978              		.file 7 "ChibiOS_2.6.5/os/ports/GCC/ARMCMx/chcore_v6m.h"
 979              		.file 8 "ChibiOS_2.6.5/os/kernel/include/chschd.h"
 980              		.file 9 "ChibiOS_2.6.5/os/kernel/include/chmtx.h"
 981              		.file 10 "ChibiOS_2.6.5/os/kernel/include/chevents.h"