ARM GAS  /tmp/ccdxH1dU.s 			page 1


   1              		.cpu cortex-m0
   2              		.fpu softvfp
   3              		.eabi_attribute 20, 1
   4              		.eabi_attribute 21, 1
   5              		.eabi_attribute 23, 3
   6              		.eabi_attribute 24, 1
   7              		.eabi_attribute 25, 1
   8              		.eabi_attribute 26, 1
   9              		.eabi_attribute 30, 1
  10              		.eabi_attribute 34, 0
  11              		.eabi_attribute 18, 4
  12              		.code	16
  13              		.file	"chmboxes.c"
  14              		.text
  15              	.Ltext0:
  16              		.cfi_sections	.debug_frame
  17              		.section	.text.chMBInit,"ax",%progbits
  18              		.align	2
  19              		.global	chMBInit
  20              		.code	16
  21              		.thumb_func
  22              		.type	chMBInit, %function
  23              	chMBInit:
  24              	.LFB7:
  25              		.file 1 "ChibiOS_2.6.5/os/kernel/src/chmboxes.c"
  26              		.loc 1 72 0
  27              		.cfi_startproc
  28              	.LVL0:
  29 0000 10B5     		push	{r4, lr}
  30              		.cfi_def_cfa_offset 8
  31              		.cfi_offset 4, -8
  32              		.cfi_offset 14, -4
  33 0002 041C     		mov	r4, r0
  34 0004 0B1C     		mov	r3, r1
  35              		.loc 1 76 0
  36 0006 E160     		str	r1, [r4, #12]
  37 0008 A160     		str	r1, [r4, #8]
  38 000a 2160     		str	r1, [r4]
  39              		.loc 1 77 0
  40 000c 9100     		lsl	r1, r2, #2
  41              	.LVL1:
  42 000e 5B18     		add	r3, r3, r1
  43              	.LVL2:
  44 0010 4360     		str	r3, [r0, #4]
  45              		.loc 1 78 0
  46 0012 1C30     		add	r0, r0, #28
  47              	.LVL3:
  48 0014 111C     		mov	r1, r2
  49 0016 FFF7FEFF 		bl	chSemInit
  50              	.LVL4:
  51              		.loc 1 79 0
  52 001a 201C     		mov	r0, r4
  53 001c 1030     		add	r0, r0, #16
  54 001e 0021     		mov	r1, #0
  55 0020 FFF7FEFF 		bl	chSemInit
  56              	.LVL5:
  57              		.loc 1 80 0
ARM GAS  /tmp/ccdxH1dU.s 			page 2


  58              		@ sp needed
  59              	.LVL6:
  60 0024 10BD     		pop	{r4, pc}
  61              		.cfi_endproc
  62              	.LFE7:
  63              		.size	chMBInit, .-chMBInit
  64 0026 C046     		.section	.text.chMBReset,"ax",%progbits
  65              		.align	2
  66              		.global	chMBReset
  67              		.code	16
  68              		.thumb_func
  69              		.type	chMBReset, %function
  70              	chMBReset:
  71              	.LFB8:
  72              		.loc 1 91 0
  73              		.cfi_startproc
  74              	.LVL7:
  75 0000 10B5     		push	{r4, lr}
  76              		.cfi_def_cfa_offset 8
  77              		.cfi_offset 4, -8
  78              		.cfi_offset 14, -4
  79 0002 041C     		mov	r4, r0
  80              		.loc 1 95 0
  81              	@ 95 "ChibiOS_2.6.5/os/kernel/src/chmboxes.c" 1
  82 0004 72B6     		cpsid   i
  83              	@ 0 "" 2
  84              		.loc 1 96 0
  85              		.code	16
  86 0006 0168     		ldr	r1, [r0]
  87 0008 C160     		str	r1, [r0, #12]
  88 000a 8160     		str	r1, [r0, #8]
  89              		.loc 1 97 0
  90 000c 1C30     		add	r0, r0, #28
  91              	.LVL8:
  92 000e 6368     		ldr	r3, [r4, #4]
  93 0010 591A     		sub	r1, r3, r1
  94 0012 8910     		asr	r1, r1, #2
  95 0014 FFF7FEFF 		bl	chSemResetI
  96              	.LVL9:
  97              		.loc 1 98 0
  98 0018 201C     		mov	r0, r4
  99 001a 1030     		add	r0, r0, #16
 100 001c 0021     		mov	r1, #0
 101 001e FFF7FEFF 		bl	chSemResetI
 102              	.LVL10:
 103              		.loc 1 99 0
 104 0022 FFF7FEFF 		bl	chSchRescheduleS
 105              	.LVL11:
 106              		.loc 1 100 0
 107              	@ 100 "ChibiOS_2.6.5/os/kernel/src/chmboxes.c" 1
 108 0026 62B6     		cpsie   i
 109              	@ 0 "" 2
 110              		.loc 1 101 0
 111              		.code	16
 112              		@ sp needed
 113              	.LVL12:
 114 0028 10BD     		pop	{r4, pc}
ARM GAS  /tmp/ccdxH1dU.s 			page 3


 115              		.cfi_endproc
 116              	.LFE8:
 117              		.size	chMBReset, .-chMBReset
 118 002a C046     		.section	.text.chMBPostS,"ax",%progbits
 119              		.align	2
 120              		.global	chMBPostS
 121              		.code	16
 122              		.thumb_func
 123              		.type	chMBPostS, %function
 124              	chMBPostS:
 125              	.LFB10:
 126              		.loc 1 150 0
 127              		.cfi_startproc
 128              	.LVL13:
 129 0000 70B5     		push	{r4, r5, r6, lr}
 130              		.cfi_def_cfa_offset 16
 131              		.cfi_offset 4, -16
 132              		.cfi_offset 5, -12
 133              		.cfi_offset 6, -8
 134              		.cfi_offset 14, -4
 135 0002 041C     		mov	r4, r0
 136 0004 0E1C     		mov	r6, r1
 137              		.loc 1 156 0
 138 0006 1C30     		add	r0, r0, #28
 139              	.LVL14:
 140 0008 111C     		mov	r1, r2
 141              	.LVL15:
 142 000a FFF7FEFF 		bl	chSemWaitTimeoutS
 143              	.LVL16:
 144 000e 051E     		sub	r5, r0, #0
 145              	.LVL17:
 146              		.loc 1 157 0
 147 0010 0FD1     		bne	.L4
 148              		.loc 1 158 0
 149 0012 A368     		ldr	r3, [r4, #8]
 150 0014 1A1D     		add	r2, r3, #4
 151 0016 A260     		str	r2, [r4, #8]
 152 0018 1E60     		str	r6, [r3]
 153              		.loc 1 159 0
 154 001a A268     		ldr	r2, [r4, #8]
 155 001c 6368     		ldr	r3, [r4, #4]
 156 001e 9A42     		cmp	r2, r3
 157 0020 01D3     		bcc	.L5
 158              		.loc 1 160 0
 159 0022 2268     		ldr	r2, [r4]
 160 0024 A260     		str	r2, [r4, #8]
 161              	.L5:
 162              		.loc 1 161 0
 163 0026 201C     		mov	r0, r4
 164              	.LVL18:
 165 0028 1030     		add	r0, r0, #16
 166 002a FFF7FEFF 		bl	chSemSignalI
 167              	.LVL19:
 168              		.loc 1 162 0
 169 002e FFF7FEFF 		bl	chSchRescheduleS
 170              	.LVL20:
 171              	.L4:
ARM GAS  /tmp/ccdxH1dU.s 			page 4


 172              		.loc 1 165 0
 173 0032 281C     		mov	r0, r5
 174              		@ sp needed
 175              	.LVL21:
 176              	.LVL22:
 177              	.LVL23:
 178 0034 70BD     		pop	{r4, r5, r6, pc}
 179              		.cfi_endproc
 180              	.LFE10:
 181              		.size	chMBPostS, .-chMBPostS
 182 0036 C046     		.section	.text.chMBPost,"ax",%progbits
 183              		.align	2
 184              		.global	chMBPost
 185              		.code	16
 186              		.thumb_func
 187              		.type	chMBPost, %function
 188              	chMBPost:
 189              	.LFB9:
 190              		.loc 1 122 0
 191              		.cfi_startproc
 192              	.LVL24:
 193 0000 08B5     		push	{r3, lr}
 194              		.cfi_def_cfa_offset 8
 195              		.cfi_offset 3, -8
 196              		.cfi_offset 14, -4
 197              		.loc 1 125 0
 198              	@ 125 "ChibiOS_2.6.5/os/kernel/src/chmboxes.c" 1
 199 0002 72B6     		cpsid   i
 200              	@ 0 "" 2
 201              		.loc 1 126 0
 202              		.code	16
 203 0004 FFF7FEFF 		bl	chMBPostS
 204              	.LVL25:
 205              		.loc 1 127 0
 206              	@ 127 "ChibiOS_2.6.5/os/kernel/src/chmboxes.c" 1
 207 0008 62B6     		cpsie   i
 208              	@ 0 "" 2
 209              		.loc 1 129 0
 210              		.code	16
 211              		@ sp needed
 212 000a 08BD     		pop	{r3, pc}
 213              		.cfi_endproc
 214              	.LFE9:
 215              		.size	chMBPost, .-chMBPost
 216              		.section	.text.chMBPostI,"ax",%progbits
 217              		.align	2
 218              		.global	chMBPostI
 219              		.code	16
 220              		.thumb_func
 221              		.type	chMBPostI, %function
 222              	chMBPostI:
 223              	.LFB11:
 224              		.loc 1 181 0
 225              		.cfi_startproc
 226              	.LVL26:
 227 0000 08B5     		push	{r3, lr}
 228              		.cfi_def_cfa_offset 8
ARM GAS  /tmp/ccdxH1dU.s 			page 5


 229              		.cfi_offset 3, -8
 230              		.cfi_offset 14, -4
 231              		.loc 1 186 0
 232 0002 436A     		ldr	r3, [r0, #36]
 233 0004 002B     		cmp	r3, #0
 234 0006 10DD     		ble	.L10
 235              		.loc 1 188 0
 236 0008 013B     		sub	r3, r3, #1
 237 000a 4362     		str	r3, [r0, #36]
 238              		.loc 1 189 0
 239 000c 8368     		ldr	r3, [r0, #8]
 240 000e 1A1D     		add	r2, r3, #4
 241 0010 8260     		str	r2, [r0, #8]
 242 0012 1960     		str	r1, [r3]
 243              		.loc 1 190 0
 244 0014 8268     		ldr	r2, [r0, #8]
 245 0016 4368     		ldr	r3, [r0, #4]
 246 0018 9A42     		cmp	r2, r3
 247 001a 01D3     		bcc	.L9
 248              		.loc 1 191 0
 249 001c 0268     		ldr	r2, [r0]
 250 001e 8260     		str	r2, [r0, #8]
 251              	.L9:
 252              		.loc 1 192 0
 253 0020 1030     		add	r0, r0, #16
 254              	.LVL27:
 255 0022 FFF7FEFF 		bl	chSemSignalI
 256              	.LVL28:
 257              		.loc 1 193 0
 258 0026 0020     		mov	r0, #0
 259 0028 01E0     		b	.L8
 260              	.LVL29:
 261              	.L10:
 262              		.loc 1 187 0
 263 002a 0120     		mov	r0, #1
 264              	.LVL30:
 265 002c 4042     		neg	r0, r0
 266              	.LVL31:
 267              	.L8:
 268              		.loc 1 194 0
 269              		@ sp needed
 270 002e 08BD     		pop	{r3, pc}
 271              		.cfi_endproc
 272              	.LFE11:
 273              		.size	chMBPostI, .-chMBPostI
 274              		.section	.text.chMBPostAheadS,"ax",%progbits
 275              		.align	2
 276              		.global	chMBPostAheadS
 277              		.code	16
 278              		.thumb_func
 279              		.type	chMBPostAheadS, %function
 280              	chMBPostAheadS:
 281              	.LFB13:
 282              		.loc 1 243 0
 283              		.cfi_startproc
 284              	.LVL32:
 285 0000 70B5     		push	{r4, r5, r6, lr}
ARM GAS  /tmp/ccdxH1dU.s 			page 6


 286              		.cfi_def_cfa_offset 16
 287              		.cfi_offset 4, -16
 288              		.cfi_offset 5, -12
 289              		.cfi_offset 6, -8
 290              		.cfi_offset 14, -4
 291 0002 041C     		mov	r4, r0
 292 0004 0E1C     		mov	r6, r1
 293              		.loc 1 249 0
 294 0006 1C30     		add	r0, r0, #28
 295              	.LVL33:
 296 0008 111C     		mov	r1, r2
 297              	.LVL34:
 298 000a FFF7FEFF 		bl	chSemWaitTimeoutS
 299              	.LVL35:
 300 000e 051E     		sub	r5, r0, #0
 301              	.LVL36:
 302              		.loc 1 250 0
 303 0010 10D1     		bne	.L12
 304              		.loc 1 251 0
 305 0012 E368     		ldr	r3, [r4, #12]
 306 0014 043B     		sub	r3, r3, #4
 307 0016 E360     		str	r3, [r4, #12]
 308 0018 2268     		ldr	r2, [r4]
 309 001a 9342     		cmp	r3, r2
 310 001c 02D2     		bcs	.L13
 311              		.loc 1 252 0
 312 001e 6368     		ldr	r3, [r4, #4]
 313 0020 043B     		sub	r3, r3, #4
 314 0022 E360     		str	r3, [r4, #12]
 315              	.L13:
 316              		.loc 1 253 0
 317 0024 E368     		ldr	r3, [r4, #12]
 318 0026 1E60     		str	r6, [r3]
 319              		.loc 1 254 0
 320 0028 201C     		mov	r0, r4
 321              	.LVL37:
 322 002a 1030     		add	r0, r0, #16
 323 002c FFF7FEFF 		bl	chSemSignalI
 324              	.LVL38:
 325              		.loc 1 255 0
 326 0030 FFF7FEFF 		bl	chSchRescheduleS
 327              	.LVL39:
 328              	.L12:
 329              		.loc 1 258 0
 330 0034 281C     		mov	r0, r5
 331              		@ sp needed
 332              	.LVL40:
 333              	.LVL41:
 334              	.LVL42:
 335 0036 70BD     		pop	{r4, r5, r6, pc}
 336              		.cfi_endproc
 337              	.LFE13:
 338              		.size	chMBPostAheadS, .-chMBPostAheadS
 339              		.section	.text.chMBPostAhead,"ax",%progbits
 340              		.align	2
 341              		.global	chMBPostAhead
 342              		.code	16
ARM GAS  /tmp/ccdxH1dU.s 			page 7


 343              		.thumb_func
 344              		.type	chMBPostAhead, %function
 345              	chMBPostAhead:
 346              	.LFB12:
 347              		.loc 1 215 0
 348              		.cfi_startproc
 349              	.LVL43:
 350 0000 08B5     		push	{r3, lr}
 351              		.cfi_def_cfa_offset 8
 352              		.cfi_offset 3, -8
 353              		.cfi_offset 14, -4
 354              		.loc 1 218 0
 355              	@ 218 "ChibiOS_2.6.5/os/kernel/src/chmboxes.c" 1
 356 0002 72B6     		cpsid   i
 357              	@ 0 "" 2
 358              		.loc 1 219 0
 359              		.code	16
 360 0004 FFF7FEFF 		bl	chMBPostAheadS
 361              	.LVL44:
 362              		.loc 1 220 0
 363              	@ 220 "ChibiOS_2.6.5/os/kernel/src/chmboxes.c" 1
 364 0008 62B6     		cpsie   i
 365              	@ 0 "" 2
 366              		.loc 1 222 0
 367              		.code	16
 368              		@ sp needed
 369 000a 08BD     		pop	{r3, pc}
 370              		.cfi_endproc
 371              	.LFE12:
 372              		.size	chMBPostAhead, .-chMBPostAhead
 373              		.section	.text.chMBPostAheadI,"ax",%progbits
 374              		.align	2
 375              		.global	chMBPostAheadI
 376              		.code	16
 377              		.thumb_func
 378              		.type	chMBPostAheadI, %function
 379              	chMBPostAheadI:
 380              	.LFB14:
 381              		.loc 1 274 0
 382              		.cfi_startproc
 383              	.LVL45:
 384 0000 08B5     		push	{r3, lr}
 385              		.cfi_def_cfa_offset 8
 386              		.cfi_offset 3, -8
 387              		.cfi_offset 14, -4
 388              		.loc 1 279 0
 389 0002 436A     		ldr	r3, [r0, #36]
 390 0004 002B     		cmp	r3, #0
 391 0006 11DD     		ble	.L18
 392              		.loc 1 281 0
 393 0008 013B     		sub	r3, r3, #1
 394 000a 4362     		str	r3, [r0, #36]
 395              		.loc 1 282 0
 396 000c C368     		ldr	r3, [r0, #12]
 397 000e 043B     		sub	r3, r3, #4
 398 0010 C360     		str	r3, [r0, #12]
 399 0012 0268     		ldr	r2, [r0]
ARM GAS  /tmp/ccdxH1dU.s 			page 8


 400 0014 9342     		cmp	r3, r2
 401 0016 02D2     		bcs	.L17
 402              		.loc 1 283 0
 403 0018 4368     		ldr	r3, [r0, #4]
 404 001a 043B     		sub	r3, r3, #4
 405 001c C360     		str	r3, [r0, #12]
 406              	.L17:
 407              		.loc 1 284 0
 408 001e C368     		ldr	r3, [r0, #12]
 409 0020 1960     		str	r1, [r3]
 410              		.loc 1 285 0
 411 0022 1030     		add	r0, r0, #16
 412              	.LVL46:
 413 0024 FFF7FEFF 		bl	chSemSignalI
 414              	.LVL47:
 415              		.loc 1 286 0
 416 0028 0020     		mov	r0, #0
 417 002a 01E0     		b	.L16
 418              	.LVL48:
 419              	.L18:
 420              		.loc 1 280 0
 421 002c 0120     		mov	r0, #1
 422              	.LVL49:
 423 002e 4042     		neg	r0, r0
 424              	.LVL50:
 425              	.L16:
 426              		.loc 1 287 0
 427              		@ sp needed
 428 0030 08BD     		pop	{r3, pc}
 429              		.cfi_endproc
 430              	.LFE14:
 431              		.size	chMBPostAheadI, .-chMBPostAheadI
 432 0032 C046     		.section	.text.chMBFetchS,"ax",%progbits
 433              		.align	2
 434              		.global	chMBFetchS
 435              		.code	16
 436              		.thumb_func
 437              		.type	chMBFetchS, %function
 438              	chMBFetchS:
 439              	.LFB16:
 440              		.loc 1 336 0
 441              		.cfi_startproc
 442              	.LVL51:
 443 0000 70B5     		push	{r4, r5, r6, lr}
 444              		.cfi_def_cfa_offset 16
 445              		.cfi_offset 4, -16
 446              		.cfi_offset 5, -12
 447              		.cfi_offset 6, -8
 448              		.cfi_offset 14, -4
 449 0002 041C     		mov	r4, r0
 450 0004 0E1C     		mov	r6, r1
 451              		.loc 1 342 0
 452 0006 1030     		add	r0, r0, #16
 453              	.LVL52:
 454 0008 111C     		mov	r1, r2
 455              	.LVL53:
 456 000a FFF7FEFF 		bl	chSemWaitTimeoutS
ARM GAS  /tmp/ccdxH1dU.s 			page 9


 457              	.LVL54:
 458 000e 051E     		sub	r5, r0, #0
 459              	.LVL55:
 460              		.loc 1 343 0
 461 0010 10D1     		bne	.L20
 462              		.loc 1 344 0
 463 0012 E368     		ldr	r3, [r4, #12]
 464 0014 1A1D     		add	r2, r3, #4
 465 0016 E260     		str	r2, [r4, #12]
 466 0018 1B68     		ldr	r3, [r3]
 467 001a 3360     		str	r3, [r6]
 468              		.loc 1 345 0
 469 001c E268     		ldr	r2, [r4, #12]
 470 001e 6368     		ldr	r3, [r4, #4]
 471 0020 9A42     		cmp	r2, r3
 472 0022 01D3     		bcc	.L21
 473              		.loc 1 346 0
 474 0024 2268     		ldr	r2, [r4]
 475 0026 E260     		str	r2, [r4, #12]
 476              	.L21:
 477              		.loc 1 347 0
 478 0028 201C     		mov	r0, r4
 479              	.LVL56:
 480 002a 1C30     		add	r0, r0, #28
 481 002c FFF7FEFF 		bl	chSemSignalI
 482              	.LVL57:
 483              		.loc 1 348 0
 484 0030 FFF7FEFF 		bl	chSchRescheduleS
 485              	.LVL58:
 486              	.L20:
 487              		.loc 1 351 0
 488 0034 281C     		mov	r0, r5
 489              		@ sp needed
 490              	.LVL59:
 491              	.LVL60:
 492              	.LVL61:
 493 0036 70BD     		pop	{r4, r5, r6, pc}
 494              		.cfi_endproc
 495              	.LFE16:
 496              		.size	chMBFetchS, .-chMBFetchS
 497              		.section	.text.chMBFetch,"ax",%progbits
 498              		.align	2
 499              		.global	chMBFetch
 500              		.code	16
 501              		.thumb_func
 502              		.type	chMBFetch, %function
 503              	chMBFetch:
 504              	.LFB15:
 505              		.loc 1 308 0
 506              		.cfi_startproc
 507              	.LVL62:
 508 0000 08B5     		push	{r3, lr}
 509              		.cfi_def_cfa_offset 8
 510              		.cfi_offset 3, -8
 511              		.cfi_offset 14, -4
 512              		.loc 1 311 0
 513              	@ 311 "ChibiOS_2.6.5/os/kernel/src/chmboxes.c" 1
ARM GAS  /tmp/ccdxH1dU.s 			page 10


 514 0002 72B6     		cpsid   i
 515              	@ 0 "" 2
 516              		.loc 1 312 0
 517              		.code	16
 518 0004 FFF7FEFF 		bl	chMBFetchS
 519              	.LVL63:
 520              		.loc 1 313 0
 521              	@ 313 "ChibiOS_2.6.5/os/kernel/src/chmboxes.c" 1
 522 0008 62B6     		cpsie   i
 523              	@ 0 "" 2
 524              		.loc 1 315 0
 525              		.code	16
 526              		@ sp needed
 527 000a 08BD     		pop	{r3, pc}
 528              		.cfi_endproc
 529              	.LFE15:
 530              		.size	chMBFetch, .-chMBFetch
 531              		.section	.text.chMBFetchI,"ax",%progbits
 532              		.align	2
 533              		.global	chMBFetchI
 534              		.code	16
 535              		.thumb_func
 536              		.type	chMBFetchI, %function
 537              	chMBFetchI:
 538              	.LFB17:
 539              		.loc 1 367 0
 540              		.cfi_startproc
 541              	.LVL64:
 542 0000 08B5     		push	{r3, lr}
 543              		.cfi_def_cfa_offset 8
 544              		.cfi_offset 3, -8
 545              		.cfi_offset 14, -4
 546              		.loc 1 372 0
 547 0002 8369     		ldr	r3, [r0, #24]
 548 0004 002B     		cmp	r3, #0
 549 0006 11DD     		ble	.L26
 550              		.loc 1 374 0
 551 0008 013B     		sub	r3, r3, #1
 552 000a 8361     		str	r3, [r0, #24]
 553              		.loc 1 375 0
 554 000c C368     		ldr	r3, [r0, #12]
 555 000e 1A1D     		add	r2, r3, #4
 556 0010 C260     		str	r2, [r0, #12]
 557 0012 1B68     		ldr	r3, [r3]
 558 0014 0B60     		str	r3, [r1]
 559              		.loc 1 376 0
 560 0016 C268     		ldr	r2, [r0, #12]
 561 0018 4368     		ldr	r3, [r0, #4]
 562 001a 9A42     		cmp	r2, r3
 563 001c 01D3     		bcc	.L25
 564              		.loc 1 377 0
 565 001e 0268     		ldr	r2, [r0]
 566 0020 C260     		str	r2, [r0, #12]
 567              	.L25:
 568              		.loc 1 378 0
 569 0022 1C30     		add	r0, r0, #28
 570              	.LVL65:
ARM GAS  /tmp/ccdxH1dU.s 			page 11


 571 0024 FFF7FEFF 		bl	chSemSignalI
 572              	.LVL66:
 573              		.loc 1 379 0
 574 0028 0020     		mov	r0, #0
 575 002a 01E0     		b	.L24
 576              	.LVL67:
 577              	.L26:
 578              		.loc 1 373 0
 579 002c 0120     		mov	r0, #1
 580              	.LVL68:
 581 002e 4042     		neg	r0, r0
 582              	.LVL69:
 583              	.L24:
 584              		.loc 1 380 0
 585              		@ sp needed
 586 0030 08BD     		pop	{r3, pc}
 587              		.cfi_endproc
 588              	.LFE17:
 589              		.size	chMBFetchI, .-chMBFetchI
 590 0032 C046     		.text
 591              	.Letext0:
 592              		.file 2 "/usr/local/lpcxpresso_7.3.0_186/lpcxpresso/tools/arm-none-eabi/include/machine/_default_t
 593              		.file 3 "/usr/local/lpcxpresso_7.3.0_186/lpcxpresso/tools/arm-none-eabi/include/stdint.h"
 594              		.file 4 "ChibiOS_2.6.5/os/ports/GCC/ARMCMx/chtypes.h"
 595              		.file 5 "ChibiOS_2.6.5/os/kernel/include/chlists.h"
 596              		.file 6 "ChibiOS_2.6.5/os/kernel/include/chthreads.h"
 597              		.file 7 "ChibiOS_2.6.5/os/ports/GCC/ARMCMx/chcore_v6m.h"
 598              		.file 8 "ChibiOS_2.6.5/os/kernel/include/chsem.h"
 599              		.file 9 "ChibiOS_2.6.5/os/kernel/include/chmtx.h"
 600              		.file 10 "ChibiOS_2.6.5/os/kernel/include/chmboxes.h"
 601              		.file 11 "ChibiOS_2.6.5/os/kernel/include/chschd.h"