ARM GAS  /tmp/ccdxH1dU.s 			page 1


   1              		.cpu cortex-m0
   2              		.fpu softvfp
   3              		.eabi_attribute 20, 1
   4              		.eabi_attribute 21, 1
   5              		.eabi_attribute 23, 3
   6              		.eabi_attribute 24, 1
   7              		.eabi_attribute 25, 1
   8              		.eabi_attribute 26, 1
   9              		.eabi_attribute 30, 1
  10              		.eabi_attribute 34, 0
  11              		.eabi_attribute 18, 4
  12              		.code	16
  13              		.file	"chmboxes.c"
  14              		.text
  15              	.Ltext0:
  16              		.cfi_sections	.debug_frame
  17              		.section	.text.chMBInit,"ax",%progbits
  18              		.align	2
  19              		.global	chMBInit
  20              		.code	16
  21              		.thumb_func
  22              		.type	chMBInit, %function
  23              	chMBInit:
  24              	.LFB7:
  25              		.file 1 "ChibiOS_2.6.5/os/kernel/src/chmboxes.c"
  26              		.loc 1 72 0
  27              		.cfi_startproc
  28              	.LVL0:
  29 0000 10B5     		push	{r4, lr}
  30              		.cfi_def_cfa_offset 8
  31              		.cfi_offset 4, -8
  32              		.cfi_offset 14, -4
  33 0002 041C     		mov	r4, r0
  34 0004 0B1C     		mov	r3, r1
  35              		.loc 1 76 0
  36 0006 E160     		str	r1, [r4, #12]
  37 0008 A160     		str	r1, [r4, #8]
  38 000a 2160     		str	r1, [r4]
  39              		.loc 1 77 0
  40 000c 9100     		lsl	r1, r2, #2
  41              	.LVL1:
  42 000e 5B18     		add	r3, r3, r1
  43              	.LVL2:
  44 0010 4360     		str	r3, [r0, #4]
  45              		.loc 1 78 0
  46 0012 1C30     		add	r0, r0, #28
  47              	.LVL3:
  48 0014 111C     		mov	r1, r2
  49 0016 FFF7FEFF 		bl	chSemInit
  50              	.LVL4:
  51              		.loc 1 79 0
  52 001a 201C     		mov	r0, r4
  53 001c 1030     		add	r0, r0, #16
  54 001e 0021     		mov	r1, #0
  55 0020 FFF7FEFF 		bl	chSemInit
  56              	.LVL5:
  57              		.loc 1 80 0
ARM GAS  /tmp/ccdxH1dU.s 			page 2


  58              		@ sp needed
  59              	.LVL6:
  60 0024 10BD     		pop	{r4, pc}
  61              		.cfi_endproc
  62              	.LFE7:
  63              		.size	chMBInit, .-chMBInit
  64 0026 C046     		.section	.text.chMBReset,"ax",%progbits
  65              		.align	2
  66              		.global	chMBReset
  67              		.code	16
  68              		.thumb_func
  69              		.type	chMBReset, %function
  70              	chMBReset:
  71              	.LFB8:
  72              		.loc 1 91 0
  73              		.cfi_startproc
  74              	.LVL7:
  75 0000 10B5     		push	{r4, lr}
  76              		.cfi_def_cfa_offset 8
  77              		.cfi_offset 4, -8
  78              		.cfi_offset 14, -4
  79 0002 041C     		mov	r4, r0
  80              		.loc 1 95 0
  81              	@ 95 "ChibiOS_2.6.5/os/kernel/src/chmboxes.c" 1
  82 0004 72B6     		cpsid   i
  83              	@ 0 "" 2
  84              		.loc 1 96 0
  85              		.code	16
  86 0006 0168     		ldr	r1, [r0]
  87 0008 C160     		str	r1, [r0, #12]
  88 000a 8160     		str	r1, [r0, #8]
  89              		.loc 1 97 0
  90 000c 1C30     		add	r0, r0, #28
  91              	.LVL8:
  92 000e 6368     		ldr	r3, [r4, #4]
  93 0010 591A     		sub	r1, r3, r1
  94 0012 8910     		asr	r1, r1, #2
  95 0014 FFF7FEFF 		bl	chSemResetI
  96              	.LVL9:
  97              		.loc 1 98 0
  98 0018 201C     		mov	r0, r4
  99 001a 1030     		add	r0, r0, #16
 100 001c 0021     		mov	r1, #0
 101 001e FFF7FEFF 		bl	chSemResetI
 102              	.LVL10:
 103              		.loc 1 99 0
 104 0022 FFF7FEFF 		bl	chSchRescheduleS
 105              	.LVL11:
 106              		.loc 1 100 0
 107              	@ 100 "ChibiOS_2.6.5/os/kernel/src/chmboxes.c" 1
 108 0026 62B6     		cpsie   i
 109              	@ 0 "" 2
 110              		.loc 1 101 0
 111              		.code	16
 112              		@ sp needed
 113              	.LVL12:
 114 0028 10BD     		pop	{r4, pc}
ARM GAS  /tmp/ccdxH1dU.s 			page 3


 115              		.cfi_endproc
 116              	.LFE8:
 117              		.size	chMBReset, .-chMBReset
 118 002a C046     		.section	.text.chMBPostS,"ax",%progbits
 119              		.align	2
 120              		.global	chMBPostS
 121              		.code	16
 122              		.thumb_func
 123              		.type	chMBPostS, %function
 124              	chMBPostS:
 125              	.LFB10:
 126              		.loc 1 150 0
 127              		.cfi_startproc
 128              	.LVL13:
 129 0000 70B5     		push	{r4, r5, r6, lr}
 130              		.cfi_def_cfa_offset 16
 131              		.cfi_offset 4, -16
 132              		.cfi_offset 5, -12
 133              		.cfi_offset 6, -8
 134              		.cfi_offset 14, -4
 135 0002 041C     		mov	r4, r0
 136 0004 0E1C     		mov	r6, r1
 137              		.loc 1 156 0
 138 0006 1C30     		add	r0, r0, #28
 139              	.LVL14:
 140 0008 111C     		mov	r1, r2
 141              	.LVL15:
 142 000a FFF7FEFF 		bl	chSemWaitTimeoutS
 143              	.LVL16:
 144 000e 051E     		sub	r5, r0, #0
 145              	.LVL17:
 146              		.loc 1 157 0
 147 0010 0FD1     		bne	.L4
 148              		.loc 1 158 0
 149 0012 A368     		ldr	r3, [r4, #8]
 150 0014 1A1D     		add	r2, r3, #4
 151 0016 A260     		str	r2, [r4, #8]
 152 0018 1E60     		str	r6, [r3]
 153              		.loc 1 159 0
 154 001a A268     		ldr	r2, [r4, #8]
 155 001c 6368     		ldr	r3, [r4, #4]
 156 001e 9A42     		cmp	r2, r3
 157 0020 01D3     		bcc	.L5
 158              		.loc 1 160 0
 159 0022 2268     		ldr	r2, [r4]
 160 0024 A260     		str	r2, [r4, #8]
 161              	.L5:
 162              		.loc 1 161 0
 163 0026 201C     		mov	r0, r4
 164              	.LVL18:
 165 0028 1030     		add	r0, r0, #16
 166 002a FFF7FEFF 		bl	chSemSignalI
 167              	.LVL19:
 168              		.loc 1 162 0
 169 002e FFF7FEFF 		bl	chSchRescheduleS
 170              	.LVL20:
 171              	.L4:
ARM GAS  /tmp/ccdxH1dU.s 			page 4


 172              		.loc 1 165 0
 173 0032 281C     		mov	r0, r5
 174              		@ sp needed
 175              	.LVL21:
 176              	.LVL22:
 177              	.LVL23:
 178 0034 70BD     		pop	{r4, r5, r6, pc}
 179              		.cfi_endproc
 180              	.LFE10:
 181              		.size	chMBPostS, .-chMBPostS
 182 0036 C046     		.section	.text.chMBPost,"ax",%progbits
 183              		.align	2
 184              		.global	chMBPost
 185              		.code	16
 186              		.thumb_func
 187              		.type	chMBPost, %function
 188              	chMBPost:
 189              	.LFB9:
 190              		.loc 1 122 0
 191              		.cfi_startproc
 192              	.LVL24:
 193 0000 08B5     		push	{r3, lr}
 194              		.cfi_def_cfa_offset 8
 195              		.cfi_offset 3, -8
 196              		.cfi_offset 14, -4
 197              		.loc 1 125 0
 198              	@ 125 "ChibiOS_2.6.5/os/kernel/src/chmboxes.c" 1
 199 0002 72B6     		cpsid   i
 200              	@ 0 "" 2
 201              		.loc 1 126 0
 202              		.code	16
 203 0004 FFF7FEFF 		bl	chMBPostS
 204              	.LVL25:
 205              		.loc 1 127 0
 206              	@ 127 "ChibiOS_2.6.5/os/kernel/src/chmboxes.c" 1
 207 0008 62B6     		cpsie   i
 208              	@ 0 "" 2
 209              		.loc 1 129 0
 210              		.code	16
 211              		@ sp needed
 212 000a 08BD     		pop	{r3, pc}
 213              		.cfi_endproc
 214              	.LFE9:
 215              		.size	chMBPost, .-chMBPost
 216              		.section	.text.chMBPostI,"ax",%progbits
 217              		.align	2
 218              		.global	chMBPostI
 219              		.code	16
 220              		.thumb_func
 221              		.type	chMBPostI, %function
 222              	chMBPostI:
 223              	.LFB11:
 224              		.loc 1 181 0
 225              		.cfi_startproc
 226              	.LVL26:
 227 0000 08B5     		push	{r3, lr}
 228              		.cfi_def_cfa_offset 8
ARM GAS  /tmp/ccdxH1dU.s 			page 5


 229              		.cfi_offset 3, -8
 230              		.cfi_offset 14, -4
 231              		.loc 1 186 0
 232 0002 436A     		ldr	r3, [r0, #36]
 233 0004 002B     		cmp	r3, #0
 234 0006 10DD     		ble	.L10
 235              		.loc 1 188 0
 236 0008 013B     		sub	r3, r3, #1
 237 000a 4362     		str	r3, [r0, #36]
 238              		.loc 1 189 0
 239 000c 8368     		ldr	r3, [r0, #8]
 240 000e 1A1D     		add	r2, r3, #4
 241 0010 8260     		str	r2, [r0, #8]
 242 0012 1960     		str	r1, [r3]
 243              		.loc 1 190 0
 244 0014 8268     		ldr	r2, [r0, #8]
 245 0016 4368     		ldr	r3, [r0, #4]
 246 0018 9A42     		cmp	r2, r3
 247 001a 01D3     		bcc	.L9
 248              		.loc 1 191 0
 249 001c 0268     		ldr	r2, [r0]
 250 001e 8260     		str	r2, [r0, #8]
 251              	.L9:
 252              		.loc 1 192 0
 253 0020 1030     		add	r0, r0, #16
 254              	.LVL27:
 255 0022 FFF7FEFF 		bl	chSemSignalI
 256              	.LVL28:
 257              		.loc 1 193 0
 258 0026 0020     		mov	r0, #0
 259 0028 01E0     		b	.L8
 260              	.LVL29:
 261              	.L10:
 262              		.loc 1 187 0
 263 002a 0120     		mov	r0, #1
 264              	.LVL30:
 265 002c 4042     		neg	r0, r0
 266              	.LVL31:
 267              	.L8:
 268              		.loc 1 194 0
 269              		@ sp needed
 270 002e 08BD     		pop	{r3, pc}
 271              		.cfi_endproc
 272              	.LFE11:
 273              		.size	chMBPostI, .-chMBPostI
 274              		.section	.text.chMBPostAheadS,"ax",%progbits
 275              		.align	2
 276              		.global	chMBPostAheadS
 277              		.code	16
 278              		.thumb_func
 279              		.type	chMBPostAheadS, %function
 280              	chMBPostAheadS:
 281              	.LFB13:
 282              		.loc 1 243 0
 283              		.cfi_startproc
 284              	.LVL32:
 285 0000 70B5     		push	{r4, r5, r6, lr}
ARM GAS  /tmp/ccdxH1dU.s 			page 6


 286              		.cfi_def_cfa_offset 16
 287              		.cfi_offset 4, -16
 288              		.cfi_offset 5, -12
 289              		.cfi_offset 6, -8
 290              		.cfi_offset 14, -4
 291 0002 041C     		mov	r4, r0
 292 0004 0E1C     		mov	r6, r1
 293              		.loc 1 249 0
 294 0006 1C30     		add	r0, r0, #28
 295              	.LVL33:
 296 0008 111C     		mov	r1, r2
 297              	.LVL34:
 298 000a FFF7FEFF 		bl	chSemWaitTimeoutS
 299              	.LVL35:
 300 000e 051E     		sub	r5, r0, #0
 301              	.LVL36:
 302              		.loc 1 250 0
 303 0010 10D1     		bne	.L12
 304              		.loc 1 251 0
 305 0012 E368     		ldr	r3, [r4, #12]
 306 0014 043B     		sub	r3, r3, #4
 307 0016 E360     		str	r3, [r4, #12]
 308 0018 2268     		ldr	r2, [r4]
 309 001a 9342     		cmp	r3, r2
 310 001c 02D2     		bcs	.L13
 311              		.loc 1 252 0
 312 001e 6368     		ldr	r3, [r4, #4]
 313 0020 043B     		sub	r3, r3, #4
 314 0022 E360     		str	r3, [r4, #12]
 315              	.L13:
 316              		.loc 1 253 0
 317 0024 E368     		ldr	r3, [r4, #12]
 318 0026 1E60     		str	r6, [r3]
 319              		.loc 1 254 0
 320 0028 201C     		mov	r0, r4
 321              	.LVL37:
 322 002a 1030     		add	r0, r0, #16
 323 002c FFF7FEFF 		bl	chSemSignalI
 324              	.LVL38:
 325              		.loc 1 255 0
 326 0030 FFF7FEFF 		bl	chSchRescheduleS
 327              	.LVL39:
 328              	.L12:
 329              		.loc 1 258 0
 330 0034 281C     		mov	r0, r5
 331              		@ sp needed
 332              	.LVL40:
 333              	.LVL41:
 334              	.LVL42:
 335 0036 70BD     		pop	{r4, r5, r6, pc}
 336              		.cfi_endproc
 337              	.LFE13:
 338              		.size	chMBPostAheadS, .-chMBPostAheadS
 339              		.section	.text.chMBPostAhead,"ax",%progbits
 340              		.align	2
 341              		.global	chMBPostAhead
 342              		.code	16
ARM GAS  /tmp/ccdxH1dU.s 			page 7


 343              		.thumb_func
 344              		.type	chMBPostAhead, %function
 345              	chMBPostAhead:
 346              	.LFB12:
 347              		.loc 1 215 0
 348              		.cfi_startproc
 349              	.LVL43:
 350 0000 08B5     		push	{r3, lr}
 351              		.cfi_def_cfa_offset 8
 352              		.cfi_offset 3, -8
 353              		.cfi_offset 14, -4
 354              		.loc 1 218 0
 355              	@ 218 "ChibiOS_2.6.5/os/kernel/src/chmboxes.c" 1
 356 0002 72B6     		cpsid   i
 357              	@ 0 "" 2
 358              		.loc 1 219 0
 359              		.code	16
 360 0004 FFF7FEFF 		bl	chMBPostAheadS
 361              	.LVL44:
 362              		.loc 1 220 0
 363              	@ 220 "ChibiOS_2.6.5/os/kernel/src/chmboxes.c" 1
 364 0008 62B6     		cpsie   i
 365              	@ 0 "" 2
 366              		.loc 1 222 0
 367              		.code	16
 368              		@ sp needed
 369 000a 08BD     		pop	{r3, pc}
 370              		.cfi_endproc
 371              	.LFE12:
 372              		.size	chMBPostAhead, .-chMBPostAhead
 373              		.section	.text.chMBPostAheadI,"ax",%progbits
 374              		.align	2
 375              		.global	chMBPostAheadI
 376              		.code	16
 377              		.thumb_func
 378              		.type	chMBPostAheadI, %function
 379              	chMBPostAheadI:
 380              	.LFB14:
 381              		.loc 1 274 0
 382              		.cfi_startproc
 383              	.LVL45:
 384 0000 08B5     		push	{r3, lr}
 385              		.cfi_def_cfa_offset 8
 386              		.cfi_offset 3, -8
 387              		.cfi_offset 14, -4
 388              		.loc 1 279 0
 389 0002 436A     		ldr	r3, [r0, #36]
 390 0004 002B     		cmp	r3, #0
 391 0006 11DD     		ble	.L18
 392              		.loc 1 281 0
 393 0008 013B     		sub	r3, r3, #1
 394 000a 4362     		str	r3, [r0, #36]
 395              		.loc 1 282 0
 396 000c C368     		ldr	r3, [r0, #12]
 397 000e 043B     		sub	r3, r3, #4
 398 0010 C360     		str	r3, [r0, #12]
 399 0012 0268     		ldr	r2, [r0]
ARM GAS  /tmp/ccdxH1dU.s 			page 8


 400 0014 9342     		cmp	r3, r2
 401 0016 02D2     		bcs	.L17
 402              		.loc 1 283 0
 403 0018 4368     		ldr	r3, [r0, #4]
 404 001a 043B     		sub	r3, r3, #4
 405 001c C360     		str	r3, [r0, #12]
 406              	.L17:
 407              		.loc 1 284 0
 408 001e C368     		ldr	r3, [r0, #12]
 409 0020 1960     		str	r1, [r3]
 410              		.loc 1 285 0
 411 0022 1030     		add	r0, r0, #16
 412              	.LVL46:
 413 0024 FFF7FEFF 		bl	chSemSignalI
 414              	.LVL47:
 415              		.loc 1 286 0
 416 0028 0020     		mov	r0, #0
 417 002a 01E0     		b	.L16
 418              	.LVL48:
 419              	.L18:
 420              		.loc 1 280 0
 421 002c 0120     		mov	r0, #1
 422              	.LVL49:
 423 002e 4042     		neg	r0, r0
 424              	.LVL50:
 425              	.L16:
 426              		.loc 1 287 0
 427              		@ sp needed
 428 0030 08BD     		pop	{r3, pc}
 429              		.cfi_endproc
 430              	.LFE14:
 431              		.size	chMBPostAheadI, .-chMBPostAheadI
 432 0032 C046     		.section	.text.chMBFetchS,"ax",%progbits
 433              		.align	2
 434              		.global	chMBFetchS
 435              		.code	16
 436              		.thumb_func
 437              		.type	chMBFetchS, %function
 438              	chMBFetchS:
 439              	.LFB16:
 440              		.loc 1 336 0
 441              		.cfi_startproc
 442              	.LVL51:
 443 0000 70B5     		push	{r4, r5, r6, lr}
 444              		.cfi_def_cfa_offset 16
 445              		.cfi_offset 4, -16
 446              		.cfi_offset 5, -12
 447              		.cfi_offset 6, -8
 448              		.cfi_offset 14, -4
 449 0002 041C     		mov	r4, r0
 450 0004 0E1C     		mov	r6, r1
 451              		.loc 1 342 0
 452 0006 1030     		add	r0, r0, #16
 453              	.LVL52:
 454 0008 111C     		mov	r1, r2
 455              	.LVL53:
 456 000a FFF7FEFF 		bl	chSemWaitTimeoutS
ARM GAS  /tmp/ccdxH1dU.s 			page 9


 457              	.LVL54:
 458 000e 051E     		sub	r5, r0, #0
 459              	.LVL55:
 460              		.loc 1 343 0
 461 0010 10D1     		bne	.L20
 462              		.loc 1 344 0
 463 0012 E368     		ldr	r3, [r4, #12]
 464 0014 1A1D     		add	r2, r3, #4
 465 0016 E260     		str	r2, [r4, #12]
 466 0018 1B68     		ldr	r3, [r3]
 467 001a 3360     		str	r3, [r6]
 468              		.loc 1 345 0
 469 001c E268     		ldr	r2, [r4, #12]
 470 001e 6368     		ldr	r3, [r4, #4]
 471 0020 9A42     		cmp	r2, r3
 472 0022 01D3     		bcc	.L21
 473              		.loc 1 346 0
 474 0024 2268     		ldr	r2, [r4]
 475 0026 E260     		str	r2, [r4, #12]
 476              	.L21:
 477              		.loc 1 347 0
 478 0028 201C     		mov	r0, r4
 479              	.LVL56:
 480 002a 1C30     		add	r0, r0, #28
 481 002c FFF7FEFF 		bl	chSemSignalI
 482              	.LVL57:
 483              		.loc 1 348 0
 484 0030 FFF7FEFF 		bl	chSchRescheduleS
 485              	.LVL58:
 486              	.L20:
 487              		.loc 1 351 0
 488 0034 281C     		mov	r0, r5
 489              		@ sp needed
 490              	.LVL59:
 491              	.LVL60:
 492              	.LVL61:
 493 0036 70BD     		pop	{r4, r5, r6, pc}
 494              		.cfi_endproc
 495              	.LFE16:
 496              		.size	chMBFetchS, .-chMBFetchS
 497              		.section	.text.chMBFetch,"ax",%progbits
 498              		.align	2
 499              		.global	chMBFetch
 500              		.code	16
 501              		.thumb_func
 502              		.type	chMBFetch, %function
 503              	chMBFetch:
 504              	.LFB15:
 505              		.loc 1 308 0
 506              		.cfi_startproc
 507              	.LVL62:
 508 0000 08B5     		push	{r3, lr}
 509              		.cfi_def_cfa_offset 8
 510              		.cfi_offset 3, -8
 511              		.cfi_offset 14, -4
 512              		.loc 1 311 0
 513              	@ 311 "ChibiOS_2.6.5/os/kernel/src/chmboxes.c" 1
ARM GAS  /tmp/ccdxH1dU.s 			page 10


 514 0002 72B6     		cpsid   i
 515              	@ 0 "" 2
 516              		.loc 1 312 0
 517              		.code	16
 518 0004 FFF7FEFF 		bl	chMBFetchS
 519              	.LVL63:
 520              		.loc 1 313 0
 521              	@ 313 "ChibiOS_2.6.5/os/kernel/src/chmboxes.c" 1
 522 0008 62B6     		cpsie   i
 523              	@ 0 "" 2
 524              		.loc 1 315 0
 525              		.code	16
 526              		@ sp needed
 527 000a 08BD     		pop	{r3, pc}
 528              		.cfi_endproc
 529              	.LFE15:
 530              		.size	chMBFetch, .-chMBFetch
 531              		.section	.text.chMBFetchI,"ax",%progbits
 532              		.align	2
 533              		.global	chMBFetchI
 534              		.code	16
 535              		.thumb_func
 536              		.type	chMBFetchI, %function
 537              	chMBFetchI:
 538              	.LFB17:
 539              		.loc 1 367 0
 540              		.cfi_startproc
 541              	.LVL64:
 542 0000 08B5     		push	{r3, lr}
 543              		.cfi_def_cfa_offset 8
 544              		.cfi_offset 3, -8
 545              		.cfi_offset 14, -4
 546              		.loc 1 372 0
 547 0002 8369     		ldr	r3, [r0, #24]
 548 0004 002B     		cmp	r3, #0
 549 0006 11DD     		ble	.L26
 550              		.loc 1 374 0
 551 0008 013B     		sub	r3, r3, #1
 552 000a 8361     		str	r3, [r0, #24]
 553              		.loc 1 375 0
 554 000c C368     		ldr	r3, [r0, #12]
 555 000e 1A1D     		add	r2, r3, #4
 556 0010 C260     		str	r2, [r0, #12]
 557 0012 1B68     		ldr	r3, [r3]
 558 0014 0B60     		str	r3, [r1]
 559              		.loc 1 376 0
 560 0016 C268     		ldr	r2, [r0, #12]
 561 0018 4368     		ldr	r3, [r0, #4]
 562 001a 9A42     		cmp	r2, r3
 563 001c 01D3     		bcc	.L25
 564              		.loc 1 377 0
 565 001e 0268     		ldr	r2, [r0]
 566 0020 C260     		str	r2, [r0, #12]
 567              	.L25:
 568              		.loc 1 378 0
 569 0022 1C30     		add	r0, r0, #28
 570              	.LVL65:
ARM GAS  /tmp/ccdxH1dU.s 			page 11


 571 0024 FFF7FEFF 		bl	chSemSignalI
 572              	.LVL66:
 573              		.loc 1 379 0
 574 0028 0020     		mov	r0, #0
 575 002a 01E0     		b	.L24
 576              	.LVL67:
 577              	.L26:
 578              		.loc 1 373 0
 579 002c 0120     		mov	r0, #1
 580              	.LVL68:
 581 002e 4042     		neg	r0, r0
 582              	.LVL69:
 583              	.L24:
 584              		.loc 1 380 0
 585              		@ sp needed
 586 0030 08BD     		pop	{r3, pc}
 587              		.cfi_endproc
 588              	.LFE17:
 589              		.size	chMBFetchI, .-chMBFetchI
 590 0032 C046     		.text
 591              	.Letext0:
 592              		.file 2 "/usr/local/lpcxpresso_7.3.0_186/lpcxpresso/tools/arm-none-eabi/include/machine/_default_t
 593              		.file 3 "/usr/local/lpcxpresso_7.3.0_186/lpcxpresso/tools/arm-none-eabi/include/stdint.h"
 594              		.file 4 "ChibiOS_2.6.5/os/ports/GCC/ARMCMx/chtypes.h"
 595              		.file 5 "ChibiOS_2.6.5/os/kernel/include/chlists.h"
 596              		.file 6 "ChibiOS_2.6.5/os/kernel/include/chthreads.h"
 597              		.file 7 "ChibiOS_2.6.5/os/ports/GCC/ARMCMx/chcore_v6m.h"
 598              		.file 8 "ChibiOS_2.6.5/os/kernel/include/chsem.h"
 599              		.file 9 "ChibiOS_2.6.5/os/kernel/include/chmtx.h"
 600              		.file 10 "ChibiOS_2.6.5/os/kernel/include/chmboxes.h"
 601              		.file 11 "ChibiOS_2.6.5/os/kernel/include/chschd.h"
 602              		.section	.debug_info,"",%progbits
 603              	.Ldebug_info0:
 604 0000 5F090000 		.4byte	0x95f
 605 0004 0400     		.2byte	0x4
 606 0006 00000000 		.4byte	.Ldebug_abbrev0
 607 000a 04       		.byte	0x4
 608 000b 01       		.uleb128 0x1
 609 000c D0010000 		.4byte	.LASF85
 610 0010 01       		.byte	0x1
 611 0011 07010000 		.4byte	.LASF86
 612 0015 5E010000 		.4byte	.LASF87
 613 0019 00000000 		.4byte	.Ldebug_ranges0+0
 614 001d 00000000 		.4byte	0
 615 0021 00000000 		.4byte	.Ldebug_line0
 616 0025 02       		.uleb128 0x2
 617 0026 04       		.byte	0x4
 618 0027 05       		.byte	0x5
 619 0028 696E7400 		.ascii	"int\000"
 620 002c 03       		.uleb128 0x3
 621 002d 04       		.byte	0x4
 622 002e 07       		.byte	0x7
 623 002f 48010000 		.4byte	.LASF0
 624 0033 03       		.uleb128 0x3
 625 0034 01       		.byte	0x1
 626 0035 06       		.byte	0x6
 627 0036 9C000000 		.4byte	.LASF1
ARM GAS  /tmp/ccdxH1dU.s 			page 12


 628 003a 04       		.uleb128 0x4
 629 003b 1A000000 		.4byte	.LASF5
 630 003f 02       		.byte	0x2
 631 0040 1C       		.byte	0x1c
 632 0041 45000000 		.4byte	0x45
 633 0045 03       		.uleb128 0x3
 634 0046 01       		.byte	0x1
 635 0047 08       		.byte	0x8
 636 0048 1D030000 		.4byte	.LASF2
 637 004c 03       		.uleb128 0x3
 638 004d 02       		.byte	0x2
 639 004e 05       		.byte	0x5
 640 004f 3C030000 		.4byte	.LASF3
 641 0053 03       		.uleb128 0x3
 642 0054 02       		.byte	0x2
 643 0055 07       		.byte	0x7
 644 0056 A1010000 		.4byte	.LASF4
 645 005a 04       		.uleb128 0x4
 646 005b CD030000 		.4byte	.LASF6
 647 005f 02       		.byte	0x2
 648 0060 37       		.byte	0x37
 649 0061 65000000 		.4byte	0x65
 650 0065 03       		.uleb128 0x3
 651 0066 04       		.byte	0x4
 652 0067 05       		.byte	0x5
 653 0068 D4000000 		.4byte	.LASF7
 654 006c 04       		.uleb128 0x4
 655 006d 2E010000 		.4byte	.LASF8
 656 0071 02       		.byte	0x2
 657 0072 38       		.byte	0x38
 658 0073 77000000 		.4byte	0x77
 659 0077 03       		.uleb128 0x3
 660 0078 04       		.byte	0x4
 661 0079 07       		.byte	0x7
 662 007a A8000000 		.4byte	.LASF9
 663 007e 03       		.uleb128 0x3
 664 007f 08       		.byte	0x8
 665 0080 05       		.byte	0x5
 666 0081 8E000000 		.4byte	.LASF10
 667 0085 03       		.uleb128 0x3
 668 0086 08       		.byte	0x8
 669 0087 07       		.byte	0x7
 670 0088 4F000000 		.4byte	.LASF11
 671 008c 04       		.uleb128 0x4
 672 008d 30040000 		.4byte	.LASF12
 673 0091 03       		.byte	0x3
 674 0092 2A       		.byte	0x2a
 675 0093 3A000000 		.4byte	0x3a
 676 0097 04       		.uleb128 0x4
 677 0098 15030000 		.4byte	.LASF13
 678 009c 03       		.byte	0x3
 679 009d 41       		.byte	0x41
 680 009e 5A000000 		.4byte	0x5a
 681 00a2 04       		.uleb128 0x4
 682 00a3 91030000 		.4byte	.LASF14
 683 00a7 03       		.byte	0x3
 684 00a8 42       		.byte	0x42
ARM GAS  /tmp/ccdxH1dU.s 			page 13


 685 00a9 6C000000 		.4byte	0x6c
 686 00ad 03       		.uleb128 0x3
 687 00ae 01       		.byte	0x1
 688 00af 02       		.byte	0x2
 689 00b0 0F030000 		.4byte	.LASF15
 690 00b4 04       		.uleb128 0x4
 691 00b5 66030000 		.4byte	.LASF16
 692 00b9 04       		.byte	0x4
 693 00ba 2C       		.byte	0x2c
 694 00bb 8C000000 		.4byte	0x8c
 695 00bf 04       		.uleb128 0x4
 696 00c0 DD000000 		.4byte	.LASF17
 697 00c4 04       		.byte	0x4
 698 00c5 2D       		.byte	0x2d
 699 00c6 8C000000 		.4byte	0x8c
 700 00ca 04       		.uleb128 0x4
 701 00cb F8020000 		.4byte	.LASF18
 702 00cf 04       		.byte	0x4
 703 00d0 2E       		.byte	0x2e
 704 00d1 8C000000 		.4byte	0x8c
 705 00d5 04       		.uleb128 0x4
 706 00d6 CA000000 		.4byte	.LASF19
 707 00da 04       		.byte	0x4
 708 00db 2F       		.byte	0x2f
 709 00dc 8C000000 		.4byte	0x8c
 710 00e0 04       		.uleb128 0x4
 711 00e1 07030000 		.4byte	.LASF20
 712 00e5 04       		.byte	0x4
 713 00e6 30       		.byte	0x30
 714 00e7 A2000000 		.4byte	0xa2
 715 00eb 04       		.uleb128 0x4
 716 00ec BF010000 		.4byte	.LASF21
 717 00f0 04       		.byte	0x4
 718 00f1 31       		.byte	0x31
 719 00f2 97000000 		.4byte	0x97
 720 00f6 04       		.uleb128 0x4
 721 00f7 A1020000 		.4byte	.LASF22
 722 00fb 04       		.byte	0x4
 723 00fc 33       		.byte	0x33
 724 00fd A2000000 		.4byte	0xa2
 725 0101 04       		.uleb128 0x4
 726 0102 B8030000 		.4byte	.LASF23
 727 0106 04       		.byte	0x4
 728 0107 35       		.byte	0x35
 729 0108 A2000000 		.4byte	0xa2
 730 010c 04       		.uleb128 0x4
 731 010d 42010000 		.4byte	.LASF24
 732 0111 04       		.byte	0x4
 733 0112 36       		.byte	0x36
 734 0113 97000000 		.4byte	0x97
 735 0117 04       		.uleb128 0x4
 736 0118 7F030000 		.4byte	.LASF25
 737 011c 05       		.byte	0x5
 738 011d 2A       		.byte	0x2a
 739 011e 22010000 		.4byte	0x122
 740 0122 05       		.uleb128 0x5
 741 0123 7F030000 		.4byte	.LASF25
ARM GAS  /tmp/ccdxH1dU.s 			page 14


 742 0127 48       		.byte	0x48
 743 0128 06       		.byte	0x6
 744 0129 5E       		.byte	0x5e
 745 012a 1F020000 		.4byte	0x21f
 746 012e 06       		.uleb128 0x6
 747 012f 5F030000 		.4byte	.LASF26
 748 0133 06       		.byte	0x6
 749 0134 5F       		.byte	0x5f
 750 0135 40020000 		.4byte	0x240
 751 0139 00       		.byte	0
 752 013a 06       		.uleb128 0x6
 753 013b 00030000 		.4byte	.LASF27
 754 013f 06       		.byte	0x6
 755 0140 61       		.byte	0x61
 756 0141 40020000 		.4byte	0x240
 757 0145 04       		.byte	0x4
 758 0146 06       		.uleb128 0x6
 759 0147 87000000 		.4byte	.LASF28
 760 014b 06       		.byte	0x6
 761 014c 63       		.byte	0x63
 762 014d E0000000 		.4byte	0xe0
 763 0151 08       		.byte	0x8
 764 0152 06       		.uleb128 0x6
 765 0153 4E040000 		.4byte	.LASF29
 766 0157 06       		.byte	0x6
 767 0158 64       		.byte	0x64
 768 0159 F0020000 		.4byte	0x2f0
 769 015d 0C       		.byte	0xc
 770 015e 06       		.uleb128 0x6
 771 015f E6000000 		.4byte	.LASF30
 772 0163 06       		.byte	0x6
 773 0164 66       		.byte	0x66
 774 0165 40020000 		.4byte	0x240
 775 0169 10       		.byte	0x10
 776 016a 06       		.uleb128 0x6
 777 016b D4020000 		.4byte	.LASF31
 778 016f 06       		.byte	0x6
 779 0170 67       		.byte	0x67
 780 0171 40020000 		.4byte	0x240
 781 0175 14       		.byte	0x14
 782 0176 06       		.uleb128 0x6
 783 0177 3F040000 		.4byte	.LASF32
 784 017b 06       		.byte	0x6
 785 017c 6E       		.byte	0x6e
 786 017d 24040000 		.4byte	0x424
 787 0181 18       		.byte	0x18
 788 0182 06       		.uleb128 0x6
 789 0183 46030000 		.4byte	.LASF33
 790 0187 06       		.byte	0x6
 791 0188 79       		.byte	0x79
 792 0189 BF000000 		.4byte	0xbf
 793 018d 1C       		.byte	0x1c
 794 018e 06       		.uleb128 0x6
 795 018f 6E030000 		.4byte	.LASF34
 796 0193 06       		.byte	0x6
 797 0194 7D       		.byte	0x7d
 798 0195 B4000000 		.4byte	0xb4
ARM GAS  /tmp/ccdxH1dU.s 			page 15


 799 0199 1D       		.byte	0x1d
 800 019a 06       		.uleb128 0x6
 801 019b 1D040000 		.4byte	.LASF35
 802 019f 06       		.byte	0x6
 803 01a0 82       		.byte	0x82
 804 01a1 CA000000 		.4byte	0xca
 805 01a5 1E       		.byte	0x1e
 806 01a6 06       		.uleb128 0x6
 807 01a7 4E030000 		.4byte	.LASF36
 808 01ab 06       		.byte	0x6
 809 01ac 88       		.byte	0x88
 810 01ad D5000000 		.4byte	0xd5
 811 01b1 1F       		.byte	0x1f
 812 01b2 06       		.uleb128 0x6
 813 01b3 D7030000 		.4byte	.LASF37
 814 01b7 06       		.byte	0x6
 815 01b8 8F       		.byte	0x8f
 816 01b9 16030000 		.4byte	0x316
 817 01bd 20       		.byte	0x20
 818 01be 07       		.uleb128 0x7
 819 01bf 705F7500 		.ascii	"p_u\000"
 820 01c3 06       		.byte	0x6
 821 01c4 B4       		.byte	0xb4
 822 01c5 EF030000 		.4byte	0x3ef
 823 01c9 24       		.byte	0x24
 824 01ca 06       		.uleb128 0x6
 825 01cb 54040000 		.4byte	.LASF38
 826 01cf 06       		.byte	0x6
 827 01d0 B9       		.byte	0xb9
 828 01d1 66020000 		.4byte	0x266
 829 01d5 28       		.byte	0x28
 830 01d6 06       		.uleb128 0x6
 831 01d7 F3030000 		.4byte	.LASF39
 832 01db 06       		.byte	0x6
 833 01dc BF       		.byte	0xbf
 834 01dd 46020000 		.4byte	0x246
 835 01e1 2C       		.byte	0x2c
 836 01e2 06       		.uleb128 0x6
 837 01e3 00000000 		.4byte	.LASF40
 838 01e7 06       		.byte	0x6
 839 01e8 C3       		.byte	0xc3
 840 01e9 EB000000 		.4byte	0xeb
 841 01ed 34       		.byte	0x34
 842 01ee 06       		.uleb128 0x6
 843 01ef 86030000 		.4byte	.LASF41
 844 01f3 06       		.byte	0x6
 845 01f4 C9       		.byte	0xc9
 846 01f5 F6000000 		.4byte	0xf6
 847 01f9 38       		.byte	0x38
 848 01fa 06       		.uleb128 0x6
 849 01fb 32030000 		.4byte	.LASF42
 850 01ff 06       		.byte	0x6
 851 0200 D0       		.byte	0xd0
 852 0201 36040000 		.4byte	0x436
 853 0205 3C       		.byte	0x3c
 854 0206 06       		.uleb128 0x6
 855 0207 C2030000 		.4byte	.LASF43
ARM GAS  /tmp/ccdxH1dU.s 			page 16


 856 020b 06       		.byte	0x6
 857 020c D4       		.byte	0xd4
 858 020d E0000000 		.4byte	0xe0
 859 0211 40       		.byte	0x40
 860 0212 06       		.uleb128 0x6
 861 0213 BA000000 		.4byte	.LASF44
 862 0217 06       		.byte	0x6
 863 0218 DA       		.byte	0xda
 864 0219 7C020000 		.4byte	0x27c
 865 021d 44       		.byte	0x44
 866 021e 00       		.byte	0
 867 021f 08       		.uleb128 0x8
 868 0220 08       		.byte	0x8
 869 0221 05       		.byte	0x5
 870 0222 61       		.byte	0x61
 871 0223 40020000 		.4byte	0x240
 872 0227 06       		.uleb128 0x6
 873 0228 5F030000 		.4byte	.LASF26
 874 022c 05       		.byte	0x5
 875 022d 62       		.byte	0x62
 876 022e 40020000 		.4byte	0x240
 877 0232 00       		.byte	0
 878 0233 06       		.uleb128 0x6
 879 0234 00030000 		.4byte	.LASF27
 880 0238 05       		.byte	0x5
 881 0239 64       		.byte	0x64
 882 023a 40020000 		.4byte	0x240
 883 023e 04       		.byte	0x4
 884 023f 00       		.byte	0
 885 0240 09       		.uleb128 0x9
 886 0241 04       		.byte	0x4
 887 0242 17010000 		.4byte	0x117
 888 0246 04       		.uleb128 0x4
 889 0247 DC020000 		.4byte	.LASF45
 890 024b 05       		.byte	0x5
 891 024c 66       		.byte	0x66
 892 024d 1F020000 		.4byte	0x21f
 893 0251 08       		.uleb128 0x8
 894 0252 04       		.byte	0x4
 895 0253 05       		.byte	0x5
 896 0254 6B       		.byte	0x6b
 897 0255 66020000 		.4byte	0x266
 898 0259 06       		.uleb128 0x6
 899 025a 5F030000 		.4byte	.LASF26
 900 025e 05       		.byte	0x5
 901 025f 6D       		.byte	0x6d
 902 0260 40020000 		.4byte	0x240
 903 0264 00       		.byte	0
 904 0265 00       		.byte	0
 905 0266 04       		.uleb128 0x4
 906 0267 95020000 		.4byte	.LASF46
 907 026b 05       		.byte	0x5
 908 026c 70       		.byte	0x70
 909 026d 51020000 		.4byte	0x251
 910 0271 04       		.uleb128 0x4
 911 0272 39010000 		.4byte	.LASF47
 912 0276 07       		.byte	0x7
ARM GAS  /tmp/ccdxH1dU.s 			page 17


 913 0277 A7       		.byte	0xa7
 914 0278 7C020000 		.4byte	0x27c
 915 027c 0A       		.uleb128 0xa
 916 027d 04       		.byte	0x4
 917 027e 05       		.uleb128 0x5
 918 027f EC030000 		.4byte	.LASF48
 919 0283 24       		.byte	0x24
 920 0284 07       		.byte	0x7
 921 0285 BA       		.byte	0xba
 922 0286 F0020000 		.4byte	0x2f0
 923 028a 07       		.uleb128 0x7
 924 028b 723800   		.ascii	"r8\000"
 925 028e 07       		.byte	0x7
 926 028f BB       		.byte	0xbb
 927 0290 71020000 		.4byte	0x271
 928 0294 00       		.byte	0
 929 0295 07       		.uleb128 0x7
 930 0296 723900   		.ascii	"r9\000"
 931 0299 07       		.byte	0x7
 932 029a BC       		.byte	0xbc
 933 029b 71020000 		.4byte	0x271
 934 029f 04       		.byte	0x4
 935 02a0 07       		.uleb128 0x7
 936 02a1 72313000 		.ascii	"r10\000"
 937 02a5 07       		.byte	0x7
 938 02a6 BD       		.byte	0xbd
 939 02a7 71020000 		.4byte	0x271
 940 02ab 08       		.byte	0x8
 941 02ac 07       		.uleb128 0x7
 942 02ad 72313100 		.ascii	"r11\000"
 943 02b1 07       		.byte	0x7
 944 02b2 BE       		.byte	0xbe
 945 02b3 71020000 		.4byte	0x271
 946 02b7 0C       		.byte	0xc
 947 02b8 07       		.uleb128 0x7
 948 02b9 723400   		.ascii	"r4\000"
 949 02bc 07       		.byte	0x7
 950 02bd BF       		.byte	0xbf
 951 02be 71020000 		.4byte	0x271
 952 02c2 10       		.byte	0x10
 953 02c3 07       		.uleb128 0x7
 954 02c4 723500   		.ascii	"r5\000"
 955 02c7 07       		.byte	0x7
 956 02c8 C0       		.byte	0xc0
 957 02c9 71020000 		.4byte	0x271
 958 02cd 14       		.byte	0x14
 959 02ce 07       		.uleb128 0x7
 960 02cf 723600   		.ascii	"r6\000"
 961 02d2 07       		.byte	0x7
 962 02d3 C1       		.byte	0xc1
 963 02d4 71020000 		.4byte	0x271
 964 02d8 18       		.byte	0x18
 965 02d9 07       		.uleb128 0x7
 966 02da 723700   		.ascii	"r7\000"
 967 02dd 07       		.byte	0x7
 968 02de C2       		.byte	0xc2
 969 02df 71020000 		.4byte	0x271
ARM GAS  /tmp/ccdxH1dU.s 			page 18


 970 02e3 1C       		.byte	0x1c
 971 02e4 07       		.uleb128 0x7
 972 02e5 6C7200   		.ascii	"lr\000"
 973 02e8 07       		.byte	0x7
 974 02e9 C3       		.byte	0xc3
 975 02ea 71020000 		.4byte	0x271
 976 02ee 20       		.byte	0x20
 977 02ef 00       		.byte	0
 978 02f0 05       		.uleb128 0x5
 979 02f1 99010000 		.4byte	.LASF49
 980 02f5 04       		.byte	0x4
 981 02f6 07       		.byte	0x7
 982 02f7 CD       		.byte	0xcd
 983 02f8 09030000 		.4byte	0x309
 984 02fc 07       		.uleb128 0x7
 985 02fd 72313300 		.ascii	"r13\000"
 986 0301 07       		.byte	0x7
 987 0302 CE       		.byte	0xce
 988 0303 09030000 		.4byte	0x309
 989 0307 00       		.byte	0
 990 0308 00       		.byte	0
 991 0309 09       		.uleb128 0x9
 992 030a 04       		.byte	0x4
 993 030b 7E020000 		.4byte	0x27e
 994 030f 03       		.uleb128 0x3
 995 0310 04       		.byte	0x4
 996 0311 07       		.byte	0x7
 997 0312 B8020000 		.4byte	.LASF50
 998 0316 0B       		.uleb128 0xb
 999 0317 01010000 		.4byte	0x101
 1000 031b 05       		.uleb128 0x5
 1001 031c 08040000 		.4byte	.LASF51
 1002 0320 0C       		.byte	0xc
 1003 0321 08       		.byte	0x8
 1004 0322 2C       		.byte	0x2c
 1005 0323 40030000 		.4byte	0x340
 1006 0327 06       		.uleb128 0x6
 1007 0328 EE000000 		.4byte	.LASF52
 1008 032c 08       		.byte	0x8
 1009 032d 2D       		.byte	0x2d
 1010 032e 46020000 		.4byte	0x246
 1011 0332 00       		.byte	0
 1012 0333 06       		.uleb128 0x6
 1013 0334 93010000 		.4byte	.LASF53
 1014 0338 08       		.byte	0x8
 1015 0339 2F       		.byte	0x2f
 1016 033a 0C010000 		.4byte	0x10c
 1017 033e 08       		.byte	0x8
 1018 033f 00       		.byte	0
 1019 0340 04       		.uleb128 0x4
 1020 0341 08040000 		.4byte	.LASF51
 1021 0345 08       		.byte	0x8
 1022 0346 30       		.byte	0x30
 1023 0347 1B030000 		.4byte	0x31b
 1024 034b 05       		.uleb128 0x5
 1025 034c AD020000 		.4byte	.LASF54
 1026 0350 10       		.byte	0x10
ARM GAS  /tmp/ccdxH1dU.s 			page 19


 1027 0351 09       		.byte	0x9
 1028 0352 2C       		.byte	0x2c
 1029 0353 7C030000 		.4byte	0x37c
 1030 0357 06       		.uleb128 0x6
 1031 0358 C2000000 		.4byte	.LASF55
 1032 035c 09       		.byte	0x9
 1033 035d 2D       		.byte	0x2d
 1034 035e 46020000 		.4byte	0x246
 1035 0362 00       		.byte	0
 1036 0363 06       		.uleb128 0x6
 1037 0364 46040000 		.4byte	.LASF56
 1038 0368 09       		.byte	0x9
 1039 0369 2F       		.byte	0x2f
 1040 036a 40020000 		.4byte	0x240
 1041 036e 08       		.byte	0x8
 1042 036f 06       		.uleb128 0x6
 1043 0370 B1030000 		.4byte	.LASF57
 1044 0374 09       		.byte	0x9
 1045 0375 31       		.byte	0x31
 1046 0376 7C030000 		.4byte	0x37c
 1047 037a 0C       		.byte	0xc
 1048 037b 00       		.byte	0
 1049 037c 09       		.uleb128 0x9
 1050 037d 04       		.byte	0x4
 1051 037e 4B030000 		.4byte	0x34b
 1052 0382 04       		.uleb128 0x4
 1053 0383 AD020000 		.4byte	.LASF54
 1054 0387 09       		.byte	0x9
 1055 0388 33       		.byte	0x33
 1056 0389 4B030000 		.4byte	0x34b
 1057 038d 08       		.uleb128 0x8
 1058 038e 28       		.byte	0x28
 1059 038f 0A       		.byte	0xa
 1060 0390 33       		.byte	0x33
 1061 0391 DE030000 		.4byte	0x3de
 1062 0395 06       		.uleb128 0x6
 1063 0396 E9020000 		.4byte	.LASF58
 1064 039a 0A       		.byte	0xa
 1065 039b 34       		.byte	0x34
 1066 039c DE030000 		.4byte	0x3de
 1067 03a0 00       		.byte	0
 1068 03a1 06       		.uleb128 0x6
 1069 03a2 2B030000 		.4byte	.LASF59
 1070 03a6 0A       		.byte	0xa
 1071 03a7 36       		.byte	0x36
 1072 03a8 DE030000 		.4byte	0x3de
 1073 03ac 04       		.byte	0x4
 1074 03ad 06       		.uleb128 0x6
 1075 03ae 7E000000 		.4byte	.LASF60
 1076 03b2 0A       		.byte	0xa
 1077 03b3 38       		.byte	0x38
 1078 03b4 DE030000 		.4byte	0x3de
 1079 03b8 08       		.byte	0x8
 1080 03b9 06       		.uleb128 0x6
 1081 03ba C1020000 		.4byte	.LASF61
 1082 03be 0A       		.byte	0xa
 1083 03bf 39       		.byte	0x39
ARM GAS  /tmp/ccdxH1dU.s 			page 20


 1084 03c0 DE030000 		.4byte	0x3de
 1085 03c4 0C       		.byte	0xc
 1086 03c5 06       		.uleb128 0x6
 1087 03c6 12040000 		.4byte	.LASF62
 1088 03ca 0A       		.byte	0xa
 1089 03cb 3A       		.byte	0x3a
 1090 03cc 40030000 		.4byte	0x340
 1091 03d0 10       		.byte	0x10
 1092 03d1 06       		.uleb128 0x6
 1093 03d2 87010000 		.4byte	.LASF63
 1094 03d6 0A       		.byte	0xa
 1095 03d7 3C       		.byte	0x3c
 1096 03d8 40030000 		.4byte	0x340
 1097 03dc 1C       		.byte	0x1c
 1098 03dd 00       		.byte	0
 1099 03de 09       		.uleb128 0x9
 1100 03df 04       		.byte	0x4
 1101 03e0 EB000000 		.4byte	0xeb
 1102 03e4 04       		.uleb128 0x4
 1103 03e5 38000000 		.4byte	.LASF64
 1104 03e9 0A       		.byte	0xa
 1105 03ea 3E       		.byte	0x3e
 1106 03eb 8D030000 		.4byte	0x38d
 1107 03ef 0C       		.uleb128 0xc
 1108 03f0 04       		.byte	0x4
 1109 03f1 06       		.byte	0x6
 1110 03f2 96       		.byte	0x96
 1111 03f3 24040000 		.4byte	0x424
 1112 03f7 0D       		.uleb128 0xd
 1113 03f8 13000000 		.4byte	.LASF65
 1114 03fc 06       		.byte	0x6
 1115 03fd 9D       		.byte	0x9d
 1116 03fe EB000000 		.4byte	0xeb
 1117 0402 0D       		.uleb128 0xd
 1118 0403 66000000 		.4byte	.LASF66
 1119 0407 06       		.byte	0x6
 1120 0408 A4       		.byte	0xa4
 1121 0409 EB000000 		.4byte	0xeb
 1122 040d 0D       		.uleb128 0xd
 1123 040e 38040000 		.4byte	.LASF67
 1124 0412 06       		.byte	0x6
 1125 0413 AB       		.byte	0xab
 1126 0414 7C020000 		.4byte	0x27c
 1127 0418 0D       		.uleb128 0xd
 1128 0419 58030000 		.4byte	.LASF68
 1129 041d 06       		.byte	0x6
 1130 041e B2       		.byte	0xb2
 1131 041f F6000000 		.4byte	0xf6
 1132 0423 00       		.byte	0
 1133 0424 09       		.uleb128 0x9
 1134 0425 04       		.byte	0x4
 1135 0426 2A040000 		.4byte	0x42a
 1136 042a 0E       		.uleb128 0xe
 1137 042b 2F040000 		.4byte	0x42f
 1138 042f 03       		.uleb128 0x3
 1139 0430 01       		.byte	0x1
 1140 0431 08       		.byte	0x8
ARM GAS  /tmp/ccdxH1dU.s 			page 21


 1141 0432 9A030000 		.4byte	.LASF69
 1142 0436 09       		.uleb128 0x9
 1143 0437 04       		.byte	0x4
 1144 0438 82030000 		.4byte	0x382
 1145 043c 0F       		.uleb128 0xf
 1146 043d 55010000 		.4byte	.LASF70
 1147 0441 01       		.byte	0x1
 1148 0442 48       		.byte	0x48
 1149 0443 00000000 		.4byte	.LFB7
 1150 0447 26000000 		.4byte	.LFE7-.LFB7
 1151 044b 01       		.uleb128 0x1
 1152 044c 9C       		.byte	0x9c
 1153 044d AD040000 		.4byte	0x4ad
 1154 0451 10       		.uleb128 0x10
 1155 0452 6D627000 		.ascii	"mbp\000"
 1156 0456 01       		.byte	0x1
 1157 0457 48       		.byte	0x48
 1158 0458 AD040000 		.4byte	0x4ad
 1159 045c 00000000 		.4byte	.LLST0
 1160 0460 10       		.uleb128 0x10
 1161 0461 62756600 		.ascii	"buf\000"
 1162 0465 01       		.byte	0x1
 1163 0466 48       		.byte	0x48
 1164 0467 DE030000 		.4byte	0x3de
 1165 046b 2C000000 		.4byte	.LLST1
 1166 046f 10       		.uleb128 0x10
 1167 0470 6E00     		.ascii	"n\000"
 1168 0472 01       		.byte	0x1
 1169 0473 48       		.byte	0x48
 1170 0474 0C010000 		.4byte	0x10c
 1171 0478 70000000 		.4byte	.LLST2
 1172 047c 11       		.uleb128 0x11
 1173 047d 1A000000 		.4byte	.LVL4
 1174 0481 02090000 		.4byte	0x902
 1175 0485 97040000 		.4byte	0x497
 1176 0489 12       		.uleb128 0x12
 1177 048a 01       		.uleb128 0x1
 1178 048b 51       		.byte	0x51
 1179 048c 03       		.uleb128 0x3
 1180 048d F3       		.byte	0xf3
 1181 048e 01       		.uleb128 0x1
 1182 048f 52       		.byte	0x52
 1183 0490 12       		.uleb128 0x12
 1184 0491 01       		.uleb128 0x1
 1185 0492 50       		.byte	0x50
 1186 0493 02       		.uleb128 0x2
 1187 0494 74       		.byte	0x74
 1188 0495 1C       		.sleb128 28
 1189 0496 00       		.byte	0
 1190 0497 13       		.uleb128 0x13
 1191 0498 24000000 		.4byte	.LVL5
 1192 049c 02090000 		.4byte	0x902
 1193 04a0 12       		.uleb128 0x12
 1194 04a1 01       		.uleb128 0x1
 1195 04a2 51       		.byte	0x51
 1196 04a3 01       		.uleb128 0x1
 1197 04a4 30       		.byte	0x30
ARM GAS  /tmp/ccdxH1dU.s 			page 22


 1198 04a5 12       		.uleb128 0x12
 1199 04a6 01       		.uleb128 0x1
 1200 04a7 50       		.byte	0x50
 1201 04a8 02       		.uleb128 0x2
 1202 04a9 74       		.byte	0x74
 1203 04aa 10       		.sleb128 16
 1204 04ab 00       		.byte	0
 1205 04ac 00       		.byte	0
 1206 04ad 09       		.uleb128 0x9
 1207 04ae 04       		.byte	0x4
 1208 04af E4030000 		.4byte	0x3e4
 1209 04b3 0F       		.uleb128 0xf
 1210 04b4 CA020000 		.4byte	.LASF71
 1211 04b8 01       		.byte	0x1
 1212 04b9 5B       		.byte	0x5b
 1213 04ba 00000000 		.4byte	.LFB8
 1214 04be 2A000000 		.4byte	.LFE8-.LFB8
 1215 04c2 01       		.uleb128 0x1
 1216 04c3 9C       		.byte	0x9c
 1217 04c4 0E050000 		.4byte	0x50e
 1218 04c8 10       		.uleb128 0x10
 1219 04c9 6D627000 		.ascii	"mbp\000"
 1220 04cd 01       		.byte	0x1
 1221 04ce 5B       		.byte	0x5b
 1222 04cf AD040000 		.4byte	0x4ad
 1223 04d3 91000000 		.4byte	.LLST3
 1224 04d7 11       		.uleb128 0x11
 1225 04d8 18000000 		.4byte	.LVL9
 1226 04dc 1E090000 		.4byte	0x91e
 1227 04e0 EB040000 		.4byte	0x4eb
 1228 04e4 12       		.uleb128 0x12
 1229 04e5 01       		.uleb128 0x1
 1230 04e6 50       		.byte	0x50
 1231 04e7 02       		.uleb128 0x2
 1232 04e8 74       		.byte	0x74
 1233 04e9 1C       		.sleb128 28
 1234 04ea 00       		.byte	0
 1235 04eb 11       		.uleb128 0x11
 1236 04ec 22000000 		.4byte	.LVL10
 1237 04f0 1E090000 		.4byte	0x91e
 1238 04f4 04050000 		.4byte	0x504
 1239 04f8 12       		.uleb128 0x12
 1240 04f9 01       		.uleb128 0x1
 1241 04fa 51       		.byte	0x51
 1242 04fb 01       		.uleb128 0x1
 1243 04fc 30       		.byte	0x30
 1244 04fd 12       		.uleb128 0x12
 1245 04fe 01       		.uleb128 0x1
 1246 04ff 50       		.byte	0x50
 1247 0500 02       		.uleb128 0x2
 1248 0501 74       		.byte	0x74
 1249 0502 10       		.sleb128 16
 1250 0503 00       		.byte	0
 1251 0504 14       		.uleb128 0x14
 1252 0505 26000000 		.4byte	.LVL11
 1253 0509 34090000 		.4byte	0x934
 1254 050d 00       		.byte	0
ARM GAS  /tmp/ccdxH1dU.s 			page 23


 1255 050e 15       		.uleb128 0x15
 1256 050f 2E000000 		.4byte	.LASF73
 1257 0513 01       		.byte	0x1
 1258 0514 96       		.byte	0x96
 1259 0515 EB000000 		.4byte	0xeb
 1260 0519 00000000 		.4byte	.LFB10
 1261 051d 36000000 		.4byte	.LFE10-.LFB10
 1262 0521 01       		.uleb128 0x1
 1263 0522 9C       		.byte	0x9c
 1264 0523 9C050000 		.4byte	0x59c
 1265 0527 10       		.uleb128 0x10
 1266 0528 6D627000 		.ascii	"mbp\000"
 1267 052c 01       		.byte	0x1
 1268 052d 96       		.byte	0x96
 1269 052e AD040000 		.4byte	0x4ad
 1270 0532 BD000000 		.4byte	.LLST4
 1271 0536 10       		.uleb128 0x10
 1272 0537 6D736700 		.ascii	"msg\000"
 1273 053b 01       		.byte	0x1
 1274 053c 96       		.byte	0x96
 1275 053d EB000000 		.4byte	0xeb
 1276 0541 E9000000 		.4byte	.LLST5
 1277 0545 16       		.uleb128 0x16
 1278 0546 F3020000 		.4byte	.LASF72
 1279 054a 01       		.byte	0x1
 1280 054b 96       		.byte	0x96
 1281 054c 01010000 		.4byte	0x101
 1282 0550 15010000 		.4byte	.LLST6
 1283 0554 17       		.uleb128 0x17
 1284 0555 13000000 		.4byte	.LASF65
 1285 0559 01       		.byte	0x1
 1286 055a 97       		.byte	0x97
 1287 055b EB000000 		.4byte	0xeb
 1288 055f 36010000 		.4byte	.LLST7
 1289 0563 11       		.uleb128 0x11
 1290 0564 0E000000 		.4byte	.LVL16
 1291 0568 3B090000 		.4byte	0x93b
 1292 056c 7E050000 		.4byte	0x57e
 1293 0570 12       		.uleb128 0x12
 1294 0571 01       		.uleb128 0x1
 1295 0572 51       		.byte	0x51
 1296 0573 03       		.uleb128 0x3
 1297 0574 F3       		.byte	0xf3
 1298 0575 01       		.uleb128 0x1
 1299 0576 52       		.byte	0x52
 1300 0577 12       		.uleb128 0x12
 1301 0578 01       		.uleb128 0x1
 1302 0579 50       		.byte	0x50
 1303 057a 02       		.uleb128 0x2
 1304 057b 74       		.byte	0x74
 1305 057c 1C       		.sleb128 28
 1306 057d 00       		.byte	0
 1307 057e 11       		.uleb128 0x11
 1308 057f 2E000000 		.4byte	.LVL19
 1309 0583 55090000 		.4byte	0x955
 1310 0587 92050000 		.4byte	0x592
 1311 058b 12       		.uleb128 0x12
ARM GAS  /tmp/ccdxH1dU.s 			page 24


 1312 058c 01       		.uleb128 0x1
 1313 058d 50       		.byte	0x50
 1314 058e 02       		.uleb128 0x2
 1315 058f 74       		.byte	0x74
 1316 0590 10       		.sleb128 16
 1317 0591 00       		.byte	0
 1318 0592 14       		.uleb128 0x14
 1319 0593 32000000 		.4byte	.LVL20
 1320 0597 34090000 		.4byte	0x934
 1321 059b 00       		.byte	0
 1322 059c 15       		.uleb128 0x15
 1323 059d 76030000 		.4byte	.LASF74
 1324 05a1 01       		.byte	0x1
 1325 05a2 7A       		.byte	0x7a
 1326 05a3 EB000000 		.4byte	0xeb
 1327 05a7 00000000 		.4byte	.LFB9
 1328 05ab 0C000000 		.4byte	.LFE9-.LFB9
 1329 05af 01       		.uleb128 0x1
 1330 05b0 9C       		.byte	0x9c
 1331 05b1 0F060000 		.4byte	0x60f
 1332 05b5 10       		.uleb128 0x10
 1333 05b6 6D627000 		.ascii	"mbp\000"
 1334 05ba 01       		.byte	0x1
 1335 05bb 7A       		.byte	0x7a
 1336 05bc AD040000 		.4byte	0x4ad
 1337 05c0 5F010000 		.4byte	.LLST8
 1338 05c4 10       		.uleb128 0x10
 1339 05c5 6D736700 		.ascii	"msg\000"
 1340 05c9 01       		.byte	0x1
 1341 05ca 7A       		.byte	0x7a
 1342 05cb EB000000 		.4byte	0xeb
 1343 05cf 80010000 		.4byte	.LLST9
 1344 05d3 16       		.uleb128 0x16
 1345 05d4 F3020000 		.4byte	.LASF72
 1346 05d8 01       		.byte	0x1
 1347 05d9 7A       		.byte	0x7a
 1348 05da 01010000 		.4byte	0x101
 1349 05de A1010000 		.4byte	.LLST10
 1350 05e2 18       		.uleb128 0x18
 1351 05e3 13000000 		.4byte	.LASF65
 1352 05e7 01       		.byte	0x1
 1353 05e8 7B       		.byte	0x7b
 1354 05e9 EB000000 		.4byte	0xeb
 1355 05ed 01       		.uleb128 0x1
 1356 05ee 50       		.byte	0x50
 1357 05ef 13       		.uleb128 0x13
 1358 05f0 08000000 		.4byte	.LVL25
 1359 05f4 0E050000 		.4byte	0x50e
 1360 05f8 12       		.uleb128 0x12
 1361 05f9 01       		.uleb128 0x1
 1362 05fa 52       		.byte	0x52
 1363 05fb 03       		.uleb128 0x3
 1364 05fc F3       		.byte	0xf3
 1365 05fd 01       		.uleb128 0x1
 1366 05fe 52       		.byte	0x52
 1367 05ff 12       		.uleb128 0x12
 1368 0600 01       		.uleb128 0x1
ARM GAS  /tmp/ccdxH1dU.s 			page 25


 1369 0601 51       		.byte	0x51
 1370 0602 03       		.uleb128 0x3
 1371 0603 F3       		.byte	0xf3
 1372 0604 01       		.uleb128 0x1
 1373 0605 51       		.byte	0x51
 1374 0606 12       		.uleb128 0x12
 1375 0607 01       		.uleb128 0x1
 1376 0608 50       		.byte	0x50
 1377 0609 03       		.uleb128 0x3
 1378 060a F3       		.byte	0xf3
 1379 060b 01       		.uleb128 0x1
 1380 060c 50       		.byte	0x50
 1381 060d 00       		.byte	0
 1382 060e 00       		.byte	0
 1383 060f 15       		.uleb128 0x15
 1384 0610 24000000 		.4byte	.LASF75
 1385 0614 01       		.byte	0x1
 1386 0615 B5       		.byte	0xb5
 1387 0616 EB000000 		.4byte	0xeb
 1388 061a 00000000 		.4byte	.LFB11
 1389 061e 30000000 		.4byte	.LFE11-.LFB11
 1390 0622 01       		.uleb128 0x1
 1391 0623 9C       		.byte	0x9c
 1392 0624 5A060000 		.4byte	0x65a
 1393 0628 10       		.uleb128 0x10
 1394 0629 6D627000 		.ascii	"mbp\000"
 1395 062d 01       		.byte	0x1
 1396 062e B5       		.byte	0xb5
 1397 062f AD040000 		.4byte	0x4ad
 1398 0633 C2010000 		.4byte	.LLST11
 1399 0637 10       		.uleb128 0x10
 1400 0638 6D736700 		.ascii	"msg\000"
 1401 063c 01       		.byte	0x1
 1402 063d B5       		.byte	0xb5
 1403 063e EB000000 		.4byte	0xeb
 1404 0642 09020000 		.4byte	.LLST12
 1405 0646 13       		.uleb128 0x13
 1406 0647 26000000 		.4byte	.LVL28
 1407 064b 55090000 		.4byte	0x955
 1408 064f 12       		.uleb128 0x12
 1409 0650 01       		.uleb128 0x1
 1410 0651 50       		.byte	0x50
 1411 0652 05       		.uleb128 0x5
 1412 0653 F3       		.byte	0xf3
 1413 0654 01       		.uleb128 0x1
 1414 0655 50       		.byte	0x50
 1415 0656 23       		.byte	0x23
 1416 0657 10       		.uleb128 0x10
 1417 0658 00       		.byte	0
 1418 0659 00       		.byte	0
 1419 065a 15       		.uleb128 0x15
 1420 065b 6F000000 		.4byte	.LASF76
 1421 065f 01       		.byte	0x1
 1422 0660 F3       		.byte	0xf3
 1423 0661 EB000000 		.4byte	0xeb
 1424 0665 00000000 		.4byte	.LFB13
 1425 0669 38000000 		.4byte	.LFE13-.LFB13
ARM GAS  /tmp/ccdxH1dU.s 			page 26


 1426 066d 01       		.uleb128 0x1
 1427 066e 9C       		.byte	0x9c
 1428 066f E8060000 		.4byte	0x6e8
 1429 0673 10       		.uleb128 0x10
 1430 0674 6D627000 		.ascii	"mbp\000"
 1431 0678 01       		.byte	0x1
 1432 0679 F3       		.byte	0xf3
 1433 067a AD040000 		.4byte	0x4ad
 1434 067e 43020000 		.4byte	.LLST13
 1435 0682 10       		.uleb128 0x10
 1436 0683 6D736700 		.ascii	"msg\000"
 1437 0687 01       		.byte	0x1
 1438 0688 F3       		.byte	0xf3
 1439 0689 EB000000 		.4byte	0xeb
 1440 068d 6F020000 		.4byte	.LLST14
 1441 0691 16       		.uleb128 0x16
 1442 0692 F3020000 		.4byte	.LASF72
 1443 0696 01       		.byte	0x1
 1444 0697 F3       		.byte	0xf3
 1445 0698 01010000 		.4byte	0x101
 1446 069c 9B020000 		.4byte	.LLST15
 1447 06a0 17       		.uleb128 0x17
 1448 06a1 13000000 		.4byte	.LASF65
 1449 06a5 01       		.byte	0x1
 1450 06a6 F4       		.byte	0xf4
 1451 06a7 EB000000 		.4byte	0xeb
 1452 06ab BC020000 		.4byte	.LLST16
 1453 06af 11       		.uleb128 0x11
 1454 06b0 0E000000 		.4byte	.LVL35
 1455 06b4 3B090000 		.4byte	0x93b
 1456 06b8 CA060000 		.4byte	0x6ca
 1457 06bc 12       		.uleb128 0x12
 1458 06bd 01       		.uleb128 0x1
 1459 06be 51       		.byte	0x51
 1460 06bf 03       		.uleb128 0x3
 1461 06c0 F3       		.byte	0xf3
 1462 06c1 01       		.uleb128 0x1
 1463 06c2 52       		.byte	0x52
 1464 06c3 12       		.uleb128 0x12
 1465 06c4 01       		.uleb128 0x1
 1466 06c5 50       		.byte	0x50
 1467 06c6 02       		.uleb128 0x2
 1468 06c7 74       		.byte	0x74
 1469 06c8 1C       		.sleb128 28
 1470 06c9 00       		.byte	0
 1471 06ca 11       		.uleb128 0x11
 1472 06cb 30000000 		.4byte	.LVL38
 1473 06cf 55090000 		.4byte	0x955
 1474 06d3 DE060000 		.4byte	0x6de
 1475 06d7 12       		.uleb128 0x12
 1476 06d8 01       		.uleb128 0x1
 1477 06d9 50       		.byte	0x50
 1478 06da 02       		.uleb128 0x2
 1479 06db 74       		.byte	0x74
 1480 06dc 10       		.sleb128 16
 1481 06dd 00       		.byte	0
 1482 06de 14       		.uleb128 0x14
ARM GAS  /tmp/ccdxH1dU.s 			page 27


 1483 06df 34000000 		.4byte	.LVL39
 1484 06e3 34090000 		.4byte	0x934
 1485 06e7 00       		.byte	0
 1486 06e8 15       		.uleb128 0x15
 1487 06e9 DE030000 		.4byte	.LASF77
 1488 06ed 01       		.byte	0x1
 1489 06ee D7       		.byte	0xd7
 1490 06ef EB000000 		.4byte	0xeb
 1491 06f3 00000000 		.4byte	.LFB12
 1492 06f7 0C000000 		.4byte	.LFE12-.LFB12
 1493 06fb 01       		.uleb128 0x1
 1494 06fc 9C       		.byte	0x9c
 1495 06fd 5B070000 		.4byte	0x75b
 1496 0701 10       		.uleb128 0x10
 1497 0702 6D627000 		.ascii	"mbp\000"
 1498 0706 01       		.byte	0x1
 1499 0707 D7       		.byte	0xd7
 1500 0708 AD040000 		.4byte	0x4ad
 1501 070c E5020000 		.4byte	.LLST17
 1502 0710 10       		.uleb128 0x10
 1503 0711 6D736700 		.ascii	"msg\000"
 1504 0715 01       		.byte	0x1
 1505 0716 D7       		.byte	0xd7
 1506 0717 EB000000 		.4byte	0xeb
 1507 071b 06030000 		.4byte	.LLST18
 1508 071f 16       		.uleb128 0x16
 1509 0720 F3020000 		.4byte	.LASF72
 1510 0724 01       		.byte	0x1
 1511 0725 D7       		.byte	0xd7
 1512 0726 01010000 		.4byte	0x101
 1513 072a 27030000 		.4byte	.LLST19
 1514 072e 18       		.uleb128 0x18
 1515 072f 13000000 		.4byte	.LASF65
 1516 0733 01       		.byte	0x1
 1517 0734 D8       		.byte	0xd8
 1518 0735 EB000000 		.4byte	0xeb
 1519 0739 01       		.uleb128 0x1
 1520 073a 50       		.byte	0x50
 1521 073b 13       		.uleb128 0x13
 1522 073c 08000000 		.4byte	.LVL44
 1523 0740 5A060000 		.4byte	0x65a
 1524 0744 12       		.uleb128 0x12
 1525 0745 01       		.uleb128 0x1
 1526 0746 52       		.byte	0x52
 1527 0747 03       		.uleb128 0x3
 1528 0748 F3       		.byte	0xf3
 1529 0749 01       		.uleb128 0x1
 1530 074a 52       		.byte	0x52
 1531 074b 12       		.uleb128 0x12
 1532 074c 01       		.uleb128 0x1
 1533 074d 51       		.byte	0x51
 1534 074e 03       		.uleb128 0x3
 1535 074f F3       		.byte	0xf3
 1536 0750 01       		.uleb128 0x1
 1537 0751 51       		.byte	0x51
 1538 0752 12       		.uleb128 0x12
 1539 0753 01       		.uleb128 0x1
ARM GAS  /tmp/ccdxH1dU.s 			page 28


 1540 0754 50       		.byte	0x50
 1541 0755 03       		.uleb128 0x3
 1542 0756 F3       		.byte	0xf3
 1543 0757 01       		.uleb128 0x1
 1544 0758 50       		.byte	0x50
 1545 0759 00       		.byte	0
 1546 075a 00       		.byte	0
 1547 075b 19       		.uleb128 0x19
 1548 075c 40000000 		.4byte	.LASF78
 1549 0760 01       		.byte	0x1
 1550 0761 1201     		.2byte	0x112
 1551 0763 EB000000 		.4byte	0xeb
 1552 0767 00000000 		.4byte	.LFB14
 1553 076b 32000000 		.4byte	.LFE14-.LFB14
 1554 076f 01       		.uleb128 0x1
 1555 0770 9C       		.byte	0x9c
 1556 0771 A9070000 		.4byte	0x7a9
 1557 0775 1A       		.uleb128 0x1a
 1558 0776 6D627000 		.ascii	"mbp\000"
 1559 077a 01       		.byte	0x1
 1560 077b 1201     		.2byte	0x112
 1561 077d AD040000 		.4byte	0x4ad
 1562 0781 48030000 		.4byte	.LLST20
 1563 0785 1A       		.uleb128 0x1a
 1564 0786 6D736700 		.ascii	"msg\000"
 1565 078a 01       		.byte	0x1
 1566 078b 1201     		.2byte	0x112
 1567 078d EB000000 		.4byte	0xeb
 1568 0791 8F030000 		.4byte	.LLST21
 1569 0795 13       		.uleb128 0x13
 1570 0796 28000000 		.4byte	.LVL47
 1571 079a 55090000 		.4byte	0x955
 1572 079e 12       		.uleb128 0x12
 1573 079f 01       		.uleb128 0x1
 1574 07a0 50       		.byte	0x50
 1575 07a1 05       		.uleb128 0x5
 1576 07a2 F3       		.byte	0xf3
 1577 07a3 01       		.uleb128 0x1
 1578 07a4 50       		.byte	0x50
 1579 07a5 23       		.byte	0x23
 1580 07a6 10       		.uleb128 0x10
 1581 07a7 00       		.byte	0
 1582 07a8 00       		.byte	0
 1583 07a9 19       		.uleb128 0x19
 1584 07aa C5010000 		.4byte	.LASF79
 1585 07ae 01       		.byte	0x1
 1586 07af 5001     		.2byte	0x150
 1587 07b1 EB000000 		.4byte	0xeb
 1588 07b5 00000000 		.4byte	.LFB16
 1589 07b9 38000000 		.4byte	.LFE16-.LFB16
 1590 07bd 01       		.uleb128 0x1
 1591 07be 9C       		.byte	0x9c
 1592 07bf 3C080000 		.4byte	0x83c
 1593 07c3 1A       		.uleb128 0x1a
 1594 07c4 6D627000 		.ascii	"mbp\000"
 1595 07c8 01       		.byte	0x1
 1596 07c9 5001     		.2byte	0x150
ARM GAS  /tmp/ccdxH1dU.s 			page 29


 1597 07cb AD040000 		.4byte	0x4ad
 1598 07cf C9030000 		.4byte	.LLST22
 1599 07d3 1B       		.uleb128 0x1b
 1600 07d4 B3020000 		.4byte	.LASF80
 1601 07d8 01       		.byte	0x1
 1602 07d9 5001     		.2byte	0x150
 1603 07db DE030000 		.4byte	0x3de
 1604 07df F5030000 		.4byte	.LLST23
 1605 07e3 1B       		.uleb128 0x1b
 1606 07e4 F3020000 		.4byte	.LASF72
 1607 07e8 01       		.byte	0x1
 1608 07e9 5001     		.2byte	0x150
 1609 07eb 01010000 		.4byte	0x101
 1610 07ef 21040000 		.4byte	.LLST24
 1611 07f3 1C       		.uleb128 0x1c
 1612 07f4 13000000 		.4byte	.LASF65
 1613 07f8 01       		.byte	0x1
 1614 07f9 5101     		.2byte	0x151
 1615 07fb EB000000 		.4byte	0xeb
 1616 07ff 42040000 		.4byte	.LLST25
 1617 0803 11       		.uleb128 0x11
 1618 0804 0E000000 		.4byte	.LVL54
 1619 0808 3B090000 		.4byte	0x93b
 1620 080c 1E080000 		.4byte	0x81e
 1621 0810 12       		.uleb128 0x12
 1622 0811 01       		.uleb128 0x1
 1623 0812 51       		.byte	0x51
 1624 0813 03       		.uleb128 0x3
 1625 0814 F3       		.byte	0xf3
 1626 0815 01       		.uleb128 0x1
 1627 0816 52       		.byte	0x52
 1628 0817 12       		.uleb128 0x12
 1629 0818 01       		.uleb128 0x1
 1630 0819 50       		.byte	0x50
 1631 081a 02       		.uleb128 0x2
 1632 081b 74       		.byte	0x74
 1633 081c 10       		.sleb128 16
 1634 081d 00       		.byte	0
 1635 081e 11       		.uleb128 0x11
 1636 081f 30000000 		.4byte	.LVL57
 1637 0823 55090000 		.4byte	0x955
 1638 0827 32080000 		.4byte	0x832
 1639 082b 12       		.uleb128 0x12
 1640 082c 01       		.uleb128 0x1
 1641 082d 50       		.byte	0x50
 1642 082e 02       		.uleb128 0x2
 1643 082f 74       		.byte	0x74
 1644 0830 1C       		.sleb128 28
 1645 0831 00       		.byte	0
 1646 0832 14       		.uleb128 0x14
 1647 0833 34000000 		.4byte	.LVL58
 1648 0837 34090000 		.4byte	0x934
 1649 083b 00       		.byte	0
 1650 083c 19       		.uleb128 0x19
 1651 083d FE030000 		.4byte	.LASF81
 1652 0841 01       		.byte	0x1
 1653 0842 3401     		.2byte	0x134
ARM GAS  /tmp/ccdxH1dU.s 			page 30


 1654 0844 EB000000 		.4byte	0xeb
 1655 0848 00000000 		.4byte	.LFB15
 1656 084c 0C000000 		.4byte	.LFE15-.LFB15
 1657 0850 01       		.uleb128 0x1
 1658 0851 9C       		.byte	0x9c
 1659 0852 B4080000 		.4byte	0x8b4
 1660 0856 1A       		.uleb128 0x1a
 1661 0857 6D627000 		.ascii	"mbp\000"
 1662 085b 01       		.byte	0x1
 1663 085c 3401     		.2byte	0x134
 1664 085e AD040000 		.4byte	0x4ad
 1665 0862 6B040000 		.4byte	.LLST26
 1666 0866 1B       		.uleb128 0x1b
 1667 0867 B3020000 		.4byte	.LASF80
 1668 086b 01       		.byte	0x1
 1669 086c 3401     		.2byte	0x134
 1670 086e DE030000 		.4byte	0x3de
 1671 0872 8C040000 		.4byte	.LLST27
 1672 0876 1B       		.uleb128 0x1b
 1673 0877 F3020000 		.4byte	.LASF72
 1674 087b 01       		.byte	0x1
 1675 087c 3401     		.2byte	0x134
 1676 087e 01010000 		.4byte	0x101
 1677 0882 AD040000 		.4byte	.LLST28
 1678 0886 1D       		.uleb128 0x1d
 1679 0887 13000000 		.4byte	.LASF65
 1680 088b 01       		.byte	0x1
 1681 088c 3501     		.2byte	0x135
 1682 088e EB000000 		.4byte	0xeb
 1683 0892 01       		.uleb128 0x1
 1684 0893 50       		.byte	0x50
 1685 0894 13       		.uleb128 0x13
 1686 0895 08000000 		.4byte	.LVL63
 1687 0899 A9070000 		.4byte	0x7a9
 1688 089d 12       		.uleb128 0x12
 1689 089e 01       		.uleb128 0x1
 1690 089f 52       		.byte	0x52
 1691 08a0 03       		.uleb128 0x3
 1692 08a1 F3       		.byte	0xf3
 1693 08a2 01       		.uleb128 0x1
 1694 08a3 52       		.byte	0x52
 1695 08a4 12       		.uleb128 0x12
 1696 08a5 01       		.uleb128 0x1
 1697 08a6 51       		.byte	0x51
 1698 08a7 03       		.uleb128 0x3
 1699 08a8 F3       		.byte	0xf3
 1700 08a9 01       		.uleb128 0x1
 1701 08aa 51       		.byte	0x51
 1702 08ab 12       		.uleb128 0x12
 1703 08ac 01       		.uleb128 0x1
 1704 08ad 50       		.byte	0x50
 1705 08ae 03       		.uleb128 0x3
 1706 08af F3       		.byte	0xf3
 1707 08b0 01       		.uleb128 0x1
 1708 08b1 50       		.byte	0x50
 1709 08b2 00       		.byte	0
 1710 08b3 00       		.byte	0
ARM GAS  /tmp/ccdxH1dU.s 			page 31


 1711 08b4 19       		.uleb128 0x19
 1712 08b5 B4010000 		.4byte	.LASF82
 1713 08b9 01       		.byte	0x1
 1714 08ba 6F01     		.2byte	0x16f
 1715 08bc EB000000 		.4byte	0xeb
 1716 08c0 00000000 		.4byte	.LFB17
 1717 08c4 32000000 		.4byte	.LFE17-.LFB17
 1718 08c8 01       		.uleb128 0x1
 1719 08c9 9C       		.byte	0x9c
 1720 08ca 02090000 		.4byte	0x902
 1721 08ce 1A       		.uleb128 0x1a
 1722 08cf 6D627000 		.ascii	"mbp\000"
 1723 08d3 01       		.byte	0x1
 1724 08d4 6F01     		.2byte	0x16f
 1725 08d6 AD040000 		.4byte	0x4ad
 1726 08da CE040000 		.4byte	.LLST29
 1727 08de 1B       		.uleb128 0x1b
 1728 08df B3020000 		.4byte	.LASF80
 1729 08e3 01       		.byte	0x1
 1730 08e4 6F01     		.2byte	0x16f
 1731 08e6 DE030000 		.4byte	0x3de
 1732 08ea 15050000 		.4byte	.LLST30
 1733 08ee 13       		.uleb128 0x13
 1734 08ef 28000000 		.4byte	.LVL66
 1735 08f3 55090000 		.4byte	0x955
 1736 08f7 12       		.uleb128 0x12
 1737 08f8 01       		.uleb128 0x1
 1738 08f9 50       		.byte	0x50
 1739 08fa 05       		.uleb128 0x5
 1740 08fb F3       		.byte	0xf3
 1741 08fc 01       		.uleb128 0x1
 1742 08fd 50       		.byte	0x50
 1743 08fe 23       		.byte	0x23
 1744 08ff 1C       		.uleb128 0x1c
 1745 0900 00       		.byte	0
 1746 0901 00       		.byte	0
 1747 0902 1E       		.uleb128 0x1e
 1748 0903 5E040000 		.4byte	.LASF83
 1749 0907 08       		.byte	0x8
 1750 0908 35       		.byte	0x35
 1751 0909 18090000 		.4byte	0x918
 1752 090d 1F       		.uleb128 0x1f
 1753 090e 18090000 		.4byte	0x918
 1754 0912 1F       		.uleb128 0x1f
 1755 0913 0C010000 		.4byte	0x10c
 1756 0917 00       		.byte	0
 1757 0918 09       		.uleb128 0x9
 1758 0919 04       		.byte	0x4
 1759 091a 40030000 		.4byte	0x340
 1760 091e 1E       		.uleb128 0x1e
 1761 091f 24040000 		.4byte	.LASF84
 1762 0923 08       		.byte	0x8
 1763 0924 37       		.byte	0x37
 1764 0925 34090000 		.4byte	0x934
 1765 0929 1F       		.uleb128 0x1f
 1766 092a 18090000 		.4byte	0x918
 1767 092e 1F       		.uleb128 0x1f
ARM GAS  /tmp/ccdxH1dU.s 			page 32


 1768 092f 0C010000 		.4byte	0x10c
 1769 0933 00       		.byte	0
 1770 0934 20       		.uleb128 0x20
 1771 0935 F6000000 		.4byte	.LASF88
 1772 0939 0B       		.byte	0xb
 1773 093a 9C       		.byte	0x9c
 1774 093b 21       		.uleb128 0x21
 1775 093c 9F030000 		.4byte	.LASF89
 1776 0940 08       		.byte	0x8
 1777 0941 3B       		.byte	0x3b
 1778 0942 EB000000 		.4byte	0xeb
 1779 0946 55090000 		.4byte	0x955
 1780 094a 1F       		.uleb128 0x1f
 1781 094b 18090000 		.4byte	0x918
 1782 094f 1F       		.uleb128 0x1f
 1783 0950 01010000 		.4byte	0x101
 1784 0954 00       		.byte	0
 1785 0955 22       		.uleb128 0x22
 1786 0956 06000000 		.4byte	.LASF90
 1787 095a 08       		.byte	0x8
 1788 095b 3D       		.byte	0x3d
 1789 095c 1F       		.uleb128 0x1f
 1790 095d 18090000 		.4byte	0x918
 1791 0961 00       		.byte	0
 1792 0962 00       		.byte	0
 1793              		.section	.debug_abbrev,"",%progbits
 1794              	.Ldebug_abbrev0:
 1795 0000 01       		.uleb128 0x1
 1796 0001 11       		.uleb128 0x11
 1797 0002 01       		.byte	0x1
 1798 0003 25       		.uleb128 0x25
 1799 0004 0E       		.uleb128 0xe
 1800 0005 13       		.uleb128 0x13
 1801 0006 0B       		.uleb128 0xb
 1802 0007 03       		.uleb128 0x3
 1803 0008 0E       		.uleb128 0xe
 1804 0009 1B       		.uleb128 0x1b
 1805 000a 0E       		.uleb128 0xe
 1806 000b 55       		.uleb128 0x55
 1807 000c 17       		.uleb128 0x17
 1808 000d 11       		.uleb128 0x11
 1809 000e 01       		.uleb128 0x1
 1810 000f 10       		.uleb128 0x10
 1811 0010 17       		.uleb128 0x17
 1812 0011 00       		.byte	0
 1813 0012 00       		.byte	0
 1814 0013 02       		.uleb128 0x2
 1815 0014 24       		.uleb128 0x24
 1816 0015 00       		.byte	0
 1817 0016 0B       		.uleb128 0xb
 1818 0017 0B       		.uleb128 0xb
 1819 0018 3E       		.uleb128 0x3e
 1820 0019 0B       		.uleb128 0xb
 1821 001a 03       		.uleb128 0x3
 1822 001b 08       		.uleb128 0x8
 1823 001c 00       		.byte	0
 1824 001d 00       		.byte	0
ARM GAS  /tmp/ccdxH1dU.s 			page 33


 1825 001e 03       		.uleb128 0x3
 1826 001f 24       		.uleb128 0x24
 1827 0020 00       		.byte	0
 1828 0021 0B       		.uleb128 0xb
 1829 0022 0B       		.uleb128 0xb
 1830 0023 3E       		.uleb128 0x3e
 1831 0024 0B       		.uleb128 0xb
 1832 0025 03       		.uleb128 0x3
 1833 0026 0E       		.uleb128 0xe
 1834 0027 00       		.byte	0
 1835 0028 00       		.byte	0
 1836 0029 04       		.uleb128 0x4
 1837 002a 16       		.uleb128 0x16
 1838 002b 00       		.byte	0
 1839 002c 03       		.uleb128 0x3
 1840 002d 0E       		.uleb128 0xe
 1841 002e 3A       		.uleb128 0x3a
 1842 002f 0B       		.uleb128 0xb
 1843 0030 3B       		.uleb128 0x3b
 1844 0031 0B       		.uleb128 0xb
 1845 0032 49       		.uleb128 0x49
 1846 0033 13       		.uleb128 0x13
 1847 0034 00       		.byte	0
 1848 0035 00       		.byte	0
 1849 0036 05       		.uleb128 0x5
 1850 0037 13       		.uleb128 0x13
 1851 0038 01       		.byte	0x1
 1852 0039 03       		.uleb128 0x3
 1853 003a 0E       		.uleb128 0xe
 1854 003b 0B       		.uleb128 0xb
 1855 003c 0B       		.uleb128 0xb
 1856 003d 3A       		.uleb128 0x3a
 1857 003e 0B       		.uleb128 0xb
 1858 003f 3B       		.uleb128 0x3b
 1859 0040 0B       		.uleb128 0xb
 1860 0041 01       		.uleb128 0x1
 1861 0042 13       		.uleb128 0x13
 1862 0043 00       		.byte	0
 1863 0044 00       		.byte	0
 1864 0045 06       		.uleb128 0x6
 1865 0046 0D       		.uleb128 0xd
 1866 0047 00       		.byte	0
 1867 0048 03       		.uleb128 0x3
 1868 0049 0E       		.uleb128 0xe
 1869 004a 3A       		.uleb128 0x3a
 1870 004b 0B       		.uleb128 0xb
 1871 004c 3B       		.uleb128 0x3b
 1872 004d 0B       		.uleb128 0xb
 1873 004e 49       		.uleb128 0x49
 1874 004f 13       		.uleb128 0x13
 1875 0050 38       		.uleb128 0x38
 1876 0051 0B       		.uleb128 0xb
 1877 0052 00       		.byte	0
 1878 0053 00       		.byte	0
 1879 0054 07       		.uleb128 0x7
 1880 0055 0D       		.uleb128 0xd
 1881 0056 00       		.byte	0
ARM GAS  /tmp/ccdxH1dU.s 			page 34


 1882 0057 03       		.uleb128 0x3
 1883 0058 08       		.uleb128 0x8
 1884 0059 3A       		.uleb128 0x3a
 1885 005a 0B       		.uleb128 0xb
 1886 005b 3B       		.uleb128 0x3b
 1887 005c 0B       		.uleb128 0xb
 1888 005d 49       		.uleb128 0x49
 1889 005e 13       		.uleb128 0x13
 1890 005f 38       		.uleb128 0x38
 1891 0060 0B       		.uleb128 0xb
 1892 0061 00       		.byte	0
 1893 0062 00       		.byte	0
 1894 0063 08       		.uleb128 0x8
 1895 0064 13       		.uleb128 0x13
 1896 0065 01       		.byte	0x1
 1897 0066 0B       		.uleb128 0xb
 1898 0067 0B       		.uleb128 0xb
 1899 0068 3A       		.uleb128 0x3a
 1900 0069 0B       		.uleb128 0xb
 1901 006a 3B       		.uleb128 0x3b
 1902 006b 0B       		.uleb128 0xb
 1903 006c 01       		.uleb128 0x1
 1904 006d 13       		.uleb128 0x13
 1905 006e 00       		.byte	0
 1906 006f 00       		.byte	0
 1907 0070 09       		.uleb128 0x9
 1908 0071 0F       		.uleb128 0xf
 1909 0072 00       		.byte	0
 1910 0073 0B       		.uleb128 0xb
 1911 0074 0B       		.uleb128 0xb
 1912 0075 49       		.uleb128 0x49
 1913 0076 13       		.uleb128 0x13
 1914 0077 00       		.byte	0
 1915 0078 00       		.byte	0
 1916 0079 0A       		.uleb128 0xa
 1917 007a 0F       		.uleb128 0xf
 1918 007b 00       		.byte	0
 1919 007c 0B       		.uleb128 0xb
 1920 007d 0B       		.uleb128 0xb
 1921 007e 00       		.byte	0
 1922 007f 00       		.byte	0
 1923 0080 0B       		.uleb128 0xb
 1924 0081 35       		.uleb128 0x35
 1925 0082 00       		.byte	0
 1926 0083 49       		.uleb128 0x49
 1927 0084 13       		.uleb128 0x13
 1928 0085 00       		.byte	0
 1929 0086 00       		.byte	0
 1930 0087 0C       		.uleb128 0xc
 1931 0088 17       		.uleb128 0x17
 1932 0089 01       		.byte	0x1
 1933 008a 0B       		.uleb128 0xb
 1934 008b 0B       		.uleb128 0xb
 1935 008c 3A       		.uleb128 0x3a
 1936 008d 0B       		.uleb128 0xb
 1937 008e 3B       		.uleb128 0x3b
 1938 008f 0B       		.uleb128 0xb
ARM GAS  /tmp/ccdxH1dU.s 			page 35


 1939 0090 01       		.uleb128 0x1
 1940 0091 13       		.uleb128 0x13
 1941 0092 00       		.byte	0
 1942 0093 00       		.byte	0
 1943 0094 0D       		.uleb128 0xd
 1944 0095 0D       		.uleb128 0xd
 1945 0096 00       		.byte	0
 1946 0097 03       		.uleb128 0x3
 1947 0098 0E       		.uleb128 0xe
 1948 0099 3A       		.uleb128 0x3a
 1949 009a 0B       		.uleb128 0xb
 1950 009b 3B       		.uleb128 0x3b
 1951 009c 0B       		.uleb128 0xb
 1952 009d 49       		.uleb128 0x49
 1953 009e 13       		.uleb128 0x13
 1954 009f 00       		.byte	0
 1955 00a0 00       		.byte	0
 1956 00a1 0E       		.uleb128 0xe
 1957 00a2 26       		.uleb128 0x26
 1958 00a3 00       		.byte	0
 1959 00a4 49       		.uleb128 0x49
 1960 00a5 13       		.uleb128 0x13
 1961 00a6 00       		.byte	0
 1962 00a7 00       		.byte	0
 1963 00a8 0F       		.uleb128 0xf
 1964 00a9 2E       		.uleb128 0x2e
 1965 00aa 01       		.byte	0x1
 1966 00ab 3F       		.uleb128 0x3f
 1967 00ac 19       		.uleb128 0x19
 1968 00ad 03       		.uleb128 0x3
 1969 00ae 0E       		.uleb128 0xe
 1970 00af 3A       		.uleb128 0x3a
 1971 00b0 0B       		.uleb128 0xb
 1972 00b1 3B       		.uleb128 0x3b
 1973 00b2 0B       		.uleb128 0xb
 1974 00b3 27       		.uleb128 0x27
 1975 00b4 19       		.uleb128 0x19
 1976 00b5 11       		.uleb128 0x11
 1977 00b6 01       		.uleb128 0x1
 1978 00b7 12       		.uleb128 0x12
 1979 00b8 06       		.uleb128 0x6
 1980 00b9 40       		.uleb128 0x40
 1981 00ba 18       		.uleb128 0x18
 1982 00bb 9742     		.uleb128 0x2117
 1983 00bd 19       		.uleb128 0x19
 1984 00be 01       		.uleb128 0x1
 1985 00bf 13       		.uleb128 0x13
 1986 00c0 00       		.byte	0
 1987 00c1 00       		.byte	0
 1988 00c2 10       		.uleb128 0x10
 1989 00c3 05       		.uleb128 0x5
 1990 00c4 00       		.byte	0
 1991 00c5 03       		.uleb128 0x3
 1992 00c6 08       		.uleb128 0x8
 1993 00c7 3A       		.uleb128 0x3a
 1994 00c8 0B       		.uleb128 0xb
 1995 00c9 3B       		.uleb128 0x3b
ARM GAS  /tmp/ccdxH1dU.s 			page 36


 1996 00ca 0B       		.uleb128 0xb
 1997 00cb 49       		.uleb128 0x49
 1998 00cc 13       		.uleb128 0x13
 1999 00cd 02       		.uleb128 0x2
 2000 00ce 17       		.uleb128 0x17
 2001 00cf 00       		.byte	0
 2002 00d0 00       		.byte	0
 2003 00d1 11       		.uleb128 0x11
 2004 00d2 898201   		.uleb128 0x4109
 2005 00d5 01       		.byte	0x1
 2006 00d6 11       		.uleb128 0x11
 2007 00d7 01       		.uleb128 0x1
 2008 00d8 31       		.uleb128 0x31
 2009 00d9 13       		.uleb128 0x13
 2010 00da 01       		.uleb128 0x1
 2011 00db 13       		.uleb128 0x13
 2012 00dc 00       		.byte	0
 2013 00dd 00       		.byte	0
 2014 00de 12       		.uleb128 0x12
 2015 00df 8A8201   		.uleb128 0x410a
 2016 00e2 00       		.byte	0
 2017 00e3 02       		.uleb128 0x2
 2018 00e4 18       		.uleb128 0x18
 2019 00e5 9142     		.uleb128 0x2111
 2020 00e7 18       		.uleb128 0x18
 2021 00e8 00       		.byte	0
 2022 00e9 00       		.byte	0
 2023 00ea 13       		.uleb128 0x13
 2024 00eb 898201   		.uleb128 0x4109
 2025 00ee 01       		.byte	0x1
 2026 00ef 11       		.uleb128 0x11
 2027 00f0 01       		.uleb128 0x1
 2028 00f1 31       		.uleb128 0x31
 2029 00f2 13       		.uleb128 0x13
 2030 00f3 00       		.byte	0
 2031 00f4 00       		.byte	0
 2032 00f5 14       		.uleb128 0x14
 2033 00f6 898201   		.uleb128 0x4109
 2034 00f9 00       		.byte	0
 2035 00fa 11       		.uleb128 0x11
 2036 00fb 01       		.uleb128 0x1
 2037 00fc 31       		.uleb128 0x31
 2038 00fd 13       		.uleb128 0x13
 2039 00fe 00       		.byte	0
 2040 00ff 00       		.byte	0
 2041 0100 15       		.uleb128 0x15
 2042 0101 2E       		.uleb128 0x2e
 2043 0102 01       		.byte	0x1
 2044 0103 3F       		.uleb128 0x3f
 2045 0104 19       		.uleb128 0x19
 2046 0105 03       		.uleb128 0x3
 2047 0106 0E       		.uleb128 0xe
 2048 0107 3A       		.uleb128 0x3a
 2049 0108 0B       		.uleb128 0xb
 2050 0109 3B       		.uleb128 0x3b
 2051 010a 0B       		.uleb128 0xb
 2052 010b 27       		.uleb128 0x27
ARM GAS  /tmp/ccdxH1dU.s 			page 37


 2053 010c 19       		.uleb128 0x19
 2054 010d 49       		.uleb128 0x49
 2055 010e 13       		.uleb128 0x13
 2056 010f 11       		.uleb128 0x11
 2057 0110 01       		.uleb128 0x1
 2058 0111 12       		.uleb128 0x12
 2059 0112 06       		.uleb128 0x6
 2060 0113 40       		.uleb128 0x40
 2061 0114 18       		.uleb128 0x18
 2062 0115 9742     		.uleb128 0x2117
 2063 0117 19       		.uleb128 0x19
 2064 0118 01       		.uleb128 0x1
 2065 0119 13       		.uleb128 0x13
 2066 011a 00       		.byte	0
 2067 011b 00       		.byte	0
 2068 011c 16       		.uleb128 0x16
 2069 011d 05       		.uleb128 0x5
 2070 011e 00       		.byte	0
 2071 011f 03       		.uleb128 0x3
 2072 0120 0E       		.uleb128 0xe
 2073 0121 3A       		.uleb128 0x3a
 2074 0122 0B       		.uleb128 0xb
 2075 0123 3B       		.uleb128 0x3b
 2076 0124 0B       		.uleb128 0xb
 2077 0125 49       		.uleb128 0x49
 2078 0126 13       		.uleb128 0x13
 2079 0127 02       		.uleb128 0x2
 2080 0128 17       		.uleb128 0x17
 2081 0129 00       		.byte	0
 2082 012a 00       		.byte	0
 2083 012b 17       		.uleb128 0x17
 2084 012c 34       		.uleb128 0x34
 2085 012d 00       		.byte	0
 2086 012e 03       		.uleb128 0x3
 2087 012f 0E       		.uleb128 0xe
 2088 0130 3A       		.uleb128 0x3a
 2089 0131 0B       		.uleb128 0xb
 2090 0132 3B       		.uleb128 0x3b
 2091 0133 0B       		.uleb128 0xb
 2092 0134 49       		.uleb128 0x49
 2093 0135 13       		.uleb128 0x13
 2094 0136 02       		.uleb128 0x2
 2095 0137 17       		.uleb128 0x17
 2096 0138 00       		.byte	0
 2097 0139 00       		.byte	0
 2098 013a 18       		.uleb128 0x18
 2099 013b 34       		.uleb128 0x34
 2100 013c 00       		.byte	0
 2101 013d 03       		.uleb128 0x3
 2102 013e 0E       		.uleb128 0xe
 2103 013f 3A       		.uleb128 0x3a
 2104 0140 0B       		.uleb128 0xb
 2105 0141 3B       		.uleb128 0x3b
 2106 0142 0B       		.uleb128 0xb
 2107 0143 49       		.uleb128 0x49
 2108 0144 13       		.uleb128 0x13
 2109 0145 02       		.uleb128 0x2
ARM GAS  /tmp/ccdxH1dU.s 			page 38


 2110 0146 18       		.uleb128 0x18
 2111 0147 00       		.byte	0
 2112 0148 00       		.byte	0
 2113 0149 19       		.uleb128 0x19
 2114 014a 2E       		.uleb128 0x2e
 2115 014b 01       		.byte	0x1
 2116 014c 3F       		.uleb128 0x3f
 2117 014d 19       		.uleb128 0x19
 2118 014e 03       		.uleb128 0x3
 2119 014f 0E       		.uleb128 0xe
 2120 0150 3A       		.uleb128 0x3a
 2121 0151 0B       		.uleb128 0xb
 2122 0152 3B       		.uleb128 0x3b
 2123 0153 05       		.uleb128 0x5
 2124 0154 27       		.uleb128 0x27
 2125 0155 19       		.uleb128 0x19
 2126 0156 49       		.uleb128 0x49
 2127 0157 13       		.uleb128 0x13
 2128 0158 11       		.uleb128 0x11
 2129 0159 01       		.uleb128 0x1
 2130 015a 12       		.uleb128 0x12
 2131 015b 06       		.uleb128 0x6
 2132 015c 40       		.uleb128 0x40
 2133 015d 18       		.uleb128 0x18
 2134 015e 9742     		.uleb128 0x2117
 2135 0160 19       		.uleb128 0x19
 2136 0161 01       		.uleb128 0x1
 2137 0162 13       		.uleb128 0x13
 2138 0163 00       		.byte	0
 2139 0164 00       		.byte	0
 2140 0165 1A       		.uleb128 0x1a
 2141 0166 05       		.uleb128 0x5
 2142 0167 00       		.byte	0
 2143 0168 03       		.uleb128 0x3
 2144 0169 08       		.uleb128 0x8
 2145 016a 3A       		.uleb128 0x3a
 2146 016b 0B       		.uleb128 0xb
 2147 016c 3B       		.uleb128 0x3b
 2148 016d 05       		.uleb128 0x5
 2149 016e 49       		.uleb128 0x49
 2150 016f 13       		.uleb128 0x13
 2151 0170 02       		.uleb128 0x2
 2152 0171 17       		.uleb128 0x17
 2153 0172 00       		.byte	0
 2154 0173 00       		.byte	0
 2155 0174 1B       		.uleb128 0x1b
 2156 0175 05       		.uleb128 0x5
 2157 0176 00       		.byte	0
 2158 0177 03       		.uleb128 0x3
 2159 0178 0E       		.uleb128 0xe
 2160 0179 3A       		.uleb128 0x3a
 2161 017a 0B       		.uleb128 0xb
 2162 017b 3B       		.uleb128 0x3b
 2163 017c 05       		.uleb128 0x5
 2164 017d 49       		.uleb128 0x49
 2165 017e 13       		.uleb128 0x13
 2166 017f 02       		.uleb128 0x2
ARM GAS  /tmp/ccdxH1dU.s 			page 39


 2167 0180 17       		.uleb128 0x17
 2168 0181 00       		.byte	0
 2169 0182 00       		.byte	0
 2170 0183 1C       		.uleb128 0x1c
 2171 0184 34       		.uleb128 0x34
 2172 0185 00       		.byte	0
 2173 0186 03       		.uleb128 0x3
 2174 0187 0E       		.uleb128 0xe
 2175 0188 3A       		.uleb128 0x3a
 2176 0189 0B       		.uleb128 0xb
 2177 018a 3B       		.uleb128 0x3b
 2178 018b 05       		.uleb128 0x5
 2179 018c 49       		.uleb128 0x49
 2180 018d 13       		.uleb128 0x13
 2181 018e 02       		.uleb128 0x2
 2182 018f 17       		.uleb128 0x17
 2183 0190 00       		.byte	0
 2184 0191 00       		.byte	0
 2185 0192 1D       		.uleb128 0x1d
 2186 0193 34       		.uleb128 0x34
 2187 0194 00       		.byte	0
 2188 0195 03       		.uleb128 0x3
 2189 0196 0E       		.uleb128 0xe
 2190 0197 3A       		.uleb128 0x3a
 2191 0198 0B       		.uleb128 0xb
 2192 0199 3B       		.uleb128 0x3b
 2193 019a 05       		.uleb128 0x5
 2194 019b 49       		.uleb128 0x49
 2195 019c 13       		.uleb128 0x13
 2196 019d 02       		.uleb128 0x2
 2197 019e 18       		.uleb128 0x18
 2198 019f 00       		.byte	0
 2199 01a0 00       		.byte	0
 2200 01a1 1E       		.uleb128 0x1e
 2201 01a2 2E       		.uleb128 0x2e
 2202 01a3 01       		.byte	0x1
 2203 01a4 3F       		.uleb128 0x3f
 2204 01a5 19       		.uleb128 0x19
 2205 01a6 03       		.uleb128 0x3
 2206 01a7 0E       		.uleb128 0xe
 2207 01a8 3A       		.uleb128 0x3a
 2208 01a9 0B       		.uleb128 0xb
 2209 01aa 3B       		.uleb128 0x3b
 2210 01ab 0B       		.uleb128 0xb
 2211 01ac 27       		.uleb128 0x27
 2212 01ad 19       		.uleb128 0x19
 2213 01ae 3C       		.uleb128 0x3c
 2214 01af 19       		.uleb128 0x19
 2215 01b0 01       		.uleb128 0x1
 2216 01b1 13       		.uleb128 0x13
 2217 01b2 00       		.byte	0
 2218 01b3 00       		.byte	0
 2219 01b4 1F       		.uleb128 0x1f
 2220 01b5 05       		.uleb128 0x5
 2221 01b6 00       		.byte	0
 2222 01b7 49       		.uleb128 0x49
 2223 01b8 13       		.uleb128 0x13
ARM GAS  /tmp/ccdxH1dU.s 			page 40


 2224 01b9 00       		.byte	0
 2225 01ba 00       		.byte	0
 2226 01bb 20       		.uleb128 0x20
 2227 01bc 2E       		.uleb128 0x2e
 2228 01bd 00       		.byte	0
 2229 01be 3F       		.uleb128 0x3f
 2230 01bf 19       		.uleb128 0x19
 2231 01c0 03       		.uleb128 0x3
 2232 01c1 0E       		.uleb128 0xe
 2233 01c2 3A       		.uleb128 0x3a
 2234 01c3 0B       		.uleb128 0xb
 2235 01c4 3B       		.uleb128 0x3b
 2236 01c5 0B       		.uleb128 0xb
 2237 01c6 27       		.uleb128 0x27
 2238 01c7 19       		.uleb128 0x19
 2239 01c8 3C       		.uleb128 0x3c
 2240 01c9 19       		.uleb128 0x19
 2241 01ca 00       		.byte	0
 2242 01cb 00       		.byte	0
 2243 01cc 21       		.uleb128 0x21
 2244 01cd 2E       		.uleb128 0x2e
 2245 01ce 01       		.byte	0x1
 2246 01cf 3F       		.uleb128 0x3f
 2247 01d0 19       		.uleb128 0x19
 2248 01d1 03       		.uleb128 0x3
 2249 01d2 0E       		.uleb128 0xe
 2250 01d3 3A       		.uleb128 0x3a
 2251 01d4 0B       		.uleb128 0xb
 2252 01d5 3B       		.uleb128 0x3b
 2253 01d6 0B       		.uleb128 0xb
 2254 01d7 27       		.uleb128 0x27
 2255 01d8 19       		.uleb128 0x19
 2256 01d9 49       		.uleb128 0x49
 2257 01da 13       		.uleb128 0x13
 2258 01db 3C       		.uleb128 0x3c
 2259 01dc 19       		.uleb128 0x19
 2260 01dd 01       		.uleb128 0x1
 2261 01de 13       		.uleb128 0x13
 2262 01df 00       		.byte	0
 2263 01e0 00       		.byte	0
 2264 01e1 22       		.uleb128 0x22
 2265 01e2 2E       		.uleb128 0x2e
 2266 01e3 01       		.byte	0x1
 2267 01e4 3F       		.uleb128 0x3f
 2268 01e5 19       		.uleb128 0x19
 2269 01e6 03       		.uleb128 0x3
 2270 01e7 0E       		.uleb128 0xe
 2271 01e8 3A       		.uleb128 0x3a
 2272 01e9 0B       		.uleb128 0xb
 2273 01ea 3B       		.uleb128 0x3b
 2274 01eb 0B       		.uleb128 0xb
 2275 01ec 27       		.uleb128 0x27
 2276 01ed 19       		.uleb128 0x19
 2277 01ee 3C       		.uleb128 0x3c
 2278 01ef 19       		.uleb128 0x19
 2279 01f0 00       		.byte	0
 2280 01f1 00       		.byte	0
ARM GAS  /tmp/ccdxH1dU.s 			page 41


 2281 01f2 00       		.byte	0
 2282              		.section	.debug_loc,"",%progbits
 2283              	.Ldebug_loc0:
 2284              	.LLST0:
 2285 0000 00000000 		.4byte	.LVL0
 2286 0004 14000000 		.4byte	.LVL3
 2287 0008 0100     		.2byte	0x1
 2288 000a 50       		.byte	0x50
 2289 000b 14000000 		.4byte	.LVL3
 2290 000f 24000000 		.4byte	.LVL6
 2291 0013 0100     		.2byte	0x1
 2292 0015 54       		.byte	0x54
 2293 0016 24000000 		.4byte	.LVL6
 2294 001a 26000000 		.4byte	.LFE7
 2295 001e 0400     		.2byte	0x4
 2296 0020 F3       		.byte	0xf3
 2297 0021 01       		.uleb128 0x1
 2298 0022 50       		.byte	0x50
 2299 0023 9F       		.byte	0x9f
 2300 0024 00000000 		.4byte	0
 2301 0028 00000000 		.4byte	0
 2302              	.LLST1:
 2303 002c 00000000 		.4byte	.LVL0
 2304 0030 0E000000 		.4byte	.LVL1
 2305 0034 0100     		.2byte	0x1
 2306 0036 51       		.byte	0x51
 2307 0037 0E000000 		.4byte	.LVL1
 2308 003b 10000000 		.4byte	.LVL2
 2309 003f 0100     		.2byte	0x1
 2310 0041 53       		.byte	0x53
 2311 0042 10000000 		.4byte	.LVL2
 2312 0046 14000000 		.4byte	.LVL3
 2313 004a 0200     		.2byte	0x2
 2314 004c 70       		.byte	0x70
 2315 004d 00       		.sleb128 0
 2316 004e 14000000 		.4byte	.LVL3
 2317 0052 19000000 		.4byte	.LVL4-1
 2318 0056 0200     		.2byte	0x2
 2319 0058 74       		.byte	0x74
 2320 0059 00       		.sleb128 0
 2321 005a 19000000 		.4byte	.LVL4-1
 2322 005e 26000000 		.4byte	.LFE7
 2323 0062 0400     		.2byte	0x4
 2324 0064 F3       		.byte	0xf3
 2325 0065 01       		.uleb128 0x1
 2326 0066 51       		.byte	0x51
 2327 0067 9F       		.byte	0x9f
 2328 0068 00000000 		.4byte	0
 2329 006c 00000000 		.4byte	0
 2330              	.LLST2:
 2331 0070 00000000 		.4byte	.LVL0
 2332 0074 19000000 		.4byte	.LVL4-1
 2333 0078 0100     		.2byte	0x1
 2334 007a 52       		.byte	0x52
 2335 007b 19000000 		.4byte	.LVL4-1
 2336 007f 26000000 		.4byte	.LFE7
 2337 0083 0400     		.2byte	0x4
ARM GAS  /tmp/ccdxH1dU.s 			page 42


 2338 0085 F3       		.byte	0xf3
 2339 0086 01       		.uleb128 0x1
 2340 0087 52       		.byte	0x52
 2341 0088 9F       		.byte	0x9f
 2342 0089 00000000 		.4byte	0
 2343 008d 00000000 		.4byte	0
 2344              	.LLST3:
 2345 0091 00000000 		.4byte	.LVL7
 2346 0095 0E000000 		.4byte	.LVL8
 2347 0099 0100     		.2byte	0x1
 2348 009b 50       		.byte	0x50
 2349 009c 0E000000 		.4byte	.LVL8
 2350 00a0 28000000 		.4byte	.LVL12
 2351 00a4 0100     		.2byte	0x1
 2352 00a6 54       		.byte	0x54
 2353 00a7 28000000 		.4byte	.LVL12
 2354 00ab 2A000000 		.4byte	.LFE8
 2355 00af 0400     		.2byte	0x4
 2356 00b1 F3       		.byte	0xf3
 2357 00b2 01       		.uleb128 0x1
 2358 00b3 50       		.byte	0x50
 2359 00b4 9F       		.byte	0x9f
 2360 00b5 00000000 		.4byte	0
 2361 00b9 00000000 		.4byte	0
 2362              	.LLST4:
 2363 00bd 00000000 		.4byte	.LVL13
 2364 00c1 08000000 		.4byte	.LVL14
 2365 00c5 0100     		.2byte	0x1
 2366 00c7 50       		.byte	0x50
 2367 00c8 08000000 		.4byte	.LVL14
 2368 00cc 34000000 		.4byte	.LVL21
 2369 00d0 0100     		.2byte	0x1
 2370 00d2 54       		.byte	0x54
 2371 00d3 34000000 		.4byte	.LVL21
 2372 00d7 36000000 		.4byte	.LFE10
 2373 00db 0400     		.2byte	0x4
 2374 00dd F3       		.byte	0xf3
 2375 00de 01       		.uleb128 0x1
 2376 00df 50       		.byte	0x50
 2377 00e0 9F       		.byte	0x9f
 2378 00e1 00000000 		.4byte	0
 2379 00e5 00000000 		.4byte	0
 2380              	.LLST5:
 2381 00e9 00000000 		.4byte	.LVL13
 2382 00ed 0A000000 		.4byte	.LVL15
 2383 00f1 0100     		.2byte	0x1
 2384 00f3 51       		.byte	0x51
 2385 00f4 0A000000 		.4byte	.LVL15
 2386 00f8 34000000 		.4byte	.LVL23
 2387 00fc 0100     		.2byte	0x1
 2388 00fe 56       		.byte	0x56
 2389 00ff 34000000 		.4byte	.LVL23
 2390 0103 36000000 		.4byte	.LFE10
 2391 0107 0400     		.2byte	0x4
 2392 0109 F3       		.byte	0xf3
 2393 010a 01       		.uleb128 0x1
 2394 010b 51       		.byte	0x51
ARM GAS  /tmp/ccdxH1dU.s 			page 43


 2395 010c 9F       		.byte	0x9f
 2396 010d 00000000 		.4byte	0
 2397 0111 00000000 		.4byte	0
 2398              	.LLST6:
 2399 0115 00000000 		.4byte	.LVL13
 2400 0119 0D000000 		.4byte	.LVL16-1
 2401 011d 0100     		.2byte	0x1
 2402 011f 52       		.byte	0x52
 2403 0120 0D000000 		.4byte	.LVL16-1
 2404 0124 36000000 		.4byte	.LFE10
 2405 0128 0400     		.2byte	0x4
 2406 012a F3       		.byte	0xf3
 2407 012b 01       		.uleb128 0x1
 2408 012c 52       		.byte	0x52
 2409 012d 9F       		.byte	0x9f
 2410 012e 00000000 		.4byte	0
 2411 0132 00000000 		.4byte	0
 2412              	.LLST7:
 2413 0136 10000000 		.4byte	.LVL17
 2414 013a 28000000 		.4byte	.LVL18
 2415 013e 0100     		.2byte	0x1
 2416 0140 50       		.byte	0x50
 2417 0141 28000000 		.4byte	.LVL18
 2418 0145 34000000 		.4byte	.LVL22
 2419 0149 0100     		.2byte	0x1
 2420 014b 55       		.byte	0x55
 2421 014c 34000000 		.4byte	.LVL22
 2422 0150 36000000 		.4byte	.LFE10
 2423 0154 0100     		.2byte	0x1
 2424 0156 50       		.byte	0x50
 2425 0157 00000000 		.4byte	0
 2426 015b 00000000 		.4byte	0
 2427              	.LLST8:
 2428 015f 00000000 		.4byte	.LVL24
 2429 0163 07000000 		.4byte	.LVL25-1
 2430 0167 0100     		.2byte	0x1
 2431 0169 50       		.byte	0x50
 2432 016a 07000000 		.4byte	.LVL25-1
 2433 016e 0C000000 		.4byte	.LFE9
 2434 0172 0400     		.2byte	0x4
 2435 0174 F3       		.byte	0xf3
 2436 0175 01       		.uleb128 0x1
 2437 0176 50       		.byte	0x50
 2438 0177 9F       		.byte	0x9f
 2439 0178 00000000 		.4byte	0
 2440 017c 00000000 		.4byte	0
 2441              	.LLST9:
 2442 0180 00000000 		.4byte	.LVL24
 2443 0184 07000000 		.4byte	.LVL25-1
 2444 0188 0100     		.2byte	0x1
 2445 018a 51       		.byte	0x51
 2446 018b 07000000 		.4byte	.LVL25-1
 2447 018f 0C000000 		.4byte	.LFE9
 2448 0193 0400     		.2byte	0x4
 2449 0195 F3       		.byte	0xf3
 2450 0196 01       		.uleb128 0x1
 2451 0197 51       		.byte	0x51
ARM GAS  /tmp/ccdxH1dU.s 			page 44


 2452 0198 9F       		.byte	0x9f
 2453 0199 00000000 		.4byte	0
 2454 019d 00000000 		.4byte	0
 2455              	.LLST10:
 2456 01a1 00000000 		.4byte	.LVL24
 2457 01a5 07000000 		.4byte	.LVL25-1
 2458 01a9 0100     		.2byte	0x1
 2459 01ab 52       		.byte	0x52
 2460 01ac 07000000 		.4byte	.LVL25-1
 2461 01b0 0C000000 		.4byte	.LFE9
 2462 01b4 0400     		.2byte	0x4
 2463 01b6 F3       		.byte	0xf3
 2464 01b7 01       		.uleb128 0x1
 2465 01b8 52       		.byte	0x52
 2466 01b9 9F       		.byte	0x9f
 2467 01ba 00000000 		.4byte	0
 2468 01be 00000000 		.4byte	0
 2469              	.LLST11:
 2470 01c2 00000000 		.4byte	.LVL26
 2471 01c6 22000000 		.4byte	.LVL27
 2472 01ca 0100     		.2byte	0x1
 2473 01cc 50       		.byte	0x50
 2474 01cd 22000000 		.4byte	.LVL27
 2475 01d1 25000000 		.4byte	.LVL28-1
 2476 01d5 0300     		.2byte	0x3
 2477 01d7 70       		.byte	0x70
 2478 01d8 70       		.sleb128 -16
 2479 01d9 9F       		.byte	0x9f
 2480 01da 25000000 		.4byte	.LVL28-1
 2481 01de 2A000000 		.4byte	.LVL29
 2482 01e2 0400     		.2byte	0x4
 2483 01e4 F3       		.byte	0xf3
 2484 01e5 01       		.uleb128 0x1
 2485 01e6 50       		.byte	0x50
 2486 01e7 9F       		.byte	0x9f
 2487 01e8 2A000000 		.4byte	.LVL29
 2488 01ec 2C000000 		.4byte	.LVL30
 2489 01f0 0100     		.2byte	0x1
 2490 01f2 50       		.byte	0x50
 2491 01f3 2C000000 		.4byte	.LVL30
 2492 01f7 30000000 		.4byte	.LFE11
 2493 01fb 0400     		.2byte	0x4
 2494 01fd F3       		.byte	0xf3
 2495 01fe 01       		.uleb128 0x1
 2496 01ff 50       		.byte	0x50
 2497 0200 9F       		.byte	0x9f
 2498 0201 00000000 		.4byte	0
 2499 0205 00000000 		.4byte	0
 2500              	.LLST12:
 2501 0209 00000000 		.4byte	.LVL26
 2502 020d 25000000 		.4byte	.LVL28-1
 2503 0211 0100     		.2byte	0x1
 2504 0213 51       		.byte	0x51
 2505 0214 25000000 		.4byte	.LVL28-1
 2506 0218 2A000000 		.4byte	.LVL29
 2507 021c 0400     		.2byte	0x4
 2508 021e F3       		.byte	0xf3
ARM GAS  /tmp/ccdxH1dU.s 			page 45


 2509 021f 01       		.uleb128 0x1
 2510 0220 51       		.byte	0x51
 2511 0221 9F       		.byte	0x9f
 2512 0222 2A000000 		.4byte	.LVL29
 2513 0226 2E000000 		.4byte	.LVL31
 2514 022a 0100     		.2byte	0x1
 2515 022c 51       		.byte	0x51
 2516 022d 2E000000 		.4byte	.LVL31
 2517 0231 30000000 		.4byte	.LFE11
 2518 0235 0400     		.2byte	0x4
 2519 0237 F3       		.byte	0xf3
 2520 0238 01       		.uleb128 0x1
 2521 0239 51       		.byte	0x51
 2522 023a 9F       		.byte	0x9f
 2523 023b 00000000 		.4byte	0
 2524 023f 00000000 		.4byte	0
 2525              	.LLST13:
 2526 0243 00000000 		.4byte	.LVL32
 2527 0247 08000000 		.4byte	.LVL33
 2528 024b 0100     		.2byte	0x1
 2529 024d 50       		.byte	0x50
 2530 024e 08000000 		.4byte	.LVL33
 2531 0252 36000000 		.4byte	.LVL40
 2532 0256 0100     		.2byte	0x1
 2533 0258 54       		.byte	0x54
 2534 0259 36000000 		.4byte	.LVL40
 2535 025d 38000000 		.4byte	.LFE13
 2536 0261 0400     		.2byte	0x4
 2537 0263 F3       		.byte	0xf3
 2538 0264 01       		.uleb128 0x1
 2539 0265 50       		.byte	0x50
 2540 0266 9F       		.byte	0x9f
 2541 0267 00000000 		.4byte	0
 2542 026b 00000000 		.4byte	0
 2543              	.LLST14:
 2544 026f 00000000 		.4byte	.LVL32
 2545 0273 0A000000 		.4byte	.LVL34
 2546 0277 0100     		.2byte	0x1
 2547 0279 51       		.byte	0x51
 2548 027a 0A000000 		.4byte	.LVL34
 2549 027e 36000000 		.4byte	.LVL42
 2550 0282 0100     		.2byte	0x1
 2551 0284 56       		.byte	0x56
 2552 0285 36000000 		.4byte	.LVL42
 2553 0289 38000000 		.4byte	.LFE13
 2554 028d 0400     		.2byte	0x4
 2555 028f F3       		.byte	0xf3
 2556 0290 01       		.uleb128 0x1
 2557 0291 51       		.byte	0x51
 2558 0292 9F       		.byte	0x9f
 2559 0293 00000000 		.4byte	0
 2560 0297 00000000 		.4byte	0
 2561              	.LLST15:
 2562 029b 00000000 		.4byte	.LVL32
 2563 029f 0D000000 		.4byte	.LVL35-1
 2564 02a3 0100     		.2byte	0x1
 2565 02a5 52       		.byte	0x52
ARM GAS  /tmp/ccdxH1dU.s 			page 46


 2566 02a6 0D000000 		.4byte	.LVL35-1
 2567 02aa 38000000 		.4byte	.LFE13
 2568 02ae 0400     		.2byte	0x4
 2569 02b0 F3       		.byte	0xf3
 2570 02b1 01       		.uleb128 0x1
 2571 02b2 52       		.byte	0x52
 2572 02b3 9F       		.byte	0x9f
 2573 02b4 00000000 		.4byte	0
 2574 02b8 00000000 		.4byte	0
 2575              	.LLST16:
 2576 02bc 10000000 		.4byte	.LVL36
 2577 02c0 2A000000 		.4byte	.LVL37
 2578 02c4 0100     		.2byte	0x1
 2579 02c6 50       		.byte	0x50
 2580 02c7 2A000000 		.4byte	.LVL37
 2581 02cb 36000000 		.4byte	.LVL41
 2582 02cf 0100     		.2byte	0x1
 2583 02d1 55       		.byte	0x55
 2584 02d2 36000000 		.4byte	.LVL41
 2585 02d6 38000000 		.4byte	.LFE13
 2586 02da 0100     		.2byte	0x1
 2587 02dc 50       		.byte	0x50
 2588 02dd 00000000 		.4byte	0
 2589 02e1 00000000 		.4byte	0
 2590              	.LLST17:
 2591 02e5 00000000 		.4byte	.LVL43
 2592 02e9 07000000 		.4byte	.LVL44-1
 2593 02ed 0100     		.2byte	0x1
 2594 02ef 50       		.byte	0x50
 2595 02f0 07000000 		.4byte	.LVL44-1
 2596 02f4 0C000000 		.4byte	.LFE12
 2597 02f8 0400     		.2byte	0x4
 2598 02fa F3       		.byte	0xf3
 2599 02fb 01       		.uleb128 0x1
 2600 02fc 50       		.byte	0x50
 2601 02fd 9F       		.byte	0x9f
 2602 02fe 00000000 		.4byte	0
 2603 0302 00000000 		.4byte	0
 2604              	.LLST18:
 2605 0306 00000000 		.4byte	.LVL43
 2606 030a 07000000 		.4byte	.LVL44-1
 2607 030e 0100     		.2byte	0x1
 2608 0310 51       		.byte	0x51
 2609 0311 07000000 		.4byte	.LVL44-1
 2610 0315 0C000000 		.4byte	.LFE12
 2611 0319 0400     		.2byte	0x4
 2612 031b F3       		.byte	0xf3
 2613 031c 01       		.uleb128 0x1
 2614 031d 51       		.byte	0x51
 2615 031e 9F       		.byte	0x9f
 2616 031f 00000000 		.4byte	0
 2617 0323 00000000 		.4byte	0
 2618              	.LLST19:
 2619 0327 00000000 		.4byte	.LVL43
 2620 032b 07000000 		.4byte	.LVL44-1
 2621 032f 0100     		.2byte	0x1
 2622 0331 52       		.byte	0x52
ARM GAS  /tmp/ccdxH1dU.s 			page 47


 2623 0332 07000000 		.4byte	.LVL44-1
 2624 0336 0C000000 		.4byte	.LFE12
 2625 033a 0400     		.2byte	0x4
 2626 033c F3       		.byte	0xf3
 2627 033d 01       		.uleb128 0x1
 2628 033e 52       		.byte	0x52
 2629 033f 9F       		.byte	0x9f
 2630 0340 00000000 		.4byte	0
 2631 0344 00000000 		.4byte	0
 2632              	.LLST20:
 2633 0348 00000000 		.4byte	.LVL45
 2634 034c 24000000 		.4byte	.LVL46
 2635 0350 0100     		.2byte	0x1
 2636 0352 50       		.byte	0x50
 2637 0353 24000000 		.4byte	.LVL46
 2638 0357 27000000 		.4byte	.LVL47-1
 2639 035b 0300     		.2byte	0x3
 2640 035d 70       		.byte	0x70
 2641 035e 70       		.sleb128 -16
 2642 035f 9F       		.byte	0x9f
 2643 0360 27000000 		.4byte	.LVL47-1
 2644 0364 2C000000 		.4byte	.LVL48
 2645 0368 0400     		.2byte	0x4
 2646 036a F3       		.byte	0xf3
 2647 036b 01       		.uleb128 0x1
 2648 036c 50       		.byte	0x50
 2649 036d 9F       		.byte	0x9f
 2650 036e 2C000000 		.4byte	.LVL48
 2651 0372 2E000000 		.4byte	.LVL49
 2652 0376 0100     		.2byte	0x1
 2653 0378 50       		.byte	0x50
 2654 0379 2E000000 		.4byte	.LVL49
 2655 037d 32000000 		.4byte	.LFE14
 2656 0381 0400     		.2byte	0x4
 2657 0383 F3       		.byte	0xf3
 2658 0384 01       		.uleb128 0x1
 2659 0385 50       		.byte	0x50
 2660 0386 9F       		.byte	0x9f
 2661 0387 00000000 		.4byte	0
 2662 038b 00000000 		.4byte	0
 2663              	.LLST21:
 2664 038f 00000000 		.4byte	.LVL45
 2665 0393 27000000 		.4byte	.LVL47-1
 2666 0397 0100     		.2byte	0x1
 2667 0399 51       		.byte	0x51
 2668 039a 27000000 		.4byte	.LVL47-1
 2669 039e 2C000000 		.4byte	.LVL48
 2670 03a2 0400     		.2byte	0x4
 2671 03a4 F3       		.byte	0xf3
 2672 03a5 01       		.uleb128 0x1
 2673 03a6 51       		.byte	0x51
 2674 03a7 9F       		.byte	0x9f
 2675 03a8 2C000000 		.4byte	.LVL48
 2676 03ac 30000000 		.4byte	.LVL50
 2677 03b0 0100     		.2byte	0x1
 2678 03b2 51       		.byte	0x51
 2679 03b3 30000000 		.4byte	.LVL50
ARM GAS  /tmp/ccdxH1dU.s 			page 48


 2680 03b7 32000000 		.4byte	.LFE14
 2681 03bb 0400     		.2byte	0x4
 2682 03bd F3       		.byte	0xf3
 2683 03be 01       		.uleb128 0x1
 2684 03bf 51       		.byte	0x51
 2685 03c0 9F       		.byte	0x9f
 2686 03c1 00000000 		.4byte	0
 2687 03c5 00000000 		.4byte	0
 2688              	.LLST22:
 2689 03c9 00000000 		.4byte	.LVL51
 2690 03cd 08000000 		.4byte	.LVL52
 2691 03d1 0100     		.2byte	0x1
 2692 03d3 50       		.byte	0x50
 2693 03d4 08000000 		.4byte	.LVL52
 2694 03d8 36000000 		.4byte	.LVL59
 2695 03dc 0100     		.2byte	0x1
 2696 03de 54       		.byte	0x54
 2697 03df 36000000 		.4byte	.LVL59
 2698 03e3 38000000 		.4byte	.LFE16
 2699 03e7 0400     		.2byte	0x4
 2700 03e9 F3       		.byte	0xf3
 2701 03ea 01       		.uleb128 0x1
 2702 03eb 50       		.byte	0x50
 2703 03ec 9F       		.byte	0x9f
 2704 03ed 00000000 		.4byte	0
 2705 03f1 00000000 		.4byte	0
 2706              	.LLST23:
 2707 03f5 00000000 		.4byte	.LVL51
 2708 03f9 0A000000 		.4byte	.LVL53
 2709 03fd 0100     		.2byte	0x1
 2710 03ff 51       		.byte	0x51
 2711 0400 0A000000 		.4byte	.LVL53
 2712 0404 36000000 		.4byte	.LVL61
 2713 0408 0100     		.2byte	0x1
 2714 040a 56       		.byte	0x56
 2715 040b 36000000 		.4byte	.LVL61
 2716 040f 38000000 		.4byte	.LFE16
 2717 0413 0400     		.2byte	0x4
 2718 0415 F3       		.byte	0xf3
 2719 0416 01       		.uleb128 0x1
 2720 0417 51       		.byte	0x51
 2721 0418 9F       		.byte	0x9f
 2722 0419 00000000 		.4byte	0
 2723 041d 00000000 		.4byte	0
 2724              	.LLST24:
 2725 0421 00000000 		.4byte	.LVL51
 2726 0425 0D000000 		.4byte	.LVL54-1
 2727 0429 0100     		.2byte	0x1
 2728 042b 52       		.byte	0x52
 2729 042c 0D000000 		.4byte	.LVL54-1
 2730 0430 38000000 		.4byte	.LFE16
 2731 0434 0400     		.2byte	0x4
 2732 0436 F3       		.byte	0xf3
 2733 0437 01       		.uleb128 0x1
 2734 0438 52       		.byte	0x52
 2735 0439 9F       		.byte	0x9f
 2736 043a 00000000 		.4byte	0
ARM GAS  /tmp/ccdxH1dU.s 			page 49


 2737 043e 00000000 		.4byte	0
 2738              	.LLST25:
 2739 0442 10000000 		.4byte	.LVL55
 2740 0446 2A000000 		.4byte	.LVL56
 2741 044a 0100     		.2byte	0x1
 2742 044c 50       		.byte	0x50
 2743 044d 2A000000 		.4byte	.LVL56
 2744 0451 36000000 		.4byte	.LVL60
 2745 0455 0100     		.2byte	0x1
 2746 0457 55       		.byte	0x55
 2747 0458 36000000 		.4byte	.LVL60
 2748 045c 38000000 		.4byte	.LFE16
 2749 0460 0100     		.2byte	0x1
 2750 0462 50       		.byte	0x50
 2751 0463 00000000 		.4byte	0
 2752 0467 00000000 		.4byte	0
 2753              	.LLST26:
 2754 046b 00000000 		.4byte	.LVL62
 2755 046f 07000000 		.4byte	.LVL63-1
 2756 0473 0100     		.2byte	0x1
 2757 0475 50       		.byte	0x50
 2758 0476 07000000 		.4byte	.LVL63-1
 2759 047a 0C000000 		.4byte	.LFE15
 2760 047e 0400     		.2byte	0x4
 2761 0480 F3       		.byte	0xf3
 2762 0481 01       		.uleb128 0x1
 2763 0482 50       		.byte	0x50
 2764 0483 9F       		.byte	0x9f
 2765 0484 00000000 		.4byte	0
 2766 0488 00000000 		.4byte	0
 2767              	.LLST27:
 2768 048c 00000000 		.4byte	.LVL62
 2769 0490 07000000 		.4byte	.LVL63-1
 2770 0494 0100     		.2byte	0x1
 2771 0496 51       		.byte	0x51
 2772 0497 07000000 		.4byte	.LVL63-1
 2773 049b 0C000000 		.4byte	.LFE15
 2774 049f 0400     		.2byte	0x4
 2775 04a1 F3       		.byte	0xf3
 2776 04a2 01       		.uleb128 0x1
 2777 04a3 51       		.byte	0x51
 2778 04a4 9F       		.byte	0x9f
 2779 04a5 00000000 		.4byte	0
 2780 04a9 00000000 		.4byte	0
 2781              	.LLST28:
 2782 04ad 00000000 		.4byte	.LVL62
 2783 04b1 07000000 		.4byte	.LVL63-1
 2784 04b5 0100     		.2byte	0x1
 2785 04b7 52       		.byte	0x52
 2786 04b8 07000000 		.4byte	.LVL63-1
 2787 04bc 0C000000 		.4byte	.LFE15
 2788 04c0 0400     		.2byte	0x4
 2789 04c2 F3       		.byte	0xf3
 2790 04c3 01       		.uleb128 0x1
 2791 04c4 52       		.byte	0x52
 2792 04c5 9F       		.byte	0x9f
 2793 04c6 00000000 		.4byte	0
ARM GAS  /tmp/ccdxH1dU.s 			page 50


 2794 04ca 00000000 		.4byte	0
 2795              	.LLST29:
 2796 04ce 00000000 		.4byte	.LVL64
 2797 04d2 24000000 		.4byte	.LVL65
 2798 04d6 0100     		.2byte	0x1
 2799 04d8 50       		.byte	0x50
 2800 04d9 24000000 		.4byte	.LVL65
 2801 04dd 27000000 		.4byte	.LVL66-1
 2802 04e1 0300     		.2byte	0x3
 2803 04e3 70       		.byte	0x70
 2804 04e4 64       		.sleb128 -28
 2805 04e5 9F       		.byte	0x9f
 2806 04e6 27000000 		.4byte	.LVL66-1
 2807 04ea 2C000000 		.4byte	.LVL67
 2808 04ee 0400     		.2byte	0x4
 2809 04f0 F3       		.byte	0xf3
 2810 04f1 01       		.uleb128 0x1
 2811 04f2 50       		.byte	0x50
 2812 04f3 9F       		.byte	0x9f
 2813 04f4 2C000000 		.4byte	.LVL67
 2814 04f8 2E000000 		.4byte	.LVL68
 2815 04fc 0100     		.2byte	0x1
 2816 04fe 50       		.byte	0x50
 2817 04ff 2E000000 		.4byte	.LVL68
 2818 0503 32000000 		.4byte	.LFE17
 2819 0507 0400     		.2byte	0x4
 2820 0509 F3       		.byte	0xf3
 2821 050a 01       		.uleb128 0x1
 2822 050b 50       		.byte	0x50
 2823 050c 9F       		.byte	0x9f
 2824 050d 00000000 		.4byte	0
 2825 0511 00000000 		.4byte	0
 2826              	.LLST30:
 2827 0515 00000000 		.4byte	.LVL64
 2828 0519 27000000 		.4byte	.LVL66-1
 2829 051d 0100     		.2byte	0x1
 2830 051f 51       		.byte	0x51
 2831 0520 27000000 		.4byte	.LVL66-1
 2832 0524 2C000000 		.4byte	.LVL67
 2833 0528 0400     		.2byte	0x4
 2834 052a F3       		.byte	0xf3
 2835 052b 01       		.uleb128 0x1
 2836 052c 51       		.byte	0x51
 2837 052d 9F       		.byte	0x9f
 2838 052e 2C000000 		.4byte	.LVL67
 2839 0532 30000000 		.4byte	.LVL69
 2840 0536 0100     		.2byte	0x1
 2841 0538 51       		.byte	0x51
 2842 0539 30000000 		.4byte	.LVL69
 2843 053d 32000000 		.4byte	.LFE17
 2844 0541 0400     		.2byte	0x4
 2845 0543 F3       		.byte	0xf3
 2846 0544 01       		.uleb128 0x1
 2847 0545 51       		.byte	0x51
 2848 0546 9F       		.byte	0x9f
 2849 0547 00000000 		.4byte	0
 2850 054b 00000000 		.4byte	0
ARM GAS  /tmp/ccdxH1dU.s 			page 51


 2851              		.section	.debug_aranges,"",%progbits
 2852 0000 6C000000 		.4byte	0x6c
 2853 0004 0200     		.2byte	0x2
 2854 0006 00000000 		.4byte	.Ldebug_info0
 2855 000a 04       		.byte	0x4
 2856 000b 00       		.byte	0
 2857 000c 0000     		.2byte	0
 2858 000e 0000     		.2byte	0
 2859 0010 00000000 		.4byte	.LFB7
 2860 0014 26000000 		.4byte	.LFE7-.LFB7
 2861 0018 00000000 		.4byte	.LFB8
 2862 001c 2A000000 		.4byte	.LFE8-.LFB8
 2863 0020 00000000 		.4byte	.LFB10
 2864 0024 36000000 		.4byte	.LFE10-.LFB10
 2865 0028 00000000 		.4byte	.LFB9
 2866 002c 0C000000 		.4byte	.LFE9-.LFB9
 2867 0030 00000000 		.4byte	.LFB11
 2868 0034 30000000 		.4byte	.LFE11-.LFB11
 2869 0038 00000000 		.4byte	.LFB13
 2870 003c 38000000 		.4byte	.LFE13-.LFB13
 2871 0040 00000000 		.4byte	.LFB12
 2872 0044 0C000000 		.4byte	.LFE12-.LFB12
 2873 0048 00000000 		.4byte	.LFB14
 2874 004c 32000000 		.4byte	.LFE14-.LFB14
 2875 0050 00000000 		.4byte	.LFB16
 2876 0054 38000000 		.4byte	.LFE16-.LFB16
 2877 0058 00000000 		.4byte	.LFB15
 2878 005c 0C000000 		.4byte	.LFE15-.LFB15
 2879 0060 00000000 		.4byte	.LFB17
 2880 0064 32000000 		.4byte	.LFE17-.LFB17
 2881 0068 00000000 		.4byte	0
 2882 006c 00000000 		.4byte	0
 2883              		.section	.debug_ranges,"",%progbits
 2884              	.Ldebug_ranges0:
 2885 0000 00000000 		.4byte	.LFB7
 2886 0004 26000000 		.4byte	.LFE7
 2887 0008 00000000 		.4byte	.LFB8
 2888 000c 2A000000 		.4byte	.LFE8
 2889 0010 00000000 		.4byte	.LFB10
 2890 0014 36000000 		.4byte	.LFE10
 2891 0018 00000000 		.4byte	.LFB9
 2892 001c 0C000000 		.4byte	.LFE9
 2893 0020 00000000 		.4byte	.LFB11
 2894 0024 30000000 		.4byte	.LFE11
 2895 0028 00000000 		.4byte	.LFB13
 2896 002c 38000000 		.4byte	.LFE13
 2897 0030 00000000 		.4byte	.LFB12
 2898 0034 0C000000 		.4byte	.LFE12
 2899 0038 00000000 		.4byte	.LFB14
 2900 003c 32000000 		.4byte	.LFE14
 2901 0040 00000000 		.4byte	.LFB16
 2902 0044 38000000 		.4byte	.LFE16
 2903 0048 00000000 		.4byte	.LFB15
 2904 004c 0C000000 		.4byte	.LFE15
 2905 0050 00000000 		.4byte	.LFB17
 2906 0054 32000000 		.4byte	.LFE17
 2907 0058 00000000 		.4byte	0
ARM GAS  /tmp/ccdxH1dU.s 			page 52


 2908 005c 00000000 		.4byte	0
 2909              		.section	.debug_line,"",%progbits
 2910              	.Ldebug_line0:
 2911 0000 A5020000 		.section	.debug_str,"MS",%progbits,1
 2911      02009E01 
 2911      00000201 
 2911      FB0E0D00 
 2911      01010101 
 2912              	.LASF40:
 2913 0000 705F6D73 		.ascii	"p_msg\000"
 2913      6700
 2914              	.LASF90:
 2915 0006 63685365 		.ascii	"chSemSignalI\000"
 2915      6D536967 
 2915      6E616C49 
 2915      00
 2916              	.LASF65:
 2917 0013 7264796D 		.ascii	"rdymsg\000"
 2917      736700
 2918              	.LASF5:
 2919 001a 5F5F7569 		.ascii	"__uint8_t\000"
 2919      6E74385F 
 2919      7400
 2920              	.LASF75:
 2921 0024 63684D42 		.ascii	"chMBPostI\000"
 2921      506F7374 
 2921      4900
 2922              	.LASF73:
 2923 002e 63684D42 		.ascii	"chMBPostS\000"
 2923      506F7374 
 2923      5300
 2924              	.LASF64:
 2925 0038 4D61696C 		.ascii	"Mailbox\000"
 2925      626F7800 
 2926              	.LASF78:
 2927 0040 63684D42 		.ascii	"chMBPostAheadI\000"
 2927      506F7374 
 2927      41686561 
 2927      644900
 2928              	.LASF11:
 2929 004f 6C6F6E67 		.ascii	"long long unsigned int\000"
 2929      206C6F6E 
 2929      6720756E 
 2929      7369676E 
 2929      65642069 
 2930              	.LASF66:
 2931 0066 65786974 		.ascii	"exitcode\000"
 2931      636F6465 
 2931      00
 2932              	.LASF76:
 2933 006f 63684D42 		.ascii	"chMBPostAheadS\000"
 2933      506F7374 
 2933      41686561 
 2933      645300
 2934              	.LASF60:
 2935 007e 6D625F77 		.ascii	"mb_wrptr\000"
 2935      72707472 
ARM GAS  /tmp/ccdxH1dU.s 			page 53


 2935      00
 2936              	.LASF28:
 2937 0087 705F7072 		.ascii	"p_prio\000"
 2937      696F00
 2938              	.LASF10:
 2939 008e 6C6F6E67 		.ascii	"long long int\000"
 2939      206C6F6E 
 2939      6720696E 
 2939      7400
 2940              	.LASF1:
 2941 009c 7369676E 		.ascii	"signed char\000"
 2941      65642063 
 2941      68617200 
 2942              	.LASF9:
 2943 00a8 6C6F6E67 		.ascii	"long unsigned int\000"
 2943      20756E73 
 2943      69676E65 
 2943      6420696E 
 2943      7400
 2944              	.LASF44:
 2945 00ba 705F6D70 		.ascii	"p_mpool\000"
 2945      6F6F6C00 
 2946              	.LASF55:
 2947 00c2 6D5F7175 		.ascii	"m_queue\000"
 2947      65756500 
 2948              	.LASF19:
 2949 00ca 74736C69 		.ascii	"tslices_t\000"
 2949      6365735F 
 2949      7400
 2950              	.LASF7:
 2951 00d4 6C6F6E67 		.ascii	"long int\000"
 2951      20696E74 
 2951      00
 2952              	.LASF17:
 2953 00dd 74737461 		.ascii	"tstate_t\000"
 2953      74655F74 
 2953      00
 2954              	.LASF30:
 2955 00e6 705F6E65 		.ascii	"p_newer\000"
 2955      77657200 
 2956              	.LASF52:
 2957 00ee 735F7175 		.ascii	"s_queue\000"
 2957      65756500 
 2958              	.LASF88:
 2959 00f6 63685363 		.ascii	"chSchRescheduleS\000"
 2959      68526573 
 2959      63686564 
 2959      756C6553 
 2959      00
 2960              	.LASF86:
 2961 0107 43686962 		.ascii	"ChibiOS_2.6.5/os/kernel/src/chmboxes.c\000"
 2961      694F535F 
 2961      322E362E 
 2961      352F6F73 
 2961      2F6B6572 
 2962              	.LASF8:
 2963 012e 5F5F7569 		.ascii	"__uint32_t\000"
ARM GAS  /tmp/ccdxH1dU.s 			page 54


 2963      6E743332 
 2963      5F7400
 2964              	.LASF47:
 2965 0139 72656761 		.ascii	"regarm_t\000"
 2965      726D5F74 
 2965      00
 2966              	.LASF24:
 2967 0142 636E745F 		.ascii	"cnt_t\000"
 2967      7400
 2968              	.LASF0:
 2969 0148 756E7369 		.ascii	"unsigned int\000"
 2969      676E6564 
 2969      20696E74 
 2969      00
 2970              	.LASF70:
 2971 0155 63684D42 		.ascii	"chMBInit\000"
 2971      496E6974 
 2971      00
 2972              	.LASF87:
 2973 015e 2F484444 		.ascii	"/HDD/Projects/workspace_test4/Altimeter/\000"
 2973      2F50726F 
 2973      6A656374 
 2973      732F776F 
 2973      726B7370 
 2974              	.LASF63:
 2975 0187 6D625F65 		.ascii	"mb_emptysem\000"
 2975      6D707479 
 2975      73656D00 
 2976              	.LASF53:
 2977 0193 735F636E 		.ascii	"s_cnt\000"
 2977      7400
 2978              	.LASF49:
 2979 0199 636F6E74 		.ascii	"context\000"
 2979      65787400 
 2980              	.LASF4:
 2981 01a1 73686F72 		.ascii	"short unsigned int\000"
 2981      7420756E 
 2981      7369676E 
 2981      65642069 
 2981      6E7400
 2982              	.LASF82:
 2983 01b4 63684D42 		.ascii	"chMBFetchI\000"
 2983      46657463 
 2983      684900
 2984              	.LASF21:
 2985 01bf 6D73675F 		.ascii	"msg_t\000"
 2985      7400
 2986              	.LASF79:
 2987 01c5 63684D42 		.ascii	"chMBFetchS\000"
 2987      46657463 
 2987      685300
 2988              	.LASF85:
 2989 01d0 474E5520 		.ascii	"GNU C 4.8.4 20140526 (release) [ARM/embedded-4_8-br"
 2989      4320342E 
 2989      382E3420 
 2989      32303134 
 2989      30353236 
ARM GAS  /tmp/ccdxH1dU.s 			page 55


 2990 0203 616E6368 		.ascii	"anch revision 211358] -mcpu=cortex-m0 -mno-thumb-in"
 2990      20726576 
 2990      6973696F 
 2990      6E203231 
 2990      31333538 
 2991 0236 74657277 		.ascii	"terwork -mthumb -ggdb -O1 -fomit-frame-pointer -ffu"
 2991      6F726B20 
 2991      2D6D7468 
 2991      756D6220 
 2991      2D676764 
 2992 0269 6E637469 		.ascii	"nction-sections -fdata-sections -fno-common\000"
 2992      6F6E2D73 
 2992      65637469 
 2992      6F6E7320 
 2992      2D666461 
 2993              	.LASF46:
 2994 0295 54687265 		.ascii	"ThreadsList\000"
 2994      6164734C 
 2994      69737400 
 2995              	.LASF22:
 2996 02a1 6576656E 		.ascii	"eventmask_t\000"
 2996      746D6173 
 2996      6B5F7400 
 2997              	.LASF54:
 2998 02ad 4D757465 		.ascii	"Mutex\000"
 2998      7800
 2999              	.LASF80:
 3000 02b3 6D736770 		.ascii	"msgp\000"
 3000      00
 3001              	.LASF50:
 3002 02b8 73697A65 		.ascii	"sizetype\000"
 3002      74797065 
 3002      00
 3003              	.LASF61:
 3004 02c1 6D625F72 		.ascii	"mb_rdptr\000"
 3004      64707472 
 3004      00
 3005              	.LASF71:
 3006 02ca 63684D42 		.ascii	"chMBReset\000"
 3006      52657365 
 3006      7400
 3007              	.LASF31:
 3008 02d4 705F6F6C 		.ascii	"p_older\000"
 3008      64657200 
 3009              	.LASF45:
 3010 02dc 54687265 		.ascii	"ThreadsQueue\000"
 3010      61647351 
 3010      75657565 
 3010      00
 3011              	.LASF58:
 3012 02e9 6D625F62 		.ascii	"mb_buffer\000"
 3012      75666665 
 3012      7200
 3013              	.LASF72:
 3014 02f3 74696D65 		.ascii	"time\000"
 3014      00
 3015              	.LASF18:
ARM GAS  /tmp/ccdxH1dU.s 			page 56


 3016 02f8 74726566 		.ascii	"trefs_t\000"
 3016      735F7400 
 3017              	.LASF27:
 3018 0300 705F7072 		.ascii	"p_prev\000"
 3018      657600
 3019              	.LASF20:
 3020 0307 74707269 		.ascii	"tprio_t\000"
 3020      6F5F7400 
 3021              	.LASF15:
 3022 030f 5F426F6F 		.ascii	"_Bool\000"
 3022      6C00
 3023              	.LASF13:
 3024 0315 696E7433 		.ascii	"int32_t\000"
 3024      325F7400 
 3025              	.LASF2:
 3026 031d 756E7369 		.ascii	"unsigned char\000"
 3026      676E6564 
 3026      20636861 
 3026      7200
 3027              	.LASF59:
 3028 032b 6D625F74 		.ascii	"mb_top\000"
 3028      6F7000
 3029              	.LASF42:
 3030 0332 705F6D74 		.ascii	"p_mtxlist\000"
 3030      786C6973 
 3030      7400
 3031              	.LASF3:
 3032 033c 73686F72 		.ascii	"short int\000"
 3032      7420696E 
 3032      7400
 3033              	.LASF33:
 3034 0346 705F7374 		.ascii	"p_state\000"
 3034      61746500 
 3035              	.LASF36:
 3036 034e 705F7072 		.ascii	"p_preempt\000"
 3036      65656D70 
 3036      7400
 3037              	.LASF68:
 3038 0358 65776D61 		.ascii	"ewmask\000"
 3038      736B00
 3039              	.LASF26:
 3040 035f 705F6E65 		.ascii	"p_next\000"
 3040      787400
 3041              	.LASF16:
 3042 0366 746D6F64 		.ascii	"tmode_t\000"
 3042      655F7400 
 3043              	.LASF34:
 3044 036e 705F666C 		.ascii	"p_flags\000"
 3044      61677300 
 3045              	.LASF74:
 3046 0376 63684D42 		.ascii	"chMBPost\000"
 3046      506F7374 
 3046      00
 3047              	.LASF25:
 3048 037f 54687265 		.ascii	"Thread\000"
 3048      616400
 3049              	.LASF41:
ARM GAS  /tmp/ccdxH1dU.s 			page 57


 3050 0386 705F6570 		.ascii	"p_epending\000"
 3050      656E6469 
 3050      6E6700
 3051              	.LASF14:
 3052 0391 75696E74 		.ascii	"uint32_t\000"
 3052      33325F74 
 3052      00
 3053              	.LASF69:
 3054 039a 63686172 		.ascii	"char\000"
 3054      00
 3055              	.LASF89:
 3056 039f 63685365 		.ascii	"chSemWaitTimeoutS\000"
 3056      6D576169 
 3056      7454696D 
 3056      656F7574 
 3056      5300
 3057              	.LASF57:
 3058 03b1 6D5F6E65 		.ascii	"m_next\000"
 3058      787400
 3059              	.LASF23:
 3060 03b8 73797374 		.ascii	"systime_t\000"
 3060      696D655F 
 3060      7400
 3061              	.LASF43:
 3062 03c2 705F7265 		.ascii	"p_realprio\000"
 3062      616C7072 
 3062      696F00
 3063              	.LASF6:
 3064 03cd 5F5F696E 		.ascii	"__int32_t\000"
 3064      7433325F 
 3064      7400
 3065              	.LASF37:
 3066 03d7 705F7469 		.ascii	"p_time\000"
 3066      6D6500
 3067              	.LASF77:
 3068 03de 63684D42 		.ascii	"chMBPostAhead\000"
 3068      506F7374 
 3068      41686561 
 3068      6400
 3069              	.LASF48:
 3070 03ec 696E7463 		.ascii	"intctx\000"
 3070      747800
 3071              	.LASF39:
 3072 03f3 705F6D73 		.ascii	"p_msgqueue\000"
 3072      67717565 
 3072      756500
 3073              	.LASF81:
 3074 03fe 63684D42 		.ascii	"chMBFetch\000"
 3074      46657463 
 3074      6800
 3075              	.LASF51:
 3076 0408 53656D61 		.ascii	"Semaphore\000"
 3076      70686F72 
 3076      6500
 3077              	.LASF62:
 3078 0412 6D625F66 		.ascii	"mb_fullsem\000"
 3078      756C6C73 
ARM GAS  /tmp/ccdxH1dU.s 			page 58


 3078      656D00
 3079              	.LASF35:
 3080 041d 705F7265 		.ascii	"p_refs\000"
 3080      667300
 3081              	.LASF84:
 3082 0424 63685365 		.ascii	"chSemResetI\000"
 3082      6D526573 
 3082      65744900 
 3083              	.LASF12:
 3084 0430 75696E74 		.ascii	"uint8_t\000"
 3084      385F7400 
 3085              	.LASF67:
 3086 0438 77746F62 		.ascii	"wtobjp\000"
 3086      6A7000
 3087              	.LASF32:
 3088 043f 705F6E61 		.ascii	"p_name\000"
 3088      6D6500
 3089              	.LASF56:
 3090 0446 6D5F6F77 		.ascii	"m_owner\000"
 3090      6E657200 
 3091              	.LASF29:
 3092 044e 705F6374 		.ascii	"p_ctx\000"
 3092      7800
 3093              	.LASF38:
 3094 0454 705F7761 		.ascii	"p_waiting\000"
 3094      6974696E 
 3094      6700
 3095              	.LASF83:
 3096 045e 63685365 		.ascii	"chSemInit\000"
 3096      6D496E69 
 3096      7400
 3097              		.ident	"GCC: (GNU Tools for ARM Embedded Processors) 4.8.4 20140526 (release) [ARM/embedded-4_8-br
ARM GAS  /tmp/ccdxH1dU.s 			page 59


DEFINED SYMBOLS
                            *ABS*:00000000 chmboxes.c
     /tmp/ccdxH1dU.s:18     .text.chMBInit:00000000 $t
     /tmp/ccdxH1dU.s:23     .text.chMBInit:00000000 chMBInit
     /tmp/ccdxH1dU.s:65     .text.chMBReset:00000000 $t
     /tmp/ccdxH1dU.s:70     .text.chMBReset:00000000 chMBReset
     /tmp/ccdxH1dU.s:119    .text.chMBPostS:00000000 $t
     /tmp/ccdxH1dU.s:124    .text.chMBPostS:00000000 chMBPostS
     /tmp/ccdxH1dU.s:183    .text.chMBPost:00000000 $t
     /tmp/ccdxH1dU.s:188    .text.chMBPost:00000000 chMBPost
     /tmp/ccdxH1dU.s:217    .text.chMBPostI:00000000 $t
     /tmp/ccdxH1dU.s:222    .text.chMBPostI:00000000 chMBPostI
     /tmp/ccdxH1dU.s:275    .text.chMBPostAheadS:00000000 $t
     /tmp/ccdxH1dU.s:280    .text.chMBPostAheadS:00000000 chMBPostAheadS
     /tmp/ccdxH1dU.s:340    .text.chMBPostAhead:00000000 $t
     /tmp/ccdxH1dU.s:345    .text.chMBPostAhead:00000000 chMBPostAhead
     /tmp/ccdxH1dU.s:374    .text.chMBPostAheadI:00000000 $t
     /tmp/ccdxH1dU.s:379    .text.chMBPostAheadI:00000000 chMBPostAheadI
     /tmp/ccdxH1dU.s:433    .text.chMBFetchS:00000000 $t
     /tmp/ccdxH1dU.s:438    .text.chMBFetchS:00000000 chMBFetchS
     /tmp/ccdxH1dU.s:498    .text.chMBFetch:00000000 $t
     /tmp/ccdxH1dU.s:503    .text.chMBFetch:00000000 chMBFetch
     /tmp/ccdxH1dU.s:532    .text.chMBFetchI:00000000 $t
     /tmp/ccdxH1dU.s:537    .text.chMBFetchI:00000000 chMBFetchI
                     .debug_frame:00000010 $d

UNDEFINED SYMBOLS
chSemInit
chSemResetI
chSchRescheduleS
chSemWaitTimeoutS
chSemSignalI
