ARM GAS  /tmp/ccINKJdm.s 			page 1


   1              		.cpu cortex-m0
   2              		.fpu softvfp
   3              		.eabi_attribute 20, 1
   4              		.eabi_attribute 21, 1
   5              		.eabi_attribute 23, 3
   6              		.eabi_attribute 24, 1
   7              		.eabi_attribute 25, 1
   8              		.eabi_attribute 26, 1
   9              		.eabi_attribute 30, 1
  10              		.eabi_attribute 34, 0
  11              		.eabi_attribute 18, 4
  12              		.code	16
  13              		.file	"chmempools.c"
  14              		.text
  15              	.Ltext0:
  16              		.cfi_sections	.debug_frame
  17              		.section	.text.chPoolInit,"ax",%progbits
  18              		.align	2
  19              		.global	chPoolInit
  20              		.code	16
  21              		.thumb_func
  22              		.type	chPoolInit, %function
  23              	chPoolInit:
  24              	.LFB7:
  25              		.file 1 "ChibiOS_2.6.5/os/kernel/src/chmempools.c"
  26              		.loc 1 62 0
  27              		.cfi_startproc
  28              	.LVL0:
  29              		.loc 1 66 0
  30 0000 0023     		mov	r3, #0
  31 0002 0360     		str	r3, [r0]
  32              		.loc 1 67 0
  33 0004 4160     		str	r1, [r0, #4]
  34              		.loc 1 68 0
  35 0006 8260     		str	r2, [r0, #8]
  36              		.loc 1 69 0
  37              		@ sp needed
  38 0008 7047     		bx	lr
  39              		.cfi_endproc
  40              	.LFE7:
  41              		.size	chPoolInit, .-chPoolInit
  42 000a C046     		.section	.text.chPoolAllocI,"ax",%progbits
  43              		.align	2
  44              		.global	chPoolAllocI
  45              		.code	16
  46              		.thumb_func
  47              		.type	chPoolAllocI, %function
  48              	chPoolAllocI:
  49              	.LFB9:
  50              		.loc 1 105 0
  51              		.cfi_startproc
  52              	.LVL1:
  53 0000 08B5     		push	{r3, lr}
  54              		.cfi_def_cfa_offset 8
  55              		.cfi_offset 3, -8
  56              		.cfi_offset 14, -4
  57 0002 031C     		mov	r3, r0
ARM GAS  /tmp/ccINKJdm.s 			page 2


  58              		.loc 1 111 0
  59 0004 0068     		ldr	r0, [r0]
  60              	.LVL2:
  61 0006 0028     		cmp	r0, #0
  62 0008 02D0     		beq	.L3
  63              		.loc 1 112 0
  64 000a 0268     		ldr	r2, [r0]
  65 000c 1A60     		str	r2, [r3]
  66 000e 04E0     		b	.L4
  67              	.L3:
  68              		.loc 1 113 0
  69 0010 9A68     		ldr	r2, [r3, #8]
  70 0012 002A     		cmp	r2, #0
  71 0014 01D0     		beq	.L4
  72              		.loc 1 114 0
  73 0016 5868     		ldr	r0, [r3, #4]
  74              	.LVL3:
  75 0018 9047     		blx	r2
  76              	.LVL4:
  77              	.L4:
  78              		.loc 1 116 0
  79              		@ sp needed
  80 001a 08BD     		pop	{r3, pc}
  81              		.cfi_endproc
  82              	.LFE9:
  83              		.size	chPoolAllocI, .-chPoolAllocI
  84              		.section	.text.chPoolAlloc,"ax",%progbits
  85              		.align	2
  86              		.global	chPoolAlloc
  87              		.code	16
  88              		.thumb_func
  89              		.type	chPoolAlloc, %function
  90              	chPoolAlloc:
  91              	.LFB10:
  92              		.loc 1 128 0
  93              		.cfi_startproc
  94              	.LVL5:
  95 0000 08B5     		push	{r3, lr}
  96              		.cfi_def_cfa_offset 8
  97              		.cfi_offset 3, -8
  98              		.cfi_offset 14, -4
  99              		.loc 1 131 0
 100              	@ 131 "ChibiOS_2.6.5/os/kernel/src/chmempools.c" 1
 101 0002 72B6     		cpsid   i
 102              	@ 0 "" 2
 103              		.loc 1 132 0
 104              		.code	16
 105 0004 FFF7FEFF 		bl	chPoolAllocI
 106              	.LVL6:
 107              		.loc 1 133 0
 108              	@ 133 "ChibiOS_2.6.5/os/kernel/src/chmempools.c" 1
 109 0008 62B6     		cpsie   i
 110              	@ 0 "" 2
 111              		.loc 1 135 0
 112              		.code	16
 113              		@ sp needed
 114 000a 08BD     		pop	{r3, pc}
ARM GAS  /tmp/ccINKJdm.s 			page 3


 115              		.cfi_endproc
 116              	.LFE10:
 117              		.size	chPoolAlloc, .-chPoolAlloc
 118              		.section	.text.chPoolFreeI,"ax",%progbits
 119              		.align	2
 120              		.global	chPoolFreeI
 121              		.code	16
 122              		.thumb_func
 123              		.type	chPoolFreeI, %function
 124              	chPoolFreeI:
 125              	.LFB11:
 126              		.loc 1 149 0
 127              		.cfi_startproc
 128              	.LVL7:
 129              		.loc 1 155 0
 130 0000 0368     		ldr	r3, [r0]
 131 0002 0B60     		str	r3, [r1]
 132              		.loc 1 156 0
 133 0004 0160     		str	r1, [r0]
 134              		.loc 1 157 0
 135              		@ sp needed
 136 0006 7047     		bx	lr
 137              		.cfi_endproc
 138              	.LFE11:
 139              		.size	chPoolFreeI, .-chPoolFreeI
 140              		.section	.text.chPoolFree,"ax",%progbits
 141              		.align	2
 142              		.global	chPoolFree
 143              		.code	16
 144              		.thumb_func
 145              		.type	chPoolFree, %function
 146              	chPoolFree:
 147              	.LFB12:
 148              		.loc 1 171 0
 149              		.cfi_startproc
 150              	.LVL8:
 151              		.loc 1 173 0
 152              	@ 173 "ChibiOS_2.6.5/os/kernel/src/chmempools.c" 1
 153 0000 72B6     		cpsid   i
 154              	@ 0 "" 2
 155              	.LVL9:
 156              		.code	16
 157              	.LBB4:
 158              	.LBB5:
 159              		.loc 1 155 0
 160 0002 0368     		ldr	r3, [r0]
 161 0004 0B60     		str	r3, [r1]
 162              		.loc 1 156 0
 163 0006 0160     		str	r1, [r0]
 164              	.LBE5:
 165              	.LBE4:
 166              		.loc 1 175 0
 167              	@ 175 "ChibiOS_2.6.5/os/kernel/src/chmempools.c" 1
 168 0008 62B6     		cpsie   i
 169              	@ 0 "" 2
 170              		.loc 1 176 0
 171              		.code	16
ARM GAS  /tmp/ccINKJdm.s 			page 4


 172              		@ sp needed
 173 000a 7047     		bx	lr
 174              		.cfi_endproc
 175              	.LFE12:
 176              		.size	chPoolFree, .-chPoolFree
 177              		.section	.text.chPoolLoadArray,"ax",%progbits
 178              		.align	2
 179              		.global	chPoolLoadArray
 180              		.code	16
 181              		.thumb_func
 182              		.type	chPoolLoadArray, %function
 183              	chPoolLoadArray:
 184              	.LFB8:
 185              		.loc 1 84 0
 186              		.cfi_startproc
 187              	.LVL10:
 188 0000 70B5     		push	{r4, r5, r6, lr}
 189              		.cfi_def_cfa_offset 16
 190              		.cfi_offset 4, -16
 191              		.cfi_offset 5, -12
 192              		.cfi_offset 6, -8
 193              		.cfi_offset 14, -4
 194 0002 061C     		mov	r6, r0
 195 0004 0D1C     		mov	r5, r1
 196 0006 141E     		sub	r4, r2, #0
 197              		.loc 1 88 0
 198 0008 08D0     		beq	.L8
 199              	.LVL11:
 200              	.L10:
 201              		.loc 1 89 0
 202 000a 301C     		mov	r0, r6
 203 000c 291C     		mov	r1, r5
 204 000e FFF7FEFF 		bl	chPoolFree
 205              	.LVL12:
 206              		.loc 1 90 0
 207 0012 7368     		ldr	r3, [r6, #4]
 208 0014 ED18     		add	r5, r5, r3
 209              	.LVL13:
 210              		.loc 1 91 0
 211 0016 013C     		sub	r4, r4, #1
 212              	.LVL14:
 213              		.loc 1 88 0
 214 0018 002C     		cmp	r4, #0
 215 001a F6D1     		bne	.L10
 216              	.L8:
 217              		.loc 1 93 0
 218              		@ sp needed
 219              	.LVL15:
 220              	.LVL16:
 221              	.LVL17:
 222 001c 70BD     		pop	{r4, r5, r6, pc}
 223              		.cfi_endproc
 224              	.LFE8:
 225              		.size	chPoolLoadArray, .-chPoolLoadArray
 226 001e C046     		.text
 227              	.Letext0:
 228              		.file 2 "/usr/local/lpcxpresso_7.3.0_186/lpcxpresso/tools/lib/gcc/arm-none-eabi/4.8.4/include/stdd
ARM GAS  /tmp/ccINKJdm.s 			page 5


 229              		.file 3 "/usr/local/lpcxpresso_7.3.0_186/lpcxpresso/tools/arm-none-eabi/include/machine/_default_t
 230              		.file 4 "/usr/local/lpcxpresso_7.3.0_186/lpcxpresso/tools/arm-none-eabi/include/stdint.h"
 231              		.file 5 "ChibiOS_2.6.5/os/kernel/include/chmemcore.h"
 232              		.file 6 "ChibiOS_2.6.5/os/kernel/include/chmempools.h"
 233              		.section	.debug_info,"",%progbits
 234              	.Ldebug_info0:
 235 0000 DA020000 		.4byte	0x2da
 236 0004 0400     		.2byte	0x4
 237 0006 00000000 		.4byte	.Ldebug_abbrev0
 238 000a 04       		.byte	0x4
 239 000b 01       		.uleb128 0x1
 240 000c 36010000 		.4byte	.LASF28
 241 0010 01       		.byte	0x1
 242 0011 20000000 		.4byte	.LASF29
 243 0015 7C000000 		.4byte	.LASF30
 244 0019 00000000 		.4byte	.Ldebug_ranges0+0
 245 001d 00000000 		.4byte	0
 246 0021 00000000 		.4byte	.Ldebug_line0
 247 0025 02       		.uleb128 0x2
 248 0026 04       		.byte	0x4
 249 0027 05       		.byte	0x5
 250 0028 696E7400 		.ascii	"int\000"
 251 002c 03       		.uleb128 0x3
 252 002d 0A000000 		.4byte	.LASF2
 253 0031 02       		.byte	0x2
 254 0032 D4       		.byte	0xd4
 255 0033 37000000 		.4byte	0x37
 256 0037 04       		.uleb128 0x4
 257 0038 04       		.byte	0x4
 258 0039 07       		.byte	0x7
 259 003a F9000000 		.4byte	.LASF0
 260 003e 04       		.uleb128 0x4
 261 003f 01       		.byte	0x1
 262 0040 06       		.byte	0x6
 263 0041 46020000 		.4byte	.LASF1
 264 0045 03       		.uleb128 0x3
 265 0046 00000000 		.4byte	.LASF3
 266 004a 03       		.byte	0x3
 267 004b 1C       		.byte	0x1c
 268 004c 50000000 		.4byte	0x50
 269 0050 04       		.uleb128 0x4
 270 0051 01       		.byte	0x1
 271 0052 08       		.byte	0x8
 272 0053 C3000000 		.4byte	.LASF4
 273 0057 04       		.uleb128 0x4
 274 0058 02       		.byte	0x2
 275 0059 05       		.byte	0x5
 276 005a 27020000 		.4byte	.LASF5
 277 005e 04       		.uleb128 0x4
 278 005f 02       		.byte	0x2
 279 0060 07       		.byte	0x7
 280 0061 9B000000 		.4byte	.LASF6
 281 0065 04       		.uleb128 0x4
 282 0066 04       		.byte	0x4
 283 0067 05       		.byte	0x5
 284 0068 3D020000 		.4byte	.LASF7
 285 006c 04       		.uleb128 0x4
ARM GAS  /tmp/ccINKJdm.s 			page 6


 286 006d 04       		.byte	0x4
 287 006e 07       		.byte	0x7
 288 006f 6A000000 		.4byte	.LASF8
 289 0073 04       		.uleb128 0x4
 290 0074 08       		.byte	0x8
 291 0075 05       		.byte	0x5
 292 0076 FB010000 		.4byte	.LASF9
 293 007a 04       		.uleb128 0x4
 294 007b 08       		.byte	0x8
 295 007c 07       		.byte	0x7
 296 007d 06010000 		.4byte	.LASF10
 297 0081 03       		.uleb128 0x3
 298 0082 1D010000 		.4byte	.LASF11
 299 0086 04       		.byte	0x4
 300 0087 2A       		.byte	0x2a
 301 0088 45000000 		.4byte	0x45
 302 008c 04       		.uleb128 0x4
 303 008d 01       		.byte	0x1
 304 008e 02       		.byte	0x2
 305 008f 5A020000 		.4byte	.LASF12
 306 0093 05       		.uleb128 0x5
 307 0094 04       		.byte	0x4
 308 0095 04       		.uleb128 0x4
 309 0096 04       		.byte	0x4
 310 0097 07       		.byte	0x7
 311 0098 2D010000 		.4byte	.LASF13
 312 009c 03       		.uleb128 0x3
 313 009d 0E020000 		.4byte	.LASF14
 314 00a1 05       		.byte	0x5
 315 00a2 2C       		.byte	0x2c
 316 00a3 A7000000 		.4byte	0xa7
 317 00a7 06       		.uleb128 0x6
 318 00a8 04       		.byte	0x4
 319 00a9 AD000000 		.4byte	0xad
 320 00ad 07       		.uleb128 0x7
 321 00ae 93000000 		.4byte	0x93
 322 00b2 BC000000 		.4byte	0xbc
 323 00b6 08       		.uleb128 0x8
 324 00b7 2C000000 		.4byte	0x2c
 325 00bb 00       		.byte	0
 326 00bc 09       		.uleb128 0x9
 327 00bd 59000000 		.4byte	.LASF31
 328 00c1 04       		.byte	0x4
 329 00c2 06       		.byte	0x6
 330 00c3 2C       		.byte	0x2c
 331 00c4 D5000000 		.4byte	0xd5
 332 00c8 0A       		.uleb128 0xa
 333 00c9 25010000 		.4byte	.LASF15
 334 00cd 06       		.byte	0x6
 335 00ce 2D       		.byte	0x2d
 336 00cf D5000000 		.4byte	0xd5
 337 00d3 00       		.byte	0
 338 00d4 00       		.byte	0
 339 00d5 06       		.uleb128 0x6
 340 00d6 04       		.byte	0x4
 341 00d7 BC000000 		.4byte	0xbc
 342 00db 0B       		.uleb128 0xb
ARM GAS  /tmp/ccINKJdm.s 			page 7


 343 00dc 0C       		.byte	0xc
 344 00dd 06       		.byte	0x6
 345 00de 34       		.byte	0x34
 346 00df 08010000 		.4byte	0x108
 347 00e3 0A       		.uleb128 0xa
 348 00e4 52020000 		.4byte	.LASF16
 349 00e8 06       		.byte	0x6
 350 00e9 35       		.byte	0x35
 351 00ea D5000000 		.4byte	0xd5
 352 00ee 00       		.byte	0
 353 00ef 0A       		.uleb128 0xa
 354 00f0 11000000 		.4byte	.LASF17
 355 00f4 06       		.byte	0x6
 356 00f5 36       		.byte	0x36
 357 00f6 2C000000 		.4byte	0x2c
 358 00fa 04       		.byte	0x4
 359 00fb 0A       		.uleb128 0xa
 360 00fc 1B020000 		.4byte	.LASF18
 361 0100 06       		.byte	0x6
 362 0101 38       		.byte	0x38
 363 0102 9C000000 		.4byte	0x9c
 364 0106 08       		.byte	0x8
 365 0107 00       		.byte	0
 366 0108 03       		.uleb128 0x3
 367 0109 DC000000 		.4byte	.LASF19
 368 010d 06       		.byte	0x6
 369 010e 3A       		.byte	0x3a
 370 010f DB000000 		.4byte	0xdb
 371 0113 04       		.uleb128 0x4
 372 0114 01       		.byte	0x1
 373 0115 08       		.byte	0x8
 374 0116 09020000 		.4byte	.LASF20
 375 011a 0C       		.uleb128 0xc
 376 011b 60020000 		.4byte	.LASF26
 377 011f 01       		.byte	0x1
 378 0120 3E       		.byte	0x3e
 379 0121 00000000 		.4byte	.LFB7
 380 0125 0A000000 		.4byte	.LFE7-.LFB7
 381 0129 01       		.uleb128 0x1
 382 012a 9C       		.byte	0x9c
 383 012b 56010000 		.4byte	0x156
 384 012f 0D       		.uleb128 0xd
 385 0130 6D7000   		.ascii	"mp\000"
 386 0133 01       		.byte	0x1
 387 0134 3E       		.byte	0x3e
 388 0135 56010000 		.4byte	0x156
 389 0139 01       		.uleb128 0x1
 390 013a 50       		.byte	0x50
 391 013b 0E       		.uleb128 0xe
 392 013c 65000000 		.4byte	.LASF21
 393 0140 01       		.byte	0x1
 394 0141 3E       		.byte	0x3e
 395 0142 2C000000 		.4byte	0x2c
 396 0146 01       		.uleb128 0x1
 397 0147 51       		.byte	0x51
 398 0148 0E       		.uleb128 0xe
 399 0149 AE000000 		.4byte	.LASF22
ARM GAS  /tmp/ccINKJdm.s 			page 8


 400 014d 01       		.byte	0x1
 401 014e 3E       		.byte	0x3e
 402 014f 9C000000 		.4byte	0x9c
 403 0153 01       		.uleb128 0x1
 404 0154 52       		.byte	0x52
 405 0155 00       		.byte	0
 406 0156 06       		.uleb128 0x6
 407 0157 04       		.byte	0x4
 408 0158 08010000 		.4byte	0x108
 409 015c 0F       		.uleb128 0xf
 410 015d EC000000 		.4byte	.LASF23
 411 0161 01       		.byte	0x1
 412 0162 69       		.byte	0x69
 413 0163 93000000 		.4byte	0x93
 414 0167 00000000 		.4byte	.LFB9
 415 016b 1C000000 		.4byte	.LFE9-.LFB9
 416 016f 01       		.uleb128 0x1
 417 0170 9C       		.byte	0x9c
 418 0171 93010000 		.4byte	0x193
 419 0175 10       		.uleb128 0x10
 420 0176 6D7000   		.ascii	"mp\000"
 421 0179 01       		.byte	0x1
 422 017a 69       		.byte	0x69
 423 017b 56010000 		.4byte	0x156
 424 017f 00000000 		.4byte	.LLST0
 425 0183 11       		.uleb128 0x11
 426 0184 E7000000 		.4byte	.LASF25
 427 0188 01       		.byte	0x1
 428 0189 6A       		.byte	0x6a
 429 018a 93000000 		.4byte	0x93
 430 018e 2C000000 		.4byte	.LLST1
 431 0192 00       		.byte	0
 432 0193 12       		.uleb128 0x12
 433 0194 31020000 		.4byte	.LASF24
 434 0198 01       		.byte	0x1
 435 0199 80       		.byte	0x80
 436 019a 93000000 		.4byte	0x93
 437 019e 00000000 		.4byte	.LFB10
 438 01a2 0C000000 		.4byte	.LFE10-.LFB10
 439 01a6 01       		.uleb128 0x1
 440 01a7 9C       		.byte	0x9c
 441 01a8 D9010000 		.4byte	0x1d9
 442 01ac 10       		.uleb128 0x10
 443 01ad 6D7000   		.ascii	"mp\000"
 444 01b0 01       		.byte	0x1
 445 01b1 80       		.byte	0x80
 446 01b2 56010000 		.4byte	0x156
 447 01b6 56000000 		.4byte	.LLST2
 448 01ba 13       		.uleb128 0x13
 449 01bb E7000000 		.4byte	.LASF25
 450 01bf 01       		.byte	0x1
 451 01c0 81       		.byte	0x81
 452 01c1 93000000 		.4byte	0x93
 453 01c5 01       		.uleb128 0x1
 454 01c6 50       		.byte	0x50
 455 01c7 14       		.uleb128 0x14
 456 01c8 08000000 		.4byte	.LVL6
ARM GAS  /tmp/ccINKJdm.s 			page 9


 457 01cc 5C010000 		.4byte	0x15c
 458 01d0 15       		.uleb128 0x15
 459 01d1 01       		.uleb128 0x1
 460 01d2 50       		.byte	0x50
 461 01d3 03       		.uleb128 0x3
 462 01d4 F3       		.byte	0xf3
 463 01d5 01       		.uleb128 0x1
 464 01d6 50       		.byte	0x50
 465 01d7 00       		.byte	0
 466 01d8 00       		.byte	0
 467 01d9 16       		.uleb128 0x16
 468 01da B7000000 		.4byte	.LASF32
 469 01de 01       		.byte	0x1
 470 01df 95       		.byte	0x95
 471 01e0 01       		.byte	0x1
 472 01e1 06020000 		.4byte	0x206
 473 01e5 17       		.uleb128 0x17
 474 01e6 6D7000   		.ascii	"mp\000"
 475 01e9 01       		.byte	0x1
 476 01ea 95       		.byte	0x95
 477 01eb 56010000 		.4byte	0x156
 478 01ef 18       		.uleb128 0x18
 479 01f0 E7000000 		.4byte	.LASF25
 480 01f4 01       		.byte	0x1
 481 01f5 95       		.byte	0x95
 482 01f6 93000000 		.4byte	0x93
 483 01fa 19       		.uleb128 0x19
 484 01fb 70687000 		.ascii	"php\000"
 485 01ff 01       		.byte	0x1
 486 0200 96       		.byte	0x96
 487 0201 D5000000 		.4byte	0xd5
 488 0205 00       		.byte	0
 489 0206 1A       		.uleb128 0x1a
 490 0207 D9010000 		.4byte	0x1d9
 491 020b 00000000 		.4byte	.LFB11
 492 020f 08000000 		.4byte	.LFE11-.LFB11
 493 0213 01       		.uleb128 0x1
 494 0214 9C       		.byte	0x9c
 495 0215 2F020000 		.4byte	0x22f
 496 0219 1B       		.uleb128 0x1b
 497 021a E5010000 		.4byte	0x1e5
 498 021e 01       		.uleb128 0x1
 499 021f 50       		.byte	0x50
 500 0220 1B       		.uleb128 0x1b
 501 0221 EF010000 		.4byte	0x1ef
 502 0225 01       		.uleb128 0x1
 503 0226 51       		.byte	0x51
 504 0227 1C       		.uleb128 0x1c
 505 0228 FA010000 		.4byte	0x1fa
 506 022c 01       		.uleb128 0x1
 507 022d 51       		.byte	0x51
 508 022e 00       		.byte	0
 509 022f 0C       		.uleb128 0xc
 510 0230 D1000000 		.4byte	.LASF27
 511 0234 01       		.byte	0x1
 512 0235 AB       		.byte	0xab
 513 0236 00000000 		.4byte	.LFB12
ARM GAS  /tmp/ccINKJdm.s 			page 10


 514 023a 0C000000 		.4byte	.LFE12-.LFB12
 515 023e 01       		.uleb128 0x1
 516 023f 9C       		.byte	0x9c
 517 0240 8D020000 		.4byte	0x28d
 518 0244 0D       		.uleb128 0xd
 519 0245 6D7000   		.ascii	"mp\000"
 520 0248 01       		.byte	0x1
 521 0249 AB       		.byte	0xab
 522 024a 56010000 		.4byte	0x156
 523 024e 01       		.uleb128 0x1
 524 024f 50       		.byte	0x50
 525 0250 0E       		.uleb128 0xe
 526 0251 E7000000 		.4byte	.LASF25
 527 0255 01       		.byte	0x1
 528 0256 AB       		.byte	0xab
 529 0257 93000000 		.4byte	0x93
 530 025b 01       		.uleb128 0x1
 531 025c 51       		.byte	0x51
 532 025d 1D       		.uleb128 0x1d
 533 025e D9010000 		.4byte	0x1d9
 534 0262 02000000 		.4byte	.LBB4
 535 0266 06000000 		.4byte	.LBE4-.LBB4
 536 026a 01       		.byte	0x1
 537 026b AE       		.byte	0xae
 538 026c 1B       		.uleb128 0x1b
 539 026d EF010000 		.4byte	0x1ef
 540 0271 01       		.uleb128 0x1
 541 0272 51       		.byte	0x51
 542 0273 1B       		.uleb128 0x1b
 543 0274 E5010000 		.4byte	0x1e5
 544 0278 01       		.uleb128 0x1
 545 0279 50       		.byte	0x50
 546 027a 1E       		.uleb128 0x1e
 547 027b 02000000 		.4byte	.LBB5
 548 027f 06000000 		.4byte	.LBE5-.LBB5
 549 0283 1C       		.uleb128 0x1c
 550 0284 FA010000 		.4byte	0x1fa
 551 0288 01       		.uleb128 0x1
 552 0289 51       		.byte	0x51
 553 028a 00       		.byte	0
 554 028b 00       		.byte	0
 555 028c 00       		.byte	0
 556 028d 1F       		.uleb128 0x1f
 557 028e 49000000 		.4byte	.LASF33
 558 0292 01       		.byte	0x1
 559 0293 54       		.byte	0x54
 560 0294 00000000 		.4byte	.LFB8
 561 0298 1E000000 		.4byte	.LFE8-.LFB8
 562 029c 01       		.uleb128 0x1
 563 029d 9C       		.byte	0x9c
 564 029e 10       		.uleb128 0x10
 565 029f 6D7000   		.ascii	"mp\000"
 566 02a2 01       		.byte	0x1
 567 02a3 54       		.byte	0x54
 568 02a4 56010000 		.4byte	0x156
 569 02a8 77000000 		.4byte	.LLST3
 570 02ac 10       		.uleb128 0x10
ARM GAS  /tmp/ccINKJdm.s 			page 11


 571 02ad 7000     		.ascii	"p\000"
 572 02af 01       		.byte	0x1
 573 02b0 54       		.byte	0x54
 574 02b1 93000000 		.4byte	0x93
 575 02b5 A3000000 		.4byte	.LLST4
 576 02b9 10       		.uleb128 0x10
 577 02ba 6E00     		.ascii	"n\000"
 578 02bc 01       		.byte	0x1
 579 02bd 54       		.byte	0x54
 580 02be 2C000000 		.4byte	0x2c
 581 02c2 C1000000 		.4byte	.LLST5
 582 02c6 14       		.uleb128 0x14
 583 02c7 12000000 		.4byte	.LVL12
 584 02cb 2F020000 		.4byte	0x22f
 585 02cf 15       		.uleb128 0x15
 586 02d0 01       		.uleb128 0x1
 587 02d1 51       		.byte	0x51
 588 02d2 02       		.uleb128 0x2
 589 02d3 75       		.byte	0x75
 590 02d4 00       		.sleb128 0
 591 02d5 15       		.uleb128 0x15
 592 02d6 01       		.uleb128 0x1
 593 02d7 50       		.byte	0x50
 594 02d8 02       		.uleb128 0x2
 595 02d9 76       		.byte	0x76
 596 02da 00       		.sleb128 0
 597 02db 00       		.byte	0
 598 02dc 00       		.byte	0
 599 02dd 00       		.byte	0
 600              		.section	.debug_abbrev,"",%progbits
 601              	.Ldebug_abbrev0:
 602 0000 01       		.uleb128 0x1
 603 0001 11       		.uleb128 0x11
 604 0002 01       		.byte	0x1
 605 0003 25       		.uleb128 0x25
 606 0004 0E       		.uleb128 0xe
 607 0005 13       		.uleb128 0x13
 608 0006 0B       		.uleb128 0xb
 609 0007 03       		.uleb128 0x3
 610 0008 0E       		.uleb128 0xe
 611 0009 1B       		.uleb128 0x1b
 612 000a 0E       		.uleb128 0xe
 613 000b 55       		.uleb128 0x55
 614 000c 17       		.uleb128 0x17
 615 000d 11       		.uleb128 0x11
 616 000e 01       		.uleb128 0x1
 617 000f 10       		.uleb128 0x10
 618 0010 17       		.uleb128 0x17
 619 0011 00       		.byte	0
 620 0012 00       		.byte	0
 621 0013 02       		.uleb128 0x2
 622 0014 24       		.uleb128 0x24
 623 0015 00       		.byte	0
 624 0016 0B       		.uleb128 0xb
 625 0017 0B       		.uleb128 0xb
 626 0018 3E       		.uleb128 0x3e
 627 0019 0B       		.uleb128 0xb
ARM GAS  /tmp/ccINKJdm.s 			page 12


 628 001a 03       		.uleb128 0x3
 629 001b 08       		.uleb128 0x8
 630 001c 00       		.byte	0
 631 001d 00       		.byte	0
 632 001e 03       		.uleb128 0x3
 633 001f 16       		.uleb128 0x16
 634 0020 00       		.byte	0
 635 0021 03       		.uleb128 0x3
 636 0022 0E       		.uleb128 0xe
 637 0023 3A       		.uleb128 0x3a
 638 0024 0B       		.uleb128 0xb
 639 0025 3B       		.uleb128 0x3b
 640 0026 0B       		.uleb128 0xb
 641 0027 49       		.uleb128 0x49
 642 0028 13       		.uleb128 0x13
 643 0029 00       		.byte	0
 644 002a 00       		.byte	0
 645 002b 04       		.uleb128 0x4
 646 002c 24       		.uleb128 0x24
 647 002d 00       		.byte	0
 648 002e 0B       		.uleb128 0xb
 649 002f 0B       		.uleb128 0xb
 650 0030 3E       		.uleb128 0x3e
 651 0031 0B       		.uleb128 0xb
 652 0032 03       		.uleb128 0x3
 653 0033 0E       		.uleb128 0xe
 654 0034 00       		.byte	0
 655 0035 00       		.byte	0
 656 0036 05       		.uleb128 0x5
 657 0037 0F       		.uleb128 0xf
 658 0038 00       		.byte	0
 659 0039 0B       		.uleb128 0xb
 660 003a 0B       		.uleb128 0xb
 661 003b 00       		.byte	0
 662 003c 00       		.byte	0
 663 003d 06       		.uleb128 0x6
 664 003e 0F       		.uleb128 0xf
 665 003f 00       		.byte	0
 666 0040 0B       		.uleb128 0xb
 667 0041 0B       		.uleb128 0xb
 668 0042 49       		.uleb128 0x49
 669 0043 13       		.uleb128 0x13
 670 0044 00       		.byte	0
 671 0045 00       		.byte	0
 672 0046 07       		.uleb128 0x7
 673 0047 15       		.uleb128 0x15
 674 0048 01       		.byte	0x1
 675 0049 27       		.uleb128 0x27
 676 004a 19       		.uleb128 0x19
 677 004b 49       		.uleb128 0x49
 678 004c 13       		.uleb128 0x13
 679 004d 01       		.uleb128 0x1
 680 004e 13       		.uleb128 0x13
 681 004f 00       		.byte	0
 682 0050 00       		.byte	0
 683 0051 08       		.uleb128 0x8
 684 0052 05       		.uleb128 0x5
ARM GAS  /tmp/ccINKJdm.s 			page 13


 685 0053 00       		.byte	0
 686 0054 49       		.uleb128 0x49
 687 0055 13       		.uleb128 0x13
 688 0056 00       		.byte	0
 689 0057 00       		.byte	0
 690 0058 09       		.uleb128 0x9
 691 0059 13       		.uleb128 0x13
 692 005a 01       		.byte	0x1
 693 005b 03       		.uleb128 0x3
 694 005c 0E       		.uleb128 0xe
 695 005d 0B       		.uleb128 0xb
 696 005e 0B       		.uleb128 0xb
 697 005f 3A       		.uleb128 0x3a
 698 0060 0B       		.uleb128 0xb
 699 0061 3B       		.uleb128 0x3b
 700 0062 0B       		.uleb128 0xb
 701 0063 01       		.uleb128 0x1
 702 0064 13       		.uleb128 0x13
 703 0065 00       		.byte	0
 704 0066 00       		.byte	0
 705 0067 0A       		.uleb128 0xa
 706 0068 0D       		.uleb128 0xd
 707 0069 00       		.byte	0
 708 006a 03       		.uleb128 0x3
 709 006b 0E       		.uleb128 0xe
 710 006c 3A       		.uleb128 0x3a
 711 006d 0B       		.uleb128 0xb
 712 006e 3B       		.uleb128 0x3b
 713 006f 0B       		.uleb128 0xb
 714 0070 49       		.uleb128 0x49
 715 0071 13       		.uleb128 0x13
 716 0072 38       		.uleb128 0x38
 717 0073 0B       		.uleb128 0xb
 718 0074 00       		.byte	0
 719 0075 00       		.byte	0
 720 0076 0B       		.uleb128 0xb
 721 0077 13       		.uleb128 0x13
 722 0078 01       		.byte	0x1
 723 0079 0B       		.uleb128 0xb
 724 007a 0B       		.uleb128 0xb
 725 007b 3A       		.uleb128 0x3a
 726 007c 0B       		.uleb128 0xb
 727 007d 3B       		.uleb128 0x3b
 728 007e 0B       		.uleb128 0xb
 729 007f 01       		.uleb128 0x1
 730 0080 13       		.uleb128 0x13
 731 0081 00       		.byte	0
 732 0082 00       		.byte	0
 733 0083 0C       		.uleb128 0xc
 734 0084 2E       		.uleb128 0x2e
 735 0085 01       		.byte	0x1
 736 0086 3F       		.uleb128 0x3f
 737 0087 19       		.uleb128 0x19
 738 0088 03       		.uleb128 0x3
 739 0089 0E       		.uleb128 0xe
 740 008a 3A       		.uleb128 0x3a
 741 008b 0B       		.uleb128 0xb
ARM GAS  /tmp/ccINKJdm.s 			page 14


 742 008c 3B       		.uleb128 0x3b
 743 008d 0B       		.uleb128 0xb
 744 008e 27       		.uleb128 0x27
 745 008f 19       		.uleb128 0x19
 746 0090 11       		.uleb128 0x11
 747 0091 01       		.uleb128 0x1
 748 0092 12       		.uleb128 0x12
 749 0093 06       		.uleb128 0x6
 750 0094 40       		.uleb128 0x40
 751 0095 18       		.uleb128 0x18
 752 0096 9742     		.uleb128 0x2117
 753 0098 19       		.uleb128 0x19
 754 0099 01       		.uleb128 0x1
 755 009a 13       		.uleb128 0x13
 756 009b 00       		.byte	0
 757 009c 00       		.byte	0
 758 009d 0D       		.uleb128 0xd
 759 009e 05       		.uleb128 0x5
 760 009f 00       		.byte	0
 761 00a0 03       		.uleb128 0x3
 762 00a1 08       		.uleb128 0x8
 763 00a2 3A       		.uleb128 0x3a
 764 00a3 0B       		.uleb128 0xb
 765 00a4 3B       		.uleb128 0x3b
 766 00a5 0B       		.uleb128 0xb
 767 00a6 49       		.uleb128 0x49
 768 00a7 13       		.uleb128 0x13
 769 00a8 02       		.uleb128 0x2
 770 00a9 18       		.uleb128 0x18
 771 00aa 00       		.byte	0
 772 00ab 00       		.byte	0
 773 00ac 0E       		.uleb128 0xe
 774 00ad 05       		.uleb128 0x5
 775 00ae 00       		.byte	0
 776 00af 03       		.uleb128 0x3
 777 00b0 0E       		.uleb128 0xe
 778 00b1 3A       		.uleb128 0x3a
 779 00b2 0B       		.uleb128 0xb
 780 00b3 3B       		.uleb128 0x3b
 781 00b4 0B       		.uleb128 0xb
 782 00b5 49       		.uleb128 0x49
 783 00b6 13       		.uleb128 0x13
 784 00b7 02       		.uleb128 0x2
 785 00b8 18       		.uleb128 0x18
 786 00b9 00       		.byte	0
 787 00ba 00       		.byte	0
 788 00bb 0F       		.uleb128 0xf
 789 00bc 2E       		.uleb128 0x2e
 790 00bd 01       		.byte	0x1
 791 00be 3F       		.uleb128 0x3f
 792 00bf 19       		.uleb128 0x19
 793 00c0 03       		.uleb128 0x3
 794 00c1 0E       		.uleb128 0xe
 795 00c2 3A       		.uleb128 0x3a
 796 00c3 0B       		.uleb128 0xb
 797 00c4 3B       		.uleb128 0x3b
 798 00c5 0B       		.uleb128 0xb
ARM GAS  /tmp/ccINKJdm.s 			page 15


 799 00c6 27       		.uleb128 0x27
 800 00c7 19       		.uleb128 0x19
 801 00c8 49       		.uleb128 0x49
 802 00c9 13       		.uleb128 0x13
 803 00ca 11       		.uleb128 0x11
 804 00cb 01       		.uleb128 0x1
 805 00cc 12       		.uleb128 0x12
 806 00cd 06       		.uleb128 0x6
 807 00ce 40       		.uleb128 0x40
 808 00cf 18       		.uleb128 0x18
 809 00d0 9642     		.uleb128 0x2116
 810 00d2 19       		.uleb128 0x19
 811 00d3 01       		.uleb128 0x1
 812 00d4 13       		.uleb128 0x13
 813 00d5 00       		.byte	0
 814 00d6 00       		.byte	0
 815 00d7 10       		.uleb128 0x10
 816 00d8 05       		.uleb128 0x5
 817 00d9 00       		.byte	0
 818 00da 03       		.uleb128 0x3
 819 00db 08       		.uleb128 0x8
 820 00dc 3A       		.uleb128 0x3a
 821 00dd 0B       		.uleb128 0xb
 822 00de 3B       		.uleb128 0x3b
 823 00df 0B       		.uleb128 0xb
 824 00e0 49       		.uleb128 0x49
 825 00e1 13       		.uleb128 0x13
 826 00e2 02       		.uleb128 0x2
 827 00e3 17       		.uleb128 0x17
 828 00e4 00       		.byte	0
 829 00e5 00       		.byte	0
 830 00e6 11       		.uleb128 0x11
 831 00e7 34       		.uleb128 0x34
 832 00e8 00       		.byte	0
 833 00e9 03       		.uleb128 0x3
 834 00ea 0E       		.uleb128 0xe
 835 00eb 3A       		.uleb128 0x3a
 836 00ec 0B       		.uleb128 0xb
 837 00ed 3B       		.uleb128 0x3b
 838 00ee 0B       		.uleb128 0xb
 839 00ef 49       		.uleb128 0x49
 840 00f0 13       		.uleb128 0x13
 841 00f1 02       		.uleb128 0x2
 842 00f2 17       		.uleb128 0x17
 843 00f3 00       		.byte	0
 844 00f4 00       		.byte	0
 845 00f5 12       		.uleb128 0x12
 846 00f6 2E       		.uleb128 0x2e
 847 00f7 01       		.byte	0x1
 848 00f8 3F       		.uleb128 0x3f
 849 00f9 19       		.uleb128 0x19
 850 00fa 03       		.uleb128 0x3
 851 00fb 0E       		.uleb128 0xe
 852 00fc 3A       		.uleb128 0x3a
 853 00fd 0B       		.uleb128 0xb
 854 00fe 3B       		.uleb128 0x3b
 855 00ff 0B       		.uleb128 0xb
ARM GAS  /tmp/ccINKJdm.s 			page 16


 856 0100 27       		.uleb128 0x27
 857 0101 19       		.uleb128 0x19
 858 0102 49       		.uleb128 0x49
 859 0103 13       		.uleb128 0x13
 860 0104 11       		.uleb128 0x11
 861 0105 01       		.uleb128 0x1
 862 0106 12       		.uleb128 0x12
 863 0107 06       		.uleb128 0x6
 864 0108 40       		.uleb128 0x40
 865 0109 18       		.uleb128 0x18
 866 010a 9742     		.uleb128 0x2117
 867 010c 19       		.uleb128 0x19
 868 010d 01       		.uleb128 0x1
 869 010e 13       		.uleb128 0x13
 870 010f 00       		.byte	0
 871 0110 00       		.byte	0
 872 0111 13       		.uleb128 0x13
 873 0112 34       		.uleb128 0x34
 874 0113 00       		.byte	0
 875 0114 03       		.uleb128 0x3
 876 0115 0E       		.uleb128 0xe
 877 0116 3A       		.uleb128 0x3a
 878 0117 0B       		.uleb128 0xb
 879 0118 3B       		.uleb128 0x3b
 880 0119 0B       		.uleb128 0xb
 881 011a 49       		.uleb128 0x49
 882 011b 13       		.uleb128 0x13
 883 011c 02       		.uleb128 0x2
 884 011d 18       		.uleb128 0x18
 885 011e 00       		.byte	0
 886 011f 00       		.byte	0
 887 0120 14       		.uleb128 0x14
 888 0121 898201   		.uleb128 0x4109
 889 0124 01       		.byte	0x1
 890 0125 11       		.uleb128 0x11
 891 0126 01       		.uleb128 0x1
 892 0127 31       		.uleb128 0x31
 893 0128 13       		.uleb128 0x13
 894 0129 00       		.byte	0
 895 012a 00       		.byte	0
 896 012b 15       		.uleb128 0x15
 897 012c 8A8201   		.uleb128 0x410a
 898 012f 00       		.byte	0
 899 0130 02       		.uleb128 0x2
 900 0131 18       		.uleb128 0x18
 901 0132 9142     		.uleb128 0x2111
 902 0134 18       		.uleb128 0x18
 903 0135 00       		.byte	0
 904 0136 00       		.byte	0
 905 0137 16       		.uleb128 0x16
 906 0138 2E       		.uleb128 0x2e
 907 0139 01       		.byte	0x1
 908 013a 3F       		.uleb128 0x3f
 909 013b 19       		.uleb128 0x19
 910 013c 03       		.uleb128 0x3
 911 013d 0E       		.uleb128 0xe
 912 013e 3A       		.uleb128 0x3a
ARM GAS  /tmp/ccINKJdm.s 			page 17


 913 013f 0B       		.uleb128 0xb
 914 0140 3B       		.uleb128 0x3b
 915 0141 0B       		.uleb128 0xb
 916 0142 27       		.uleb128 0x27
 917 0143 19       		.uleb128 0x19
 918 0144 20       		.uleb128 0x20
 919 0145 0B       		.uleb128 0xb
 920 0146 01       		.uleb128 0x1
 921 0147 13       		.uleb128 0x13
 922 0148 00       		.byte	0
 923 0149 00       		.byte	0
 924 014a 17       		.uleb128 0x17
 925 014b 05       		.uleb128 0x5
 926 014c 00       		.byte	0
 927 014d 03       		.uleb128 0x3
 928 014e 08       		.uleb128 0x8
 929 014f 3A       		.uleb128 0x3a
 930 0150 0B       		.uleb128 0xb
 931 0151 3B       		.uleb128 0x3b
 932 0152 0B       		.uleb128 0xb
 933 0153 49       		.uleb128 0x49
 934 0154 13       		.uleb128 0x13
 935 0155 00       		.byte	0
 936 0156 00       		.byte	0
 937 0157 18       		.uleb128 0x18
 938 0158 05       		.uleb128 0x5
 939 0159 00       		.byte	0
 940 015a 03       		.uleb128 0x3
 941 015b 0E       		.uleb128 0xe
 942 015c 3A       		.uleb128 0x3a
 943 015d 0B       		.uleb128 0xb
 944 015e 3B       		.uleb128 0x3b
 945 015f 0B       		.uleb128 0xb
 946 0160 49       		.uleb128 0x49
 947 0161 13       		.uleb128 0x13
 948 0162 00       		.byte	0
 949 0163 00       		.byte	0
 950 0164 19       		.uleb128 0x19
 951 0165 34       		.uleb128 0x34
 952 0166 00       		.byte	0
 953 0167 03       		.uleb128 0x3
 954 0168 08       		.uleb128 0x8
 955 0169 3A       		.uleb128 0x3a
 956 016a 0B       		.uleb128 0xb
 957 016b 3B       		.uleb128 0x3b
 958 016c 0B       		.uleb128 0xb
 959 016d 49       		.uleb128 0x49
 960 016e 13       		.uleb128 0x13
 961 016f 00       		.byte	0
 962 0170 00       		.byte	0
 963 0171 1A       		.uleb128 0x1a
 964 0172 2E       		.uleb128 0x2e
 965 0173 01       		.byte	0x1
 966 0174 31       		.uleb128 0x31
 967 0175 13       		.uleb128 0x13
 968 0176 11       		.uleb128 0x11
 969 0177 01       		.uleb128 0x1
ARM GAS  /tmp/ccINKJdm.s 			page 18


 970 0178 12       		.uleb128 0x12
 971 0179 06       		.uleb128 0x6
 972 017a 40       		.uleb128 0x40
 973 017b 18       		.uleb128 0x18
 974 017c 9742     		.uleb128 0x2117
 975 017e 19       		.uleb128 0x19
 976 017f 01       		.uleb128 0x1
 977 0180 13       		.uleb128 0x13
 978 0181 00       		.byte	0
 979 0182 00       		.byte	0
 980 0183 1B       		.uleb128 0x1b
 981 0184 05       		.uleb128 0x5
 982 0185 00       		.byte	0
 983 0186 31       		.uleb128 0x31
 984 0187 13       		.uleb128 0x13
 985 0188 02       		.uleb128 0x2
 986 0189 18       		.uleb128 0x18
 987 018a 00       		.byte	0
 988 018b 00       		.byte	0
 989 018c 1C       		.uleb128 0x1c
 990 018d 34       		.uleb128 0x34
 991 018e 00       		.byte	0
 992 018f 31       		.uleb128 0x31
 993 0190 13       		.uleb128 0x13
 994 0191 02       		.uleb128 0x2
 995 0192 18       		.uleb128 0x18
 996 0193 00       		.byte	0
 997 0194 00       		.byte	0
 998 0195 1D       		.uleb128 0x1d
 999 0196 1D       		.uleb128 0x1d
 1000 0197 01       		.byte	0x1
 1001 0198 31       		.uleb128 0x31
 1002 0199 13       		.uleb128 0x13
 1003 019a 11       		.uleb128 0x11
 1004 019b 01       		.uleb128 0x1
 1005 019c 12       		.uleb128 0x12
 1006 019d 06       		.uleb128 0x6
 1007 019e 58       		.uleb128 0x58
 1008 019f 0B       		.uleb128 0xb
 1009 01a0 59       		.uleb128 0x59
 1010 01a1 0B       		.uleb128 0xb
 1011 01a2 00       		.byte	0
 1012 01a3 00       		.byte	0
 1013 01a4 1E       		.uleb128 0x1e
 1014 01a5 0B       		.uleb128 0xb
 1015 01a6 01       		.byte	0x1
 1016 01a7 11       		.uleb128 0x11
 1017 01a8 01       		.uleb128 0x1
 1018 01a9 12       		.uleb128 0x12
 1019 01aa 06       		.uleb128 0x6
 1020 01ab 00       		.byte	0
 1021 01ac 00       		.byte	0
 1022 01ad 1F       		.uleb128 0x1f
 1023 01ae 2E       		.uleb128 0x2e
 1024 01af 01       		.byte	0x1
 1025 01b0 3F       		.uleb128 0x3f
 1026 01b1 19       		.uleb128 0x19
ARM GAS  /tmp/ccINKJdm.s 			page 19


 1027 01b2 03       		.uleb128 0x3
 1028 01b3 0E       		.uleb128 0xe
 1029 01b4 3A       		.uleb128 0x3a
 1030 01b5 0B       		.uleb128 0xb
 1031 01b6 3B       		.uleb128 0x3b
 1032 01b7 0B       		.uleb128 0xb
 1033 01b8 27       		.uleb128 0x27
 1034 01b9 19       		.uleb128 0x19
 1035 01ba 11       		.uleb128 0x11
 1036 01bb 01       		.uleb128 0x1
 1037 01bc 12       		.uleb128 0x12
 1038 01bd 06       		.uleb128 0x6
 1039 01be 40       		.uleb128 0x40
 1040 01bf 18       		.uleb128 0x18
 1041 01c0 9742     		.uleb128 0x2117
 1042 01c2 19       		.uleb128 0x19
 1043 01c3 00       		.byte	0
 1044 01c4 00       		.byte	0
 1045 01c5 00       		.byte	0
 1046              		.section	.debug_loc,"",%progbits
 1047              	.Ldebug_loc0:
 1048              	.LLST0:
 1049 0000 00000000 		.4byte	.LVL1
 1050 0004 06000000 		.4byte	.LVL2
 1051 0008 0100     		.2byte	0x1
 1052 000a 50       		.byte	0x50
 1053 000b 06000000 		.4byte	.LVL2
 1054 000f 19000000 		.4byte	.LVL4-1
 1055 0013 0100     		.2byte	0x1
 1056 0015 53       		.byte	0x53
 1057 0016 19000000 		.4byte	.LVL4-1
 1058 001a 1C000000 		.4byte	.LFE9
 1059 001e 0400     		.2byte	0x4
 1060 0020 F3       		.byte	0xf3
 1061 0021 01       		.uleb128 0x1
 1062 0022 50       		.byte	0x50
 1063 0023 9F       		.byte	0x9f
 1064 0024 00000000 		.4byte	0
 1065 0028 00000000 		.4byte	0
 1066              	.LLST1:
 1067 002c 06000000 		.4byte	.LVL2
 1068 0030 18000000 		.4byte	.LVL3
 1069 0034 0100     		.2byte	0x1
 1070 0036 50       		.byte	0x50
 1071 0037 18000000 		.4byte	.LVL3
 1072 003b 19000000 		.4byte	.LVL4-1
 1073 003f 0200     		.2byte	0x2
 1074 0041 73       		.byte	0x73
 1075 0042 00       		.sleb128 0
 1076 0043 1A000000 		.4byte	.LVL4
 1077 0047 1C000000 		.4byte	.LFE9
 1078 004b 0100     		.2byte	0x1
 1079 004d 50       		.byte	0x50
 1080 004e 00000000 		.4byte	0
 1081 0052 00000000 		.4byte	0
 1082              	.LLST2:
 1083 0056 00000000 		.4byte	.LVL5
ARM GAS  /tmp/ccINKJdm.s 			page 20


 1084 005a 07000000 		.4byte	.LVL6-1
 1085 005e 0100     		.2byte	0x1
 1086 0060 50       		.byte	0x50
 1087 0061 07000000 		.4byte	.LVL6-1
 1088 0065 0C000000 		.4byte	.LFE10
 1089 0069 0400     		.2byte	0x4
 1090 006b F3       		.byte	0xf3
 1091 006c 01       		.uleb128 0x1
 1092 006d 50       		.byte	0x50
 1093 006e 9F       		.byte	0x9f
 1094 006f 00000000 		.4byte	0
 1095 0073 00000000 		.4byte	0
 1096              	.LLST3:
 1097 0077 00000000 		.4byte	.LVL10
 1098 007b 0A000000 		.4byte	.LVL11
 1099 007f 0100     		.2byte	0x1
 1100 0081 50       		.byte	0x50
 1101 0082 0A000000 		.4byte	.LVL11
 1102 0086 1C000000 		.4byte	.LVL17
 1103 008a 0100     		.2byte	0x1
 1104 008c 56       		.byte	0x56
 1105 008d 1C000000 		.4byte	.LVL17
 1106 0091 1E000000 		.4byte	.LFE8
 1107 0095 0400     		.2byte	0x4
 1108 0097 F3       		.byte	0xf3
 1109 0098 01       		.uleb128 0x1
 1110 0099 50       		.byte	0x50
 1111 009a 9F       		.byte	0x9f
 1112 009b 00000000 		.4byte	0
 1113 009f 00000000 		.4byte	0
 1114              	.LLST4:
 1115 00a3 00000000 		.4byte	.LVL10
 1116 00a7 0A000000 		.4byte	.LVL11
 1117 00ab 0100     		.2byte	0x1
 1118 00ad 51       		.byte	0x51
 1119 00ae 0A000000 		.4byte	.LVL11
 1120 00b2 1C000000 		.4byte	.LVL16
 1121 00b6 0100     		.2byte	0x1
 1122 00b8 55       		.byte	0x55
 1123 00b9 00000000 		.4byte	0
 1124 00bd 00000000 		.4byte	0
 1125              	.LLST5:
 1126 00c1 00000000 		.4byte	.LVL10
 1127 00c5 0A000000 		.4byte	.LVL11
 1128 00c9 0100     		.2byte	0x1
 1129 00cb 52       		.byte	0x52
 1130 00cc 0A000000 		.4byte	.LVL11
 1131 00d0 1C000000 		.4byte	.LVL15
 1132 00d4 0100     		.2byte	0x1
 1133 00d6 54       		.byte	0x54
 1134 00d7 00000000 		.4byte	0
 1135 00db 00000000 		.4byte	0
 1136              		.section	.debug_aranges,"",%progbits
 1137 0000 44000000 		.4byte	0x44
 1138 0004 0200     		.2byte	0x2
 1139 0006 00000000 		.4byte	.Ldebug_info0
 1140 000a 04       		.byte	0x4
ARM GAS  /tmp/ccINKJdm.s 			page 21


 1141 000b 00       		.byte	0
 1142 000c 0000     		.2byte	0
 1143 000e 0000     		.2byte	0
 1144 0010 00000000 		.4byte	.LFB7
 1145 0014 0A000000 		.4byte	.LFE7-.LFB7
 1146 0018 00000000 		.4byte	.LFB9
 1147 001c 1C000000 		.4byte	.LFE9-.LFB9
 1148 0020 00000000 		.4byte	.LFB10
 1149 0024 0C000000 		.4byte	.LFE10-.LFB10
 1150 0028 00000000 		.4byte	.LFB11
 1151 002c 08000000 		.4byte	.LFE11-.LFB11
 1152 0030 00000000 		.4byte	.LFB12
 1153 0034 0C000000 		.4byte	.LFE12-.LFB12
 1154 0038 00000000 		.4byte	.LFB8
 1155 003c 1E000000 		.4byte	.LFE8-.LFB8
 1156 0040 00000000 		.4byte	0
 1157 0044 00000000 		.4byte	0
 1158              		.section	.debug_ranges,"",%progbits
 1159              	.Ldebug_ranges0:
 1160 0000 00000000 		.4byte	.LFB7
 1161 0004 0A000000 		.4byte	.LFE7
 1162 0008 00000000 		.4byte	.LFB9
 1163 000c 1C000000 		.4byte	.LFE9
 1164 0010 00000000 		.4byte	.LFB10
 1165 0014 0C000000 		.4byte	.LFE10
 1166 0018 00000000 		.4byte	.LFB11
 1167 001c 08000000 		.4byte	.LFE11
 1168 0020 00000000 		.4byte	.LFB12
 1169 0024 0C000000 		.4byte	.LFE12
 1170 0028 00000000 		.4byte	.LFB8
 1171 002c 1E000000 		.4byte	.LFE8
 1172 0030 00000000 		.4byte	0
 1173 0034 00000000 		.4byte	0
 1174              		.section	.debug_line,"",%progbits
 1175              	.Ldebug_line0:
 1176 0000 19020000 		.section	.debug_str,"MS",%progbits,1
 1176      02009501 
 1176      00000201 
 1176      FB0E0D00 
 1176      01010101 
 1177              	.LASF3:
 1178 0000 5F5F7569 		.ascii	"__uint8_t\000"
 1178      6E74385F 
 1178      7400
 1179              	.LASF2:
 1180 000a 73697A65 		.ascii	"size_t\000"
 1180      5F7400
 1181              	.LASF17:
 1182 0011 6D705F6F 		.ascii	"mp_object_size\000"
 1182      626A6563 
 1182      745F7369 
 1182      7A6500
 1183              	.LASF29:
 1184 0020 43686962 		.ascii	"ChibiOS_2.6.5/os/kernel/src/chmempools.c\000"
 1184      694F535F 
 1184      322E362E 
 1184      352F6F73 
ARM GAS  /tmp/ccINKJdm.s 			page 22


 1184      2F6B6572 
 1185              	.LASF33:
 1186 0049 6368506F 		.ascii	"chPoolLoadArray\000"
 1186      6F6C4C6F 
 1186      61644172 
 1186      72617900 
 1187              	.LASF31:
 1188 0059 706F6F6C 		.ascii	"pool_header\000"
 1188      5F686561 
 1188      64657200 
 1189              	.LASF21:
 1190 0065 73697A65 		.ascii	"size\000"
 1190      00
 1191              	.LASF8:
 1192 006a 6C6F6E67 		.ascii	"long unsigned int\000"
 1192      20756E73 
 1192      69676E65 
 1192      6420696E 
 1192      7400
 1193              	.LASF30:
 1194 007c 2F484444 		.ascii	"/HDD/GIT/variometer/Altimeter/\000"
 1194      2F474954 
 1194      2F766172 
 1194      696F6D65 
 1194      7465722F 
 1195              	.LASF6:
 1196 009b 73686F72 		.ascii	"short unsigned int\000"
 1196      7420756E 
 1196      7369676E 
 1196      65642069 
 1196      6E7400
 1197              	.LASF22:
 1198 00ae 70726F76 		.ascii	"provider\000"
 1198      69646572 
 1198      00
 1199              	.LASF32:
 1200 00b7 6368506F 		.ascii	"chPoolFreeI\000"
 1200      6F6C4672 
 1200      65654900 
 1201              	.LASF4:
 1202 00c3 756E7369 		.ascii	"unsigned char\000"
 1202      676E6564 
 1202      20636861 
 1202      7200
 1203              	.LASF27:
 1204 00d1 6368506F 		.ascii	"chPoolFree\000"
 1204      6F6C4672 
 1204      656500
 1205              	.LASF19:
 1206 00dc 4D656D6F 		.ascii	"MemoryPool\000"
 1206      7279506F 
 1206      6F6C00
 1207              	.LASF25:
 1208 00e7 6F626A70 		.ascii	"objp\000"
 1208      00
 1209              	.LASF23:
 1210 00ec 6368506F 		.ascii	"chPoolAllocI\000"
ARM GAS  /tmp/ccINKJdm.s 			page 23


 1210      6F6C416C 
 1210      6C6F6349 
 1210      00
 1211              	.LASF0:
 1212 00f9 756E7369 		.ascii	"unsigned int\000"
 1212      676E6564 
 1212      20696E74 
 1212      00
 1213              	.LASF10:
 1214 0106 6C6F6E67 		.ascii	"long long unsigned int\000"
 1214      206C6F6E 
 1214      6720756E 
 1214      7369676E 
 1214      65642069 
 1215              	.LASF11:
 1216 011d 75696E74 		.ascii	"uint8_t\000"
 1216      385F7400 
 1217              	.LASF15:
 1218 0125 70685F6E 		.ascii	"ph_next\000"
 1218      65787400 
 1219              	.LASF13:
 1220 012d 73697A65 		.ascii	"sizetype\000"
 1220      74797065 
 1220      00
 1221              	.LASF28:
 1222 0136 474E5520 		.ascii	"GNU C 4.8.4 20140526 (release) [ARM/embedded-4_8-br"
 1222      4320342E 
 1222      382E3420 
 1222      32303134 
 1222      30353236 
 1223 0169 616E6368 		.ascii	"anch revision 211358] -mcpu=cortex-m0 -mno-thumb-in"
 1223      20726576 
 1223      6973696F 
 1223      6E203231 
 1223      31333538 
 1224 019c 74657277 		.ascii	"terwork -mthumb -ggdb -O1 -fomit-frame-pointer -ffu"
 1224      6F726B20 
 1224      2D6D7468 
 1224      756D6220 
 1224      2D676764 
 1225 01cf 6E637469 		.ascii	"nction-sections -fdata-sections -fno-common\000"
 1225      6F6E2D73 
 1225      65637469 
 1225      6F6E7320 
 1225      2D666461 
 1226              	.LASF9:
 1227 01fb 6C6F6E67 		.ascii	"long long int\000"
 1227      206C6F6E 
 1227      6720696E 
 1227      7400
 1228              	.LASF20:
 1229 0209 63686172 		.ascii	"char\000"
 1229      00
 1230              	.LASF14:
 1231 020e 6D656D67 		.ascii	"memgetfunc_t\000"
 1231      65746675 
 1231      6E635F74 
ARM GAS  /tmp/ccINKJdm.s 			page 24


 1231      00
 1232              	.LASF18:
 1233 021b 6D705F70 		.ascii	"mp_provider\000"
 1233      726F7669 
 1233      64657200 
 1234              	.LASF5:
 1235 0227 73686F72 		.ascii	"short int\000"
 1235      7420696E 
 1235      7400
 1236              	.LASF24:
 1237 0231 6368506F 		.ascii	"chPoolAlloc\000"
 1237      6F6C416C 
 1237      6C6F6300 
 1238              	.LASF7:
 1239 023d 6C6F6E67 		.ascii	"long int\000"
 1239      20696E74 
 1239      00
 1240              	.LASF1:
 1241 0246 7369676E 		.ascii	"signed char\000"
 1241      65642063 
 1241      68617200 
 1242              	.LASF16:
 1243 0252 6D705F6E 		.ascii	"mp_next\000"
 1243      65787400 
 1244              	.LASF12:
 1245 025a 5F426F6F 		.ascii	"_Bool\000"
 1245      6C00
 1246              	.LASF26:
 1247 0260 6368506F 		.ascii	"chPoolInit\000"
 1247      6F6C496E 
 1247      697400
 1248              		.ident	"GCC: (GNU Tools for ARM Embedded Processors) 4.8.4 20140526 (release) [ARM/embedded-4_8-br
ARM GAS  /tmp/ccINKJdm.s 			page 25


DEFINED SYMBOLS
                            *ABS*:00000000 chmempools.c
     /tmp/ccINKJdm.s:18     .text.chPoolInit:00000000 $t
     /tmp/ccINKJdm.s:23     .text.chPoolInit:00000000 chPoolInit
     /tmp/ccINKJdm.s:43     .text.chPoolAllocI:00000000 $t
     /tmp/ccINKJdm.s:48     .text.chPoolAllocI:00000000 chPoolAllocI
     /tmp/ccINKJdm.s:85     .text.chPoolAlloc:00000000 $t
     /tmp/ccINKJdm.s:90     .text.chPoolAlloc:00000000 chPoolAlloc
     /tmp/ccINKJdm.s:119    .text.chPoolFreeI:00000000 $t
     /tmp/ccINKJdm.s:124    .text.chPoolFreeI:00000000 chPoolFreeI
     /tmp/ccINKJdm.s:141    .text.chPoolFree:00000000 $t
     /tmp/ccINKJdm.s:146    .text.chPoolFree:00000000 chPoolFree
     /tmp/ccINKJdm.s:178    .text.chPoolLoadArray:00000000 $t
     /tmp/ccINKJdm.s:183    .text.chPoolLoadArray:00000000 chPoolLoadArray
                     .debug_frame:00000010 $d

NO UNDEFINED SYMBOLS
