ARM GAS  /tmp/cc8ALtRe.s 			page 1


   1              		.cpu cortex-m0
   2              		.fpu softvfp
   3              		.eabi_attribute 20, 1
   4              		.eabi_attribute 21, 1
   5              		.eabi_attribute 23, 3
   6              		.eabi_attribute 24, 1
   7              		.eabi_attribute 25, 1
   8              		.eabi_attribute 26, 1
   9              		.eabi_attribute 30, 1
  10              		.eabi_attribute 34, 0
  11              		.eabi_attribute 18, 4
  12              		.code	16
  13              		.file	"chmemcore.c"
  14              		.text
  15              	.Ltext0:
  16              		.cfi_sections	.debug_frame
  17              		.section	.text._core_init,"ax",%progbits
  18              		.align	2
  19              		.global	_core_init
  20              		.code	16
  21              		.thumb_func
  22              		.type	_core_init, %function
  23              	_core_init:
  24              	.LFB7:
  25              		.file 1 "ChibiOS_2.6.5/os/kernel/src/chmemcore.c"
  26              		.loc 1 66 0
  27              		.cfi_startproc
  28              		.loc 1 70 0
  29 0000 0723     		mov	r3, #7
  30 0002 0549     		ldr	r1, .L2
  31 0004 0731     		add	r1, r1, #7
  32 0006 9943     		bic	r1, r3
  33 0008 044A     		ldr	r2, .L2+4
  34 000a 1160     		str	r1, [r2]
  35              		.loc 1 71 0
  36 000c 044A     		ldr	r2, .L2+8
  37 000e 9A43     		bic	r2, r3
  38 0010 044B     		ldr	r3, .L2+12
  39 0012 1A60     		str	r2, [r3]
  40              		.loc 1 77 0
  41              		@ sp needed
  42 0014 7047     		bx	lr
  43              	.L3:
  44 0016 C046     		.align	2
  45              	.L2:
  46 0018 00000000 		.word	__heap_base__
  47 001c 00000000 		.word	.LANCHOR0
  48 0020 00000000 		.word	__heap_end__
  49 0024 00000000 		.word	.LANCHOR1
  50              		.cfi_endproc
  51              	.LFE7:
  52              		.size	_core_init, .-_core_init
  53              		.section	.text.chCoreAllocI,"ax",%progbits
  54              		.align	2
  55              		.global	chCoreAllocI
  56              		.code	16
  57              		.thumb_func
ARM GAS  /tmp/cc8ALtRe.s 			page 2


  58              		.type	chCoreAllocI, %function
  59              	chCoreAllocI:
  60              	.LFB9:
  61              		.loc 1 112 0
  62              		.cfi_startproc
  63              	.LVL0:
  64              		.loc 1 117 0
  65 0000 C31D     		add	r3, r0, #7
  66 0002 0722     		mov	r2, #7
  67 0004 9343     		bic	r3, r2
  68              	.LVL1:
  69              		.loc 1 118 0
  70 0006 064A     		ldr	r2, .L7
  71 0008 1068     		ldr	r0, [r2]
  72 000a 064A     		ldr	r2, .L7+4
  73 000c 1268     		ldr	r2, [r2]
  74 000e 121A     		sub	r2, r2, r0
  75 0010 9342     		cmp	r3, r2
  76 0012 03D8     		bhi	.L6
  77              	.LVL2:
  78              		.loc 1 121 0
  79 0014 C318     		add	r3, r0, r3
  80              	.LVL3:
  81 0016 024A     		ldr	r2, .L7
  82 0018 1360     		str	r3, [r2]
  83              		.loc 1 122 0
  84 001a 00E0     		b	.L5
  85              	.LVL4:
  86              	.L6:
  87              		.loc 1 119 0
  88 001c 0020     		mov	r0, #0
  89              	.LVL5:
  90              	.L5:
  91              		.loc 1 123 0
  92              		@ sp needed
  93 001e 7047     		bx	lr
  94              	.L8:
  95              		.align	2
  96              	.L7:
  97 0020 00000000 		.word	.LANCHOR0
  98 0024 00000000 		.word	.LANCHOR1
  99              		.cfi_endproc
 100              	.LFE9:
 101              		.size	chCoreAllocI, .-chCoreAllocI
 102              		.section	.text.chCoreAlloc,"ax",%progbits
 103              		.align	2
 104              		.global	chCoreAlloc
 105              		.code	16
 106              		.thumb_func
 107              		.type	chCoreAlloc, %function
 108              	chCoreAlloc:
 109              	.LFB8:
 110              		.loc 1 91 0
 111              		.cfi_startproc
 112              	.LVL6:
 113 0000 08B5     		push	{r3, lr}
 114              		.cfi_def_cfa_offset 8
ARM GAS  /tmp/cc8ALtRe.s 			page 3


 115              		.cfi_offset 3, -8
 116              		.cfi_offset 14, -4
 117              		.loc 1 94 0
 118              	@ 94 "ChibiOS_2.6.5/os/kernel/src/chmemcore.c" 1
 119 0002 72B6     		cpsid   i
 120              	@ 0 "" 2
 121              		.loc 1 95 0
 122              		.code	16
 123 0004 FFF7FEFF 		bl	chCoreAllocI
 124              	.LVL7:
 125              		.loc 1 96 0
 126              	@ 96 "ChibiOS_2.6.5/os/kernel/src/chmemcore.c" 1
 127 0008 62B6     		cpsie   i
 128              	@ 0 "" 2
 129              		.loc 1 98 0
 130              		.code	16
 131              		@ sp needed
 132 000a 08BD     		pop	{r3, pc}
 133              		.cfi_endproc
 134              	.LFE8:
 135              		.size	chCoreAlloc, .-chCoreAlloc
 136              		.section	.text.chCoreStatus,"ax",%progbits
 137              		.align	2
 138              		.global	chCoreStatus
 139              		.code	16
 140              		.thumb_func
 141              		.type	chCoreStatus, %function
 142              	chCoreStatus:
 143              	.LFB10:
 144              		.loc 1 132 0
 145              		.cfi_startproc
 146              		.loc 1 134 0
 147 0000 024B     		ldr	r3, .L11
 148 0002 1868     		ldr	r0, [r3]
 149 0004 024B     		ldr	r3, .L11+4
 150 0006 1B68     		ldr	r3, [r3]
 151 0008 C01A     		sub	r0, r0, r3
 152              		.loc 1 135 0
 153              		@ sp needed
 154 000a 7047     		bx	lr
 155              	.L12:
 156              		.align	2
 157              	.L11:
 158 000c 00000000 		.word	.LANCHOR1
 159 0010 00000000 		.word	.LANCHOR0
 160              		.cfi_endproc
 161              	.LFE10:
 162              		.size	chCoreStatus, .-chCoreStatus
 163              		.section	.bss.endmem,"aw",%nobits
 164              		.align	2
 165              		.set	.LANCHOR1,. + 0
 166              		.type	endmem, %object
 167              		.size	endmem, 4
 168              	endmem:
 169 0000 00000000 		.space	4
 170              		.section	.bss.nextmem,"aw",%nobits
 171              		.align	2
ARM GAS  /tmp/cc8ALtRe.s 			page 4


 172              		.set	.LANCHOR0,. + 0
 173              		.type	nextmem, %object
 174              		.size	nextmem, 4
 175              	nextmem:
 176 0000 00000000 		.space	4
 177              		.text
 178              	.Letext0:
 179              		.file 2 "/usr/local/lpcxpresso_7.3.0_186/lpcxpresso/tools/lib/gcc/arm-none-eabi/4.8.4/include/stdd
 180              		.file 3 "/usr/local/lpcxpresso_7.3.0_186/lpcxpresso/tools/arm-none-eabi/include/machine/_default_t
 181              		.file 4 "/usr/local/lpcxpresso_7.3.0_186/lpcxpresso/tools/arm-none-eabi/include/stdint.h"
 182              		.section	.debug_info,"",%progbits
 183              	.Ldebug_info0:
 184 0000 A5010000 		.4byte	0x1a5
 185 0004 0400     		.2byte	0x4
 186 0006 00000000 		.4byte	.Ldebug_abbrev0
 187 000a 04       		.byte	0x4
 188 000b 01       		.uleb128 0x1
 189 000c 5D000000 		.4byte	.LASF22
 190 0010 01       		.byte	0x1
 191 0011 43010000 		.4byte	.LASF23
 192 0015 C6010000 		.4byte	.LASF24
 193 0019 00000000 		.4byte	.Ldebug_ranges0+0
 194 001d 00000000 		.4byte	0
 195 0021 00000000 		.4byte	.Ldebug_line0
 196 0025 02       		.uleb128 0x2
 197 0026 04       		.byte	0x4
 198 0027 05       		.byte	0x5
 199 0028 696E7400 		.ascii	"int\000"
 200 002c 03       		.uleb128 0x3
 201 002d 21000000 		.4byte	.LASF2
 202 0031 02       		.byte	0x2
 203 0032 D4       		.byte	0xd4
 204 0033 37000000 		.4byte	0x37
 205 0037 04       		.uleb128 0x4
 206 0038 04       		.byte	0x4
 207 0039 07       		.byte	0x7
 208 003a FA010000 		.4byte	.LASF0
 209 003e 04       		.uleb128 0x4
 210 003f 01       		.byte	0x1
 211 0040 06       		.byte	0x6
 212 0041 B5010000 		.4byte	.LASF1
 213 0045 03       		.uleb128 0x3
 214 0046 39010000 		.4byte	.LASF3
 215 004a 03       		.byte	0x3
 216 004b 1C       		.byte	0x1c
 217 004c 50000000 		.4byte	0x50
 218 0050 04       		.uleb128 0x4
 219 0051 01       		.byte	0x1
 220 0052 08       		.byte	0x8
 221 0053 73010000 		.4byte	.LASF4
 222 0057 04       		.uleb128 0x4
 223 0058 02       		.byte	0x2
 224 0059 05       		.byte	0x5
 225 005a F0010000 		.4byte	.LASF5
 226 005e 04       		.uleb128 0x4
 227 005f 02       		.byte	0x2
 228 0060 07       		.byte	0x7
ARM GAS  /tmp/cc8ALtRe.s 			page 5


 229 0061 0E000000 		.4byte	.LASF6
 230 0065 04       		.uleb128 0x4
 231 0066 04       		.byte	0x4
 232 0067 05       		.byte	0x5
 233 0068 92010000 		.4byte	.LASF7
 234 006c 04       		.uleb128 0x4
 235 006d 04       		.byte	0x4
 236 006e 07       		.byte	0x7
 237 006f 4B000000 		.4byte	.LASF8
 238 0073 04       		.uleb128 0x4
 239 0074 08       		.byte	0x8
 240 0075 05       		.byte	0x5
 241 0076 00000000 		.4byte	.LASF9
 242 007a 04       		.uleb128 0x4
 243 007b 08       		.byte	0x8
 244 007c 07       		.byte	0x7
 245 007d 22010000 		.4byte	.LASF10
 246 0081 03       		.uleb128 0x3
 247 0082 6B010000 		.4byte	.LASF11
 248 0086 04       		.byte	0x4
 249 0087 2A       		.byte	0x2a
 250 0088 45000000 		.4byte	0x45
 251 008c 04       		.uleb128 0x4
 252 008d 01       		.byte	0x1
 253 008e 02       		.byte	0x2
 254 008f 9B010000 		.4byte	.LASF12
 255 0093 05       		.uleb128 0x5
 256 0094 04       		.byte	0x4
 257 0095 04       		.uleb128 0x4
 258 0096 04       		.byte	0x4
 259 0097 07       		.byte	0x7
 260 0098 07020000 		.4byte	.LASF13
 261 009c 04       		.uleb128 0x4
 262 009d 01       		.byte	0x1
 263 009e 08       		.byte	0x8
 264 009f 81010000 		.4byte	.LASF14
 265 00a3 06       		.uleb128 0x6
 266 00a4 04       		.byte	0x4
 267 00a5 81000000 		.4byte	0x81
 268 00a9 07       		.uleb128 0x7
 269 00aa E5010000 		.4byte	.LASF25
 270 00ae 01       		.byte	0x1
 271 00af 42       		.byte	0x42
 272 00b0 00000000 		.4byte	.LFB7
 273 00b4 28000000 		.4byte	.LFE7-.LFB7
 274 00b8 01       		.uleb128 0x1
 275 00b9 9C       		.byte	0x9c
 276 00ba D5000000 		.4byte	0xd5
 277 00be 08       		.uleb128 0x8
 278 00bf 3D000000 		.4byte	.LASF15
 279 00c3 01       		.byte	0x1
 280 00c4 44       		.byte	0x44
 281 00c5 D5000000 		.4byte	0xd5
 282 00c9 08       		.uleb128 0x8
 283 00ca 30000000 		.4byte	.LASF16
 284 00ce 01       		.byte	0x1
 285 00cf 45       		.byte	0x45
ARM GAS  /tmp/cc8ALtRe.s 			page 6


 286 00d0 D5000000 		.4byte	0xd5
 287 00d4 00       		.byte	0
 288 00d5 09       		.uleb128 0x9
 289 00d6 81000000 		.4byte	0x81
 290 00da E0000000 		.4byte	0xe0
 291 00de 0A       		.uleb128 0xa
 292 00df 00       		.byte	0
 293 00e0 0B       		.uleb128 0xb
 294 00e1 A8010000 		.4byte	.LASF17
 295 00e5 01       		.byte	0x1
 296 00e6 70       		.byte	0x70
 297 00e7 93000000 		.4byte	0x93
 298 00eb 00000000 		.4byte	.LFB9
 299 00ef 28000000 		.4byte	.LFE9-.LFB9
 300 00f3 01       		.uleb128 0x1
 301 00f4 9C       		.byte	0x9c
 302 00f5 16010000 		.4byte	0x116
 303 00f9 0C       		.uleb128 0xc
 304 00fa C1010000 		.4byte	.LASF19
 305 00fe 01       		.byte	0x1
 306 00ff 70       		.byte	0x70
 307 0100 2C000000 		.4byte	0x2c
 308 0104 00000000 		.4byte	.LLST0
 309 0108 0D       		.uleb128 0xd
 310 0109 7000     		.ascii	"p\000"
 311 010b 01       		.byte	0x1
 312 010c 71       		.byte	0x71
 313 010d 93000000 		.4byte	0x93
 314 0111 4F000000 		.4byte	.LLST1
 315 0115 00       		.byte	0
 316 0116 0B       		.uleb128 0xb
 317 0117 86010000 		.4byte	.LASF18
 318 011b 01       		.byte	0x1
 319 011c 5B       		.byte	0x5b
 320 011d 93000000 		.4byte	0x93
 321 0121 00000000 		.4byte	.LFB8
 322 0125 0C000000 		.4byte	.LFE8-.LFB8
 323 0129 01       		.uleb128 0x1
 324 012a 9C       		.byte	0x9c
 325 012b 5B010000 		.4byte	0x15b
 326 012f 0C       		.uleb128 0xc
 327 0130 C1010000 		.4byte	.LASF19
 328 0134 01       		.byte	0x1
 329 0135 5B       		.byte	0x5b
 330 0136 2C000000 		.4byte	0x2c
 331 013a 62000000 		.4byte	.LLST2
 332 013e 0E       		.uleb128 0xe
 333 013f 7000     		.ascii	"p\000"
 334 0141 01       		.byte	0x1
 335 0142 5C       		.byte	0x5c
 336 0143 93000000 		.4byte	0x93
 337 0147 01       		.uleb128 0x1
 338 0148 50       		.byte	0x50
 339 0149 0F       		.uleb128 0xf
 340 014a 08000000 		.4byte	.LVL7
 341 014e E0000000 		.4byte	0xe0
 342 0152 10       		.uleb128 0x10
ARM GAS  /tmp/cc8ALtRe.s 			page 7


 343 0153 01       		.uleb128 0x1
 344 0154 50       		.byte	0x50
 345 0155 03       		.uleb128 0x3
 346 0156 F3       		.byte	0xf3
 347 0157 01       		.uleb128 0x1
 348 0158 50       		.byte	0x50
 349 0159 00       		.byte	0
 350 015a 00       		.byte	0
 351 015b 11       		.uleb128 0x11
 352 015c 10020000 		.4byte	.LASF26
 353 0160 01       		.byte	0x1
 354 0161 84       		.byte	0x84
 355 0162 2C000000 		.4byte	0x2c
 356 0166 00000000 		.4byte	.LFB10
 357 016a 14000000 		.4byte	.LFE10-.LFB10
 358 016e 01       		.uleb128 0x1
 359 016f 9C       		.byte	0x9c
 360 0170 12       		.uleb128 0x12
 361 0171 28000000 		.4byte	.LASF20
 362 0175 01       		.byte	0x1
 363 0176 3A       		.byte	0x3a
 364 0177 A3000000 		.4byte	0xa3
 365 017b 05       		.uleb128 0x5
 366 017c 03       		.byte	0x3
 367 017d 00000000 		.4byte	nextmem
 368 0181 12       		.uleb128 0x12
 369 0182 A1010000 		.4byte	.LASF21
 370 0186 01       		.byte	0x1
 371 0187 3B       		.byte	0x3b
 372 0188 A3000000 		.4byte	0xa3
 373 018c 05       		.uleb128 0x5
 374 018d 03       		.byte	0x3
 375 018e 00000000 		.4byte	endmem
 376 0192 08       		.uleb128 0x8
 377 0193 3D000000 		.4byte	.LASF15
 378 0197 01       		.byte	0x1
 379 0198 44       		.byte	0x44
 380 0199 D5000000 		.4byte	0xd5
 381 019d 08       		.uleb128 0x8
 382 019e 30000000 		.4byte	.LASF16
 383 01a2 01       		.byte	0x1
 384 01a3 45       		.byte	0x45
 385 01a4 D5000000 		.4byte	0xd5
 386 01a8 00       		.byte	0
 387              		.section	.debug_abbrev,"",%progbits
 388              	.Ldebug_abbrev0:
 389 0000 01       		.uleb128 0x1
 390 0001 11       		.uleb128 0x11
 391 0002 01       		.byte	0x1
 392 0003 25       		.uleb128 0x25
 393 0004 0E       		.uleb128 0xe
 394 0005 13       		.uleb128 0x13
 395 0006 0B       		.uleb128 0xb
 396 0007 03       		.uleb128 0x3
 397 0008 0E       		.uleb128 0xe
 398 0009 1B       		.uleb128 0x1b
 399 000a 0E       		.uleb128 0xe
ARM GAS  /tmp/cc8ALtRe.s 			page 8


 400 000b 55       		.uleb128 0x55
 401 000c 17       		.uleb128 0x17
 402 000d 11       		.uleb128 0x11
 403 000e 01       		.uleb128 0x1
 404 000f 10       		.uleb128 0x10
 405 0010 17       		.uleb128 0x17
 406 0011 00       		.byte	0
 407 0012 00       		.byte	0
 408 0013 02       		.uleb128 0x2
 409 0014 24       		.uleb128 0x24
 410 0015 00       		.byte	0
 411 0016 0B       		.uleb128 0xb
 412 0017 0B       		.uleb128 0xb
 413 0018 3E       		.uleb128 0x3e
 414 0019 0B       		.uleb128 0xb
 415 001a 03       		.uleb128 0x3
 416 001b 08       		.uleb128 0x8
 417 001c 00       		.byte	0
 418 001d 00       		.byte	0
 419 001e 03       		.uleb128 0x3
 420 001f 16       		.uleb128 0x16
 421 0020 00       		.byte	0
 422 0021 03       		.uleb128 0x3
 423 0022 0E       		.uleb128 0xe
 424 0023 3A       		.uleb128 0x3a
 425 0024 0B       		.uleb128 0xb
 426 0025 3B       		.uleb128 0x3b
 427 0026 0B       		.uleb128 0xb
 428 0027 49       		.uleb128 0x49
 429 0028 13       		.uleb128 0x13
 430 0029 00       		.byte	0
 431 002a 00       		.byte	0
 432 002b 04       		.uleb128 0x4
 433 002c 24       		.uleb128 0x24
 434 002d 00       		.byte	0
 435 002e 0B       		.uleb128 0xb
 436 002f 0B       		.uleb128 0xb
 437 0030 3E       		.uleb128 0x3e
 438 0031 0B       		.uleb128 0xb
 439 0032 03       		.uleb128 0x3
 440 0033 0E       		.uleb128 0xe
 441 0034 00       		.byte	0
 442 0035 00       		.byte	0
 443 0036 05       		.uleb128 0x5
 444 0037 0F       		.uleb128 0xf
 445 0038 00       		.byte	0
 446 0039 0B       		.uleb128 0xb
 447 003a 0B       		.uleb128 0xb
 448 003b 00       		.byte	0
 449 003c 00       		.byte	0
 450 003d 06       		.uleb128 0x6
 451 003e 0F       		.uleb128 0xf
 452 003f 00       		.byte	0
 453 0040 0B       		.uleb128 0xb
 454 0041 0B       		.uleb128 0xb
 455 0042 49       		.uleb128 0x49
 456 0043 13       		.uleb128 0x13
ARM GAS  /tmp/cc8ALtRe.s 			page 9


 457 0044 00       		.byte	0
 458 0045 00       		.byte	0
 459 0046 07       		.uleb128 0x7
 460 0047 2E       		.uleb128 0x2e
 461 0048 01       		.byte	0x1
 462 0049 3F       		.uleb128 0x3f
 463 004a 19       		.uleb128 0x19
 464 004b 03       		.uleb128 0x3
 465 004c 0E       		.uleb128 0xe
 466 004d 3A       		.uleb128 0x3a
 467 004e 0B       		.uleb128 0xb
 468 004f 3B       		.uleb128 0x3b
 469 0050 0B       		.uleb128 0xb
 470 0051 27       		.uleb128 0x27
 471 0052 19       		.uleb128 0x19
 472 0053 11       		.uleb128 0x11
 473 0054 01       		.uleb128 0x1
 474 0055 12       		.uleb128 0x12
 475 0056 06       		.uleb128 0x6
 476 0057 40       		.uleb128 0x40
 477 0058 18       		.uleb128 0x18
 478 0059 9742     		.uleb128 0x2117
 479 005b 19       		.uleb128 0x19
 480 005c 01       		.uleb128 0x1
 481 005d 13       		.uleb128 0x13
 482 005e 00       		.byte	0
 483 005f 00       		.byte	0
 484 0060 08       		.uleb128 0x8
 485 0061 34       		.uleb128 0x34
 486 0062 00       		.byte	0
 487 0063 03       		.uleb128 0x3
 488 0064 0E       		.uleb128 0xe
 489 0065 3A       		.uleb128 0x3a
 490 0066 0B       		.uleb128 0xb
 491 0067 3B       		.uleb128 0x3b
 492 0068 0B       		.uleb128 0xb
 493 0069 49       		.uleb128 0x49
 494 006a 13       		.uleb128 0x13
 495 006b 3F       		.uleb128 0x3f
 496 006c 19       		.uleb128 0x19
 497 006d 3C       		.uleb128 0x3c
 498 006e 19       		.uleb128 0x19
 499 006f 00       		.byte	0
 500 0070 00       		.byte	0
 501 0071 09       		.uleb128 0x9
 502 0072 01       		.uleb128 0x1
 503 0073 01       		.byte	0x1
 504 0074 49       		.uleb128 0x49
 505 0075 13       		.uleb128 0x13
 506 0076 01       		.uleb128 0x1
 507 0077 13       		.uleb128 0x13
 508 0078 00       		.byte	0
 509 0079 00       		.byte	0
 510 007a 0A       		.uleb128 0xa
 511 007b 21       		.uleb128 0x21
 512 007c 00       		.byte	0
 513 007d 00       		.byte	0
ARM GAS  /tmp/cc8ALtRe.s 			page 10


 514 007e 00       		.byte	0
 515 007f 0B       		.uleb128 0xb
 516 0080 2E       		.uleb128 0x2e
 517 0081 01       		.byte	0x1
 518 0082 3F       		.uleb128 0x3f
 519 0083 19       		.uleb128 0x19
 520 0084 03       		.uleb128 0x3
 521 0085 0E       		.uleb128 0xe
 522 0086 3A       		.uleb128 0x3a
 523 0087 0B       		.uleb128 0xb
 524 0088 3B       		.uleb128 0x3b
 525 0089 0B       		.uleb128 0xb
 526 008a 27       		.uleb128 0x27
 527 008b 19       		.uleb128 0x19
 528 008c 49       		.uleb128 0x49
 529 008d 13       		.uleb128 0x13
 530 008e 11       		.uleb128 0x11
 531 008f 01       		.uleb128 0x1
 532 0090 12       		.uleb128 0x12
 533 0091 06       		.uleb128 0x6
 534 0092 40       		.uleb128 0x40
 535 0093 18       		.uleb128 0x18
 536 0094 9742     		.uleb128 0x2117
 537 0096 19       		.uleb128 0x19
 538 0097 01       		.uleb128 0x1
 539 0098 13       		.uleb128 0x13
 540 0099 00       		.byte	0
 541 009a 00       		.byte	0
 542 009b 0C       		.uleb128 0xc
 543 009c 05       		.uleb128 0x5
 544 009d 00       		.byte	0
 545 009e 03       		.uleb128 0x3
 546 009f 0E       		.uleb128 0xe
 547 00a0 3A       		.uleb128 0x3a
 548 00a1 0B       		.uleb128 0xb
 549 00a2 3B       		.uleb128 0x3b
 550 00a3 0B       		.uleb128 0xb
 551 00a4 49       		.uleb128 0x49
 552 00a5 13       		.uleb128 0x13
 553 00a6 02       		.uleb128 0x2
 554 00a7 17       		.uleb128 0x17
 555 00a8 00       		.byte	0
 556 00a9 00       		.byte	0
 557 00aa 0D       		.uleb128 0xd
 558 00ab 34       		.uleb128 0x34
 559 00ac 00       		.byte	0
 560 00ad 03       		.uleb128 0x3
 561 00ae 08       		.uleb128 0x8
 562 00af 3A       		.uleb128 0x3a
 563 00b0 0B       		.uleb128 0xb
 564 00b1 3B       		.uleb128 0x3b
 565 00b2 0B       		.uleb128 0xb
 566 00b3 49       		.uleb128 0x49
 567 00b4 13       		.uleb128 0x13
 568 00b5 02       		.uleb128 0x2
 569 00b6 17       		.uleb128 0x17
 570 00b7 00       		.byte	0
ARM GAS  /tmp/cc8ALtRe.s 			page 11


 571 00b8 00       		.byte	0
 572 00b9 0E       		.uleb128 0xe
 573 00ba 34       		.uleb128 0x34
 574 00bb 00       		.byte	0
 575 00bc 03       		.uleb128 0x3
 576 00bd 08       		.uleb128 0x8
 577 00be 3A       		.uleb128 0x3a
 578 00bf 0B       		.uleb128 0xb
 579 00c0 3B       		.uleb128 0x3b
 580 00c1 0B       		.uleb128 0xb
 581 00c2 49       		.uleb128 0x49
 582 00c3 13       		.uleb128 0x13
 583 00c4 02       		.uleb128 0x2
 584 00c5 18       		.uleb128 0x18
 585 00c6 00       		.byte	0
 586 00c7 00       		.byte	0
 587 00c8 0F       		.uleb128 0xf
 588 00c9 898201   		.uleb128 0x4109
 589 00cc 01       		.byte	0x1
 590 00cd 11       		.uleb128 0x11
 591 00ce 01       		.uleb128 0x1
 592 00cf 31       		.uleb128 0x31
 593 00d0 13       		.uleb128 0x13
 594 00d1 00       		.byte	0
 595 00d2 00       		.byte	0
 596 00d3 10       		.uleb128 0x10
 597 00d4 8A8201   		.uleb128 0x410a
 598 00d7 00       		.byte	0
 599 00d8 02       		.uleb128 0x2
 600 00d9 18       		.uleb128 0x18
 601 00da 9142     		.uleb128 0x2111
 602 00dc 18       		.uleb128 0x18
 603 00dd 00       		.byte	0
 604 00de 00       		.byte	0
 605 00df 11       		.uleb128 0x11
 606 00e0 2E       		.uleb128 0x2e
 607 00e1 00       		.byte	0
 608 00e2 3F       		.uleb128 0x3f
 609 00e3 19       		.uleb128 0x19
 610 00e4 03       		.uleb128 0x3
 611 00e5 0E       		.uleb128 0xe
 612 00e6 3A       		.uleb128 0x3a
 613 00e7 0B       		.uleb128 0xb
 614 00e8 3B       		.uleb128 0x3b
 615 00e9 0B       		.uleb128 0xb
 616 00ea 27       		.uleb128 0x27
 617 00eb 19       		.uleb128 0x19
 618 00ec 49       		.uleb128 0x49
 619 00ed 13       		.uleb128 0x13
 620 00ee 11       		.uleb128 0x11
 621 00ef 01       		.uleb128 0x1
 622 00f0 12       		.uleb128 0x12
 623 00f1 06       		.uleb128 0x6
 624 00f2 40       		.uleb128 0x40
 625 00f3 18       		.uleb128 0x18
 626 00f4 9742     		.uleb128 0x2117
 627 00f6 19       		.uleb128 0x19
ARM GAS  /tmp/cc8ALtRe.s 			page 12


 628 00f7 00       		.byte	0
 629 00f8 00       		.byte	0
 630 00f9 12       		.uleb128 0x12
 631 00fa 34       		.uleb128 0x34
 632 00fb 00       		.byte	0
 633 00fc 03       		.uleb128 0x3
 634 00fd 0E       		.uleb128 0xe
 635 00fe 3A       		.uleb128 0x3a
 636 00ff 0B       		.uleb128 0xb
 637 0100 3B       		.uleb128 0x3b
 638 0101 0B       		.uleb128 0xb
 639 0102 49       		.uleb128 0x49
 640 0103 13       		.uleb128 0x13
 641 0104 02       		.uleb128 0x2
 642 0105 18       		.uleb128 0x18
 643 0106 00       		.byte	0
 644 0107 00       		.byte	0
 645 0108 00       		.byte	0
 646              		.section	.debug_loc,"",%progbits
 647              	.Ldebug_loc0:
 648              	.LLST0:
 649 0000 00000000 		.4byte	.LVL0
 650 0004 06000000 		.4byte	.LVL1
 651 0008 0100     		.2byte	0x1
 652 000a 50       		.byte	0x50
 653 000b 06000000 		.4byte	.LVL1
 654 000f 16000000 		.4byte	.LVL3
 655 0013 0100     		.2byte	0x1
 656 0015 53       		.byte	0x53
 657 0016 16000000 		.4byte	.LVL3
 658 001a 1C000000 		.4byte	.LVL4
 659 001e 0900     		.2byte	0x9
 660 0020 F3       		.byte	0xf3
 661 0021 01       		.uleb128 0x1
 662 0022 50       		.byte	0x50
 663 0023 23       		.byte	0x23
 664 0024 07       		.uleb128 0x7
 665 0025 09       		.byte	0x9
 666 0026 F8       		.byte	0xf8
 667 0027 1A       		.byte	0x1a
 668 0028 9F       		.byte	0x9f
 669 0029 1C000000 		.4byte	.LVL4
 670 002d 1E000000 		.4byte	.LVL5
 671 0031 0100     		.2byte	0x1
 672 0033 53       		.byte	0x53
 673 0034 1E000000 		.4byte	.LVL5
 674 0038 28000000 		.4byte	.LFE9
 675 003c 0900     		.2byte	0x9
 676 003e F3       		.byte	0xf3
 677 003f 01       		.uleb128 0x1
 678 0040 50       		.byte	0x50
 679 0041 23       		.byte	0x23
 680 0042 07       		.uleb128 0x7
 681 0043 09       		.byte	0x9
 682 0044 F8       		.byte	0xf8
 683 0045 1A       		.byte	0x1a
 684 0046 9F       		.byte	0x9f
ARM GAS  /tmp/cc8ALtRe.s 			page 13


 685 0047 00000000 		.4byte	0
 686 004b 00000000 		.4byte	0
 687              	.LLST1:
 688 004f 14000000 		.4byte	.LVL2
 689 0053 1C000000 		.4byte	.LVL4
 690 0057 0100     		.2byte	0x1
 691 0059 50       		.byte	0x50
 692 005a 00000000 		.4byte	0
 693 005e 00000000 		.4byte	0
 694              	.LLST2:
 695 0062 00000000 		.4byte	.LVL6
 696 0066 07000000 		.4byte	.LVL7-1
 697 006a 0100     		.2byte	0x1
 698 006c 50       		.byte	0x50
 699 006d 07000000 		.4byte	.LVL7-1
 700 0071 0C000000 		.4byte	.LFE8
 701 0075 0400     		.2byte	0x4
 702 0077 F3       		.byte	0xf3
 703 0078 01       		.uleb128 0x1
 704 0079 50       		.byte	0x50
 705 007a 9F       		.byte	0x9f
 706 007b 00000000 		.4byte	0
 707 007f 00000000 		.4byte	0
 708              		.section	.debug_aranges,"",%progbits
 709 0000 34000000 		.4byte	0x34
 710 0004 0200     		.2byte	0x2
 711 0006 00000000 		.4byte	.Ldebug_info0
 712 000a 04       		.byte	0x4
 713 000b 00       		.byte	0
 714 000c 0000     		.2byte	0
 715 000e 0000     		.2byte	0
 716 0010 00000000 		.4byte	.LFB7
 717 0014 28000000 		.4byte	.LFE7-.LFB7
 718 0018 00000000 		.4byte	.LFB9
 719 001c 28000000 		.4byte	.LFE9-.LFB9
 720 0020 00000000 		.4byte	.LFB8
 721 0024 0C000000 		.4byte	.LFE8-.LFB8
 722 0028 00000000 		.4byte	.LFB10
 723 002c 14000000 		.4byte	.LFE10-.LFB10
 724 0030 00000000 		.4byte	0
 725 0034 00000000 		.4byte	0
 726              		.section	.debug_ranges,"",%progbits
 727              	.Ldebug_ranges0:
 728 0000 00000000 		.4byte	.LFB7
 729 0004 28000000 		.4byte	.LFE7
 730 0008 00000000 		.4byte	.LFB9
 731 000c 28000000 		.4byte	.LFE9
 732 0010 00000000 		.4byte	.LFB8
 733 0014 0C000000 		.4byte	.LFE8
 734 0018 00000000 		.4byte	.LFB10
 735 001c 14000000 		.4byte	.LFE10
 736 0020 00000000 		.4byte	0
 737 0024 00000000 		.4byte	0
 738              		.section	.debug_line,"",%progbits
 739              	.Ldebug_line0:
 740 0000 AA010000 		.section	.debug_str,"MS",%progbits,1
 740      02005501 
ARM GAS  /tmp/cc8ALtRe.s 			page 14


 740      00000201 
 740      FB0E0D00 
 740      01010101 
 741              	.LASF9:
 742 0000 6C6F6E67 		.ascii	"long long int\000"
 742      206C6F6E 
 742      6720696E 
 742      7400
 743              	.LASF6:
 744 000e 73686F72 		.ascii	"short unsigned int\000"
 744      7420756E 
 744      7369676E 
 744      65642069 
 744      6E7400
 745              	.LASF2:
 746 0021 73697A65 		.ascii	"size_t\000"
 746      5F7400
 747              	.LASF20:
 748 0028 6E657874 		.ascii	"nextmem\000"
 748      6D656D00 
 749              	.LASF16:
 750 0030 5F5F6865 		.ascii	"__heap_end__\000"
 750      61705F65 
 750      6E645F5F 
 750      00
 751              	.LASF15:
 752 003d 5F5F6865 		.ascii	"__heap_base__\000"
 752      61705F62 
 752      6173655F 
 752      5F00
 753              	.LASF8:
 754 004b 6C6F6E67 		.ascii	"long unsigned int\000"
 754      20756E73 
 754      69676E65 
 754      6420696E 
 754      7400
 755              	.LASF22:
 756 005d 474E5520 		.ascii	"GNU C 4.8.4 20140526 (release) [ARM/embedded-4_8-br"
 756      4320342E 
 756      382E3420 
 756      32303134 
 756      30353236 
 757 0090 616E6368 		.ascii	"anch revision 211358] -mcpu=cortex-m0 -mno-thumb-in"
 757      20726576 
 757      6973696F 
 757      6E203231 
 757      31333538 
 758 00c3 74657277 		.ascii	"terwork -mthumb -ggdb -O1 -fomit-frame-pointer -ffu"
 758      6F726B20 
 758      2D6D7468 
 758      756D6220 
 758      2D676764 
 759 00f6 6E637469 		.ascii	"nction-sections -fdata-sections -fno-common\000"
 759      6F6E2D73 
 759      65637469 
 759      6F6E7320 
 759      2D666461 
ARM GAS  /tmp/cc8ALtRe.s 			page 15


 760              	.LASF10:
 761 0122 6C6F6E67 		.ascii	"long long unsigned int\000"
 761      206C6F6E 
 761      6720756E 
 761      7369676E 
 761      65642069 
 762              	.LASF3:
 763 0139 5F5F7569 		.ascii	"__uint8_t\000"
 763      6E74385F 
 763      7400
 764              	.LASF23:
 765 0143 43686962 		.ascii	"ChibiOS_2.6.5/os/kernel/src/chmemcore.c\000"
 765      694F535F 
 765      322E362E 
 765      352F6F73 
 765      2F6B6572 
 766              	.LASF11:
 767 016b 75696E74 		.ascii	"uint8_t\000"
 767      385F7400 
 768              	.LASF4:
 769 0173 756E7369 		.ascii	"unsigned char\000"
 769      676E6564 
 769      20636861 
 769      7200
 770              	.LASF14:
 771 0181 63686172 		.ascii	"char\000"
 771      00
 772              	.LASF18:
 773 0186 6368436F 		.ascii	"chCoreAlloc\000"
 773      7265416C 
 773      6C6F6300 
 774              	.LASF7:
 775 0192 6C6F6E67 		.ascii	"long int\000"
 775      20696E74 
 775      00
 776              	.LASF12:
 777 019b 5F426F6F 		.ascii	"_Bool\000"
 777      6C00
 778              	.LASF21:
 779 01a1 656E646D 		.ascii	"endmem\000"
 779      656D00
 780              	.LASF17:
 781 01a8 6368436F 		.ascii	"chCoreAllocI\000"
 781      7265416C 
 781      6C6F6349 
 781      00
 782              	.LASF1:
 783 01b5 7369676E 		.ascii	"signed char\000"
 783      65642063 
 783      68617200 
 784              	.LASF19:
 785 01c1 73697A65 		.ascii	"size\000"
 785      00
 786              	.LASF24:
 787 01c6 2F484444 		.ascii	"/HDD/GIT/variometer/Altimeter/\000"
 787      2F474954 
 787      2F766172 
ARM GAS  /tmp/cc8ALtRe.s 			page 16


 787      696F6D65 
 787      7465722F 
 788              	.LASF25:
 789 01e5 5F636F72 		.ascii	"_core_init\000"
 789      655F696E 
 789      697400
 790              	.LASF5:
 791 01f0 73686F72 		.ascii	"short int\000"
 791      7420696E 
 791      7400
 792              	.LASF0:
 793 01fa 756E7369 		.ascii	"unsigned int\000"
 793      676E6564 
 793      20696E74 
 793      00
 794              	.LASF13:
 795 0207 73697A65 		.ascii	"sizetype\000"
 795      74797065 
 795      00
 796              	.LASF26:
 797 0210 6368436F 		.ascii	"chCoreStatus\000"
 797      72655374 
 797      61747573 
 797      00
 798              		.ident	"GCC: (GNU Tools for ARM Embedded Processors) 4.8.4 20140526 (release) [ARM/embedded-4_8-br
ARM GAS  /tmp/cc8ALtRe.s 			page 17


DEFINED SYMBOLS
                            *ABS*:00000000 chmemcore.c
     /tmp/cc8ALtRe.s:18     .text._core_init:00000000 $t
     /tmp/cc8ALtRe.s:23     .text._core_init:00000000 _core_init
     /tmp/cc8ALtRe.s:46     .text._core_init:00000018 $d
     /tmp/cc8ALtRe.s:54     .text.chCoreAllocI:00000000 $t
     /tmp/cc8ALtRe.s:59     .text.chCoreAllocI:00000000 chCoreAllocI
     /tmp/cc8ALtRe.s:97     .text.chCoreAllocI:00000020 $d
     /tmp/cc8ALtRe.s:103    .text.chCoreAlloc:00000000 $t
     /tmp/cc8ALtRe.s:108    .text.chCoreAlloc:00000000 chCoreAlloc
     /tmp/cc8ALtRe.s:137    .text.chCoreStatus:00000000 $t
     /tmp/cc8ALtRe.s:142    .text.chCoreStatus:00000000 chCoreStatus
     /tmp/cc8ALtRe.s:158    .text.chCoreStatus:0000000c $d
     /tmp/cc8ALtRe.s:164    .bss.endmem:00000000 $d
     /tmp/cc8ALtRe.s:168    .bss.endmem:00000000 endmem
     /tmp/cc8ALtRe.s:171    .bss.nextmem:00000000 $d
     /tmp/cc8ALtRe.s:175    .bss.nextmem:00000000 nextmem
                     .debug_frame:00000010 $d

UNDEFINED SYMBOLS
__heap_base__
__heap_end__
