ARM GAS  /tmp/ccINKJdm.s 			page 1


   1              		.cpu cortex-m0
   2              		.fpu softvfp
   3              		.eabi_attribute 20, 1
   4              		.eabi_attribute 21, 1
   5              		.eabi_attribute 23, 3
   6              		.eabi_attribute 24, 1
   7              		.eabi_attribute 25, 1
   8              		.eabi_attribute 26, 1
   9              		.eabi_attribute 30, 1
  10              		.eabi_attribute 34, 0
  11              		.eabi_attribute 18, 4
  12              		.code	16
  13              		.file	"chmempools.c"
  14              		.text
  15              	.Ltext0:
  16              		.cfi_sections	.debug_frame
  17              		.section	.text.chPoolInit,"ax",%progbits
  18              		.align	2
  19              		.global	chPoolInit
  20              		.code	16
  21              		.thumb_func
  22              		.type	chPoolInit, %function
  23              	chPoolInit:
  24              	.LFB7:
  25              		.file 1 "ChibiOS_2.6.5/os/kernel/src/chmempools.c"
  26              		.loc 1 62 0
  27              		.cfi_startproc
  28              	.LVL0:
  29              		.loc 1 66 0
  30 0000 0023     		mov	r3, #0
  31 0002 0360     		str	r3, [r0]
  32              		.loc 1 67 0
  33 0004 4160     		str	r1, [r0, #4]
  34              		.loc 1 68 0
  35 0006 8260     		str	r2, [r0, #8]
  36              		.loc 1 69 0
  37              		@ sp needed
  38 0008 7047     		bx	lr
  39              		.cfi_endproc
  40              	.LFE7:
  41              		.size	chPoolInit, .-chPoolInit
  42 000a C046     		.section	.text.chPoolAllocI,"ax",%progbits
  43              		.align	2
  44              		.global	chPoolAllocI
  45              		.code	16
  46              		.thumb_func
  47              		.type	chPoolAllocI, %function
  48              	chPoolAllocI:
  49              	.LFB9:
  50              		.loc 1 105 0
  51              		.cfi_startproc
  52              	.LVL1:
  53 0000 08B5     		push	{r3, lr}
  54              		.cfi_def_cfa_offset 8
  55              		.cfi_offset 3, -8
  56              		.cfi_offset 14, -4
  57 0002 031C     		mov	r3, r0
ARM GAS  /tmp/ccINKJdm.s 			page 2


  58              		.loc 1 111 0
  59 0004 0068     		ldr	r0, [r0]
  60              	.LVL2:
  61 0006 0028     		cmp	r0, #0
  62 0008 02D0     		beq	.L3
  63              		.loc 1 112 0
  64 000a 0268     		ldr	r2, [r0]
  65 000c 1A60     		str	r2, [r3]
  66 000e 04E0     		b	.L4
  67              	.L3:
  68              		.loc 1 113 0
  69 0010 9A68     		ldr	r2, [r3, #8]
  70 0012 002A     		cmp	r2, #0
  71 0014 01D0     		beq	.L4
  72              		.loc 1 114 0
  73 0016 5868     		ldr	r0, [r3, #4]
  74              	.LVL3:
  75 0018 9047     		blx	r2
  76              	.LVL4:
  77              	.L4:
  78              		.loc 1 116 0
  79              		@ sp needed
  80 001a 08BD     		pop	{r3, pc}
  81              		.cfi_endproc
  82              	.LFE9:
  83              		.size	chPoolAllocI, .-chPoolAllocI
  84              		.section	.text.chPoolAlloc,"ax",%progbits
  85              		.align	2
  86              		.global	chPoolAlloc
  87              		.code	16
  88              		.thumb_func
  89              		.type	chPoolAlloc, %function
  90              	chPoolAlloc:
  91              	.LFB10:
  92              		.loc 1 128 0
  93              		.cfi_startproc
  94              	.LVL5:
  95 0000 08B5     		push	{r3, lr}
  96              		.cfi_def_cfa_offset 8
  97              		.cfi_offset 3, -8
  98              		.cfi_offset 14, -4
  99              		.loc 1 131 0
 100              	@ 131 "ChibiOS_2.6.5/os/kernel/src/chmempools.c" 1
 101 0002 72B6     		cpsid   i
 102              	@ 0 "" 2
 103              		.loc 1 132 0
 104              		.code	16
 105 0004 FFF7FEFF 		bl	chPoolAllocI
 106              	.LVL6:
 107              		.loc 1 133 0
 108              	@ 133 "ChibiOS_2.6.5/os/kernel/src/chmempools.c" 1
 109 0008 62B6     		cpsie   i
 110              	@ 0 "" 2
 111              		.loc 1 135 0
 112              		.code	16
 113              		@ sp needed
 114 000a 08BD     		pop	{r3, pc}
ARM GAS  /tmp/ccINKJdm.s 			page 3


 115              		.cfi_endproc
 116              	.LFE10:
 117              		.size	chPoolAlloc, .-chPoolAlloc
 118              		.section	.text.chPoolFreeI,"ax",%progbits
 119              		.align	2
 120              		.global	chPoolFreeI
 121              		.code	16
 122              		.thumb_func
 123              		.type	chPoolFreeI, %function
 124              	chPoolFreeI:
 125              	.LFB11:
 126              		.loc 1 149 0
 127              		.cfi_startproc
 128              	.LVL7:
 129              		.loc 1 155 0
 130 0000 0368     		ldr	r3, [r0]
 131 0002 0B60     		str	r3, [r1]
 132              		.loc 1 156 0
 133 0004 0160     		str	r1, [r0]
 134              		.loc 1 157 0
 135              		@ sp needed
 136 0006 7047     		bx	lr
 137              		.cfi_endproc
 138              	.LFE11:
 139              		.size	chPoolFreeI, .-chPoolFreeI
 140              		.section	.text.chPoolFree,"ax",%progbits
 141              		.align	2
 142              		.global	chPoolFree
 143              		.code	16
 144              		.thumb_func
 145              		.type	chPoolFree, %function
 146              	chPoolFree:
 147              	.LFB12:
 148              		.loc 1 171 0
 149              		.cfi_startproc
 150              	.LVL8:
 151              		.loc 1 173 0
 152              	@ 173 "ChibiOS_2.6.5/os/kernel/src/chmempools.c" 1
 153 0000 72B6     		cpsid   i
 154              	@ 0 "" 2
 155              	.LVL9:
 156              		.code	16
 157              	.LBB4:
 158              	.LBB5:
 159              		.loc 1 155 0
 160 0002 0368     		ldr	r3, [r0]
 161 0004 0B60     		str	r3, [r1]
 162              		.loc 1 156 0
 163 0006 0160     		str	r1, [r0]
 164              	.LBE5:
 165              	.LBE4:
 166              		.loc 1 175 0
 167              	@ 175 "ChibiOS_2.6.5/os/kernel/src/chmempools.c" 1
 168 0008 62B6     		cpsie   i
 169              	@ 0 "" 2
 170              		.loc 1 176 0
 171              		.code	16
ARM GAS  /tmp/ccINKJdm.s 			page 4


 172              		@ sp needed
 173 000a 7047     		bx	lr
 174              		.cfi_endproc
 175              	.LFE12:
 176              		.size	chPoolFree, .-chPoolFree
 177              		.section	.text.chPoolLoadArray,"ax",%progbits
 178              		.align	2
 179              		.global	chPoolLoadArray
 180              		.code	16
 181              		.thumb_func
 182              		.type	chPoolLoadArray, %function
 183              	chPoolLoadArray:
 184              	.LFB8:
 185              		.loc 1 84 0
 186              		.cfi_startproc
 187              	.LVL10:
 188 0000 70B5     		push	{r4, r5, r6, lr}
 189              		.cfi_def_cfa_offset 16
 190              		.cfi_offset 4, -16
 191              		.cfi_offset 5, -12
 192              		.cfi_offset 6, -8
 193              		.cfi_offset 14, -4
 194 0002 061C     		mov	r6, r0
 195 0004 0D1C     		mov	r5, r1
 196 0006 141E     		sub	r4, r2, #0
 197              		.loc 1 88 0
 198 0008 08D0     		beq	.L8
 199              	.LVL11:
 200              	.L10:
 201              		.loc 1 89 0
 202 000a 301C     		mov	r0, r6
 203 000c 291C     		mov	r1, r5
 204 000e FFF7FEFF 		bl	chPoolFree
 205              	.LVL12:
 206              		.loc 1 90 0
 207 0012 7368     		ldr	r3, [r6, #4]
 208 0014 ED18     		add	r5, r5, r3
 209              	.LVL13:
 210              		.loc 1 91 0
 211 0016 013C     		sub	r4, r4, #1
 212              	.LVL14:
 213              		.loc 1 88 0
 214 0018 002C     		cmp	r4, #0
 215 001a F6D1     		bne	.L10
 216              	.L8:
 217              		.loc 1 93 0
 218              		@ sp needed
 219              	.LVL15:
 220              	.LVL16:
 221              	.LVL17:
 222 001c 70BD     		pop	{r4, r5, r6, pc}
 223              		.cfi_endproc
 224              	.LFE8:
 225              		.size	chPoolLoadArray, .-chPoolLoadArray
 226 001e C046     		.text
 227              	.Letext0:
 228              		.file 2 "/usr/local/lpcxpresso_7.3.0_186/lpcxpresso/tools/lib/gcc/arm-none-eabi/4.8.4/include/stdd
ARM GAS  /tmp/ccINKJdm.s 			page 5


 229              		.file 3 "/usr/local/lpcxpresso_7.3.0_186/lpcxpresso/tools/arm-none-eabi/include/machine/_default_t
 230              		.file 4 "/usr/local/lpcxpresso_7.3.0_186/lpcxpresso/tools/arm-none-eabi/include/stdint.h"
 231              		.file 5 "ChibiOS_2.6.5/os/kernel/include/chmemcore.h"
 232              		.file 6 "ChibiOS_2.6.5/os/kernel/include/chmempools.h"