ARM GAS  /tmp/cchPstuO.s 			page 1


   1              		.cpu cortex-m0
   2              		.fpu softvfp
   3              		.eabi_attribute 20, 1
   4              		.eabi_attribute 21, 1
   5              		.eabi_attribute 23, 3
   6              		.eabi_attribute 24, 1
   7              		.eabi_attribute 25, 1
   8              		.eabi_attribute 26, 1
   9              		.eabi_attribute 30, 1
  10              		.eabi_attribute 34, 0
  11              		.eabi_attribute 18, 4
  12              		.code	16
  13              		.file	"chmsg.c"
  14              		.text
  15              	.Ltext0:
  16              		.cfi_sections	.debug_frame
  17              		.section	.text.chMsgSend,"ax",%progbits
  18              		.align	2
  19              		.global	chMsgSend
  20              		.code	16
  21              		.thumb_func
  22              		.type	chMsgSend, %function
  23              	chMsgSend:
  24              	.LFB7:
  25              		.file 1 "ChibiOS_2.6.5/os/kernel/src/chmsg.c"
  26              		.loc 1 75 0
  27              		.cfi_startproc
  28              	.LVL0:
  29 0000 10B5     		push	{r4, lr}
  30              		.cfi_def_cfa_offset 8
  31              		.cfi_offset 4, -8
  32              		.cfi_offset 14, -4
  33              		.loc 1 76 0
  34 0002 0B4B     		ldr	r3, .L3
  35 0004 9C69     		ldr	r4, [r3, #24]
  36              	.LVL1:
  37              		.loc 1 80 0
  38              	@ 80 "ChibiOS_2.6.5/os/kernel/src/chmsg.c" 1
  39 0006 72B6     		cpsid   i
  40              	@ 0 "" 2
  41              		.loc 1 81 0
  42              		.code	16
  43 0008 6163     		str	r1, [r4, #52]
  44              		.loc 1 82 0
  45 000a 031C     		mov	r3, r0
  46 000c 2C33     		add	r3, r3, #44
  47 000e 6362     		str	r3, [r4, #36]
  48              	.LVL2:
  49              	.LBB6:
  50              	.LBB7:
  51              		.file 2 "ChibiOS_2.6.5/os/kernel/include/chinline.h"
  52              		.loc 2 54 0
  53 0010 2360     		str	r3, [r4]
  54              		.loc 2 55 0
  55 0012 036B     		ldr	r3, [r0, #48]
  56              	.LVL3:
  57 0014 6360     		str	r3, [r4, #4]
ARM GAS  /tmp/cchPstuO.s 			page 2


  58              		.loc 2 56 0
  59 0016 0463     		str	r4, [r0, #48]
  60              	.LVL4:
  61 0018 1C60     		str	r4, [r3]
  62              	.LBE7:
  63              	.LBE6:
  64              		.loc 1 84 0
  65 001a 037F     		ldrb	r3, [r0, #28]
  66 001c 0C2B     		cmp	r3, #12
  67 001e 01D1     		bne	.L2
  68              		.loc 1 85 0
  69 0020 FFF7FEFF 		bl	chSchReadyI
  70              	.LVL5:
  71              	.L2:
  72              		.loc 1 86 0
  73 0024 0A20     		mov	r0, #10
  74 0026 FFF7FEFF 		bl	chSchGoSleepS
  75              	.LVL6:
  76              		.loc 1 87 0
  77 002a 606A     		ldr	r0, [r4, #36]
  78              	.LVL7:
  79              		.loc 1 88 0
  80              	@ 88 "ChibiOS_2.6.5/os/kernel/src/chmsg.c" 1
  81 002c 62B6     		cpsie   i
  82              	@ 0 "" 2
  83              		.loc 1 90 0
  84              		.code	16
  85              		@ sp needed
  86              	.LVL8:
  87 002e 10BD     		pop	{r4, pc}
  88              	.L4:
  89              		.align	2
  90              	.L3:
  91 0030 00000000 		.word	rlist
  92              		.cfi_endproc
  93              	.LFE7:
  94              		.size	chMsgSend, .-chMsgSend
  95              		.section	.text.chMsgWait,"ax",%progbits
  96              		.align	2
  97              		.global	chMsgWait
  98              		.code	16
  99              		.thumb_func
 100              		.type	chMsgWait, %function
 101              	chMsgWait:
 102              	.LFB8:
 103              		.loc 1 106 0
 104              		.cfi_startproc
 105 0000 08B5     		push	{r3, lr}
 106              		.cfi_def_cfa_offset 8
 107              		.cfi_offset 3, -8
 108              		.cfi_offset 14, -4
 109              		.loc 1 109 0
 110              	@ 109 "ChibiOS_2.6.5/os/kernel/src/chmsg.c" 1
 111 0002 72B6     		cpsid   i
 112              	@ 0 "" 2
 113              		.loc 1 110 0
 114              		.code	16
ARM GAS  /tmp/cchPstuO.s 			page 3


 115 0004 0A4B     		ldr	r3, .L7
 116 0006 9B69     		ldr	r3, [r3, #24]
 117 0008 1A1C     		mov	r2, r3
 118 000a 2C32     		add	r2, r2, #44
 119 000c DB6A     		ldr	r3, [r3, #44]
 120 000e 9342     		cmp	r3, r2
 121 0010 02D1     		bne	.L6
 122              		.loc 1 111 0
 123 0012 0C20     		mov	r0, #12
 124 0014 FFF7FEFF 		bl	chSchGoSleepS
 125              	.LVL9:
 126              	.L6:
 127              		.loc 1 112 0
 128 0018 054B     		ldr	r3, .L7
 129 001a 9B69     		ldr	r3, [r3, #24]
 130              	.LVL10:
 131              	.LBB8:
 132              	.LBB9:
 133              		.loc 2 60 0
 134 001c D86A     		ldr	r0, [r3, #44]
 135              	.LVL11:
 136              		.loc 2 62 0
 137 001e 0268     		ldr	r2, [r0]
 138 0020 DA62     		str	r2, [r3, #44]
 139              	.LBE9:
 140              	.LBE8:
 141              		.loc 1 112 0
 142 0022 2C33     		add	r3, r3, #44
 143              	.LVL12:
 144              	.LBB11:
 145              	.LBB10:
 146              		.loc 2 62 0
 147 0024 5360     		str	r3, [r2, #4]
 148              	.LBE10:
 149              	.LBE11:
 150              		.loc 1 113 0
 151 0026 0B23     		mov	r3, #11
 152              	.LVL13:
 153 0028 0377     		strb	r3, [r0, #28]
 154              	.LVL14:
 155              		.loc 1 114 0
 156              	@ 114 "ChibiOS_2.6.5/os/kernel/src/chmsg.c" 1
 157 002a 62B6     		cpsie   i
 158              	@ 0 "" 2
 159              		.loc 1 116 0
 160              		.code	16
 161              		@ sp needed
 162 002c 08BD     		pop	{r3, pc}
 163              	.L8:
 164 002e C046     		.align	2
 165              	.L7:
 166 0030 00000000 		.word	rlist
 167              		.cfi_endproc
 168              	.LFE8:
 169              		.size	chMsgWait, .-chMsgWait
 170              		.section	.text.chMsgRelease,"ax",%progbits
 171              		.align	2
ARM GAS  /tmp/cchPstuO.s 			page 4


 172              		.global	chMsgRelease
 173              		.code	16
 174              		.thumb_func
 175              		.type	chMsgRelease, %function
 176              	chMsgRelease:
 177              	.LFB9:
 178              		.loc 1 128 0
 179              		.cfi_startproc
 180              	.LVL15:
 181 0000 08B5     		push	{r3, lr}
 182              		.cfi_def_cfa_offset 8
 183              		.cfi_offset 3, -8
 184              		.cfi_offset 14, -4
 185              		.loc 1 130 0
 186              	@ 130 "ChibiOS_2.6.5/os/kernel/src/chmsg.c" 1
 187 0002 72B6     		cpsid   i
 188              	@ 0 "" 2
 189              		.loc 1 133 0
 190              		.code	16
 191 0004 FFF7FEFF 		bl	chSchWakeupS
 192              	.LVL16:
 193              		.loc 1 134 0
 194              	@ 134 "ChibiOS_2.6.5/os/kernel/src/chmsg.c" 1
 195 0008 62B6     		cpsie   i
 196              	@ 0 "" 2
 197              		.loc 1 135 0
 198              		.code	16
 199              		@ sp needed
 200 000a 08BD     		pop	{r3, pc}
 201              		.cfi_endproc
 202              	.LFE9:
 203              		.size	chMsgRelease, .-chMsgRelease
 204              		.text
 205              	.Letext0:
 206              		.file 3 "/usr/local/lpcxpresso_7.3.0_186/lpcxpresso/tools/arm-none-eabi/include/machine/_default_t
 207              		.file 4 "/usr/local/lpcxpresso_7.3.0_186/lpcxpresso/tools/arm-none-eabi/include/stdint.h"
 208              		.file 5 "ChibiOS_2.6.5/os/ports/GCC/ARMCMx/chtypes.h"
 209              		.file 6 "ChibiOS_2.6.5/os/kernel/include/chlists.h"
 210              		.file 7 "ChibiOS_2.6.5/os/kernel/include/chthreads.h"
 211              		.file 8 "ChibiOS_2.6.5/os/ports/GCC/ARMCMx/chcore_v6m.h"
 212              		.file 9 "ChibiOS_2.6.5/os/kernel/include/chschd.h"
 213              		.file 10 "ChibiOS_2.6.5/os/kernel/include/chmtx.h"
 214              		.section	.debug_info,"",%progbits
 215              	.Ldebug_info0:
 216 0000 C3050000 		.4byte	0x5c3
 217 0004 0400     		.2byte	0x4
 218 0006 00000000 		.4byte	.Ldebug_abbrev0
 219 000a 04       		.byte	0x4
 220 000b 01       		.uleb128 0x1
 221 000c 4C010000 		.4byte	.LASF68
 222 0010 01       		.byte	0x1
 223 0011 C9000000 		.4byte	.LASF69
 224 0015 FA000000 		.4byte	.LASF70
 225 0019 18000000 		.4byte	.Ldebug_ranges0+0x18
 226 001d 00000000 		.4byte	0
 227 0021 00000000 		.4byte	.Ldebug_line0
 228 0025 02       		.uleb128 0x2
ARM GAS  /tmp/cchPstuO.s 			page 5


 229 0026 04       		.byte	0x4
 230 0027 05       		.byte	0x5
 231 0028 696E7400 		.ascii	"int\000"
 232 002c 03       		.uleb128 0x3
 233 002d 04       		.byte	0x4
 234 002e 07       		.byte	0x7
 235 002f ED000000 		.4byte	.LASF0
 236 0033 03       		.uleb128 0x3
 237 0034 01       		.byte	0x1
 238 0035 06       		.byte	0x6
 239 0036 59000000 		.4byte	.LASF1
 240 003a 04       		.uleb128 0x4
 241 003b 1A000000 		.4byte	.LASF5
 242 003f 03       		.byte	0x3
 243 0040 1C       		.byte	0x1c
 244 0041 45000000 		.4byte	0x45
 245 0045 03       		.uleb128 0x3
 246 0046 01       		.byte	0x1
 247 0047 08       		.byte	0x8
 248 0048 8A020000 		.4byte	.LASF2
 249 004c 03       		.uleb128 0x3
 250 004d 02       		.byte	0x2
 251 004e 05       		.byte	0x5
 252 004f A2020000 		.4byte	.LASF3
 253 0053 03       		.uleb128 0x3
 254 0054 02       		.byte	0x2
 255 0055 07       		.byte	0x7
 256 0056 2B010000 		.4byte	.LASF4
 257 005a 04       		.uleb128 0x4
 258 005b 5A030000 		.4byte	.LASF6
 259 005f 03       		.byte	0x3
 260 0060 37       		.byte	0x37
 261 0061 65000000 		.4byte	0x65
 262 0065 03       		.uleb128 0x3
 263 0066 04       		.byte	0x4
 264 0067 05       		.byte	0x5
 265 0068 91000000 		.4byte	.LASF7
 266 006c 04       		.uleb128 0x4
 267 006d B5000000 		.4byte	.LASF8
 268 0071 03       		.byte	0x3
 269 0072 38       		.byte	0x38
 270 0073 77000000 		.4byte	0x77
 271 0077 03       		.uleb128 0x3
 272 0078 04       		.byte	0x4
 273 0079 07       		.byte	0x7
 274 007a 65000000 		.4byte	.LASF9
 275 007e 03       		.uleb128 0x3
 276 007f 08       		.byte	0x8
 277 0080 05       		.byte	0x5
 278 0081 4B000000 		.4byte	.LASF10
 279 0085 03       		.uleb128 0x3
 280 0086 08       		.byte	0x8
 281 0087 07       		.byte	0x7
 282 0088 24000000 		.4byte	.LASF11
 283 008c 04       		.uleb128 0x4
 284 008d AB030000 		.4byte	.LASF12
 285 0091 04       		.byte	0x4
ARM GAS  /tmp/cchPstuO.s 			page 6


 286 0092 2A       		.byte	0x2a
 287 0093 3A000000 		.4byte	0x3a
 288 0097 04       		.uleb128 0x4
 289 0098 82020000 		.4byte	.LASF13
 290 009c 04       		.byte	0x4
 291 009d 41       		.byte	0x41
 292 009e 5A000000 		.4byte	0x5a
 293 00a2 04       		.uleb128 0x4
 294 00a3 10030000 		.4byte	.LASF14
 295 00a7 04       		.byte	0x4
 296 00a8 42       		.byte	0x42
 297 00a9 6C000000 		.4byte	0x6c
 298 00ad 03       		.uleb128 0x3
 299 00ae 01       		.byte	0x1
 300 00af 02       		.byte	0x2
 301 00b0 7C020000 		.4byte	.LASF15
 302 00b4 04       		.uleb128 0x4
 303 00b5 D3020000 		.4byte	.LASF16
 304 00b9 05       		.byte	0x5
 305 00ba 2C       		.byte	0x2c
 306 00bb 8C000000 		.4byte	0x8c
 307 00bf 04       		.uleb128 0x4
 308 00c0 A4000000 		.4byte	.LASF17
 309 00c4 05       		.byte	0x5
 310 00c5 2D       		.byte	0x2d
 311 00c6 8C000000 		.4byte	0x8c
 312 00ca 04       		.uleb128 0x4
 313 00cb 65020000 		.4byte	.LASF18
 314 00cf 05       		.byte	0x5
 315 00d0 2E       		.byte	0x2e
 316 00d1 8C000000 		.4byte	0x8c
 317 00d5 04       		.uleb128 0x4
 318 00d6 87000000 		.4byte	.LASF19
 319 00da 05       		.byte	0x5
 320 00db 2F       		.byte	0x2f
 321 00dc 8C000000 		.4byte	0x8c
 322 00e0 04       		.uleb128 0x4
 323 00e1 74020000 		.4byte	.LASF20
 324 00e5 05       		.byte	0x5
 325 00e6 30       		.byte	0x30
 326 00e7 A2000000 		.4byte	0xa2
 327 00eb 04       		.uleb128 0x4
 328 00ec 3E010000 		.4byte	.LASF21
 329 00f0 05       		.byte	0x5
 330 00f1 31       		.byte	0x31
 331 00f2 97000000 		.4byte	0x97
 332 00f6 04       		.uleb128 0x4
 333 00f7 1D020000 		.4byte	.LASF22
 334 00fb 05       		.byte	0x5
 335 00fc 33       		.byte	0x33
 336 00fd A2000000 		.4byte	0xa2
 337 0101 04       		.uleb128 0x4
 338 0102 45030000 		.4byte	.LASF23
 339 0106 05       		.byte	0x5
 340 0107 35       		.byte	0x35
 341 0108 A2000000 		.4byte	0xa2
 342 010c 04       		.uleb128 0x4
ARM GAS  /tmp/cchPstuO.s 			page 7


 343 010d E3020000 		.4byte	.LASF24
 344 0111 06       		.byte	0x6
 345 0112 2A       		.byte	0x2a
 346 0113 17010000 		.4byte	0x117
 347 0117 05       		.uleb128 0x5
 348 0118 E3020000 		.4byte	.LASF24
 349 011c 48       		.byte	0x48
 350 011d 07       		.byte	0x7
 351 011e 5E       		.byte	0x5e
 352 011f 14020000 		.4byte	0x214
 353 0123 06       		.uleb128 0x6
 354 0124 CC020000 		.4byte	.LASF25
 355 0128 07       		.byte	0x7
 356 0129 5F       		.byte	0x5f
 357 012a 35020000 		.4byte	0x235
 358 012e 00       		.byte	0
 359 012f 06       		.uleb128 0x6
 360 0130 6D020000 		.4byte	.LASF26
 361 0134 07       		.byte	0x7
 362 0135 61       		.byte	0x61
 363 0136 35020000 		.4byte	0x235
 364 013a 04       		.byte	0x4
 365 013b 06       		.uleb128 0x6
 366 013c 44000000 		.4byte	.LASF27
 367 0140 07       		.byte	0x7
 368 0141 63       		.byte	0x63
 369 0142 E0000000 		.4byte	0xe0
 370 0146 08       		.byte	0x8
 371 0147 06       		.uleb128 0x6
 372 0148 C9030000 		.4byte	.LASF28
 373 014c 07       		.byte	0x7
 374 014d 64       		.byte	0x64
 375 014e E5020000 		.4byte	0x2e5
 376 0152 0C       		.byte	0xc
 377 0153 06       		.uleb128 0x6
 378 0154 AD000000 		.4byte	.LASF29
 379 0158 07       		.byte	0x7
 380 0159 66       		.byte	0x66
 381 015a 35020000 		.4byte	0x235
 382 015e 10       		.byte	0x10
 383 015f 06       		.uleb128 0x6
 384 0160 38020000 		.4byte	.LASF30
 385 0164 07       		.byte	0x7
 386 0165 67       		.byte	0x67
 387 0166 35020000 		.4byte	0x235
 388 016a 14       		.byte	0x14
 389 016b 06       		.uleb128 0x6
 390 016c BA030000 		.4byte	.LASF31
 391 0170 07       		.byte	0x7
 392 0171 6E       		.byte	0x6e
 393 0172 E3030000 		.4byte	0x3e3
 394 0176 18       		.byte	0x18
 395 0177 06       		.uleb128 0x6
 396 0178 AC020000 		.4byte	.LASF32
 397 017c 07       		.byte	0x7
 398 017d 79       		.byte	0x79
 399 017e BF000000 		.4byte	0xbf
ARM GAS  /tmp/cchPstuO.s 			page 8


 400 0182 1C       		.byte	0x1c
 401 0183 06       		.uleb128 0x6
 402 0184 DB020000 		.4byte	.LASF33
 403 0188 07       		.byte	0x7
 404 0189 7D       		.byte	0x7d
 405 018a B4000000 		.4byte	0xb4
 406 018e 1D       		.byte	0x1d
 407 018f 06       		.uleb128 0x6
 408 0190 94030000 		.4byte	.LASF34
 409 0194 07       		.byte	0x7
 410 0195 82       		.byte	0x82
 411 0196 CA000000 		.4byte	0xca
 412 019a 1E       		.byte	0x1e
 413 019b 06       		.uleb128 0x6
 414 019c B4020000 		.4byte	.LASF35
 415 01a0 07       		.byte	0x7
 416 01a1 88       		.byte	0x88
 417 01a2 D5000000 		.4byte	0xd5
 418 01a6 1F       		.byte	0x1f
 419 01a7 06       		.uleb128 0x6
 420 01a8 64030000 		.4byte	.LASF36
 421 01ac 07       		.byte	0x7
 422 01ad 8F       		.byte	0x8f
 423 01ae 0B030000 		.4byte	0x30b
 424 01b2 20       		.byte	0x20
 425 01b3 07       		.uleb128 0x7
 426 01b4 705F7500 		.ascii	"p_u\000"
 427 01b8 07       		.byte	0x7
 428 01b9 B4       		.byte	0xb4
 429 01ba AE030000 		.4byte	0x3ae
 430 01be 24       		.byte	0x24
 431 01bf 06       		.uleb128 0x6
 432 01c0 CF030000 		.4byte	.LASF37
 433 01c4 07       		.byte	0x7
 434 01c5 B9       		.byte	0xb9
 435 01c6 5B020000 		.4byte	0x25b
 436 01ca 28       		.byte	0x28
 437 01cb 06       		.uleb128 0x6
 438 01cc 72030000 		.4byte	.LASF38
 439 01d0 07       		.byte	0x7
 440 01d1 BF       		.byte	0xbf
 441 01d2 3B020000 		.4byte	0x23b
 442 01d6 2C       		.byte	0x2c
 443 01d7 06       		.uleb128 0x6
 444 01d8 00000000 		.4byte	.LASF39
 445 01dc 07       		.byte	0x7
 446 01dd C3       		.byte	0xc3
 447 01de EB000000 		.4byte	0xeb
 448 01e2 34       		.byte	0x34
 449 01e3 06       		.uleb128 0x6
 450 01e4 05030000 		.4byte	.LASF40
 451 01e8 07       		.byte	0x7
 452 01e9 C9       		.byte	0xc9
 453 01ea F6000000 		.4byte	0xf6
 454 01ee 38       		.byte	0x38
 455 01ef 06       		.uleb128 0x6
 456 01f0 98020000 		.4byte	.LASF41
ARM GAS  /tmp/cchPstuO.s 			page 9


 457 01f4 07       		.byte	0x7
 458 01f5 D0       		.byte	0xd0
 459 01f6 F5030000 		.4byte	0x3f5
 460 01fa 3C       		.byte	0x3c
 461 01fb 06       		.uleb128 0x6
 462 01fc 4F030000 		.4byte	.LASF42
 463 0200 07       		.byte	0x7
 464 0201 D4       		.byte	0xd4
 465 0202 E0000000 		.4byte	0xe0
 466 0206 40       		.byte	0x40
 467 0207 06       		.uleb128 0x6
 468 0208 77000000 		.4byte	.LASF43
 469 020c 07       		.byte	0x7
 470 020d DA       		.byte	0xda
 471 020e 71020000 		.4byte	0x271
 472 0212 44       		.byte	0x44
 473 0213 00       		.byte	0
 474 0214 08       		.uleb128 0x8
 475 0215 08       		.byte	0x8
 476 0216 06       		.byte	0x6
 477 0217 61       		.byte	0x61
 478 0218 35020000 		.4byte	0x235
 479 021c 06       		.uleb128 0x6
 480 021d CC020000 		.4byte	.LASF25
 481 0221 06       		.byte	0x6
 482 0222 62       		.byte	0x62
 483 0223 35020000 		.4byte	0x235
 484 0227 00       		.byte	0
 485 0228 06       		.uleb128 0x6
 486 0229 6D020000 		.4byte	.LASF26
 487 022d 06       		.byte	0x6
 488 022e 64       		.byte	0x64
 489 022f 35020000 		.4byte	0x235
 490 0233 04       		.byte	0x4
 491 0234 00       		.byte	0
 492 0235 09       		.uleb128 0x9
 493 0236 04       		.byte	0x4
 494 0237 0C010000 		.4byte	0x10c
 495 023b 04       		.uleb128 0x4
 496 023c 46020000 		.4byte	.LASF44
 497 0240 06       		.byte	0x6
 498 0241 66       		.byte	0x66
 499 0242 14020000 		.4byte	0x214
 500 0246 08       		.uleb128 0x8
 501 0247 04       		.byte	0x4
 502 0248 06       		.byte	0x6
 503 0249 6B       		.byte	0x6b
 504 024a 5B020000 		.4byte	0x25b
 505 024e 06       		.uleb128 0x6
 506 024f CC020000 		.4byte	.LASF25
 507 0253 06       		.byte	0x6
 508 0254 6D       		.byte	0x6d
 509 0255 35020000 		.4byte	0x235
 510 0259 00       		.byte	0
 511 025a 00       		.byte	0
 512 025b 04       		.uleb128 0x4
 513 025c 11020000 		.4byte	.LASF45
ARM GAS  /tmp/cchPstuO.s 			page 10


 514 0260 06       		.byte	0x6
 515 0261 70       		.byte	0x70
 516 0262 46020000 		.4byte	0x246
 517 0266 04       		.uleb128 0x4
 518 0267 C0000000 		.4byte	.LASF46
 519 026b 08       		.byte	0x8
 520 026c A7       		.byte	0xa7
 521 026d 71020000 		.4byte	0x271
 522 0271 0A       		.uleb128 0xa
 523 0272 04       		.byte	0x4
 524 0273 05       		.uleb128 0x5
 525 0274 6B030000 		.4byte	.LASF47
 526 0278 24       		.byte	0x24
 527 0279 08       		.byte	0x8
 528 027a BA       		.byte	0xba
 529 027b E5020000 		.4byte	0x2e5
 530 027f 07       		.uleb128 0x7
 531 0280 723800   		.ascii	"r8\000"
 532 0283 08       		.byte	0x8
 533 0284 BB       		.byte	0xbb
 534 0285 66020000 		.4byte	0x266
 535 0289 00       		.byte	0
 536 028a 07       		.uleb128 0x7
 537 028b 723900   		.ascii	"r9\000"
 538 028e 08       		.byte	0x8
 539 028f BC       		.byte	0xbc
 540 0290 66020000 		.4byte	0x266
 541 0294 04       		.byte	0x4
 542 0295 07       		.uleb128 0x7
 543 0296 72313000 		.ascii	"r10\000"
 544 029a 08       		.byte	0x8
 545 029b BD       		.byte	0xbd
 546 029c 66020000 		.4byte	0x266
 547 02a0 08       		.byte	0x8
 548 02a1 07       		.uleb128 0x7
 549 02a2 72313100 		.ascii	"r11\000"
 550 02a6 08       		.byte	0x8
 551 02a7 BE       		.byte	0xbe
 552 02a8 66020000 		.4byte	0x266
 553 02ac 0C       		.byte	0xc
 554 02ad 07       		.uleb128 0x7
 555 02ae 723400   		.ascii	"r4\000"
 556 02b1 08       		.byte	0x8
 557 02b2 BF       		.byte	0xbf
 558 02b3 66020000 		.4byte	0x266
 559 02b7 10       		.byte	0x10
 560 02b8 07       		.uleb128 0x7
 561 02b9 723500   		.ascii	"r5\000"
 562 02bc 08       		.byte	0x8
 563 02bd C0       		.byte	0xc0
 564 02be 66020000 		.4byte	0x266
 565 02c2 14       		.byte	0x14
 566 02c3 07       		.uleb128 0x7
 567 02c4 723600   		.ascii	"r6\000"
 568 02c7 08       		.byte	0x8
 569 02c8 C1       		.byte	0xc1
 570 02c9 66020000 		.4byte	0x266
ARM GAS  /tmp/cchPstuO.s 			page 11


 571 02cd 18       		.byte	0x18
 572 02ce 07       		.uleb128 0x7
 573 02cf 723700   		.ascii	"r7\000"
 574 02d2 08       		.byte	0x8
 575 02d3 C2       		.byte	0xc2
 576 02d4 66020000 		.4byte	0x266
 577 02d8 1C       		.byte	0x1c
 578 02d9 07       		.uleb128 0x7
 579 02da 6C7200   		.ascii	"lr\000"
 580 02dd 08       		.byte	0x8
 581 02de C3       		.byte	0xc3
 582 02df 66020000 		.4byte	0x266
 583 02e3 20       		.byte	0x20
 584 02e4 00       		.byte	0
 585 02e5 05       		.uleb128 0x5
 586 02e6 23010000 		.4byte	.LASF48
 587 02ea 04       		.byte	0x4
 588 02eb 08       		.byte	0x8
 589 02ec CD       		.byte	0xcd
 590 02ed FE020000 		.4byte	0x2fe
 591 02f1 07       		.uleb128 0x7
 592 02f2 72313300 		.ascii	"r13\000"
 593 02f6 08       		.byte	0x8
 594 02f7 CE       		.byte	0xce
 595 02f8 FE020000 		.4byte	0x2fe
 596 02fc 00       		.byte	0
 597 02fd 00       		.byte	0
 598 02fe 09       		.uleb128 0x9
 599 02ff 04       		.byte	0x4
 600 0300 73020000 		.4byte	0x273
 601 0304 03       		.uleb128 0x3
 602 0305 04       		.byte	0x4
 603 0306 07       		.byte	0x7
 604 0307 2F020000 		.4byte	.LASF49
 605 030b 0B       		.uleb128 0xb
 606 030c 01010000 		.4byte	0x101
 607 0310 08       		.uleb128 0x8
 608 0311 1C       		.byte	0x1c
 609 0312 09       		.byte	0x9
 610 0313 5E       		.byte	0x5e
 611 0314 61030000 		.4byte	0x361
 612 0318 06       		.uleb128 0x6
 613 0319 19030000 		.4byte	.LASF50
 614 031d 09       		.byte	0x9
 615 031e 5F       		.byte	0x5f
 616 031f 3B020000 		.4byte	0x23b
 617 0323 00       		.byte	0
 618 0324 06       		.uleb128 0x6
 619 0325 BE020000 		.4byte	.LASF51
 620 0329 09       		.byte	0x9
 621 032a 60       		.byte	0x60
 622 032b E0000000 		.4byte	0xe0
 623 032f 08       		.byte	0x8
 624 0330 06       		.uleb128 0x6
 625 0331 40020000 		.4byte	.LASF52
 626 0335 09       		.byte	0x9
 627 0336 62       		.byte	0x62
ARM GAS  /tmp/cchPstuO.s 			page 12


 628 0337 E5020000 		.4byte	0x2e5
 629 033b 0C       		.byte	0xc
 630 033c 06       		.uleb128 0x6
 631 033d 44010000 		.4byte	.LASF53
 632 0341 09       		.byte	0x9
 633 0342 65       		.byte	0x65
 634 0343 35020000 		.4byte	0x235
 635 0347 10       		.byte	0x10
 636 0348 06       		.uleb128 0x6
 637 0349 5D020000 		.4byte	.LASF54
 638 034d 09       		.byte	0x9
 639 034e 66       		.byte	0x66
 640 034f 35020000 		.4byte	0x235
 641 0353 14       		.byte	0x14
 642 0354 06       		.uleb128 0x6
 643 0355 53020000 		.4byte	.LASF55
 644 0359 09       		.byte	0x9
 645 035a 69       		.byte	0x69
 646 035b 35020000 		.4byte	0x235
 647 035f 18       		.byte	0x18
 648 0360 00       		.byte	0
 649 0361 04       		.uleb128 0x4
 650 0362 9B030000 		.4byte	.LASF56
 651 0366 09       		.byte	0x9
 652 0367 6B       		.byte	0x6b
 653 0368 10030000 		.4byte	0x310
 654 036c 05       		.uleb128 0x5
 655 036d 29020000 		.4byte	.LASF57
 656 0371 10       		.byte	0x10
 657 0372 0A       		.byte	0xa
 658 0373 2C       		.byte	0x2c
 659 0374 9D030000 		.4byte	0x39d
 660 0378 06       		.uleb128 0x6
 661 0379 7F000000 		.4byte	.LASF58
 662 037d 0A       		.byte	0xa
 663 037e 2D       		.byte	0x2d
 664 037f 3B020000 		.4byte	0x23b
 665 0383 00       		.byte	0
 666 0384 06       		.uleb128 0x6
 667 0385 C1030000 		.4byte	.LASF59
 668 0389 0A       		.byte	0xa
 669 038a 2F       		.byte	0x2f
 670 038b 35020000 		.4byte	0x235
 671 038f 08       		.byte	0x8
 672 0390 06       		.uleb128 0x6
 673 0391 3E030000 		.4byte	.LASF60
 674 0395 0A       		.byte	0xa
 675 0396 31       		.byte	0x31
 676 0397 9D030000 		.4byte	0x39d
 677 039b 0C       		.byte	0xc
 678 039c 00       		.byte	0
 679 039d 09       		.uleb128 0x9
 680 039e 04       		.byte	0x4
 681 039f 6C030000 		.4byte	0x36c
 682 03a3 04       		.uleb128 0x4
 683 03a4 29020000 		.4byte	.LASF57
 684 03a8 0A       		.byte	0xa
ARM GAS  /tmp/cchPstuO.s 			page 13


 685 03a9 33       		.byte	0x33
 686 03aa 6C030000 		.4byte	0x36c
 687 03ae 0C       		.uleb128 0xc
 688 03af 04       		.byte	0x4
 689 03b0 07       		.byte	0x7
 690 03b1 96       		.byte	0x96
 691 03b2 E3030000 		.4byte	0x3e3
 692 03b6 0D       		.uleb128 0xd
 693 03b7 13000000 		.4byte	.LASF61
 694 03bb 07       		.byte	0x7
 695 03bc 9D       		.byte	0x9d
 696 03bd EB000000 		.4byte	0xeb
 697 03c1 0D       		.uleb128 0xd
 698 03c2 3B000000 		.4byte	.LASF62
 699 03c6 07       		.byte	0x7
 700 03c7 A4       		.byte	0xa4
 701 03c8 EB000000 		.4byte	0xeb
 702 03cc 0D       		.uleb128 0xd
 703 03cd B3030000 		.4byte	.LASF63
 704 03d1 07       		.byte	0x7
 705 03d2 AB       		.byte	0xab
 706 03d3 71020000 		.4byte	0x271
 707 03d7 0D       		.uleb128 0xd
 708 03d8 C5020000 		.4byte	.LASF64
 709 03dc 07       		.byte	0x7
 710 03dd B2       		.byte	0xb2
 711 03de F6000000 		.4byte	0xf6
 712 03e2 00       		.byte	0
 713 03e3 09       		.uleb128 0x9
 714 03e4 04       		.byte	0x4
 715 03e5 E9030000 		.4byte	0x3e9
 716 03e9 0E       		.uleb128 0xe
 717 03ea EE030000 		.4byte	0x3ee
 718 03ee 03       		.uleb128 0x3
 719 03ef 01       		.byte	0x1
 720 03f0 08       		.byte	0x8
 721 03f1 2D030000 		.4byte	.LASF65
 722 03f5 09       		.uleb128 0x9
 723 03f6 04       		.byte	0x4
 724 03f7 A3030000 		.4byte	0x3a3
 725 03fb 0F       		.uleb128 0xf
 726 03fc 06000000 		.4byte	.LASF71
 727 0400 02       		.byte	0x2
 728 0401 34       		.byte	0x34
 729 0402 03       		.byte	0x3
 730 0403 1D040000 		.4byte	0x41d
 731 0407 10       		.uleb128 0x10
 732 0408 747000   		.ascii	"tp\000"
 733 040b 02       		.byte	0x2
 734 040c 34       		.byte	0x34
 735 040d 35020000 		.4byte	0x235
 736 0411 10       		.uleb128 0x10
 737 0412 74717000 		.ascii	"tqp\000"
 738 0416 02       		.byte	0x2
 739 0417 34       		.byte	0x34
 740 0418 1D040000 		.4byte	0x41d
 741 041c 00       		.byte	0
ARM GAS  /tmp/cchPstuO.s 			page 14


 742 041d 09       		.uleb128 0x9
 743 041e 04       		.byte	0x4
 744 041f 3B020000 		.4byte	0x23b
 745 0423 11       		.uleb128 0x11
 746 0424 32030000 		.4byte	.LASF72
 747 0428 02       		.byte	0x2
 748 0429 3B       		.byte	0x3b
 749 042a 35020000 		.4byte	0x235
 750 042e 03       		.byte	0x3
 751 042f 49040000 		.4byte	0x449
 752 0433 10       		.uleb128 0x10
 753 0434 74717000 		.ascii	"tqp\000"
 754 0438 02       		.byte	0x2
 755 0439 3B       		.byte	0x3b
 756 043a 1D040000 		.4byte	0x41d
 757 043e 12       		.uleb128 0x12
 758 043f 747000   		.ascii	"tp\000"
 759 0442 02       		.byte	0x2
 760 0443 3C       		.byte	0x3c
 761 0444 35020000 		.4byte	0x235
 762 0448 00       		.byte	0
 763 0449 13       		.uleb128 0x13
 764 044a 9A000000 		.4byte	.LASF66
 765 044e 01       		.byte	0x1
 766 044f 4B       		.byte	0x4b
 767 0450 EB000000 		.4byte	0xeb
 768 0454 00000000 		.4byte	.LFB7
 769 0458 34000000 		.4byte	.LFE7-.LFB7
 770 045c 01       		.uleb128 0x1
 771 045d 9C       		.byte	0x9c
 772 045e D9040000 		.4byte	0x4d9
 773 0462 14       		.uleb128 0x14
 774 0463 747000   		.ascii	"tp\000"
 775 0466 01       		.byte	0x1
 776 0467 4B       		.byte	0x4b
 777 0468 35020000 		.4byte	0x235
 778 046c 00000000 		.4byte	.LLST0
 779 0470 14       		.uleb128 0x14
 780 0471 6D736700 		.ascii	"msg\000"
 781 0475 01       		.byte	0x1
 782 0476 4B       		.byte	0x4b
 783 0477 EB000000 		.4byte	0xeb
 784 047b 21000000 		.4byte	.LLST1
 785 047f 15       		.uleb128 0x15
 786 0480 63747000 		.ascii	"ctp\000"
 787 0484 01       		.byte	0x1
 788 0485 4C       		.byte	0x4c
 789 0486 35020000 		.4byte	0x235
 790 048a 4D000000 		.4byte	.LLST2
 791 048e 16       		.uleb128 0x16
 792 048f FB030000 		.4byte	0x3fb
 793 0493 10000000 		.4byte	.LBB6
 794 0497 0A000000 		.4byte	.LBE6-.LBB6
 795 049b 01       		.byte	0x1
 796 049c 53       		.byte	0x53
 797 049d B4040000 		.4byte	0x4b4
 798 04a1 17       		.uleb128 0x17
ARM GAS  /tmp/cchPstuO.s 			page 15


 799 04a2 11040000 		.4byte	0x411
 800 04a6 60000000 		.4byte	.LLST3
 801 04aa 17       		.uleb128 0x17
 802 04ab 07040000 		.4byte	0x407
 803 04af 9C000000 		.4byte	.LLST4
 804 04b3 00       		.byte	0
 805 04b4 18       		.uleb128 0x18
 806 04b5 24000000 		.4byte	.LVL5
 807 04b9 8E050000 		.4byte	0x58e
 808 04bd C9040000 		.4byte	0x4c9
 809 04c1 19       		.uleb128 0x19
 810 04c2 01       		.uleb128 0x1
 811 04c3 50       		.byte	0x50
 812 04c4 03       		.uleb128 0x3
 813 04c5 F3       		.byte	0xf3
 814 04c6 01       		.uleb128 0x1
 815 04c7 50       		.byte	0x50
 816 04c8 00       		.byte	0
 817 04c9 1A       		.uleb128 0x1a
 818 04ca 2A000000 		.4byte	.LVL6
 819 04ce A3050000 		.4byte	0x5a3
 820 04d2 19       		.uleb128 0x19
 821 04d3 01       		.uleb128 0x1
 822 04d4 50       		.byte	0x50
 823 04d5 01       		.uleb128 0x1
 824 04d6 3A       		.byte	0x3a
 825 04d7 00       		.byte	0
 826 04d8 00       		.byte	0
 827 04d9 13       		.uleb128 0x13
 828 04da 8A030000 		.4byte	.LASF67
 829 04de 01       		.byte	0x1
 830 04df 6A       		.byte	0x6a
 831 04e0 35020000 		.4byte	0x235
 832 04e4 00000000 		.4byte	.LFB8
 833 04e8 34000000 		.4byte	.LFE8-.LFB8
 834 04ec 01       		.uleb128 0x1
 835 04ed 9C       		.byte	0x9c
 836 04ee 38050000 		.4byte	0x538
 837 04f2 1B       		.uleb128 0x1b
 838 04f3 747000   		.ascii	"tp\000"
 839 04f6 01       		.byte	0x1
 840 04f7 6B       		.byte	0x6b
 841 04f8 35020000 		.4byte	0x235
 842 04fc 01       		.uleb128 0x1
 843 04fd 50       		.byte	0x50
 844 04fe 1C       		.uleb128 0x1c
 845 04ff 23040000 		.4byte	0x423
 846 0503 1C000000 		.4byte	.LBB8
 847 0507 00000000 		.4byte	.Ldebug_ranges0+0
 848 050b 01       		.byte	0x1
 849 050c 70       		.byte	0x70
 850 050d 28050000 		.4byte	0x528
 851 0511 17       		.uleb128 0x17
 852 0512 33040000 		.4byte	0x433
 853 0516 AF000000 		.4byte	.LLST5
 854 051a 1D       		.uleb128 0x1d
 855 051b 00000000 		.4byte	.Ldebug_ranges0+0
ARM GAS  /tmp/cchPstuO.s 			page 16


 856 051f 1E       		.uleb128 0x1e
 857 0520 3E040000 		.4byte	0x43e
 858 0524 01       		.uleb128 0x1
 859 0525 50       		.byte	0x50
 860 0526 00       		.byte	0
 861 0527 00       		.byte	0
 862 0528 1A       		.uleb128 0x1a
 863 0529 18000000 		.4byte	.LVL9
 864 052d A3050000 		.4byte	0x5a3
 865 0531 19       		.uleb128 0x19
 866 0532 01       		.uleb128 0x1
 867 0533 50       		.byte	0x50
 868 0534 01       		.uleb128 0x1
 869 0535 3C       		.byte	0x3c
 870 0536 00       		.byte	0
 871 0537 00       		.byte	0
 872 0538 1F       		.uleb128 0x1f
 873 0539 EA020000 		.4byte	.LASF73
 874 053d 01       		.byte	0x1
 875 053e 80       		.byte	0x80
 876 053f 00000000 		.4byte	.LFB9
 877 0543 0C000000 		.4byte	.LFE9-.LFB9
 878 0547 01       		.uleb128 0x1
 879 0548 9C       		.byte	0x9c
 880 0549 83050000 		.4byte	0x583
 881 054d 14       		.uleb128 0x14
 882 054e 747000   		.ascii	"tp\000"
 883 0551 01       		.byte	0x1
 884 0552 80       		.byte	0x80
 885 0553 35020000 		.4byte	0x235
 886 0557 DB000000 		.4byte	.LLST6
 887 055b 14       		.uleb128 0x14
 888 055c 6D736700 		.ascii	"msg\000"
 889 0560 01       		.byte	0x1
 890 0561 80       		.byte	0x80
 891 0562 EB000000 		.4byte	0xeb
 892 0566 FC000000 		.4byte	.LLST7
 893 056a 1A       		.uleb128 0x1a
 894 056b 08000000 		.4byte	.LVL16
 895 056f B4050000 		.4byte	0x5b4
 896 0573 19       		.uleb128 0x19
 897 0574 01       		.uleb128 0x1
 898 0575 51       		.byte	0x51
 899 0576 03       		.uleb128 0x3
 900 0577 F3       		.byte	0xf3
 901 0578 01       		.uleb128 0x1
 902 0579 51       		.byte	0x51
 903 057a 19       		.uleb128 0x19
 904 057b 01       		.uleb128 0x1
 905 057c 50       		.byte	0x50
 906 057d 03       		.uleb128 0x3
 907 057e F3       		.byte	0xf3
 908 057f 01       		.uleb128 0x1
 909 0580 50       		.byte	0x50
 910 0581 00       		.byte	0
 911 0582 00       		.byte	0
 912 0583 20       		.uleb128 0x20
ARM GAS  /tmp/cchPstuO.s 			page 17


 913 0584 A5030000 		.4byte	.LASF74
 914 0588 09       		.byte	0x9
 915 0589 6F       		.byte	0x6f
 916 058a 61030000 		.4byte	0x361
 917 058e 21       		.uleb128 0x21
 918 058f 21030000 		.4byte	.LASF75
 919 0593 09       		.byte	0x9
 920 0594 90       		.byte	0x90
 921 0595 35020000 		.4byte	0x235
 922 0599 A3050000 		.4byte	0x5a3
 923 059d 22       		.uleb128 0x22
 924 059e 35020000 		.4byte	0x235
 925 05a2 00       		.byte	0
 926 05a3 23       		.uleb128 0x23
 927 05a4 F7020000 		.4byte	.LASF76
 928 05a8 09       		.byte	0x9
 929 05a9 93       		.byte	0x93
 930 05aa B4050000 		.4byte	0x5b4
 931 05ae 22       		.uleb128 0x22
 932 05af BF000000 		.4byte	0xbf
 933 05b3 00       		.byte	0
 934 05b4 24       		.uleb128 0x24
 935 05b5 7D030000 		.4byte	.LASF77
 936 05b9 09       		.byte	0x9
 937 05ba 99       		.byte	0x99
 938 05bb 22       		.uleb128 0x22
 939 05bc 35020000 		.4byte	0x235
 940 05c0 22       		.uleb128 0x22
 941 05c1 EB000000 		.4byte	0xeb
 942 05c5 00       		.byte	0
 943 05c6 00       		.byte	0
 944              		.section	.debug_abbrev,"",%progbits
 945              	.Ldebug_abbrev0:
 946 0000 01       		.uleb128 0x1
 947 0001 11       		.uleb128 0x11
 948 0002 01       		.byte	0x1
 949 0003 25       		.uleb128 0x25
 950 0004 0E       		.uleb128 0xe
 951 0005 13       		.uleb128 0x13
 952 0006 0B       		.uleb128 0xb
 953 0007 03       		.uleb128 0x3
 954 0008 0E       		.uleb128 0xe
 955 0009 1B       		.uleb128 0x1b
 956 000a 0E       		.uleb128 0xe
 957 000b 55       		.uleb128 0x55
 958 000c 17       		.uleb128 0x17
 959 000d 11       		.uleb128 0x11
 960 000e 01       		.uleb128 0x1
 961 000f 10       		.uleb128 0x10
 962 0010 17       		.uleb128 0x17
 963 0011 00       		.byte	0
 964 0012 00       		.byte	0
 965 0013 02       		.uleb128 0x2
 966 0014 24       		.uleb128 0x24
 967 0015 00       		.byte	0
 968 0016 0B       		.uleb128 0xb
 969 0017 0B       		.uleb128 0xb
ARM GAS  /tmp/cchPstuO.s 			page 18


 970 0018 3E       		.uleb128 0x3e
 971 0019 0B       		.uleb128 0xb
 972 001a 03       		.uleb128 0x3
 973 001b 08       		.uleb128 0x8
 974 001c 00       		.byte	0
 975 001d 00       		.byte	0
 976 001e 03       		.uleb128 0x3
 977 001f 24       		.uleb128 0x24
 978 0020 00       		.byte	0
 979 0021 0B       		.uleb128 0xb
 980 0022 0B       		.uleb128 0xb
 981 0023 3E       		.uleb128 0x3e
 982 0024 0B       		.uleb128 0xb
 983 0025 03       		.uleb128 0x3
 984 0026 0E       		.uleb128 0xe
 985 0027 00       		.byte	0
 986 0028 00       		.byte	0
 987 0029 04       		.uleb128 0x4
 988 002a 16       		.uleb128 0x16
 989 002b 00       		.byte	0
 990 002c 03       		.uleb128 0x3
 991 002d 0E       		.uleb128 0xe
 992 002e 3A       		.uleb128 0x3a
 993 002f 0B       		.uleb128 0xb
 994 0030 3B       		.uleb128 0x3b
 995 0031 0B       		.uleb128 0xb
 996 0032 49       		.uleb128 0x49
 997 0033 13       		.uleb128 0x13
 998 0034 00       		.byte	0
 999 0035 00       		.byte	0
 1000 0036 05       		.uleb128 0x5
 1001 0037 13       		.uleb128 0x13
 1002 0038 01       		.byte	0x1
 1003 0039 03       		.uleb128 0x3
 1004 003a 0E       		.uleb128 0xe
 1005 003b 0B       		.uleb128 0xb
 1006 003c 0B       		.uleb128 0xb
 1007 003d 3A       		.uleb128 0x3a
 1008 003e 0B       		.uleb128 0xb
 1009 003f 3B       		.uleb128 0x3b
 1010 0040 0B       		.uleb128 0xb
 1011 0041 01       		.uleb128 0x1
 1012 0042 13       		.uleb128 0x13
 1013 0043 00       		.byte	0
 1014 0044 00       		.byte	0
 1015 0045 06       		.uleb128 0x6
 1016 0046 0D       		.uleb128 0xd
 1017 0047 00       		.byte	0
 1018 0048 03       		.uleb128 0x3
 1019 0049 0E       		.uleb128 0xe
 1020 004a 3A       		.uleb128 0x3a
 1021 004b 0B       		.uleb128 0xb
 1022 004c 3B       		.uleb128 0x3b
 1023 004d 0B       		.uleb128 0xb
 1024 004e 49       		.uleb128 0x49
 1025 004f 13       		.uleb128 0x13
 1026 0050 38       		.uleb128 0x38
ARM GAS  /tmp/cchPstuO.s 			page 19


 1027 0051 0B       		.uleb128 0xb
 1028 0052 00       		.byte	0
 1029 0053 00       		.byte	0
 1030 0054 07       		.uleb128 0x7
 1031 0055 0D       		.uleb128 0xd
 1032 0056 00       		.byte	0
 1033 0057 03       		.uleb128 0x3
 1034 0058 08       		.uleb128 0x8
 1035 0059 3A       		.uleb128 0x3a
 1036 005a 0B       		.uleb128 0xb
 1037 005b 3B       		.uleb128 0x3b
 1038 005c 0B       		.uleb128 0xb
 1039 005d 49       		.uleb128 0x49
 1040 005e 13       		.uleb128 0x13
 1041 005f 38       		.uleb128 0x38
 1042 0060 0B       		.uleb128 0xb
 1043 0061 00       		.byte	0
 1044 0062 00       		.byte	0
 1045 0063 08       		.uleb128 0x8
 1046 0064 13       		.uleb128 0x13
 1047 0065 01       		.byte	0x1
 1048 0066 0B       		.uleb128 0xb
 1049 0067 0B       		.uleb128 0xb
 1050 0068 3A       		.uleb128 0x3a
 1051 0069 0B       		.uleb128 0xb
 1052 006a 3B       		.uleb128 0x3b
 1053 006b 0B       		.uleb128 0xb
 1054 006c 01       		.uleb128 0x1
 1055 006d 13       		.uleb128 0x13
 1056 006e 00       		.byte	0
 1057 006f 00       		.byte	0
 1058 0070 09       		.uleb128 0x9
 1059 0071 0F       		.uleb128 0xf
 1060 0072 00       		.byte	0
 1061 0073 0B       		.uleb128 0xb
 1062 0074 0B       		.uleb128 0xb
 1063 0075 49       		.uleb128 0x49
 1064 0076 13       		.uleb128 0x13
 1065 0077 00       		.byte	0
 1066 0078 00       		.byte	0
 1067 0079 0A       		.uleb128 0xa
 1068 007a 0F       		.uleb128 0xf
 1069 007b 00       		.byte	0
 1070 007c 0B       		.uleb128 0xb
 1071 007d 0B       		.uleb128 0xb
 1072 007e 00       		.byte	0
 1073 007f 00       		.byte	0
 1074 0080 0B       		.uleb128 0xb
 1075 0081 35       		.uleb128 0x35
 1076 0082 00       		.byte	0
 1077 0083 49       		.uleb128 0x49
 1078 0084 13       		.uleb128 0x13
 1079 0085 00       		.byte	0
 1080 0086 00       		.byte	0
 1081 0087 0C       		.uleb128 0xc
 1082 0088 17       		.uleb128 0x17
 1083 0089 01       		.byte	0x1
ARM GAS  /tmp/cchPstuO.s 			page 20


 1084 008a 0B       		.uleb128 0xb
 1085 008b 0B       		.uleb128 0xb
 1086 008c 3A       		.uleb128 0x3a
 1087 008d 0B       		.uleb128 0xb
 1088 008e 3B       		.uleb128 0x3b
 1089 008f 0B       		.uleb128 0xb
 1090 0090 01       		.uleb128 0x1
 1091 0091 13       		.uleb128 0x13
 1092 0092 00       		.byte	0
 1093 0093 00       		.byte	0
 1094 0094 0D       		.uleb128 0xd
 1095 0095 0D       		.uleb128 0xd
 1096 0096 00       		.byte	0
 1097 0097 03       		.uleb128 0x3
 1098 0098 0E       		.uleb128 0xe
 1099 0099 3A       		.uleb128 0x3a
 1100 009a 0B       		.uleb128 0xb
 1101 009b 3B       		.uleb128 0x3b
 1102 009c 0B       		.uleb128 0xb
 1103 009d 49       		.uleb128 0x49
 1104 009e 13       		.uleb128 0x13
 1105 009f 00       		.byte	0
 1106 00a0 00       		.byte	0
 1107 00a1 0E       		.uleb128 0xe
 1108 00a2 26       		.uleb128 0x26
 1109 00a3 00       		.byte	0
 1110 00a4 49       		.uleb128 0x49
 1111 00a5 13       		.uleb128 0x13
 1112 00a6 00       		.byte	0
 1113 00a7 00       		.byte	0
 1114 00a8 0F       		.uleb128 0xf
 1115 00a9 2E       		.uleb128 0x2e
 1116 00aa 01       		.byte	0x1
 1117 00ab 03       		.uleb128 0x3
 1118 00ac 0E       		.uleb128 0xe
 1119 00ad 3A       		.uleb128 0x3a
 1120 00ae 0B       		.uleb128 0xb
 1121 00af 3B       		.uleb128 0x3b
 1122 00b0 0B       		.uleb128 0xb
 1123 00b1 27       		.uleb128 0x27
 1124 00b2 19       		.uleb128 0x19
 1125 00b3 20       		.uleb128 0x20
 1126 00b4 0B       		.uleb128 0xb
 1127 00b5 01       		.uleb128 0x1
 1128 00b6 13       		.uleb128 0x13
 1129 00b7 00       		.byte	0
 1130 00b8 00       		.byte	0
 1131 00b9 10       		.uleb128 0x10
 1132 00ba 05       		.uleb128 0x5
 1133 00bb 00       		.byte	0
 1134 00bc 03       		.uleb128 0x3
 1135 00bd 08       		.uleb128 0x8
 1136 00be 3A       		.uleb128 0x3a
 1137 00bf 0B       		.uleb128 0xb
 1138 00c0 3B       		.uleb128 0x3b
 1139 00c1 0B       		.uleb128 0xb
 1140 00c2 49       		.uleb128 0x49
ARM GAS  /tmp/cchPstuO.s 			page 21


 1141 00c3 13       		.uleb128 0x13
 1142 00c4 00       		.byte	0
 1143 00c5 00       		.byte	0
 1144 00c6 11       		.uleb128 0x11
 1145 00c7 2E       		.uleb128 0x2e
 1146 00c8 01       		.byte	0x1
 1147 00c9 03       		.uleb128 0x3
 1148 00ca 0E       		.uleb128 0xe
 1149 00cb 3A       		.uleb128 0x3a
 1150 00cc 0B       		.uleb128 0xb
 1151 00cd 3B       		.uleb128 0x3b
 1152 00ce 0B       		.uleb128 0xb
 1153 00cf 27       		.uleb128 0x27
 1154 00d0 19       		.uleb128 0x19
 1155 00d1 49       		.uleb128 0x49
 1156 00d2 13       		.uleb128 0x13
 1157 00d3 20       		.uleb128 0x20
 1158 00d4 0B       		.uleb128 0xb
 1159 00d5 01       		.uleb128 0x1
 1160 00d6 13       		.uleb128 0x13
 1161 00d7 00       		.byte	0
 1162 00d8 00       		.byte	0
 1163 00d9 12       		.uleb128 0x12
 1164 00da 34       		.uleb128 0x34
 1165 00db 00       		.byte	0
 1166 00dc 03       		.uleb128 0x3
 1167 00dd 08       		.uleb128 0x8
 1168 00de 3A       		.uleb128 0x3a
 1169 00df 0B       		.uleb128 0xb
 1170 00e0 3B       		.uleb128 0x3b
 1171 00e1 0B       		.uleb128 0xb
 1172 00e2 49       		.uleb128 0x49
 1173 00e3 13       		.uleb128 0x13
 1174 00e4 00       		.byte	0
 1175 00e5 00       		.byte	0
 1176 00e6 13       		.uleb128 0x13
 1177 00e7 2E       		.uleb128 0x2e
 1178 00e8 01       		.byte	0x1
 1179 00e9 3F       		.uleb128 0x3f
 1180 00ea 19       		.uleb128 0x19
 1181 00eb 03       		.uleb128 0x3
 1182 00ec 0E       		.uleb128 0xe
 1183 00ed 3A       		.uleb128 0x3a
 1184 00ee 0B       		.uleb128 0xb
 1185 00ef 3B       		.uleb128 0x3b
 1186 00f0 0B       		.uleb128 0xb
 1187 00f1 27       		.uleb128 0x27
 1188 00f2 19       		.uleb128 0x19
 1189 00f3 49       		.uleb128 0x49
 1190 00f4 13       		.uleb128 0x13
 1191 00f5 11       		.uleb128 0x11
 1192 00f6 01       		.uleb128 0x1
 1193 00f7 12       		.uleb128 0x12
 1194 00f8 06       		.uleb128 0x6
 1195 00f9 40       		.uleb128 0x40
 1196 00fa 18       		.uleb128 0x18
 1197 00fb 9742     		.uleb128 0x2117
ARM GAS  /tmp/cchPstuO.s 			page 22


 1198 00fd 19       		.uleb128 0x19
 1199 00fe 01       		.uleb128 0x1
 1200 00ff 13       		.uleb128 0x13
 1201 0100 00       		.byte	0
 1202 0101 00       		.byte	0
 1203 0102 14       		.uleb128 0x14
 1204 0103 05       		.uleb128 0x5
 1205 0104 00       		.byte	0
 1206 0105 03       		.uleb128 0x3
 1207 0106 08       		.uleb128 0x8
 1208 0107 3A       		.uleb128 0x3a
 1209 0108 0B       		.uleb128 0xb
 1210 0109 3B       		.uleb128 0x3b
 1211 010a 0B       		.uleb128 0xb
 1212 010b 49       		.uleb128 0x49
 1213 010c 13       		.uleb128 0x13
 1214 010d 02       		.uleb128 0x2
 1215 010e 17       		.uleb128 0x17
 1216 010f 00       		.byte	0
 1217 0110 00       		.byte	0
 1218 0111 15       		.uleb128 0x15
 1219 0112 34       		.uleb128 0x34
 1220 0113 00       		.byte	0
 1221 0114 03       		.uleb128 0x3
 1222 0115 08       		.uleb128 0x8
 1223 0116 3A       		.uleb128 0x3a
 1224 0117 0B       		.uleb128 0xb
 1225 0118 3B       		.uleb128 0x3b
 1226 0119 0B       		.uleb128 0xb
 1227 011a 49       		.uleb128 0x49
 1228 011b 13       		.uleb128 0x13
 1229 011c 02       		.uleb128 0x2
 1230 011d 17       		.uleb128 0x17
 1231 011e 00       		.byte	0
 1232 011f 00       		.byte	0
 1233 0120 16       		.uleb128 0x16
 1234 0121 1D       		.uleb128 0x1d
 1235 0122 01       		.byte	0x1
 1236 0123 31       		.uleb128 0x31
 1237 0124 13       		.uleb128 0x13
 1238 0125 11       		.uleb128 0x11
 1239 0126 01       		.uleb128 0x1
 1240 0127 12       		.uleb128 0x12
 1241 0128 06       		.uleb128 0x6
 1242 0129 58       		.uleb128 0x58
 1243 012a 0B       		.uleb128 0xb
 1244 012b 59       		.uleb128 0x59
 1245 012c 0B       		.uleb128 0xb
 1246 012d 01       		.uleb128 0x1
 1247 012e 13       		.uleb128 0x13
 1248 012f 00       		.byte	0
 1249 0130 00       		.byte	0
 1250 0131 17       		.uleb128 0x17
 1251 0132 05       		.uleb128 0x5
 1252 0133 00       		.byte	0
 1253 0134 31       		.uleb128 0x31
 1254 0135 13       		.uleb128 0x13
ARM GAS  /tmp/cchPstuO.s 			page 23


 1255 0136 02       		.uleb128 0x2
 1256 0137 17       		.uleb128 0x17
 1257 0138 00       		.byte	0
 1258 0139 00       		.byte	0
 1259 013a 18       		.uleb128 0x18
 1260 013b 898201   		.uleb128 0x4109
 1261 013e 01       		.byte	0x1
 1262 013f 11       		.uleb128 0x11
 1263 0140 01       		.uleb128 0x1
 1264 0141 31       		.uleb128 0x31
 1265 0142 13       		.uleb128 0x13
 1266 0143 01       		.uleb128 0x1
 1267 0144 13       		.uleb128 0x13
 1268 0145 00       		.byte	0
 1269 0146 00       		.byte	0
 1270 0147 19       		.uleb128 0x19
 1271 0148 8A8201   		.uleb128 0x410a
 1272 014b 00       		.byte	0
 1273 014c 02       		.uleb128 0x2
 1274 014d 18       		.uleb128 0x18
 1275 014e 9142     		.uleb128 0x2111
 1276 0150 18       		.uleb128 0x18
 1277 0151 00       		.byte	0
 1278 0152 00       		.byte	0
 1279 0153 1A       		.uleb128 0x1a
 1280 0154 898201   		.uleb128 0x4109
 1281 0157 01       		.byte	0x1
 1282 0158 11       		.uleb128 0x11
 1283 0159 01       		.uleb128 0x1
 1284 015a 31       		.uleb128 0x31
 1285 015b 13       		.uleb128 0x13
 1286 015c 00       		.byte	0
 1287 015d 00       		.byte	0
 1288 015e 1B       		.uleb128 0x1b
 1289 015f 34       		.uleb128 0x34
 1290 0160 00       		.byte	0
 1291 0161 03       		.uleb128 0x3
 1292 0162 08       		.uleb128 0x8
 1293 0163 3A       		.uleb128 0x3a
 1294 0164 0B       		.uleb128 0xb
 1295 0165 3B       		.uleb128 0x3b
 1296 0166 0B       		.uleb128 0xb
 1297 0167 49       		.uleb128 0x49
 1298 0168 13       		.uleb128 0x13
 1299 0169 02       		.uleb128 0x2
 1300 016a 18       		.uleb128 0x18
 1301 016b 00       		.byte	0
 1302 016c 00       		.byte	0
 1303 016d 1C       		.uleb128 0x1c
 1304 016e 1D       		.uleb128 0x1d
 1305 016f 01       		.byte	0x1
 1306 0170 31       		.uleb128 0x31
 1307 0171 13       		.uleb128 0x13
 1308 0172 52       		.uleb128 0x52
 1309 0173 01       		.uleb128 0x1
 1310 0174 55       		.uleb128 0x55
 1311 0175 17       		.uleb128 0x17
ARM GAS  /tmp/cchPstuO.s 			page 24


 1312 0176 58       		.uleb128 0x58
 1313 0177 0B       		.uleb128 0xb
 1314 0178 59       		.uleb128 0x59
 1315 0179 0B       		.uleb128 0xb
 1316 017a 01       		.uleb128 0x1
 1317 017b 13       		.uleb128 0x13
 1318 017c 00       		.byte	0
 1319 017d 00       		.byte	0
 1320 017e 1D       		.uleb128 0x1d
 1321 017f 0B       		.uleb128 0xb
 1322 0180 01       		.byte	0x1
 1323 0181 55       		.uleb128 0x55
 1324 0182 17       		.uleb128 0x17
 1325 0183 00       		.byte	0
 1326 0184 00       		.byte	0
 1327 0185 1E       		.uleb128 0x1e
 1328 0186 34       		.uleb128 0x34
 1329 0187 00       		.byte	0
 1330 0188 31       		.uleb128 0x31
 1331 0189 13       		.uleb128 0x13
 1332 018a 02       		.uleb128 0x2
 1333 018b 18       		.uleb128 0x18
 1334 018c 00       		.byte	0
 1335 018d 00       		.byte	0
 1336 018e 1F       		.uleb128 0x1f
 1337 018f 2E       		.uleb128 0x2e
 1338 0190 01       		.byte	0x1
 1339 0191 3F       		.uleb128 0x3f
 1340 0192 19       		.uleb128 0x19
 1341 0193 03       		.uleb128 0x3
 1342 0194 0E       		.uleb128 0xe
 1343 0195 3A       		.uleb128 0x3a
 1344 0196 0B       		.uleb128 0xb
 1345 0197 3B       		.uleb128 0x3b
 1346 0198 0B       		.uleb128 0xb
 1347 0199 27       		.uleb128 0x27
 1348 019a 19       		.uleb128 0x19
 1349 019b 11       		.uleb128 0x11
 1350 019c 01       		.uleb128 0x1
 1351 019d 12       		.uleb128 0x12
 1352 019e 06       		.uleb128 0x6
 1353 019f 40       		.uleb128 0x40
 1354 01a0 18       		.uleb128 0x18
 1355 01a1 9742     		.uleb128 0x2117
 1356 01a3 19       		.uleb128 0x19
 1357 01a4 01       		.uleb128 0x1
 1358 01a5 13       		.uleb128 0x13
 1359 01a6 00       		.byte	0
 1360 01a7 00       		.byte	0
 1361 01a8 20       		.uleb128 0x20
 1362 01a9 34       		.uleb128 0x34
 1363 01aa 00       		.byte	0
 1364 01ab 03       		.uleb128 0x3
 1365 01ac 0E       		.uleb128 0xe
 1366 01ad 3A       		.uleb128 0x3a
 1367 01ae 0B       		.uleb128 0xb
 1368 01af 3B       		.uleb128 0x3b
ARM GAS  /tmp/cchPstuO.s 			page 25


 1369 01b0 0B       		.uleb128 0xb
 1370 01b1 49       		.uleb128 0x49
 1371 01b2 13       		.uleb128 0x13
 1372 01b3 3F       		.uleb128 0x3f
 1373 01b4 19       		.uleb128 0x19
 1374 01b5 3C       		.uleb128 0x3c
 1375 01b6 19       		.uleb128 0x19
 1376 01b7 00       		.byte	0
 1377 01b8 00       		.byte	0
 1378 01b9 21       		.uleb128 0x21
 1379 01ba 2E       		.uleb128 0x2e
 1380 01bb 01       		.byte	0x1
 1381 01bc 3F       		.uleb128 0x3f
 1382 01bd 19       		.uleb128 0x19
 1383 01be 03       		.uleb128 0x3
 1384 01bf 0E       		.uleb128 0xe
 1385 01c0 3A       		.uleb128 0x3a
 1386 01c1 0B       		.uleb128 0xb
 1387 01c2 3B       		.uleb128 0x3b
 1388 01c3 0B       		.uleb128 0xb
 1389 01c4 27       		.uleb128 0x27
 1390 01c5 19       		.uleb128 0x19
 1391 01c6 49       		.uleb128 0x49
 1392 01c7 13       		.uleb128 0x13
 1393 01c8 3C       		.uleb128 0x3c
 1394 01c9 19       		.uleb128 0x19
 1395 01ca 01       		.uleb128 0x1
 1396 01cb 13       		.uleb128 0x13
 1397 01cc 00       		.byte	0
 1398 01cd 00       		.byte	0
 1399 01ce 22       		.uleb128 0x22
 1400 01cf 05       		.uleb128 0x5
 1401 01d0 00       		.byte	0
 1402 01d1 49       		.uleb128 0x49
 1403 01d2 13       		.uleb128 0x13
 1404 01d3 00       		.byte	0
 1405 01d4 00       		.byte	0
 1406 01d5 23       		.uleb128 0x23
 1407 01d6 2E       		.uleb128 0x2e
 1408 01d7 01       		.byte	0x1
 1409 01d8 3F       		.uleb128 0x3f
 1410 01d9 19       		.uleb128 0x19
 1411 01da 03       		.uleb128 0x3
 1412 01db 0E       		.uleb128 0xe
 1413 01dc 3A       		.uleb128 0x3a
 1414 01dd 0B       		.uleb128 0xb
 1415 01de 3B       		.uleb128 0x3b
 1416 01df 0B       		.uleb128 0xb
 1417 01e0 27       		.uleb128 0x27
 1418 01e1 19       		.uleb128 0x19
 1419 01e2 3C       		.uleb128 0x3c
 1420 01e3 19       		.uleb128 0x19
 1421 01e4 01       		.uleb128 0x1
 1422 01e5 13       		.uleb128 0x13
 1423 01e6 00       		.byte	0
 1424 01e7 00       		.byte	0
 1425 01e8 24       		.uleb128 0x24
ARM GAS  /tmp/cchPstuO.s 			page 26


 1426 01e9 2E       		.uleb128 0x2e
 1427 01ea 01       		.byte	0x1
 1428 01eb 3F       		.uleb128 0x3f
 1429 01ec 19       		.uleb128 0x19
 1430 01ed 03       		.uleb128 0x3
 1431 01ee 0E       		.uleb128 0xe
 1432 01ef 3A       		.uleb128 0x3a
 1433 01f0 0B       		.uleb128 0xb
 1434 01f1 3B       		.uleb128 0x3b
 1435 01f2 0B       		.uleb128 0xb
 1436 01f3 27       		.uleb128 0x27
 1437 01f4 19       		.uleb128 0x19
 1438 01f5 3C       		.uleb128 0x3c
 1439 01f6 19       		.uleb128 0x19
 1440 01f7 00       		.byte	0
 1441 01f8 00       		.byte	0
 1442 01f9 00       		.byte	0
 1443              		.section	.debug_loc,"",%progbits
 1444              	.Ldebug_loc0:
 1445              	.LLST0:
 1446 0000 00000000 		.4byte	.LVL0
 1447 0004 23000000 		.4byte	.LVL5-1
 1448 0008 0100     		.2byte	0x1
 1449 000a 50       		.byte	0x50
 1450 000b 23000000 		.4byte	.LVL5-1
 1451 000f 34000000 		.4byte	.LFE7
 1452 0013 0400     		.2byte	0x4
 1453 0015 F3       		.byte	0xf3
 1454 0016 01       		.uleb128 0x1
 1455 0017 50       		.byte	0x50
 1456 0018 9F       		.byte	0x9f
 1457 0019 00000000 		.4byte	0
 1458 001d 00000000 		.4byte	0
 1459              	.LLST1:
 1460 0021 00000000 		.4byte	.LVL0
 1461 0025 23000000 		.4byte	.LVL5-1
 1462 0029 0100     		.2byte	0x1
 1463 002b 51       		.byte	0x51
 1464 002c 23000000 		.4byte	.LVL5-1
 1465 0030 2C000000 		.4byte	.LVL7
 1466 0034 0400     		.2byte	0x4
 1467 0036 F3       		.byte	0xf3
 1468 0037 01       		.uleb128 0x1
 1469 0038 51       		.byte	0x51
 1470 0039 9F       		.byte	0x9f
 1471 003a 2C000000 		.4byte	.LVL7
 1472 003e 34000000 		.4byte	.LFE7
 1473 0042 0100     		.2byte	0x1
 1474 0044 50       		.byte	0x50
 1475 0045 00000000 		.4byte	0
 1476 0049 00000000 		.4byte	0
 1477              	.LLST2:
 1478 004d 06000000 		.4byte	.LVL1
 1479 0051 2E000000 		.4byte	.LVL8
 1480 0055 0100     		.2byte	0x1
 1481 0057 54       		.byte	0x54
 1482 0058 00000000 		.4byte	0
ARM GAS  /tmp/cchPstuO.s 			page 27


 1483 005c 00000000 		.4byte	0
 1484              	.LLST3:
 1485 0060 10000000 		.4byte	.LVL2
 1486 0064 14000000 		.4byte	.LVL3
 1487 0068 0100     		.2byte	0x1
 1488 006a 53       		.byte	0x53
 1489 006b 14000000 		.4byte	.LVL3
 1490 006f 18000000 		.4byte	.LVL4
 1491 0073 0200     		.2byte	0x2
 1492 0075 74       		.byte	0x74
 1493 0076 00       		.sleb128 0
 1494 0077 18000000 		.4byte	.LVL4
 1495 007b 23000000 		.4byte	.LVL5-1
 1496 007f 0300     		.2byte	0x3
 1497 0081 70       		.byte	0x70
 1498 0082 2C       		.sleb128 44
 1499 0083 9F       		.byte	0x9f
 1500 0084 23000000 		.4byte	.LVL5-1
 1501 0088 34000000 		.4byte	.LFE7
 1502 008c 0600     		.2byte	0x6
 1503 008e F3       		.byte	0xf3
 1504 008f 01       		.uleb128 0x1
 1505 0090 50       		.byte	0x50
 1506 0091 23       		.byte	0x23
 1507 0092 2C       		.uleb128 0x2c
 1508 0093 9F       		.byte	0x9f
 1509 0094 00000000 		.4byte	0
 1510 0098 00000000 		.4byte	0
 1511              	.LLST4:
 1512 009c 10000000 		.4byte	.LVL2
 1513 00a0 2E000000 		.4byte	.LVL8
 1514 00a4 0100     		.2byte	0x1
 1515 00a6 54       		.byte	0x54
 1516 00a7 00000000 		.4byte	0
 1517 00ab 00000000 		.4byte	0
 1518              	.LLST5:
 1519 00af 1C000000 		.4byte	.LVL10
 1520 00b3 24000000 		.4byte	.LVL12
 1521 00b7 0300     		.2byte	0x3
 1522 00b9 73       		.byte	0x73
 1523 00ba 2C       		.sleb128 44
 1524 00bb 9F       		.byte	0x9f
 1525 00bc 24000000 		.4byte	.LVL12
 1526 00c0 28000000 		.4byte	.LVL13
 1527 00c4 0100     		.2byte	0x1
 1528 00c6 53       		.byte	0x53
 1529 00c7 28000000 		.4byte	.LVL13
 1530 00cb 2A000000 		.4byte	.LVL14
 1531 00cf 0200     		.2byte	0x2
 1532 00d1 72       		.byte	0x72
 1533 00d2 04       		.sleb128 4
 1534 00d3 00000000 		.4byte	0
 1535 00d7 00000000 		.4byte	0
 1536              	.LLST6:
 1537 00db 00000000 		.4byte	.LVL15
 1538 00df 07000000 		.4byte	.LVL16-1
 1539 00e3 0100     		.2byte	0x1
ARM GAS  /tmp/cchPstuO.s 			page 28


 1540 00e5 50       		.byte	0x50
 1541 00e6 07000000 		.4byte	.LVL16-1
 1542 00ea 0C000000 		.4byte	.LFE9
 1543 00ee 0400     		.2byte	0x4
 1544 00f0 F3       		.byte	0xf3
 1545 00f1 01       		.uleb128 0x1
 1546 00f2 50       		.byte	0x50
 1547 00f3 9F       		.byte	0x9f
 1548 00f4 00000000 		.4byte	0
 1549 00f8 00000000 		.4byte	0
 1550              	.LLST7:
 1551 00fc 00000000 		.4byte	.LVL15
 1552 0100 07000000 		.4byte	.LVL16-1
 1553 0104 0100     		.2byte	0x1
 1554 0106 51       		.byte	0x51
 1555 0107 07000000 		.4byte	.LVL16-1
 1556 010b 0C000000 		.4byte	.LFE9
 1557 010f 0400     		.2byte	0x4
 1558 0111 F3       		.byte	0xf3
 1559 0112 01       		.uleb128 0x1
 1560 0113 51       		.byte	0x51
 1561 0114 9F       		.byte	0x9f
 1562 0115 00000000 		.4byte	0
 1563 0119 00000000 		.4byte	0
 1564              		.section	.debug_aranges,"",%progbits
 1565 0000 2C000000 		.4byte	0x2c
 1566 0004 0200     		.2byte	0x2
 1567 0006 00000000 		.4byte	.Ldebug_info0
 1568 000a 04       		.byte	0x4
 1569 000b 00       		.byte	0
 1570 000c 0000     		.2byte	0
 1571 000e 0000     		.2byte	0
 1572 0010 00000000 		.4byte	.LFB7
 1573 0014 34000000 		.4byte	.LFE7-.LFB7
 1574 0018 00000000 		.4byte	.LFB8
 1575 001c 34000000 		.4byte	.LFE8-.LFB8
 1576 0020 00000000 		.4byte	.LFB9
 1577 0024 0C000000 		.4byte	.LFE9-.LFB9
 1578 0028 00000000 		.4byte	0
 1579 002c 00000000 		.4byte	0
 1580              		.section	.debug_ranges,"",%progbits
 1581              	.Ldebug_ranges0:
 1582 0000 1C000000 		.4byte	.LBB8
 1583 0004 22000000 		.4byte	.LBE8
 1584 0008 24000000 		.4byte	.LBB11
 1585 000c 26000000 		.4byte	.LBE11
 1586 0010 00000000 		.4byte	0
 1587 0014 00000000 		.4byte	0
 1588 0018 00000000 		.4byte	.LFB7
 1589 001c 34000000 		.4byte	.LFE7
 1590 0020 00000000 		.4byte	.LFB8
 1591 0024 34000000 		.4byte	.LFE8
 1592 0028 00000000 		.4byte	.LFB9
 1593 002c 0C000000 		.4byte	.LFE9
 1594 0030 00000000 		.4byte	0
 1595 0034 00000000 		.4byte	0
 1596              		.section	.debug_line,"",%progbits
ARM GAS  /tmp/cchPstuO.s 			page 29


 1597              	.Ldebug_line0:
 1598 0000 FA010000 		.section	.debug_str,"MS",%progbits,1
 1598      02009001 
 1598      00000201 
 1598      FB0E0D00 
 1598      01010101 
 1599              	.LASF39:
 1600 0000 705F6D73 		.ascii	"p_msg\000"
 1600      6700
 1601              	.LASF71:
 1602 0006 71756575 		.ascii	"queue_insert\000"
 1602      655F696E 
 1602      73657274 
 1602      00
 1603              	.LASF61:
 1604 0013 7264796D 		.ascii	"rdymsg\000"
 1604      736700
 1605              	.LASF5:
 1606 001a 5F5F7569 		.ascii	"__uint8_t\000"
 1606      6E74385F 
 1606      7400
 1607              	.LASF11:
 1608 0024 6C6F6E67 		.ascii	"long long unsigned int\000"
 1608      206C6F6E 
 1608      6720756E 
 1608      7369676E 
 1608      65642069 
 1609              	.LASF62:
 1610 003b 65786974 		.ascii	"exitcode\000"
 1610      636F6465 
 1610      00
 1611              	.LASF27:
 1612 0044 705F7072 		.ascii	"p_prio\000"
 1612      696F00
 1613              	.LASF10:
 1614 004b 6C6F6E67 		.ascii	"long long int\000"
 1614      206C6F6E 
 1614      6720696E 
 1614      7400
 1615              	.LASF1:
 1616 0059 7369676E 		.ascii	"signed char\000"
 1616      65642063 
 1616      68617200 
 1617              	.LASF9:
 1618 0065 6C6F6E67 		.ascii	"long unsigned int\000"
 1618      20756E73 
 1618      69676E65 
 1618      6420696E 
 1618      7400
 1619              	.LASF43:
 1620 0077 705F6D70 		.ascii	"p_mpool\000"
 1620      6F6F6C00 
 1621              	.LASF58:
 1622 007f 6D5F7175 		.ascii	"m_queue\000"
 1622      65756500 
 1623              	.LASF19:
 1624 0087 74736C69 		.ascii	"tslices_t\000"
ARM GAS  /tmp/cchPstuO.s 			page 30


 1624      6365735F 
 1624      7400
 1625              	.LASF7:
 1626 0091 6C6F6E67 		.ascii	"long int\000"
 1626      20696E74 
 1626      00
 1627              	.LASF66:
 1628 009a 63684D73 		.ascii	"chMsgSend\000"
 1628      6753656E 
 1628      6400
 1629              	.LASF17:
 1630 00a4 74737461 		.ascii	"tstate_t\000"
 1630      74655F74 
 1630      00
 1631              	.LASF29:
 1632 00ad 705F6E65 		.ascii	"p_newer\000"
 1632      77657200 
 1633              	.LASF8:
 1634 00b5 5F5F7569 		.ascii	"__uint32_t\000"
 1634      6E743332 
 1634      5F7400
 1635              	.LASF46:
 1636 00c0 72656761 		.ascii	"regarm_t\000"
 1636      726D5F74 
 1636      00
 1637              	.LASF69:
 1638 00c9 43686962 		.ascii	"ChibiOS_2.6.5/os/kernel/src/chmsg.c\000"
 1638      694F535F 
 1638      322E362E 
 1638      352F6F73 
 1638      2F6B6572 
 1639              	.LASF0:
 1640 00ed 756E7369 		.ascii	"unsigned int\000"
 1640      676E6564 
 1640      20696E74 
 1640      00
 1641              	.LASF70:
 1642 00fa 2F484444 		.ascii	"/HDD/Projects/workspace_test4/Altimeter/\000"
 1642      2F50726F 
 1642      6A656374 
 1642      732F776F 
 1642      726B7370 
 1643              	.LASF48:
 1644 0123 636F6E74 		.ascii	"context\000"
 1644      65787400 
 1645              	.LASF4:
 1646 012b 73686F72 		.ascii	"short unsigned int\000"
 1646      7420756E 
 1646      7369676E 
 1646      65642069 
 1646      6E7400
 1647              	.LASF21:
 1648 013e 6D73675F 		.ascii	"msg_t\000"
 1648      7400
 1649              	.LASF53:
 1650 0144 725F6E65 		.ascii	"r_newer\000"
 1650      77657200 
ARM GAS  /tmp/cchPstuO.s 			page 31


 1651              	.LASF68:
 1652 014c 474E5520 		.ascii	"GNU C 4.8.4 20140526 (release) [ARM/embedded-4_8-br"
 1652      4320342E 
 1652      382E3420 
 1652      32303134 
 1652      30353236 
 1653 017f 616E6368 		.ascii	"anch revision 211358] -mcpu=cortex-m0 -mno-thumb-in"
 1653      20726576 
 1653      6973696F 
 1653      6E203231 
 1653      31333538 
 1654 01b2 74657277 		.ascii	"terwork -mthumb -ggdb -O1 -fomit-frame-pointer -ffu"
 1654      6F726B20 
 1654      2D6D7468 
 1654      756D6220 
 1654      2D676764 
 1655 01e5 6E637469 		.ascii	"nction-sections -fdata-sections -fno-common\000"
 1655      6F6E2D73 
 1655      65637469 
 1655      6F6E7320 
 1655      2D666461 
 1656              	.LASF45:
 1657 0211 54687265 		.ascii	"ThreadsList\000"
 1657      6164734C 
 1657      69737400 
 1658              	.LASF22:
 1659 021d 6576656E 		.ascii	"eventmask_t\000"
 1659      746D6173 
 1659      6B5F7400 
 1660              	.LASF57:
 1661 0229 4D757465 		.ascii	"Mutex\000"
 1661      7800
 1662              	.LASF49:
 1663 022f 73697A65 		.ascii	"sizetype\000"
 1663      74797065 
 1663      00
 1664              	.LASF30:
 1665 0238 705F6F6C 		.ascii	"p_older\000"
 1665      64657200 
 1666              	.LASF52:
 1667 0240 725F6374 		.ascii	"r_ctx\000"
 1667      7800
 1668              	.LASF44:
 1669 0246 54687265 		.ascii	"ThreadsQueue\000"
 1669      61647351 
 1669      75657565 
 1669      00
 1670              	.LASF55:
 1671 0253 725F6375 		.ascii	"r_current\000"
 1671      7272656E 
 1671      7400
 1672              	.LASF54:
 1673 025d 725F6F6C 		.ascii	"r_older\000"
 1673      64657200 
 1674              	.LASF18:
 1675 0265 74726566 		.ascii	"trefs_t\000"
 1675      735F7400 
ARM GAS  /tmp/cchPstuO.s 			page 32


 1676              	.LASF26:
 1677 026d 705F7072 		.ascii	"p_prev\000"
 1677      657600
 1678              	.LASF20:
 1679 0274 74707269 		.ascii	"tprio_t\000"
 1679      6F5F7400 
 1680              	.LASF15:
 1681 027c 5F426F6F 		.ascii	"_Bool\000"
 1681      6C00
 1682              	.LASF13:
 1683 0282 696E7433 		.ascii	"int32_t\000"
 1683      325F7400 
 1684              	.LASF2:
 1685 028a 756E7369 		.ascii	"unsigned char\000"
 1685      676E6564 
 1685      20636861 
 1685      7200
 1686              	.LASF41:
 1687 0298 705F6D74 		.ascii	"p_mtxlist\000"
 1687      786C6973 
 1687      7400
 1688              	.LASF3:
 1689 02a2 73686F72 		.ascii	"short int\000"
 1689      7420696E 
 1689      7400
 1690              	.LASF32:
 1691 02ac 705F7374 		.ascii	"p_state\000"
 1691      61746500 
 1692              	.LASF35:
 1693 02b4 705F7072 		.ascii	"p_preempt\000"
 1693      65656D70 
 1693      7400
 1694              	.LASF51:
 1695 02be 725F7072 		.ascii	"r_prio\000"
 1695      696F00
 1696              	.LASF64:
 1697 02c5 65776D61 		.ascii	"ewmask\000"
 1697      736B00
 1698              	.LASF25:
 1699 02cc 705F6E65 		.ascii	"p_next\000"
 1699      787400
 1700              	.LASF16:
 1701 02d3 746D6F64 		.ascii	"tmode_t\000"
 1701      655F7400 
 1702              	.LASF33:
 1703 02db 705F666C 		.ascii	"p_flags\000"
 1703      61677300 
 1704              	.LASF24:
 1705 02e3 54687265 		.ascii	"Thread\000"
 1705      616400
 1706              	.LASF73:
 1707 02ea 63684D73 		.ascii	"chMsgRelease\000"
 1707      6752656C 
 1707      65617365 
 1707      00
 1708              	.LASF76:
 1709 02f7 63685363 		.ascii	"chSchGoSleepS\000"
ARM GAS  /tmp/cchPstuO.s 			page 33


 1709      68476F53 
 1709      6C656570 
 1709      5300
 1710              	.LASF40:
 1711 0305 705F6570 		.ascii	"p_epending\000"
 1711      656E6469 
 1711      6E6700
 1712              	.LASF14:
 1713 0310 75696E74 		.ascii	"uint32_t\000"
 1713      33325F74 
 1713      00
 1714              	.LASF50:
 1715 0319 725F7175 		.ascii	"r_queue\000"
 1715      65756500 
 1716              	.LASF75:
 1717 0321 63685363 		.ascii	"chSchReadyI\000"
 1717      68526561 
 1717      64794900 
 1718              	.LASF65:
 1719 032d 63686172 		.ascii	"char\000"
 1719      00
 1720              	.LASF72:
 1721 0332 6669666F 		.ascii	"fifo_remove\000"
 1721      5F72656D 
 1721      6F766500 
 1722              	.LASF60:
 1723 033e 6D5F6E65 		.ascii	"m_next\000"
 1723      787400
 1724              	.LASF23:
 1725 0345 73797374 		.ascii	"systime_t\000"
 1725      696D655F 
 1725      7400
 1726              	.LASF42:
 1727 034f 705F7265 		.ascii	"p_realprio\000"
 1727      616C7072 
 1727      696F00
 1728              	.LASF6:
 1729 035a 5F5F696E 		.ascii	"__int32_t\000"
 1729      7433325F 
 1729      7400
 1730              	.LASF36:
 1731 0364 705F7469 		.ascii	"p_time\000"
 1731      6D6500
 1732              	.LASF47:
 1733 036b 696E7463 		.ascii	"intctx\000"
 1733      747800
 1734              	.LASF38:
 1735 0372 705F6D73 		.ascii	"p_msgqueue\000"
 1735      67717565 
 1735      756500
 1736              	.LASF77:
 1737 037d 63685363 		.ascii	"chSchWakeupS\000"
 1737      6857616B 
 1737      65757053 
 1737      00
 1738              	.LASF67:
 1739 038a 63684D73 		.ascii	"chMsgWait\000"
ARM GAS  /tmp/cchPstuO.s 			page 34


 1739      67576169 
 1739      7400
 1740              	.LASF34:
 1741 0394 705F7265 		.ascii	"p_refs\000"
 1741      667300
 1742              	.LASF56:
 1743 039b 52656164 		.ascii	"ReadyList\000"
 1743      794C6973 
 1743      7400
 1744              	.LASF74:
 1745 03a5 726C6973 		.ascii	"rlist\000"
 1745      7400
 1746              	.LASF12:
 1747 03ab 75696E74 		.ascii	"uint8_t\000"
 1747      385F7400 
 1748              	.LASF63:
 1749 03b3 77746F62 		.ascii	"wtobjp\000"
 1749      6A7000
 1750              	.LASF31:
 1751 03ba 705F6E61 		.ascii	"p_name\000"
 1751      6D6500
 1752              	.LASF59:
 1753 03c1 6D5F6F77 		.ascii	"m_owner\000"
 1753      6E657200 
 1754              	.LASF28:
 1755 03c9 705F6374 		.ascii	"p_ctx\000"
 1755      7800
 1756              	.LASF37:
 1757 03cf 705F7761 		.ascii	"p_waiting\000"
 1757      6974696E 
 1757      6700
 1758              		.ident	"GCC: (GNU Tools for ARM Embedded Processors) 4.8.4 20140526 (release) [ARM/embedded-4_8-br
ARM GAS  /tmp/cchPstuO.s 			page 35


DEFINED SYMBOLS
                            *ABS*:00000000 chmsg.c
     /tmp/cchPstuO.s:18     .text.chMsgSend:00000000 $t
     /tmp/cchPstuO.s:23     .text.chMsgSend:00000000 chMsgSend
     /tmp/cchPstuO.s:91     .text.chMsgSend:00000030 $d
     /tmp/cchPstuO.s:96     .text.chMsgWait:00000000 $t
     /tmp/cchPstuO.s:101    .text.chMsgWait:00000000 chMsgWait
     /tmp/cchPstuO.s:166    .text.chMsgWait:00000030 $d
     /tmp/cchPstuO.s:171    .text.chMsgRelease:00000000 $t
     /tmp/cchPstuO.s:176    .text.chMsgRelease:00000000 chMsgRelease
                     .debug_frame:00000010 $d

UNDEFINED SYMBOLS
chSchReadyI
chSchGoSleepS
rlist
chSchWakeupS
