ARM GAS  /tmp/cchPstuO.s 			page 1


   1              		.cpu cortex-m0
   2              		.fpu softvfp
   3              		.eabi_attribute 20, 1
   4              		.eabi_attribute 21, 1
   5              		.eabi_attribute 23, 3
   6              		.eabi_attribute 24, 1
   7              		.eabi_attribute 25, 1
   8              		.eabi_attribute 26, 1
   9              		.eabi_attribute 30, 1
  10              		.eabi_attribute 34, 0
  11              		.eabi_attribute 18, 4
  12              		.code	16
  13              		.file	"chmsg.c"
  14              		.text
  15              	.Ltext0:
  16              		.cfi_sections	.debug_frame
  17              		.section	.text.chMsgSend,"ax",%progbits
  18              		.align	2
  19              		.global	chMsgSend
  20              		.code	16
  21              		.thumb_func
  22              		.type	chMsgSend, %function
  23              	chMsgSend:
  24              	.LFB7:
  25              		.file 1 "ChibiOS_2.6.5/os/kernel/src/chmsg.c"
  26              		.loc 1 75 0
  27              		.cfi_startproc
  28              	.LVL0:
  29 0000 10B5     		push	{r4, lr}
  30              		.cfi_def_cfa_offset 8
  31              		.cfi_offset 4, -8
  32              		.cfi_offset 14, -4
  33              		.loc 1 76 0
  34 0002 0B4B     		ldr	r3, .L3
  35 0004 9C69     		ldr	r4, [r3, #24]
  36              	.LVL1:
  37              		.loc 1 80 0
  38              	@ 80 "ChibiOS_2.6.5/os/kernel/src/chmsg.c" 1
  39 0006 72B6     		cpsid   i
  40              	@ 0 "" 2
  41              		.loc 1 81 0
  42              		.code	16
  43 0008 6163     		str	r1, [r4, #52]
  44              		.loc 1 82 0
  45 000a 031C     		mov	r3, r0
  46 000c 2C33     		add	r3, r3, #44
  47 000e 6362     		str	r3, [r4, #36]
  48              	.LVL2:
  49              	.LBB6:
  50              	.LBB7:
  51              		.file 2 "ChibiOS_2.6.5/os/kernel/include/chinline.h"
  52              		.loc 2 54 0
  53 0010 2360     		str	r3, [r4]
  54              		.loc 2 55 0
  55 0012 036B     		ldr	r3, [r0, #48]
  56              	.LVL3:
  57 0014 6360     		str	r3, [r4, #4]
ARM GAS  /tmp/cchPstuO.s 			page 2


  58              		.loc 2 56 0
  59 0016 0463     		str	r4, [r0, #48]
  60              	.LVL4:
  61 0018 1C60     		str	r4, [r3]
  62              	.LBE7:
  63              	.LBE6:
  64              		.loc 1 84 0
  65 001a 037F     		ldrb	r3, [r0, #28]
  66 001c 0C2B     		cmp	r3, #12
  67 001e 01D1     		bne	.L2
  68              		.loc 1 85 0
  69 0020 FFF7FEFF 		bl	chSchReadyI
  70              	.LVL5:
  71              	.L2:
  72              		.loc 1 86 0
  73 0024 0A20     		mov	r0, #10
  74 0026 FFF7FEFF 		bl	chSchGoSleepS
  75              	.LVL6:
  76              		.loc 1 87 0
  77 002a 606A     		ldr	r0, [r4, #36]
  78              	.LVL7:
  79              		.loc 1 88 0
  80              	@ 88 "ChibiOS_2.6.5/os/kernel/src/chmsg.c" 1
  81 002c 62B6     		cpsie   i
  82              	@ 0 "" 2
  83              		.loc 1 90 0
  84              		.code	16
  85              		@ sp needed
  86              	.LVL8:
  87 002e 10BD     		pop	{r4, pc}
  88              	.L4:
  89              		.align	2
  90              	.L3:
  91 0030 00000000 		.word	rlist
  92              		.cfi_endproc
  93              	.LFE7:
  94              		.size	chMsgSend, .-chMsgSend
  95              		.section	.text.chMsgWait,"ax",%progbits
  96              		.align	2
  97              		.global	chMsgWait
  98              		.code	16
  99              		.thumb_func
 100              		.type	chMsgWait, %function
 101              	chMsgWait:
 102              	.LFB8:
 103              		.loc 1 106 0
 104              		.cfi_startproc
 105 0000 08B5     		push	{r3, lr}
 106              		.cfi_def_cfa_offset 8
 107              		.cfi_offset 3, -8
 108              		.cfi_offset 14, -4
 109              		.loc 1 109 0
 110              	@ 109 "ChibiOS_2.6.5/os/kernel/src/chmsg.c" 1
 111 0002 72B6     		cpsid   i
 112              	@ 0 "" 2
 113              		.loc 1 110 0
 114              		.code	16
ARM GAS  /tmp/cchPstuO.s 			page 3


 115 0004 0A4B     		ldr	r3, .L7
 116 0006 9B69     		ldr	r3, [r3, #24]
 117 0008 1A1C     		mov	r2, r3
 118 000a 2C32     		add	r2, r2, #44
 119 000c DB6A     		ldr	r3, [r3, #44]
 120 000e 9342     		cmp	r3, r2
 121 0010 02D1     		bne	.L6
 122              		.loc 1 111 0
 123 0012 0C20     		mov	r0, #12
 124 0014 FFF7FEFF 		bl	chSchGoSleepS
 125              	.LVL9:
 126              	.L6:
 127              		.loc 1 112 0
 128 0018 054B     		ldr	r3, .L7
 129 001a 9B69     		ldr	r3, [r3, #24]
 130              	.LVL10:
 131              	.LBB8:
 132              	.LBB9:
 133              		.loc 2 60 0
 134 001c D86A     		ldr	r0, [r3, #44]
 135              	.LVL11:
 136              		.loc 2 62 0
 137 001e 0268     		ldr	r2, [r0]
 138 0020 DA62     		str	r2, [r3, #44]
 139              	.LBE9:
 140              	.LBE8:
 141              		.loc 1 112 0
 142 0022 2C33     		add	r3, r3, #44
 143              	.LVL12:
 144              	.LBB11:
 145              	.LBB10:
 146              		.loc 2 62 0
 147 0024 5360     		str	r3, [r2, #4]
 148              	.LBE10:
 149              	.LBE11:
 150              		.loc 1 113 0
 151 0026 0B23     		mov	r3, #11
 152              	.LVL13:
 153 0028 0377     		strb	r3, [r0, #28]
 154              	.LVL14:
 155              		.loc 1 114 0
 156              	@ 114 "ChibiOS_2.6.5/os/kernel/src/chmsg.c" 1
 157 002a 62B6     		cpsie   i
 158              	@ 0 "" 2
 159              		.loc 1 116 0
 160              		.code	16
 161              		@ sp needed
 162 002c 08BD     		pop	{r3, pc}
 163              	.L8:
 164 002e C046     		.align	2
 165              	.L7:
 166 0030 00000000 		.word	rlist
 167              		.cfi_endproc
 168              	.LFE8:
 169              		.size	chMsgWait, .-chMsgWait
 170              		.section	.text.chMsgRelease,"ax",%progbits
 171              		.align	2
ARM GAS  /tmp/cchPstuO.s 			page 4


 172              		.global	chMsgRelease
 173              		.code	16
 174              		.thumb_func
 175              		.type	chMsgRelease, %function
 176              	chMsgRelease:
 177              	.LFB9:
 178              		.loc 1 128 0
 179              		.cfi_startproc
 180              	.LVL15:
 181 0000 08B5     		push	{r3, lr}
 182              		.cfi_def_cfa_offset 8
 183              		.cfi_offset 3, -8
 184              		.cfi_offset 14, -4
 185              		.loc 1 130 0
 186              	@ 130 "ChibiOS_2.6.5/os/kernel/src/chmsg.c" 1
 187 0002 72B6     		cpsid   i
 188              	@ 0 "" 2
 189              		.loc 1 133 0
 190              		.code	16
 191 0004 FFF7FEFF 		bl	chSchWakeupS
 192              	.LVL16:
 193              		.loc 1 134 0
 194              	@ 134 "ChibiOS_2.6.5/os/kernel/src/chmsg.c" 1
 195 0008 62B6     		cpsie   i
 196              	@ 0 "" 2
 197              		.loc 1 135 0
 198              		.code	16
 199              		@ sp needed
 200 000a 08BD     		pop	{r3, pc}
 201              		.cfi_endproc
 202              	.LFE9:
 203              		.size	chMsgRelease, .-chMsgRelease
 204              		.text
 205              	.Letext0:
 206              		.file 3 "/usr/local/lpcxpresso_7.3.0_186/lpcxpresso/tools/arm-none-eabi/include/machine/_default_t
 207              		.file 4 "/usr/local/lpcxpresso_7.3.0_186/lpcxpresso/tools/arm-none-eabi/include/stdint.h"
 208              		.file 5 "ChibiOS_2.6.5/os/ports/GCC/ARMCMx/chtypes.h"
 209              		.file 6 "ChibiOS_2.6.5/os/kernel/include/chlists.h"
 210              		.file 7 "ChibiOS_2.6.5/os/kernel/include/chthreads.h"
 211              		.file 8 "ChibiOS_2.6.5/os/ports/GCC/ARMCMx/chcore_v6m.h"
 212              		.file 9 "ChibiOS_2.6.5/os/kernel/include/chschd.h"
 213              		.file 10 "ChibiOS_2.6.5/os/kernel/include/chmtx.h"