ARM GAS  /tmp/cctZkPFT.s 			page 1


   1              		.cpu cortex-m0
   2              		.fpu softvfp
   3              		.eabi_attribute 20, 1
   4              		.eabi_attribute 21, 1
   5              		.eabi_attribute 23, 3
   6              		.eabi_attribute 24, 1
   7              		.eabi_attribute 25, 1
   8              		.eabi_attribute 26, 1
   9              		.eabi_attribute 30, 1
  10              		.eabi_attribute 34, 0
  11              		.eabi_attribute 18, 4
  12              		.code	16
  13              		.file	"chmtx.c"
  14              		.text
  15              	.Ltext0:
  16              		.cfi_sections	.debug_frame
  17              		.section	.text.chMtxInit,"ax",%progbits
  18              		.align	2
  19              		.global	chMtxInit
  20              		.code	16
  21              		.thumb_func
  22              		.type	chMtxInit, %function
  23              	chMtxInit:
  24              	.LFB7:
  25              		.file 1 "ChibiOS_2.6.5/os/kernel/src/chmtx.c"
  26              		.loc 1 86 0
  27              		.cfi_startproc
  28              	.LVL0:
  29              		.loc 1 90 0
  30 0000 4060     		str	r0, [r0, #4]
  31 0002 0060     		str	r0, [r0]
  32              		.loc 1 91 0
  33 0004 0023     		mov	r3, #0
  34 0006 8360     		str	r3, [r0, #8]
  35              		.loc 1 92 0
  36              		@ sp needed
  37 0008 7047     		bx	lr
  38              		.cfi_endproc
  39              	.LFE7:
  40              		.size	chMtxInit, .-chMtxInit
  41              		.section	.text.chMtxLockS,"ax",%progbits
  42              		.align	2
  43              		.global	chMtxLockS
  44              		.code	16
  45              		.thumb_func
  46              		.type	chMtxLockS, %function
  47              	chMtxLockS:
  48              	.LFB9:
  49              		.loc 1 121 0
  50              		.cfi_startproc
  51              	.LVL1:
  52 0000 70B5     		push	{r4, r5, r6, lr}
  53              		.cfi_def_cfa_offset 16
  54              		.cfi_offset 4, -16
  55              		.cfi_offset 5, -12
  56              		.cfi_offset 6, -8
  57              		.cfi_offset 14, -4
ARM GAS  /tmp/cctZkPFT.s 			page 2


  58 0002 051C     		mov	r5, r0
  59              		.loc 1 122 0
  60 0004 314B     		ldr	r3, .L16
  61 0006 9C69     		ldr	r4, [r3, #24]
  62              	.LVL2:
  63              		.loc 1 128 0
  64 0008 8068     		ldr	r0, [r0, #8]
  65              	.LVL3:
  66 000a 0028     		cmp	r0, #0
  67 000c 58D0     		beq	.L3
  68              	.LVL4:
  69              	.LBB25:
  70              		.loc 1 135 0 discriminator 1
  71 000e A268     		ldr	r2, [r4, #8]
  72 0010 8168     		ldr	r1, [r0, #8]
  73 0012 9142     		cmp	r1, r2
  74 0014 41D2     		bcs	.L4
  75              	.L10:
  76              		.loc 1 137 0
  77 0016 8260     		str	r2, [r0, #8]
  78              		.loc 1 139 0
  79 0018 027F     		ldrb	r2, [r0, #28]
  80 001a 042A     		cmp	r2, #4
  81 001c 05D0     		beq	.L5
  82 001e D2B2     		uxtb	r2, r2
  83 0020 052A     		cmp	r2, #5
  84 0022 1DD0     		beq	.L6
  85 0024 002A     		cmp	r2, #0
  86 0026 38D1     		bne	.L4
  87 0028 2FE0     		b	.L7
  88              	.L5:
  89              	.LVL5:
  90              	.LBB26:
  91              	.LBB27:
  92              		.file 2 "ChibiOS_2.6.5/os/kernel/include/chinline.h"
  93              		.loc 2 75 0
  94 002a 4268     		ldr	r2, [r0, #4]
  95 002c 0368     		ldr	r3, [r0]
  96 002e 1360     		str	r3, [r2]
  97              		.loc 2 76 0
  98 0030 0268     		ldr	r2, [r0]
  99 0032 4668     		ldr	r6, [r0, #4]
 100 0034 5660     		str	r6, [r2, #4]
 101              	.LBE27:
 102              	.LBE26:
 103              		.loc 1 142 0
 104 0036 416A     		ldr	r1, [r0, #36]
 105              	.LVL6:
 106              	.LBB28:
 107              	.LBB29:
 108              		.loc 2 43 0
 109 0038 0A1C     		mov	r2, r1
 110              	.LVL7:
 111              	.L9:
 112              		.loc 2 45 0
 113 003a 1268     		ldr	r2, [r2]
 114              	.LVL8:
ARM GAS  /tmp/cctZkPFT.s 			page 3


 115              		.loc 2 46 0
 116 003c 9142     		cmp	r1, r2
 117 003e 03D0     		beq	.L8
 118 0040 9368     		ldr	r3, [r2, #8]
 119 0042 8668     		ldr	r6, [r0, #8]
 120 0044 B342     		cmp	r3, r6
 121 0046 F8D2     		bcs	.L9
 122              	.L8:
 123              		.loc 2 47 0
 124 0048 0260     		str	r2, [r0]
 125              		.loc 2 48 0
 126 004a 5168     		ldr	r1, [r2, #4]
 127              	.LVL9:
 128 004c 4160     		str	r1, [r0, #4]
 129              		.loc 2 49 0
 130 004e 5060     		str	r0, [r2, #4]
 131              	.LVL10:
 132 0050 0860     		str	r0, [r1]
 133              	.LBE29:
 134              	.LBE28:
 135              		.loc 1 143 0
 136 0052 436A     		ldr	r3, [r0, #36]
 137 0054 9868     		ldr	r0, [r3, #8]
 138              	.LVL11:
 139              		.loc 1 135 0
 140 0056 A268     		ldr	r2, [r4, #8]
 141              	.LVL12:
 142 0058 8168     		ldr	r1, [r0, #8]
 143              	.LVL13:
 144 005a 9142     		cmp	r1, r2
 145 005c DBD3     		bcc	.L10
 146 005e 1CE0     		b	.L4
 147              	.L6:
 148              	.LVL14:
 149              	.LBB30:
 150              	.LBB31:
 151              		.loc 2 75 0
 152 0060 4268     		ldr	r2, [r0, #4]
 153 0062 0368     		ldr	r3, [r0]
 154 0064 1360     		str	r3, [r2]
 155              		.loc 2 76 0
 156 0066 0268     		ldr	r2, [r0]
 157 0068 4668     		ldr	r6, [r0, #4]
 158 006a 5660     		str	r6, [r2, #4]
 159              	.LBE31:
 160              	.LBE30:
 161              		.loc 1 158 0
 162 006c 416A     		ldr	r1, [r0, #36]
 163              	.LVL15:
 164              	.LBB32:
 165              	.LBB33:
 166              		.loc 2 43 0
 167 006e 0A1C     		mov	r2, r1
 168              	.LVL16:
 169              	.L12:
 170              		.loc 2 45 0
 171 0070 1268     		ldr	r2, [r2]
ARM GAS  /tmp/cctZkPFT.s 			page 4


 172              	.LVL17:
 173              		.loc 2 46 0
 174 0072 9142     		cmp	r1, r2
 175 0074 03D0     		beq	.L11
 176 0076 9368     		ldr	r3, [r2, #8]
 177 0078 8668     		ldr	r6, [r0, #8]
 178 007a B342     		cmp	r3, r6
 179 007c F8D2     		bcs	.L12
 180              	.L11:
 181              		.loc 2 47 0
 182 007e 0260     		str	r2, [r0]
 183              		.loc 2 48 0
 184 0080 5168     		ldr	r1, [r2, #4]
 185              	.LVL18:
 186 0082 4160     		str	r1, [r0, #4]
 187              		.loc 2 49 0
 188 0084 5060     		str	r0, [r2, #4]
 189              	.LVL19:
 190 0086 0860     		str	r0, [r1]
 191 0088 07E0     		b	.L4
 192              	.LVL20:
 193              	.L7:
 194              	.LBE33:
 195              	.LBE32:
 196              	.LBB34:
 197              	.LBB35:
 198              		.loc 2 75 0
 199 008a 4268     		ldr	r2, [r0, #4]
 200 008c 0168     		ldr	r1, [r0]
 201 008e 1160     		str	r1, [r2]
 202              		.loc 2 76 0
 203 0090 0268     		ldr	r2, [r0]
 204 0092 4368     		ldr	r3, [r0, #4]
 205 0094 5360     		str	r3, [r2, #4]
 206              	.LBE35:
 207              	.LBE34:
 208              		.loc 1 167 0
 209 0096 FFF7FEFF 		bl	chSchReadyI
 210              	.LVL21:
 211              	.L4:
 212              		.loc 1 173 0
 213 009a 2A1C     		mov	r2, r5
 214              	.LVL22:
 215              	.LBB36:
 216              	.LBB37:
 217              		.loc 2 43 0
 218 009c 2B1C     		mov	r3, r5
 219              	.LVL23:
 220              	.L14:
 221              		.loc 2 45 0
 222 009e 1B68     		ldr	r3, [r3]
 223              	.LVL24:
 224              		.loc 2 46 0
 225 00a0 9A42     		cmp	r2, r3
 226 00a2 03D0     		beq	.L13
 227 00a4 9E68     		ldr	r6, [r3, #8]
 228 00a6 A068     		ldr	r0, [r4, #8]
ARM GAS  /tmp/cctZkPFT.s 			page 5


 229 00a8 8642     		cmp	r6, r0
 230 00aa F8D2     		bcs	.L14
 231              	.L13:
 232              		.loc 2 47 0
 233 00ac 2360     		str	r3, [r4]
 234              		.loc 2 48 0
 235 00ae 5A68     		ldr	r2, [r3, #4]
 236              	.LVL25:
 237 00b0 6260     		str	r2, [r4, #4]
 238              		.loc 2 49 0
 239 00b2 5C60     		str	r4, [r3, #4]
 240 00b4 1460     		str	r4, [r2]
 241              	.LBE37:
 242              	.LBE36:
 243              		.loc 1 174 0
 244 00b6 6562     		str	r5, [r4, #36]
 245              		.loc 1 175 0
 246 00b8 0420     		mov	r0, #4
 247 00ba FFF7FEFF 		bl	chSchGoSleepS
 248              	.LVL26:
 249              	.LBE25:
 250 00be 03E0     		b	.L2
 251              	.LVL27:
 252              	.L3:
 253              		.loc 1 183 0
 254 00c0 AC60     		str	r4, [r5, #8]
 255              		.loc 1 184 0
 256 00c2 E16B     		ldr	r1, [r4, #60]
 257 00c4 E960     		str	r1, [r5, #12]
 258              		.loc 1 185 0
 259 00c6 E563     		str	r5, [r4, #60]
 260              	.L2:
 261              		.loc 1 187 0
 262              		@ sp needed
 263              	.LVL28:
 264              	.LVL29:
 265 00c8 70BD     		pop	{r4, r5, r6, pc}
 266              	.L17:
 267 00ca C046     		.align	2
 268              	.L16:
 269 00cc 00000000 		.word	rlist
 270              		.cfi_endproc
 271              	.LFE9:
 272              		.size	chMtxLockS, .-chMtxLockS
 273              		.section	.text.chMtxLock,"ax",%progbits
 274              		.align	2
 275              		.global	chMtxLock
 276              		.code	16
 277              		.thumb_func
 278              		.type	chMtxLock, %function
 279              	chMtxLock:
 280              	.LFB8:
 281              		.loc 1 103 0
 282              		.cfi_startproc
 283              	.LVL30:
 284 0000 08B5     		push	{r3, lr}
 285              		.cfi_def_cfa_offset 8
ARM GAS  /tmp/cctZkPFT.s 			page 6


 286              		.cfi_offset 3, -8
 287              		.cfi_offset 14, -4
 288              		.loc 1 105 0
 289              	@ 105 "ChibiOS_2.6.5/os/kernel/src/chmtx.c" 1
 290 0002 72B6     		cpsid   i
 291              	@ 0 "" 2
 292              		.loc 1 107 0
 293              		.code	16
 294 0004 FFF7FEFF 		bl	chMtxLockS
 295              	.LVL31:
 296              		.loc 1 109 0
 297              	@ 109 "ChibiOS_2.6.5/os/kernel/src/chmtx.c" 1
 298 0008 62B6     		cpsie   i
 299              	@ 0 "" 2
 300              		.loc 1 110 0
 301              		.code	16
 302              		@ sp needed
 303 000a 08BD     		pop	{r3, pc}
 304              		.cfi_endproc
 305              	.LFE8:
 306              		.size	chMtxLock, .-chMtxLock
 307              		.section	.text.chMtxTryLockS,"ax",%progbits
 308              		.align	2
 309              		.global	chMtxTryLockS
 310              		.code	16
 311              		.thumb_func
 312              		.type	chMtxTryLockS, %function
 313              	chMtxTryLockS:
 314              	.LFB11:
 315              		.loc 1 234 0
 316              		.cfi_startproc
 317              	.LVL32:
 318 0000 031C     		mov	r3, r0
 319              		.loc 1 240 0
 320 0002 0020     		mov	r0, #0
 321              	.LVL33:
 322              		.loc 1 239 0
 323 0004 9968     		ldr	r1, [r3, #8]
 324 0006 0029     		cmp	r1, #0
 325 0008 08D1     		bne	.L20
 326              		.loc 1 241 0
 327 000a 054A     		ldr	r2, .L22
 328 000c 9169     		ldr	r1, [r2, #24]
 329 000e 9960     		str	r1, [r3, #8]
 330              		.loc 1 242 0
 331 0010 9169     		ldr	r1, [r2, #24]
 332 0012 C96B     		ldr	r1, [r1, #60]
 333 0014 D960     		str	r1, [r3, #12]
 334              		.loc 1 243 0
 335 0016 9269     		ldr	r2, [r2, #24]
 336 0018 D363     		str	r3, [r2, #60]
 337              		.loc 1 244 0
 338 001a 0120     		mov	r0, #1
 339              	.L20:
 340              		.loc 1 245 0
 341              		@ sp needed
 342 001c 7047     		bx	lr
ARM GAS  /tmp/cctZkPFT.s 			page 7


 343              	.L23:
 344 001e C046     		.align	2
 345              	.L22:
 346 0020 00000000 		.word	rlist
 347              		.cfi_endproc
 348              	.LFE11:
 349              		.size	chMtxTryLockS, .-chMtxTryLockS
 350              		.section	.text.chMtxTryLock,"ax",%progbits
 351              		.align	2
 352              		.global	chMtxTryLock
 353              		.code	16
 354              		.thumb_func
 355              		.type	chMtxTryLock, %function
 356              	chMtxTryLock:
 357              	.LFB10:
 358              		.loc 1 206 0
 359              		.cfi_startproc
 360              	.LVL34:
 361 0000 08B5     		push	{r3, lr}
 362              		.cfi_def_cfa_offset 8
 363              		.cfi_offset 3, -8
 364              		.cfi_offset 14, -4
 365              		.loc 1 209 0
 366              	@ 209 "ChibiOS_2.6.5/os/kernel/src/chmtx.c" 1
 367 0002 72B6     		cpsid   i
 368              	@ 0 "" 2
 369              		.loc 1 211 0
 370              		.code	16
 371 0004 FFF7FEFF 		bl	chMtxTryLockS
 372              	.LVL35:
 373              		.loc 1 213 0
 374              	@ 213 "ChibiOS_2.6.5/os/kernel/src/chmtx.c" 1
 375 0008 62B6     		cpsie   i
 376              	@ 0 "" 2
 377              		.loc 1 215 0
 378              		.code	16
 379              		@ sp needed
 380 000a 08BD     		pop	{r3, pc}
 381              		.cfi_endproc
 382              	.LFE10:
 383              		.size	chMtxTryLock, .-chMtxTryLock
 384              		.section	.text.chMtxUnlock,"ax",%progbits
 385              		.align	2
 386              		.global	chMtxUnlock
 387              		.code	16
 388              		.thumb_func
 389              		.type	chMtxUnlock, %function
 390              	chMtxUnlock:
 391              	.LFB12:
 392              		.loc 1 257 0
 393              		.cfi_startproc
 394 0000 10B5     		push	{r4, lr}
 395              		.cfi_def_cfa_offset 8
 396              		.cfi_offset 4, -8
 397              		.cfi_offset 14, -4
 398              		.loc 1 258 0
 399 0002 144B     		ldr	r3, .L32
ARM GAS  /tmp/cctZkPFT.s 			page 8


 400 0004 9869     		ldr	r0, [r3, #24]
 401              	.LVL36:
 402              		.loc 1 261 0
 403              	@ 261 "ChibiOS_2.6.5/os/kernel/src/chmtx.c" 1
 404 0006 72B6     		cpsid   i
 405              	@ 0 "" 2
 406              		.loc 1 270 0
 407              		.code	16
 408 0008 C46B     		ldr	r4, [r0, #60]
 409              	.LVL37:
 410              		.loc 1 271 0
 411 000a E368     		ldr	r3, [r4, #12]
 412 000c C363     		str	r3, [r0, #60]
 413              		.loc 1 273 0
 414 000e 2268     		ldr	r2, [r4]
 415 0010 A242     		cmp	r2, r4
 416 0012 19D0     		beq	.L26
 417              	.LBB38:
 418              		.loc 1 278 0
 419 0014 016C     		ldr	r1, [r0, #64]
 420              	.LVL38:
 421              		.loc 1 280 0
 422 0016 002B     		cmp	r3, #0
 423 0018 09D0     		beq	.L27
 424              	.L30:
 425              		.loc 1 284 0
 426 001a 1A68     		ldr	r2, [r3]
 427 001c 9A42     		cmp	r2, r3
 428 001e 03D0     		beq	.L28
 429              		.loc 1 284 0 is_stmt 0 discriminator 1
 430 0020 9268     		ldr	r2, [r2, #8]
 431 0022 9142     		cmp	r1, r2
 432 0024 00D2     		bcs	.L28
 433 0026 111C     		mov	r1, r2
 434              	.LVL39:
 435              	.L28:
 436              		.loc 1 286 0 is_stmt 1
 437 0028 DB68     		ldr	r3, [r3, #12]
 438              	.LVL40:
 439              		.loc 1 280 0
 440 002a 002B     		cmp	r3, #0
 441 002c F5D1     		bne	.L30
 442              	.L27:
 443              		.loc 1 290 0
 444 002e 8160     		str	r1, [r0, #8]
 445              	.LVL41:
 446              	.LBB39:
 447              	.LBB40:
 448              		.loc 2 60 0
 449 0030 2068     		ldr	r0, [r4]
 450              	.LVL42:
 451              		.loc 2 62 0
 452 0032 0368     		ldr	r3, [r0]
 453              	.LVL43:
 454 0034 2360     		str	r3, [r4]
 455 0036 5C60     		str	r4, [r3, #4]
 456              	.LBE40:
ARM GAS  /tmp/cctZkPFT.s 			page 9


 457              	.LBE39:
 458              		.loc 1 294 0
 459 0038 A060     		str	r0, [r4, #8]
 460              		.loc 1 295 0
 461 003a C36B     		ldr	r3, [r0, #60]
 462 003c E360     		str	r3, [r4, #12]
 463              		.loc 1 296 0
 464 003e C463     		str	r4, [r0, #60]
 465              		.loc 1 297 0
 466 0040 0021     		mov	r1, #0
 467              	.LVL44:
 468 0042 FFF7FEFF 		bl	chSchWakeupS
 469              	.LVL45:
 470              	.LBE38:
 471 0046 01E0     		b	.L31
 472              	.LVL46:
 473              	.L26:
 474              		.loc 1 300 0
 475 0048 0023     		mov	r3, #0
 476 004a A360     		str	r3, [r4, #8]
 477              	.LVL47:
 478              	.L31:
 479              		.loc 1 301 0
 480              	@ 301 "ChibiOS_2.6.5/os/kernel/src/chmtx.c" 1
 481 004c 62B6     		cpsie   i
 482              	@ 0 "" 2
 483              		.loc 1 303 0
 484              		.code	16
 485 004e 201C     		mov	r0, r4
 486              		@ sp needed
 487              	.LVL48:
 488 0050 10BD     		pop	{r4, pc}
 489              	.L33:
 490 0052 C046     		.align	2
 491              	.L32:
 492 0054 00000000 		.word	rlist
 493              		.cfi_endproc
 494              	.LFE12:
 495              		.size	chMtxUnlock, .-chMtxUnlock
 496              		.section	.text.chMtxUnlockS,"ax",%progbits
 497              		.align	2
 498              		.global	chMtxUnlockS
 499              		.code	16
 500              		.thumb_func
 501              		.type	chMtxUnlockS, %function
 502              	chMtxUnlockS:
 503              	.LFB13:
 504              		.loc 1 317 0
 505              		.cfi_startproc
 506 0000 10B5     		push	{r4, lr}
 507              		.cfi_def_cfa_offset 8
 508              		.cfi_offset 4, -8
 509              		.cfi_offset 14, -4
 510              		.loc 1 318 0
 511 0002 124B     		ldr	r3, .L41
 512 0004 9869     		ldr	r0, [r3, #24]
 513              	.LVL49:
ARM GAS  /tmp/cctZkPFT.s 			page 10


 514              		.loc 1 331 0
 515 0006 C46B     		ldr	r4, [r0, #60]
 516              	.LVL50:
 517              		.loc 1 332 0
 518 0008 E368     		ldr	r3, [r4, #12]
 519 000a C363     		str	r3, [r0, #60]
 520              		.loc 1 334 0
 521 000c 2268     		ldr	r2, [r4]
 522 000e A242     		cmp	r2, r4
 523 0010 18D0     		beq	.L35
 524              	.LBB41:
 525              		.loc 1 339 0
 526 0012 016C     		ldr	r1, [r0, #64]
 527              	.LVL51:
 528              		.loc 1 341 0
 529 0014 002B     		cmp	r3, #0
 530 0016 09D0     		beq	.L36
 531              	.L39:
 532              		.loc 1 345 0
 533 0018 1A68     		ldr	r2, [r3]
 534 001a 9A42     		cmp	r2, r3
 535 001c 03D0     		beq	.L37
 536              		.loc 1 345 0 is_stmt 0 discriminator 1
 537 001e 9268     		ldr	r2, [r2, #8]
 538 0020 9142     		cmp	r1, r2
 539 0022 00D2     		bcs	.L37
 540 0024 111C     		mov	r1, r2
 541              	.LVL52:
 542              	.L37:
 543              		.loc 1 347 0 is_stmt 1
 544 0026 DB68     		ldr	r3, [r3, #12]
 545              	.LVL53:
 546              		.loc 1 341 0
 547 0028 002B     		cmp	r3, #0
 548 002a F5D1     		bne	.L39
 549              	.L36:
 550              		.loc 1 349 0
 551 002c 8160     		str	r1, [r0, #8]
 552              	.LVL54:
 553              	.LBB42:
 554              	.LBB43:
 555              		.loc 2 60 0
 556 002e 2068     		ldr	r0, [r4]
 557              	.LVL55:
 558              		.loc 2 62 0
 559 0030 0368     		ldr	r3, [r0]
 560              	.LVL56:
 561 0032 2360     		str	r3, [r4]
 562 0034 5C60     		str	r4, [r3, #4]
 563              	.LBE43:
 564              	.LBE42:
 565              		.loc 1 353 0
 566 0036 A060     		str	r0, [r4, #8]
 567              		.loc 1 354 0
 568 0038 C36B     		ldr	r3, [r0, #60]
 569 003a E360     		str	r3, [r4, #12]
 570              		.loc 1 355 0
ARM GAS  /tmp/cctZkPFT.s 			page 11


 571 003c C463     		str	r4, [r0, #60]
 572              		.loc 1 356 0
 573 003e FFF7FEFF 		bl	chSchReadyI
 574              	.LVL57:
 575              	.LBE41:
 576 0042 01E0     		b	.L40
 577              	.LVL58:
 578              	.L35:
 579              		.loc 1 359 0
 580 0044 0023     		mov	r3, #0
 581 0046 A360     		str	r3, [r4, #8]
 582              	.LVL59:
 583              	.L40:
 584              		.loc 1 361 0
 585 0048 201C     		mov	r0, r4
 586              		@ sp needed
 587              	.LVL60:
 588 004a 10BD     		pop	{r4, pc}
 589              	.L42:
 590              		.align	2
 591              	.L41:
 592 004c 00000000 		.word	rlist
 593              		.cfi_endproc
 594              	.LFE13:
 595              		.size	chMtxUnlockS, .-chMtxUnlockS
 596              		.section	.text.chMtxUnlockAll,"ax",%progbits
 597              		.align	2
 598              		.global	chMtxUnlockAll
 599              		.code	16
 600              		.thumb_func
 601              		.type	chMtxUnlockAll, %function
 602              	chMtxUnlockAll:
 603              	.LFB14:
 604              		.loc 1 374 0
 605              		.cfi_startproc
 606 0000 38B5     		push	{r3, r4, r5, lr}
 607              		.cfi_def_cfa_offset 16
 608              		.cfi_offset 3, -16
 609              		.cfi_offset 4, -12
 610              		.cfi_offset 5, -8
 611              		.cfi_offset 14, -4
 612              		.loc 1 375 0
 613 0002 104B     		ldr	r3, .L49
 614 0004 9C69     		ldr	r4, [r3, #24]
 615              	.LVL61:
 616              		.loc 1 377 0
 617              	@ 377 "ChibiOS_2.6.5/os/kernel/src/chmtx.c" 1
 618 0006 72B6     		cpsid   i
 619              	@ 0 "" 2
 620              		.loc 1 378 0
 621              		.code	16
 622 0008 E26B     		ldr	r2, [r4, #60]
 623 000a 002A     		cmp	r2, #0
 624 000c 18D0     		beq	.L44
 625              	.LBB44:
 626              		.loc 1 390 0
 627 000e 0025     		mov	r5, #0
ARM GAS  /tmp/cctZkPFT.s 			page 12


 628              	.L48:
 629              		.loc 1 380 0
 630 0010 E36B     		ldr	r3, [r4, #60]
 631              	.LVL62:
 632              		.loc 1 381 0
 633 0012 DA68     		ldr	r2, [r3, #12]
 634 0014 E263     		str	r2, [r4, #60]
 635              		.loc 1 382 0
 636 0016 1868     		ldr	r0, [r3]
 637 0018 9842     		cmp	r0, r3
 638 001a 09D0     		beq	.L45
 639              	.LVL63:
 640              	.LBB45:
 641              	.LBB46:
 642              	.LBB47:
 643              		.loc 2 62 0
 644 001c 0268     		ldr	r2, [r0]
 645 001e 1A60     		str	r2, [r3]
 646 0020 5360     		str	r3, [r2, #4]
 647              	.LBE47:
 648              	.LBE46:
 649              		.loc 1 384 0
 650 0022 9860     		str	r0, [r3, #8]
 651              		.loc 1 385 0
 652 0024 C26B     		ldr	r2, [r0, #60]
 653 0026 DA60     		str	r2, [r3, #12]
 654              		.loc 1 386 0
 655 0028 C363     		str	r3, [r0, #60]
 656              		.loc 1 387 0
 657 002a FFF7FEFF 		bl	chSchReadyI
 658              	.LVL64:
 659              	.LBE45:
 660 002e 00E0     		b	.L46
 661              	.LVL65:
 662              	.L45:
 663              		.loc 1 390 0
 664 0030 9D60     		str	r5, [r3, #8]
 665              	.LVL66:
 666              	.L46:
 667              	.LBE44:
 668              		.loc 1 391 0
 669 0032 E36B     		ldr	r3, [r4, #60]
 670 0034 002B     		cmp	r3, #0
 671 0036 EBD1     		bne	.L48
 672              		.loc 1 392 0
 673 0038 226C     		ldr	r2, [r4, #64]
 674 003a A260     		str	r2, [r4, #8]
 675              		.loc 1 393 0
 676 003c FFF7FEFF 		bl	chSchRescheduleS
 677              	.LVL67:
 678              	.L44:
 679              		.loc 1 395 0
 680              	@ 395 "ChibiOS_2.6.5/os/kernel/src/chmtx.c" 1
 681 0040 62B6     		cpsie   i
 682              	@ 0 "" 2
 683              		.loc 1 396 0
 684              		.code	16
ARM GAS  /tmp/cctZkPFT.s 			page 13


 685              		@ sp needed
 686              	.LVL68:
 687 0042 38BD     		pop	{r3, r4, r5, pc}
 688              	.L50:
 689              		.align	2
 690              	.L49:
 691 0044 00000000 		.word	rlist
 692              		.cfi_endproc
 693              	.LFE14:
 694              		.size	chMtxUnlockAll, .-chMtxUnlockAll
 695              		.text
 696              	.Letext0:
 697              		.file 3 "/usr/local/lpcxpresso_7.3.0_186/lpcxpresso/tools/arm-none-eabi/include/machine/_default_t
 698              		.file 4 "/usr/local/lpcxpresso_7.3.0_186/lpcxpresso/tools/arm-none-eabi/include/stdint.h"
 699              		.file 5 "ChibiOS_2.6.5/os/ports/GCC/ARMCMx/chtypes.h"
 700              		.file 6 "ChibiOS_2.6.5/os/kernel/include/chlists.h"
 701              		.file 7 "ChibiOS_2.6.5/os/kernel/include/chthreads.h"
 702              		.file 8 "ChibiOS_2.6.5/os/ports/GCC/ARMCMx/chcore_v6m.h"
 703              		.file 9 "ChibiOS_2.6.5/os/kernel/include/chschd.h"
 704              		.file 10 "ChibiOS_2.6.5/os/kernel/include/chmtx.h"
 705              		.section	.debug_info,"",%progbits
 706              	.Ldebug_info0:
 707 0000 E5080000 		.4byte	0x8e5
 708 0004 0400     		.2byte	0x4
 709 0006 00000000 		.4byte	.Ldebug_abbrev0
 710 000a 04       		.byte	0x4
 711 000b 01       		.uleb128 0x1
 712 000c 6D010000 		.4byte	.LASF80
 713 0010 01       		.byte	0x1
 714 0011 37000000 		.4byte	.LASF81
 715 0015 AA030000 		.4byte	.LASF82
 716 0019 00000000 		.4byte	.Ldebug_ranges0+0
 717 001d 00000000 		.4byte	0
 718 0021 00000000 		.4byte	.Ldebug_line0
 719 0025 02       		.uleb128 0x2
 720 0026 04       		.byte	0x4
 721 0027 05       		.byte	0x5
 722 0028 696E7400 		.ascii	"int\000"
 723 002c 03       		.uleb128 0x3
 724 002d 04       		.byte	0x4
 725 002e 07       		.byte	0x7
 726 002f 0E010000 		.4byte	.LASF0
 727 0033 03       		.uleb128 0x3
 728 0034 01       		.byte	0x1
 729 0035 06       		.byte	0x6
 730 0036 7C000000 		.4byte	.LASF1
 731 003a 04       		.uleb128 0x4
 732 003b 0D000000 		.4byte	.LASF5
 733 003f 03       		.byte	0x3
 734 0040 1C       		.byte	0x1c
 735 0041 45000000 		.4byte	0x45
 736 0045 03       		.uleb128 0x3
 737 0046 01       		.byte	0x1
 738 0047 08       		.byte	0x8
 739 0048 CA020000 		.4byte	.LASF2
 740 004c 03       		.uleb128 0x3
 741 004d 02       		.byte	0x2
ARM GAS  /tmp/cctZkPFT.s 			page 14


 742 004e 05       		.byte	0x5
 743 004f E2020000 		.4byte	.LASF3
 744 0053 03       		.uleb128 0x3
 745 0054 02       		.byte	0x2
 746 0055 07       		.byte	0x7
 747 0056 35010000 		.4byte	.LASF4
 748 005a 04       		.uleb128 0x4
 749 005b 8D030000 		.4byte	.LASF6
 750 005f 03       		.byte	0x3
 751 0060 37       		.byte	0x37
 752 0061 65000000 		.4byte	0x65
 753 0065 03       		.uleb128 0x3
 754 0066 04       		.byte	0x4
 755 0067 05       		.byte	0x5
 756 0068 A9000000 		.4byte	.LASF7
 757 006c 04       		.uleb128 0x4
 758 006d ED000000 		.4byte	.LASF8
 759 0071 03       		.byte	0x3
 760 0072 38       		.byte	0x38
 761 0073 77000000 		.4byte	0x77
 762 0077 03       		.uleb128 0x3
 763 0078 04       		.byte	0x4
 764 0079 07       		.byte	0x7
 765 007a 1B010000 		.4byte	.LASF9
 766 007e 03       		.uleb128 0x3
 767 007f 08       		.byte	0x8
 768 0080 05       		.byte	0x5
 769 0081 6E000000 		.4byte	.LASF10
 770 0085 03       		.uleb128 0x3
 771 0086 08       		.byte	0x8
 772 0087 07       		.byte	0x7
 773 0088 17000000 		.4byte	.LASF11
 774 008c 04       		.uleb128 0x4
 775 008d 09040000 		.4byte	.LASF12
 776 0091 04       		.byte	0x4
 777 0092 2A       		.byte	0x2a
 778 0093 3A000000 		.4byte	0x3a
 779 0097 04       		.uleb128 0x4
 780 0098 C2020000 		.4byte	.LASF13
 781 009c 04       		.byte	0x4
 782 009d 41       		.byte	0x41
 783 009e 5A000000 		.4byte	0x5a
 784 00a2 04       		.uleb128 0x4
 785 00a3 43030000 		.4byte	.LASF14
 786 00a7 04       		.byte	0x4
 787 00a8 42       		.byte	0x42
 788 00a9 6C000000 		.4byte	0x6c
 789 00ad 04       		.uleb128 0x4
 790 00ae 90000000 		.4byte	.LASF15
 791 00b2 05       		.byte	0x5
 792 00b3 2B       		.byte	0x2b
 793 00b4 B8000000 		.4byte	0xb8
 794 00b8 03       		.uleb128 0x3
 795 00b9 01       		.byte	0x1
 796 00ba 02       		.byte	0x2
 797 00bb BC020000 		.4byte	.LASF16
 798 00bf 04       		.uleb128 0x4
ARM GAS  /tmp/cctZkPFT.s 			page 15


 799 00c0 13030000 		.4byte	.LASF17
 800 00c4 05       		.byte	0x5
 801 00c5 2C       		.byte	0x2c
 802 00c6 8C000000 		.4byte	0x8c
 803 00ca 04       		.uleb128 0x4
 804 00cb B2000000 		.4byte	.LASF18
 805 00cf 05       		.byte	0x5
 806 00d0 2D       		.byte	0x2d
 807 00d1 8C000000 		.4byte	0x8c
 808 00d5 04       		.uleb128 0x4
 809 00d6 A5020000 		.4byte	.LASF19
 810 00da 05       		.byte	0x5
 811 00db 2E       		.byte	0x2e
 812 00dc 8C000000 		.4byte	0x8c
 813 00e0 04       		.uleb128 0x4
 814 00e1 9F000000 		.4byte	.LASF20
 815 00e5 05       		.byte	0x5
 816 00e6 2F       		.byte	0x2f
 817 00e7 8C000000 		.4byte	0x8c
 818 00eb 04       		.uleb128 0x4
 819 00ec B4020000 		.4byte	.LASF21
 820 00f0 05       		.byte	0x5
 821 00f1 30       		.byte	0x30
 822 00f2 A2000000 		.4byte	0xa2
 823 00f6 04       		.uleb128 0x4
 824 00f7 48010000 		.4byte	.LASF22
 825 00fb 05       		.byte	0x5
 826 00fc 31       		.byte	0x31
 827 00fd 97000000 		.4byte	0x97
 828 0101 04       		.uleb128 0x4
 829 0102 3E020000 		.4byte	.LASF23
 830 0106 05       		.byte	0x5
 831 0107 33       		.byte	0x33
 832 0108 A2000000 		.4byte	0xa2
 833 010c 04       		.uleb128 0x4
 834 010d 78030000 		.4byte	.LASF24
 835 0111 05       		.byte	0x5
 836 0112 35       		.byte	0x35
 837 0113 A2000000 		.4byte	0xa2
 838 0117 04       		.uleb128 0x4
 839 0118 23030000 		.4byte	.LASF25
 840 011c 06       		.byte	0x6
 841 011d 2A       		.byte	0x2a
 842 011e 22010000 		.4byte	0x122
 843 0122 05       		.uleb128 0x5
 844 0123 23030000 		.4byte	.LASF25
 845 0127 48       		.byte	0x48
 846 0128 07       		.byte	0x7
 847 0129 5E       		.byte	0x5e
 848 012a 1F020000 		.4byte	0x21f
 849 012e 06       		.uleb128 0x6
 850 012f 0C030000 		.4byte	.LASF26
 851 0133 07       		.byte	0x7
 852 0134 5F       		.byte	0x5f
 853 0135 40020000 		.4byte	0x240
 854 0139 00       		.byte	0
 855 013a 06       		.uleb128 0x6
ARM GAS  /tmp/cctZkPFT.s 			page 16


 856 013b AD020000 		.4byte	.LASF27
 857 013f 07       		.byte	0x7
 858 0140 61       		.byte	0x61
 859 0141 40020000 		.4byte	0x240
 860 0145 04       		.byte	0x4
 861 0146 06       		.uleb128 0x6
 862 0147 67000000 		.4byte	.LASF28
 863 014b 07       		.byte	0x7
 864 014c 63       		.byte	0x63
 865 014d EB000000 		.4byte	0xeb
 866 0151 08       		.byte	0x8
 867 0152 06       		.uleb128 0x6
 868 0153 27040000 		.4byte	.LASF29
 869 0157 07       		.byte	0x7
 870 0158 64       		.byte	0x64
 871 0159 F0020000 		.4byte	0x2f0
 872 015d 0C       		.byte	0xc
 873 015e 06       		.uleb128 0x6
 874 015f D4000000 		.4byte	.LASF30
 875 0163 07       		.byte	0x7
 876 0164 66       		.byte	0x66
 877 0165 40020000 		.4byte	0x240
 878 0169 10       		.byte	0x10
 879 016a 06       		.uleb128 0x6
 880 016b 70020000 		.4byte	.LASF31
 881 016f 07       		.byte	0x7
 882 0170 67       		.byte	0x67
 883 0171 40020000 		.4byte	0x240
 884 0175 14       		.byte	0x14
 885 0176 06       		.uleb128 0x6
 886 0177 18040000 		.4byte	.LASF32
 887 017b 07       		.byte	0x7
 888 017c 6E       		.byte	0x6e
 889 017d EE030000 		.4byte	0x3ee
 890 0181 18       		.byte	0x18
 891 0182 06       		.uleb128 0x6
 892 0183 EC020000 		.4byte	.LASF33
 893 0187 07       		.byte	0x7
 894 0188 79       		.byte	0x79
 895 0189 CA000000 		.4byte	0xca
 896 018d 1C       		.byte	0x1c
 897 018e 06       		.uleb128 0x6
 898 018f 1B030000 		.4byte	.LASF34
 899 0193 07       		.byte	0x7
 900 0194 7D       		.byte	0x7d
 901 0195 BF000000 		.4byte	0xbf
 902 0199 1D       		.byte	0x1d
 903 019a 06       		.uleb128 0x6
 904 019b F2030000 		.4byte	.LASF35
 905 019f 07       		.byte	0x7
 906 01a0 82       		.byte	0x82
 907 01a1 D5000000 		.4byte	0xd5
 908 01a5 1E       		.byte	0x1e
 909 01a6 06       		.uleb128 0x6
 910 01a7 F4020000 		.4byte	.LASF36
 911 01ab 07       		.byte	0x7
 912 01ac 88       		.byte	0x88
ARM GAS  /tmp/cctZkPFT.s 			page 17


 913 01ad E0000000 		.4byte	0xe0
 914 01b1 1F       		.byte	0x1f
 915 01b2 06       		.uleb128 0x6
 916 01b3 A3030000 		.4byte	.LASF37
 917 01b7 07       		.byte	0x7
 918 01b8 8F       		.byte	0x8f
 919 01b9 16030000 		.4byte	0x316
 920 01bd 20       		.byte	0x20
 921 01be 07       		.uleb128 0x7
 922 01bf 705F7500 		.ascii	"p_u\000"
 923 01c3 07       		.byte	0x7
 924 01c4 B4       		.byte	0xb4
 925 01c5 B9030000 		.4byte	0x3b9
 926 01c9 24       		.byte	0x24
 927 01ca 06       		.uleb128 0x6
 928 01cb 2D040000 		.4byte	.LASF38
 929 01cf 07       		.byte	0x7
 930 01d0 B9       		.byte	0xb9
 931 01d1 66020000 		.4byte	0x266
 932 01d5 28       		.byte	0x28
 933 01d6 06       		.uleb128 0x6
 934 01d7 D0030000 		.4byte	.LASF39
 935 01db 07       		.byte	0x7
 936 01dc BF       		.byte	0xbf
 937 01dd 46020000 		.4byte	0x246
 938 01e1 2C       		.byte	0x2c
 939 01e2 06       		.uleb128 0x6
 940 01e3 00000000 		.4byte	.LASF40
 941 01e7 07       		.byte	0x7
 942 01e8 C3       		.byte	0xc3
 943 01e9 F6000000 		.4byte	0xf6
 944 01ed 34       		.byte	0x34
 945 01ee 06       		.uleb128 0x6
 946 01ef 38030000 		.4byte	.LASF41
 947 01f3 07       		.byte	0x7
 948 01f4 C9       		.byte	0xc9
 949 01f5 01010000 		.4byte	0x101
 950 01f9 38       		.byte	0x38
 951 01fa 06       		.uleb128 0x6
 952 01fb D8020000 		.4byte	.LASF42
 953 01ff 07       		.byte	0x7
 954 0200 D0       		.byte	0xd0
 955 0201 00040000 		.4byte	0x400
 956 0205 3C       		.byte	0x3c
 957 0206 06       		.uleb128 0x6
 958 0207 82030000 		.4byte	.LASF43
 959 020b 07       		.byte	0x7
 960 020c D4       		.byte	0xd4
 961 020d EB000000 		.4byte	0xeb
 962 0211 40       		.byte	0x40
 963 0212 06       		.uleb128 0x6
 964 0213 88000000 		.4byte	.LASF44
 965 0217 07       		.byte	0x7
 966 0218 DA       		.byte	0xda
 967 0219 7C020000 		.4byte	0x27c
 968 021d 44       		.byte	0x44
 969 021e 00       		.byte	0
ARM GAS  /tmp/cctZkPFT.s 			page 18


 970 021f 08       		.uleb128 0x8
 971 0220 08       		.byte	0x8
 972 0221 06       		.byte	0x6
 973 0222 61       		.byte	0x61
 974 0223 40020000 		.4byte	0x240
 975 0227 06       		.uleb128 0x6
 976 0228 0C030000 		.4byte	.LASF26
 977 022c 06       		.byte	0x6
 978 022d 62       		.byte	0x62
 979 022e 40020000 		.4byte	0x240
 980 0232 00       		.byte	0
 981 0233 06       		.uleb128 0x6
 982 0234 AD020000 		.4byte	.LASF27
 983 0238 06       		.byte	0x6
 984 0239 64       		.byte	0x64
 985 023a 40020000 		.4byte	0x240
 986 023e 04       		.byte	0x4
 987 023f 00       		.byte	0
 988 0240 09       		.uleb128 0x9
 989 0241 04       		.byte	0x4
 990 0242 17010000 		.4byte	0x117
 991 0246 04       		.uleb128 0x4
 992 0247 7E020000 		.4byte	.LASF45
 993 024b 06       		.byte	0x6
 994 024c 66       		.byte	0x66
 995 024d 1F020000 		.4byte	0x21f
 996 0251 08       		.uleb128 0x8
 997 0252 04       		.byte	0x4
 998 0253 06       		.byte	0x6
 999 0254 6B       		.byte	0x6b
 1000 0255 66020000 		.4byte	0x266
 1001 0259 06       		.uleb128 0x6
 1002 025a 0C030000 		.4byte	.LASF26
 1003 025e 06       		.byte	0x6
 1004 025f 6D       		.byte	0x6d
 1005 0260 40020000 		.4byte	0x240
 1006 0264 00       		.byte	0
 1007 0265 00       		.byte	0
 1008 0266 04       		.uleb128 0x4
 1009 0267 32020000 		.4byte	.LASF46
 1010 026b 06       		.byte	0x6
 1011 026c 70       		.byte	0x70
 1012 026d 51020000 		.4byte	0x251
 1013 0271 04       		.uleb128 0x4
 1014 0272 F8000000 		.4byte	.LASF47
 1015 0276 08       		.byte	0x8
 1016 0277 A7       		.byte	0xa7
 1017 0278 7C020000 		.4byte	0x27c
 1018 027c 0A       		.uleb128 0xa
 1019 027d 04       		.byte	0x4
 1020 027e 05       		.uleb128 0x5
 1021 027f C9030000 		.4byte	.LASF48
 1022 0283 24       		.byte	0x24
 1023 0284 08       		.byte	0x8
 1024 0285 BA       		.byte	0xba
 1025 0286 F0020000 		.4byte	0x2f0
 1026 028a 07       		.uleb128 0x7
ARM GAS  /tmp/cctZkPFT.s 			page 19


 1027 028b 723800   		.ascii	"r8\000"
 1028 028e 08       		.byte	0x8
 1029 028f BB       		.byte	0xbb
 1030 0290 71020000 		.4byte	0x271
 1031 0294 00       		.byte	0
 1032 0295 07       		.uleb128 0x7
 1033 0296 723900   		.ascii	"r9\000"
 1034 0299 08       		.byte	0x8
 1035 029a BC       		.byte	0xbc
 1036 029b 71020000 		.4byte	0x271
 1037 029f 04       		.byte	0x4
 1038 02a0 07       		.uleb128 0x7
 1039 02a1 72313000 		.ascii	"r10\000"
 1040 02a5 08       		.byte	0x8
 1041 02a6 BD       		.byte	0xbd
 1042 02a7 71020000 		.4byte	0x271
 1043 02ab 08       		.byte	0x8
 1044 02ac 07       		.uleb128 0x7
 1045 02ad 72313100 		.ascii	"r11\000"
 1046 02b1 08       		.byte	0x8
 1047 02b2 BE       		.byte	0xbe
 1048 02b3 71020000 		.4byte	0x271
 1049 02b7 0C       		.byte	0xc
 1050 02b8 07       		.uleb128 0x7
 1051 02b9 723400   		.ascii	"r4\000"
 1052 02bc 08       		.byte	0x8
 1053 02bd BF       		.byte	0xbf
 1054 02be 71020000 		.4byte	0x271
 1055 02c2 10       		.byte	0x10
 1056 02c3 07       		.uleb128 0x7
 1057 02c4 723500   		.ascii	"r5\000"
 1058 02c7 08       		.byte	0x8
 1059 02c8 C0       		.byte	0xc0
 1060 02c9 71020000 		.4byte	0x271
 1061 02cd 14       		.byte	0x14
 1062 02ce 07       		.uleb128 0x7
 1063 02cf 723600   		.ascii	"r6\000"
 1064 02d2 08       		.byte	0x8
 1065 02d3 C1       		.byte	0xc1
 1066 02d4 71020000 		.4byte	0x271
 1067 02d8 18       		.byte	0x18
 1068 02d9 07       		.uleb128 0x7
 1069 02da 723700   		.ascii	"r7\000"
 1070 02dd 08       		.byte	0x8
 1071 02de C2       		.byte	0xc2
 1072 02df 71020000 		.4byte	0x271
 1073 02e3 1C       		.byte	0x1c
 1074 02e4 07       		.uleb128 0x7
 1075 02e5 6C7200   		.ascii	"lr\000"
 1076 02e8 08       		.byte	0x8
 1077 02e9 C3       		.byte	0xc3
 1078 02ea 71020000 		.4byte	0x271
 1079 02ee 20       		.byte	0x20
 1080 02ef 00       		.byte	0
 1081 02f0 05       		.uleb128 0x5
 1082 02f1 2D010000 		.4byte	.LASF49
 1083 02f5 04       		.byte	0x4
ARM GAS  /tmp/cctZkPFT.s 			page 20


 1084 02f6 08       		.byte	0x8
 1085 02f7 CD       		.byte	0xcd
 1086 02f8 09030000 		.4byte	0x309
 1087 02fc 07       		.uleb128 0x7
 1088 02fd 72313300 		.ascii	"r13\000"
 1089 0301 08       		.byte	0x8
 1090 0302 CE       		.byte	0xce
 1091 0303 09030000 		.4byte	0x309
 1092 0307 00       		.byte	0
 1093 0308 00       		.byte	0
 1094 0309 09       		.uleb128 0x9
 1095 030a 04       		.byte	0x4
 1096 030b 7E020000 		.4byte	0x27e
 1097 030f 03       		.uleb128 0x3
 1098 0310 04       		.byte	0x4
 1099 0311 07       		.byte	0x7
 1100 0312 5D020000 		.4byte	.LASF50
 1101 0316 0B       		.uleb128 0xb
 1102 0317 0C010000 		.4byte	0x10c
 1103 031b 08       		.uleb128 0x8
 1104 031c 1C       		.byte	0x1c
 1105 031d 09       		.byte	0x9
 1106 031e 5E       		.byte	0x5e
 1107 031f 6C030000 		.4byte	0x36c
 1108 0323 06       		.uleb128 0x6
 1109 0324 4C030000 		.4byte	.LASF51
 1110 0328 09       		.byte	0x9
 1111 0329 5F       		.byte	0x5f
 1112 032a 46020000 		.4byte	0x246
 1113 032e 00       		.byte	0
 1114 032f 06       		.uleb128 0x6
 1115 0330 FE020000 		.4byte	.LASF52
 1116 0334 09       		.byte	0x9
 1117 0335 60       		.byte	0x60
 1118 0336 EB000000 		.4byte	0xeb
 1119 033a 08       		.byte	0x8
 1120 033b 06       		.uleb128 0x6
 1121 033c 78020000 		.4byte	.LASF53
 1122 0340 09       		.byte	0x9
 1123 0341 62       		.byte	0x62
 1124 0342 F0020000 		.4byte	0x2f0
 1125 0346 0C       		.byte	0xc
 1126 0347 06       		.uleb128 0x6
 1127 0348 4E010000 		.4byte	.LASF54
 1128 034c 09       		.byte	0x9
 1129 034d 65       		.byte	0x65
 1130 034e 40020000 		.4byte	0x240
 1131 0352 10       		.byte	0x10
 1132 0353 06       		.uleb128 0x6
 1133 0354 9D020000 		.4byte	.LASF55
 1134 0358 09       		.byte	0x9
 1135 0359 66       		.byte	0x66
 1136 035a 40020000 		.4byte	0x240
 1137 035e 14       		.byte	0x14
 1138 035f 06       		.uleb128 0x6
 1139 0360 93020000 		.4byte	.LASF56
 1140 0364 09       		.byte	0x9
ARM GAS  /tmp/cctZkPFT.s 			page 21


 1141 0365 69       		.byte	0x69
 1142 0366 40020000 		.4byte	0x240
 1143 036a 18       		.byte	0x18
 1144 036b 00       		.byte	0
 1145 036c 04       		.uleb128 0x4
 1146 036d F9030000 		.4byte	.LASF57
 1147 0371 09       		.byte	0x9
 1148 0372 6B       		.byte	0x6b
 1149 0373 1B030000 		.4byte	0x31b
 1150 0377 05       		.uleb128 0x5
 1151 0378 57020000 		.4byte	.LASF58
 1152 037c 10       		.byte	0x10
 1153 037d 0A       		.byte	0xa
 1154 037e 2C       		.byte	0x2c
 1155 037f A8030000 		.4byte	0x3a8
 1156 0383 06       		.uleb128 0x6
 1157 0384 97000000 		.4byte	.LASF59
 1158 0388 0A       		.byte	0xa
 1159 0389 2D       		.byte	0x2d
 1160 038a 46020000 		.4byte	0x246
 1161 038e 00       		.byte	0
 1162 038f 06       		.uleb128 0x6
 1163 0390 1F040000 		.4byte	.LASF60
 1164 0394 0A       		.byte	0xa
 1165 0395 2F       		.byte	0x2f
 1166 0396 40020000 		.4byte	0x240
 1167 039a 08       		.byte	0x8
 1168 039b 06       		.uleb128 0x6
 1169 039c 71030000 		.4byte	.LASF61
 1170 03a0 0A       		.byte	0xa
 1171 03a1 31       		.byte	0x31
 1172 03a2 A8030000 		.4byte	0x3a8
 1173 03a6 0C       		.byte	0xc
 1174 03a7 00       		.byte	0
 1175 03a8 09       		.uleb128 0x9
 1176 03a9 04       		.byte	0x4
 1177 03aa 77030000 		.4byte	0x377
 1178 03ae 04       		.uleb128 0x4
 1179 03af 57020000 		.4byte	.LASF58
 1180 03b3 0A       		.byte	0xa
 1181 03b4 33       		.byte	0x33
 1182 03b5 77030000 		.4byte	0x377
 1183 03b9 0C       		.uleb128 0xc
 1184 03ba 04       		.byte	0x4
 1185 03bb 07       		.byte	0x7
 1186 03bc 96       		.byte	0x96
 1187 03bd EE030000 		.4byte	0x3ee
 1188 03c1 0D       		.uleb128 0xd
 1189 03c2 06000000 		.4byte	.LASF62
 1190 03c6 07       		.byte	0x7
 1191 03c7 9D       		.byte	0x9d
 1192 03c8 F6000000 		.4byte	0xf6
 1193 03cc 0D       		.uleb128 0xd
 1194 03cd 2E000000 		.4byte	.LASF63
 1195 03d1 07       		.byte	0x7
 1196 03d2 A4       		.byte	0xa4
 1197 03d3 F6000000 		.4byte	0xf6
ARM GAS  /tmp/cctZkPFT.s 			page 22


 1198 03d7 0D       		.uleb128 0xd
 1199 03d8 11040000 		.4byte	.LASF64
 1200 03dc 07       		.byte	0x7
 1201 03dd AB       		.byte	0xab
 1202 03de 7C020000 		.4byte	0x27c
 1203 03e2 0D       		.uleb128 0xd
 1204 03e3 05030000 		.4byte	.LASF65
 1205 03e7 07       		.byte	0x7
 1206 03e8 B2       		.byte	0xb2
 1207 03e9 01010000 		.4byte	0x101
 1208 03ed 00       		.byte	0
 1209 03ee 09       		.uleb128 0x9
 1210 03ef 04       		.byte	0x4
 1211 03f0 F4030000 		.4byte	0x3f4
 1212 03f4 0E       		.uleb128 0xe
 1213 03f5 F9030000 		.4byte	0x3f9
 1214 03f9 03       		.uleb128 0x3
 1215 03fa 01       		.byte	0x1
 1216 03fb 08       		.byte	0x8
 1217 03fc 60030000 		.4byte	.LASF66
 1218 0400 09       		.uleb128 0x9
 1219 0401 04       		.byte	0x4
 1220 0402 AE030000 		.4byte	0x3ae
 1221 0406 0F       		.uleb128 0xf
 1222 0407 8B020000 		.4byte	.LASF67
 1223 040b 02       		.byte	0x2
 1224 040c 49       		.byte	0x49
 1225 040d 40020000 		.4byte	0x240
 1226 0411 03       		.byte	0x3
 1227 0412 21040000 		.4byte	0x421
 1228 0416 10       		.uleb128 0x10
 1229 0417 747000   		.ascii	"tp\000"
 1230 041a 02       		.byte	0x2
 1231 041b 49       		.byte	0x49
 1232 041c 40020000 		.4byte	0x240
 1233 0420 00       		.byte	0
 1234 0421 11       		.uleb128 0x11
 1235 0422 97030000 		.4byte	.LASF83
 1236 0426 02       		.byte	0x2
 1237 0427 29       		.byte	0x29
 1238 0428 03       		.byte	0x3
 1239 0429 4D040000 		.4byte	0x44d
 1240 042d 10       		.uleb128 0x10
 1241 042e 747000   		.ascii	"tp\000"
 1242 0431 02       		.byte	0x2
 1243 0432 29       		.byte	0x29
 1244 0433 40020000 		.4byte	0x240
 1245 0437 10       		.uleb128 0x10
 1246 0438 74717000 		.ascii	"tqp\000"
 1247 043c 02       		.byte	0x2
 1248 043d 29       		.byte	0x29
 1249 043e 4D040000 		.4byte	0x44d
 1250 0442 12       		.uleb128 0x12
 1251 0443 637000   		.ascii	"cp\000"
 1252 0446 02       		.byte	0x2
 1253 0447 2B       		.byte	0x2b
 1254 0448 40020000 		.4byte	0x240
ARM GAS  /tmp/cctZkPFT.s 			page 23


 1255 044c 00       		.byte	0
 1256 044d 09       		.uleb128 0x9
 1257 044e 04       		.byte	0x4
 1258 044f 46020000 		.4byte	0x246
 1259 0453 0F       		.uleb128 0xf
 1260 0454 65030000 		.4byte	.LASF68
 1261 0458 02       		.byte	0x2
 1262 0459 3B       		.byte	0x3b
 1263 045a 40020000 		.4byte	0x240
 1264 045e 03       		.byte	0x3
 1265 045f 79040000 		.4byte	0x479
 1266 0463 10       		.uleb128 0x10
 1267 0464 74717000 		.ascii	"tqp\000"
 1268 0468 02       		.byte	0x2
 1269 0469 3B       		.byte	0x3b
 1270 046a 4D040000 		.4byte	0x44d
 1271 046e 12       		.uleb128 0x12
 1272 046f 747000   		.ascii	"tp\000"
 1273 0472 02       		.byte	0x2
 1274 0473 3C       		.byte	0x3c
 1275 0474 40020000 		.4byte	0x240
 1276 0478 00       		.byte	0
 1277 0479 13       		.uleb128 0x13
 1278 047a E8030000 		.4byte	.LASF69
 1279 047e 01       		.byte	0x1
 1280 047f 56       		.byte	0x56
 1281 0480 00000000 		.4byte	.LFB7
 1282 0484 0A000000 		.4byte	.LFE7-.LFB7
 1283 0488 01       		.uleb128 0x1
 1284 0489 9C       		.byte	0x9c
 1285 048a 9B040000 		.4byte	0x49b
 1286 048e 14       		.uleb128 0x14
 1287 048f 6D7000   		.ascii	"mp\000"
 1288 0492 01       		.byte	0x1
 1289 0493 56       		.byte	0x56
 1290 0494 00040000 		.4byte	0x400
 1291 0498 01       		.uleb128 0x1
 1292 0499 50       		.byte	0x50
 1293 049a 00       		.byte	0
 1294 049b 13       		.uleb128 0x13
 1295 049c BB000000 		.4byte	.LASF70
 1296 04a0 01       		.byte	0x1
 1297 04a1 79       		.byte	0x79
 1298 04a2 00000000 		.4byte	.LFB9
 1299 04a6 D0000000 		.4byte	.LFE9-.LFB9
 1300 04aa 01       		.uleb128 0x1
 1301 04ab 9C       		.byte	0x9c
 1302 04ac 00060000 		.4byte	0x600
 1303 04b0 15       		.uleb128 0x15
 1304 04b1 6D7000   		.ascii	"mp\000"
 1305 04b4 01       		.byte	0x1
 1306 04b5 79       		.byte	0x79
 1307 04b6 00040000 		.4byte	0x400
 1308 04ba 00000000 		.4byte	.LLST0
 1309 04be 16       		.uleb128 0x16
 1310 04bf 63747000 		.ascii	"ctp\000"
 1311 04c3 01       		.byte	0x1
ARM GAS  /tmp/cctZkPFT.s 			page 24


 1312 04c4 7A       		.byte	0x7a
 1313 04c5 40020000 		.4byte	0x240
 1314 04c9 42000000 		.4byte	.LLST1
 1315 04cd 17       		.uleb128 0x17
 1316 04ce 0E000000 		.4byte	.LBB25
 1317 04d2 B0000000 		.4byte	.LBE25-.LBB25
 1318 04d6 16       		.uleb128 0x16
 1319 04d7 747000   		.ascii	"tp\000"
 1320 04da 01       		.byte	0x1
 1321 04db 84       		.byte	0x84
 1322 04dc 40020000 		.4byte	0x240
 1323 04e0 55000000 		.4byte	.LLST2
 1324 04e4 18       		.uleb128 0x18
 1325 04e5 06040000 		.4byte	0x406
 1326 04e9 2A000000 		.4byte	.LBB26
 1327 04ed 0C000000 		.4byte	.LBE26-.LBB26
 1328 04f1 01       		.byte	0x1
 1329 04f2 8E       		.byte	0x8e
 1330 04f3 01050000 		.4byte	0x501
 1331 04f7 19       		.uleb128 0x19
 1332 04f8 16040000 		.4byte	0x416
 1333 04fc 68000000 		.4byte	.LLST3
 1334 0500 00       		.byte	0
 1335 0501 18       		.uleb128 0x18
 1336 0502 21040000 		.4byte	0x421
 1337 0506 38000000 		.4byte	.LBB28
 1338 050a 1A000000 		.4byte	.LBE28-.LBB28
 1339 050e 01       		.byte	0x1
 1340 050f 8E       		.byte	0x8e
 1341 0510 3A050000 		.4byte	0x53a
 1342 0514 19       		.uleb128 0x19
 1343 0515 37040000 		.4byte	0x437
 1344 0519 87000000 		.4byte	.LLST4
 1345 051d 19       		.uleb128 0x19
 1346 051e 2D040000 		.4byte	0x42d
 1347 0522 A6000000 		.4byte	.LLST5
 1348 0526 17       		.uleb128 0x17
 1349 0527 38000000 		.4byte	.LBB29
 1350 052b 1A000000 		.4byte	.LBE29-.LBB29
 1351 052f 1A       		.uleb128 0x1a
 1352 0530 42040000 		.4byte	0x442
 1353 0534 C5000000 		.4byte	.LLST6
 1354 0538 00       		.byte	0
 1355 0539 00       		.byte	0
 1356 053a 18       		.uleb128 0x18
 1357 053b 06040000 		.4byte	0x406
 1358 053f 60000000 		.4byte	.LBB30
 1359 0543 0C000000 		.4byte	.LBE30-.LBB30
 1360 0547 01       		.byte	0x1
 1361 0548 9E       		.byte	0x9e
 1362 0549 57050000 		.4byte	0x557
 1363 054d 19       		.uleb128 0x19
 1364 054e 16040000 		.4byte	0x416
 1365 0552 E3000000 		.4byte	.LLST7
 1366 0556 00       		.byte	0
 1367 0557 18       		.uleb128 0x18
 1368 0558 21040000 		.4byte	0x421
ARM GAS  /tmp/cctZkPFT.s 			page 25


 1369 055c 6E000000 		.4byte	.LBB32
 1370 0560 1C000000 		.4byte	.LBE32-.LBB32
 1371 0564 01       		.byte	0x1
 1372 0565 9E       		.byte	0x9e
 1373 0566 90050000 		.4byte	0x590
 1374 056a 19       		.uleb128 0x19
 1375 056b 37040000 		.4byte	0x437
 1376 056f F6000000 		.4byte	.LLST8
 1377 0573 19       		.uleb128 0x19
 1378 0574 2D040000 		.4byte	0x42d
 1379 0578 15010000 		.4byte	.LLST9
 1380 057c 17       		.uleb128 0x17
 1381 057d 6E000000 		.4byte	.LBB33
 1382 0581 1C000000 		.4byte	.LBE33-.LBB33
 1383 0585 1A       		.uleb128 0x1a
 1384 0586 42040000 		.4byte	0x442
 1385 058a 28010000 		.4byte	.LLST10
 1386 058e 00       		.byte	0
 1387 058f 00       		.byte	0
 1388 0590 18       		.uleb128 0x18
 1389 0591 06040000 		.4byte	0x406
 1390 0595 8A000000 		.4byte	.LBB34
 1391 0599 0C000000 		.4byte	.LBE34-.LBB34
 1392 059d 01       		.byte	0x1
 1393 059e A7       		.byte	0xa7
 1394 059f AD050000 		.4byte	0x5ad
 1395 05a3 19       		.uleb128 0x19
 1396 05a4 16040000 		.4byte	0x416
 1397 05a8 46010000 		.4byte	.LLST11
 1398 05ac 00       		.byte	0
 1399 05ad 18       		.uleb128 0x18
 1400 05ae 21040000 		.4byte	0x421
 1401 05b2 9C000000 		.4byte	.LBB36
 1402 05b6 1A000000 		.4byte	.LBE36-.LBB36
 1403 05ba 01       		.byte	0x1
 1404 05bb AD       		.byte	0xad
 1405 05bc E6050000 		.4byte	0x5e6
 1406 05c0 19       		.uleb128 0x19
 1407 05c1 37040000 		.4byte	0x437
 1408 05c5 59010000 		.4byte	.LLST12
 1409 05c9 19       		.uleb128 0x19
 1410 05ca 2D040000 		.4byte	0x42d
 1411 05ce 77010000 		.4byte	.LLST13
 1412 05d2 17       		.uleb128 0x17
 1413 05d3 9C000000 		.4byte	.LBB37
 1414 05d7 1A000000 		.4byte	.LBE37-.LBB37
 1415 05db 1A       		.uleb128 0x1a
 1416 05dc 42040000 		.4byte	0x442
 1417 05e0 8A010000 		.4byte	.LLST14
 1418 05e4 00       		.byte	0
 1419 05e5 00       		.byte	0
 1420 05e6 1B       		.uleb128 0x1b
 1421 05e7 9A000000 		.4byte	.LVL21
 1422 05eb A5080000 		.4byte	0x8a5
 1423 05ef 1C       		.uleb128 0x1c
 1424 05f0 BE000000 		.4byte	.LVL26
 1425 05f4 BA080000 		.4byte	0x8ba
ARM GAS  /tmp/cctZkPFT.s 			page 26


 1426 05f8 1D       		.uleb128 0x1d
 1427 05f9 01       		.uleb128 0x1
 1428 05fa 50       		.byte	0x50
 1429 05fb 01       		.uleb128 0x1
 1430 05fc 34       		.byte	0x34
 1431 05fd 00       		.byte	0
 1432 05fe 00       		.byte	0
 1433 05ff 00       		.byte	0
 1434 0600 13       		.uleb128 0x13
 1435 0601 66020000 		.4byte	.LASF71
 1436 0605 01       		.byte	0x1
 1437 0606 67       		.byte	0x67
 1438 0607 00000000 		.4byte	.LFB8
 1439 060b 0C000000 		.4byte	.LFE8-.LFB8
 1440 060f 01       		.uleb128 0x1
 1441 0610 9C       		.byte	0x9c
 1442 0611 35060000 		.4byte	0x635
 1443 0615 15       		.uleb128 0x15
 1444 0616 6D7000   		.ascii	"mp\000"
 1445 0619 01       		.byte	0x1
 1446 061a 67       		.byte	0x67
 1447 061b 00040000 		.4byte	0x400
 1448 061f A8010000 		.4byte	.LLST15
 1449 0623 1C       		.uleb128 0x1c
 1450 0624 08000000 		.4byte	.LVL31
 1451 0628 9B040000 		.4byte	0x49b
 1452 062c 1D       		.uleb128 0x1d
 1453 062d 01       		.uleb128 0x1
 1454 062e 50       		.byte	0x50
 1455 062f 03       		.uleb128 0x3
 1456 0630 F3       		.byte	0xf3
 1457 0631 01       		.uleb128 0x1
 1458 0632 50       		.byte	0x50
 1459 0633 00       		.byte	0
 1460 0634 00       		.byte	0
 1461 0635 1E       		.uleb128 0x1e
 1462 0636 C6000000 		.4byte	.LASF72
 1463 063a 01       		.byte	0x1
 1464 063b EA       		.byte	0xea
 1465 063c AD000000 		.4byte	0xad
 1466 0640 00000000 		.4byte	.LFB11
 1467 0644 24000000 		.4byte	.LFE11-.LFB11
 1468 0648 01       		.uleb128 0x1
 1469 0649 9C       		.byte	0x9c
 1470 064a 5D060000 		.4byte	0x65d
 1471 064e 15       		.uleb128 0x15
 1472 064f 6D7000   		.ascii	"mp\000"
 1473 0652 01       		.byte	0x1
 1474 0653 EA       		.byte	0xea
 1475 0654 00040000 		.4byte	0x400
 1476 0658 C9010000 		.4byte	.LLST16
 1477 065c 00       		.byte	0
 1478 065d 1E       		.uleb128 0x1e
 1479 065e 4A020000 		.4byte	.LASF73
 1480 0662 01       		.byte	0x1
 1481 0663 CE       		.byte	0xce
 1482 0664 AD000000 		.4byte	0xad
ARM GAS  /tmp/cctZkPFT.s 			page 27


 1483 0668 00000000 		.4byte	.LFB10
 1484 066c 0C000000 		.4byte	.LFE10-.LFB10
 1485 0670 01       		.uleb128 0x1
 1486 0671 9C       		.byte	0x9c
 1487 0672 A1060000 		.4byte	0x6a1
 1488 0676 15       		.uleb128 0x15
 1489 0677 6D7000   		.ascii	"mp\000"
 1490 067a 01       		.byte	0x1
 1491 067b CE       		.byte	0xce
 1492 067c 00040000 		.4byte	0x400
 1493 0680 E7010000 		.4byte	.LLST17
 1494 0684 1F       		.uleb128 0x1f
 1495 0685 6200     		.ascii	"b\000"
 1496 0687 01       		.byte	0x1
 1497 0688 CF       		.byte	0xcf
 1498 0689 AD000000 		.4byte	0xad
 1499 068d 01       		.uleb128 0x1
 1500 068e 50       		.byte	0x50
 1501 068f 1C       		.uleb128 0x1c
 1502 0690 08000000 		.4byte	.LVL35
 1503 0694 35060000 		.4byte	0x635
 1504 0698 1D       		.uleb128 0x1d
 1505 0699 01       		.uleb128 0x1
 1506 069a 50       		.byte	0x50
 1507 069b 03       		.uleb128 0x3
 1508 069c F3       		.byte	0xf3
 1509 069d 01       		.uleb128 0x1
 1510 069e 50       		.byte	0x50
 1511 069f 00       		.byte	0
 1512 06a0 00       		.byte	0
 1513 06a1 20       		.uleb128 0x20
 1514 06a2 5B000000 		.4byte	.LASF74
 1515 06a6 01       		.byte	0x1
 1516 06a7 0101     		.2byte	0x101
 1517 06a9 00040000 		.4byte	0x400
 1518 06ad 00000000 		.4byte	.LFB12
 1519 06b1 58000000 		.4byte	.LFE12-.LFB12
 1520 06b5 01       		.uleb128 0x1
 1521 06b6 9C       		.byte	0x9c
 1522 06b7 52070000 		.4byte	0x752
 1523 06bb 21       		.uleb128 0x21
 1524 06bc 63747000 		.ascii	"ctp\000"
 1525 06c0 01       		.byte	0x1
 1526 06c1 0201     		.2byte	0x102
 1527 06c3 40020000 		.4byte	0x240
 1528 06c7 08020000 		.4byte	.LLST18
 1529 06cb 21       		.uleb128 0x21
 1530 06cc 756D7000 		.ascii	"ump\000"
 1531 06d0 01       		.byte	0x1
 1532 06d1 0301     		.2byte	0x103
 1533 06d3 00040000 		.4byte	0x400
 1534 06d7 26020000 		.4byte	.LLST19
 1535 06db 21       		.uleb128 0x21
 1536 06dc 6D7000   		.ascii	"mp\000"
 1537 06df 01       		.byte	0x1
 1538 06e0 0301     		.2byte	0x103
 1539 06e2 00040000 		.4byte	0x400
ARM GAS  /tmp/cctZkPFT.s 			page 28


 1540 06e6 44020000 		.4byte	.LLST20
 1541 06ea 17       		.uleb128 0x17
 1542 06eb 14000000 		.4byte	.LBB38
 1543 06ef 32000000 		.4byte	.LBE38-.LBB38
 1544 06f3 22       		.uleb128 0x22
 1545 06f4 747000   		.ascii	"tp\000"
 1546 06f7 01       		.byte	0x1
 1547 06f8 1201     		.2byte	0x112
 1548 06fa 40020000 		.4byte	0x240
 1549 06fe 01       		.uleb128 0x1
 1550 06ff 50       		.byte	0x50
 1551 0700 23       		.uleb128 0x23
 1552 0701 65010000 		.4byte	.LASF75
 1553 0705 01       		.byte	0x1
 1554 0706 1601     		.2byte	0x116
 1555 0708 EB000000 		.4byte	0xeb
 1556 070c 57020000 		.4byte	.LLST21
 1557 0710 24       		.uleb128 0x24
 1558 0711 53040000 		.4byte	0x453
 1559 0715 30000000 		.4byte	.LBB39
 1560 0719 08000000 		.4byte	.LBE39-.LBB39
 1561 071d 01       		.byte	0x1
 1562 071e 2501     		.2byte	0x125
 1563 0720 41070000 		.4byte	0x741
 1564 0724 19       		.uleb128 0x19
 1565 0725 63040000 		.4byte	0x463
 1566 0729 6A020000 		.4byte	.LLST22
 1567 072d 17       		.uleb128 0x17
 1568 072e 30000000 		.4byte	.LBB40
 1569 0732 08000000 		.4byte	.LBE40-.LBB40
 1570 0736 1A       		.uleb128 0x1a
 1571 0737 6E040000 		.4byte	0x46e
 1572 073b 7D020000 		.4byte	.LLST23
 1573 073f 00       		.byte	0
 1574 0740 00       		.byte	0
 1575 0741 1C       		.uleb128 0x1c
 1576 0742 46000000 		.4byte	.LVL45
 1577 0746 CB080000 		.4byte	0x8cb
 1578 074a 1D       		.uleb128 0x1d
 1579 074b 01       		.uleb128 0x1
 1580 074c 51       		.byte	0x51
 1581 074d 01       		.uleb128 0x1
 1582 074e 30       		.byte	0x30
 1583 074f 00       		.byte	0
 1584 0750 00       		.byte	0
 1585 0751 00       		.byte	0
 1586 0752 20       		.uleb128 0x20
 1587 0753 01010000 		.4byte	.LASF76
 1588 0757 01       		.byte	0x1
 1589 0758 3D01     		.2byte	0x13d
 1590 075a 00040000 		.4byte	0x400
 1591 075e 00000000 		.4byte	.LFB13
 1592 0762 50000000 		.4byte	.LFE13-.LFB13
 1593 0766 01       		.uleb128 0x1
 1594 0767 9C       		.byte	0x9c
 1595 0768 FD070000 		.4byte	0x7fd
 1596 076c 21       		.uleb128 0x21
ARM GAS  /tmp/cctZkPFT.s 			page 29


 1597 076d 63747000 		.ascii	"ctp\000"
 1598 0771 01       		.byte	0x1
 1599 0772 3E01     		.2byte	0x13e
 1600 0774 40020000 		.4byte	0x240
 1601 0778 90020000 		.4byte	.LLST24
 1602 077c 21       		.uleb128 0x21
 1603 077d 756D7000 		.ascii	"ump\000"
 1604 0781 01       		.byte	0x1
 1605 0782 3F01     		.2byte	0x13f
 1606 0784 00040000 		.4byte	0x400
 1607 0788 AE020000 		.4byte	.LLST25
 1608 078c 21       		.uleb128 0x21
 1609 078d 6D7000   		.ascii	"mp\000"
 1610 0790 01       		.byte	0x1
 1611 0791 3F01     		.2byte	0x13f
 1612 0793 00040000 		.4byte	0x400
 1613 0797 CC020000 		.4byte	.LLST26
 1614 079b 17       		.uleb128 0x17
 1615 079c 12000000 		.4byte	.LBB41
 1616 07a0 30000000 		.4byte	.LBE41-.LBB41
 1617 07a4 22       		.uleb128 0x22
 1618 07a5 747000   		.ascii	"tp\000"
 1619 07a8 01       		.byte	0x1
 1620 07a9 4F01     		.2byte	0x14f
 1621 07ab 40020000 		.4byte	0x240
 1622 07af 01       		.uleb128 0x1
 1623 07b0 50       		.byte	0x50
 1624 07b1 23       		.uleb128 0x23
 1625 07b2 65010000 		.4byte	.LASF75
 1626 07b6 01       		.byte	0x1
 1627 07b7 5301     		.2byte	0x153
 1628 07b9 EB000000 		.4byte	0xeb
 1629 07bd DF020000 		.4byte	.LLST27
 1630 07c1 24       		.uleb128 0x24
 1631 07c2 53040000 		.4byte	0x453
 1632 07c6 2E000000 		.4byte	.LBB42
 1633 07ca 08000000 		.4byte	.LBE42-.LBB42
 1634 07ce 01       		.byte	0x1
 1635 07cf 6001     		.2byte	0x160
 1636 07d1 F2070000 		.4byte	0x7f2
 1637 07d5 19       		.uleb128 0x19
 1638 07d6 63040000 		.4byte	0x463
 1639 07da F2020000 		.4byte	.LLST28
 1640 07de 17       		.uleb128 0x17
 1641 07df 2E000000 		.4byte	.LBB43
 1642 07e3 08000000 		.4byte	.LBE43-.LBB43
 1643 07e7 1A       		.uleb128 0x1a
 1644 07e8 6E040000 		.4byte	0x46e
 1645 07ec 05030000 		.4byte	.LLST29
 1646 07f0 00       		.byte	0
 1647 07f1 00       		.byte	0
 1648 07f2 1B       		.uleb128 0x1b
 1649 07f3 42000000 		.4byte	.LVL57
 1650 07f7 A5080000 		.4byte	0x8a5
 1651 07fb 00       		.byte	0
 1652 07fc 00       		.byte	0
 1653 07fd 25       		.uleb128 0x25
ARM GAS  /tmp/cctZkPFT.s 			page 30


 1654 07fe 56010000 		.4byte	.LASF77
 1655 0802 01       		.byte	0x1
 1656 0803 7601     		.2byte	0x176
 1657 0805 00000000 		.4byte	.LFB14
 1658 0809 48000000 		.4byte	.LFE14-.LFB14
 1659 080d 01       		.uleb128 0x1
 1660 080e 9C       		.byte	0x9c
 1661 080f 9A080000 		.4byte	0x89a
 1662 0813 21       		.uleb128 0x21
 1663 0814 63747000 		.ascii	"ctp\000"
 1664 0818 01       		.byte	0x1
 1665 0819 7701     		.2byte	0x177
 1666 081b 40020000 		.4byte	0x240
 1667 081f 18030000 		.4byte	.LLST30
 1668 0823 26       		.uleb128 0x26
 1669 0824 0E000000 		.4byte	.LBB44
 1670 0828 24000000 		.4byte	.LBE44-.LBB44
 1671 082c 90080000 		.4byte	0x890
 1672 0830 21       		.uleb128 0x21
 1673 0831 756D7000 		.ascii	"ump\000"
 1674 0835 01       		.byte	0x1
 1675 0836 7C01     		.2byte	0x17c
 1676 0838 00040000 		.4byte	0x400
 1677 083c 2B030000 		.4byte	.LLST31
 1678 0840 17       		.uleb128 0x17
 1679 0841 1C000000 		.4byte	.LBB45
 1680 0845 12000000 		.4byte	.LBE45-.LBB45
 1681 0849 27       		.uleb128 0x27
 1682 084a 747000   		.ascii	"tp\000"
 1683 084d 01       		.byte	0x1
 1684 084e 7F01     		.2byte	0x17f
 1685 0850 40020000 		.4byte	0x240
 1686 0854 24       		.uleb128 0x24
 1687 0855 53040000 		.4byte	0x453
 1688 0859 1C000000 		.4byte	.LBB46
 1689 085d 06000000 		.4byte	.LBE46-.LBB46
 1690 0861 01       		.byte	0x1
 1691 0862 7F01     		.2byte	0x17f
 1692 0864 85080000 		.4byte	0x885
 1693 0868 19       		.uleb128 0x19
 1694 0869 63040000 		.4byte	0x463
 1695 086d 49030000 		.4byte	.LLST32
 1696 0871 17       		.uleb128 0x17
 1697 0872 1C000000 		.4byte	.LBB47
 1698 0876 06000000 		.4byte	.LBE47-.LBB47
 1699 087a 1A       		.uleb128 0x1a
 1700 087b 6E040000 		.4byte	0x46e
 1701 087f 5C030000 		.4byte	.LLST33
 1702 0883 00       		.byte	0
 1703 0884 00       		.byte	0
 1704 0885 1B       		.uleb128 0x1b
 1705 0886 2E000000 		.4byte	.LVL64
 1706 088a A5080000 		.4byte	0x8a5
 1707 088e 00       		.byte	0
 1708 088f 00       		.byte	0
 1709 0890 1B       		.uleb128 0x1b
 1710 0891 40000000 		.4byte	.LVL67
ARM GAS  /tmp/cctZkPFT.s 			page 31


 1711 0895 E1080000 		.4byte	0x8e1
 1712 0899 00       		.byte	0
 1713 089a 28       		.uleb128 0x28
 1714 089b 03040000 		.4byte	.LASF84
 1715 089f 09       		.byte	0x9
 1716 08a0 6F       		.byte	0x6f
 1717 08a1 6C030000 		.4byte	0x36c
 1718 08a5 29       		.uleb128 0x29
 1719 08a6 54030000 		.4byte	.LASF85
 1720 08aa 09       		.byte	0x9
 1721 08ab 90       		.byte	0x90
 1722 08ac 40020000 		.4byte	0x240
 1723 08b0 BA080000 		.4byte	0x8ba
 1724 08b4 2A       		.uleb128 0x2a
 1725 08b5 40020000 		.4byte	0x240
 1726 08b9 00       		.byte	0
 1727 08ba 2B       		.uleb128 0x2b
 1728 08bb 2A030000 		.4byte	.LASF78
 1729 08bf 09       		.byte	0x9
 1730 08c0 93       		.byte	0x93
 1731 08c1 CB080000 		.4byte	0x8cb
 1732 08c5 2A       		.uleb128 0x2a
 1733 08c6 CA000000 		.4byte	0xca
 1734 08ca 00       		.byte	0
 1735 08cb 2B       		.uleb128 0x2b
 1736 08cc DB030000 		.4byte	.LASF79
 1737 08d0 09       		.byte	0x9
 1738 08d1 99       		.byte	0x99
 1739 08d2 E1080000 		.4byte	0x8e1
 1740 08d6 2A       		.uleb128 0x2a
 1741 08d7 40020000 		.4byte	0x240
 1742 08db 2A       		.uleb128 0x2a
 1743 08dc F6000000 		.4byte	0xf6
 1744 08e0 00       		.byte	0
 1745 08e1 2C       		.uleb128 0x2c
 1746 08e2 DC000000 		.4byte	.LASF86
 1747 08e6 09       		.byte	0x9
 1748 08e7 9C       		.byte	0x9c
 1749 08e8 00       		.byte	0
 1750              		.section	.debug_abbrev,"",%progbits
 1751              	.Ldebug_abbrev0:
 1752 0000 01       		.uleb128 0x1
 1753 0001 11       		.uleb128 0x11
 1754 0002 01       		.byte	0x1
 1755 0003 25       		.uleb128 0x25
 1756 0004 0E       		.uleb128 0xe
 1757 0005 13       		.uleb128 0x13
 1758 0006 0B       		.uleb128 0xb
 1759 0007 03       		.uleb128 0x3
 1760 0008 0E       		.uleb128 0xe
 1761 0009 1B       		.uleb128 0x1b
 1762 000a 0E       		.uleb128 0xe
 1763 000b 55       		.uleb128 0x55
 1764 000c 17       		.uleb128 0x17
 1765 000d 11       		.uleb128 0x11
 1766 000e 01       		.uleb128 0x1
 1767 000f 10       		.uleb128 0x10
ARM GAS  /tmp/cctZkPFT.s 			page 32


 1768 0010 17       		.uleb128 0x17
 1769 0011 00       		.byte	0
 1770 0012 00       		.byte	0
 1771 0013 02       		.uleb128 0x2
 1772 0014 24       		.uleb128 0x24
 1773 0015 00       		.byte	0
 1774 0016 0B       		.uleb128 0xb
 1775 0017 0B       		.uleb128 0xb
 1776 0018 3E       		.uleb128 0x3e
 1777 0019 0B       		.uleb128 0xb
 1778 001a 03       		.uleb128 0x3
 1779 001b 08       		.uleb128 0x8
 1780 001c 00       		.byte	0
 1781 001d 00       		.byte	0
 1782 001e 03       		.uleb128 0x3
 1783 001f 24       		.uleb128 0x24
 1784 0020 00       		.byte	0
 1785 0021 0B       		.uleb128 0xb
 1786 0022 0B       		.uleb128 0xb
 1787 0023 3E       		.uleb128 0x3e
 1788 0024 0B       		.uleb128 0xb
 1789 0025 03       		.uleb128 0x3
 1790 0026 0E       		.uleb128 0xe
 1791 0027 00       		.byte	0
 1792 0028 00       		.byte	0
 1793 0029 04       		.uleb128 0x4
 1794 002a 16       		.uleb128 0x16
 1795 002b 00       		.byte	0
 1796 002c 03       		.uleb128 0x3
 1797 002d 0E       		.uleb128 0xe
 1798 002e 3A       		.uleb128 0x3a
 1799 002f 0B       		.uleb128 0xb
 1800 0030 3B       		.uleb128 0x3b
 1801 0031 0B       		.uleb128 0xb
 1802 0032 49       		.uleb128 0x49
 1803 0033 13       		.uleb128 0x13
 1804 0034 00       		.byte	0
 1805 0035 00       		.byte	0
 1806 0036 05       		.uleb128 0x5
 1807 0037 13       		.uleb128 0x13
 1808 0038 01       		.byte	0x1
 1809 0039 03       		.uleb128 0x3
 1810 003a 0E       		.uleb128 0xe
 1811 003b 0B       		.uleb128 0xb
 1812 003c 0B       		.uleb128 0xb
 1813 003d 3A       		.uleb128 0x3a
 1814 003e 0B       		.uleb128 0xb
 1815 003f 3B       		.uleb128 0x3b
 1816 0040 0B       		.uleb128 0xb
 1817 0041 01       		.uleb128 0x1
 1818 0042 13       		.uleb128 0x13
 1819 0043 00       		.byte	0
 1820 0044 00       		.byte	0
 1821 0045 06       		.uleb128 0x6
 1822 0046 0D       		.uleb128 0xd
 1823 0047 00       		.byte	0
 1824 0048 03       		.uleb128 0x3
ARM GAS  /tmp/cctZkPFT.s 			page 33


 1825 0049 0E       		.uleb128 0xe
 1826 004a 3A       		.uleb128 0x3a
 1827 004b 0B       		.uleb128 0xb
 1828 004c 3B       		.uleb128 0x3b
 1829 004d 0B       		.uleb128 0xb
 1830 004e 49       		.uleb128 0x49
 1831 004f 13       		.uleb128 0x13
 1832 0050 38       		.uleb128 0x38
 1833 0051 0B       		.uleb128 0xb
 1834 0052 00       		.byte	0
 1835 0053 00       		.byte	0
 1836 0054 07       		.uleb128 0x7
 1837 0055 0D       		.uleb128 0xd
 1838 0056 00       		.byte	0
 1839 0057 03       		.uleb128 0x3
 1840 0058 08       		.uleb128 0x8
 1841 0059 3A       		.uleb128 0x3a
 1842 005a 0B       		.uleb128 0xb
 1843 005b 3B       		.uleb128 0x3b
 1844 005c 0B       		.uleb128 0xb
 1845 005d 49       		.uleb128 0x49
 1846 005e 13       		.uleb128 0x13
 1847 005f 38       		.uleb128 0x38
 1848 0060 0B       		.uleb128 0xb
 1849 0061 00       		.byte	0
 1850 0062 00       		.byte	0
 1851 0063 08       		.uleb128 0x8
 1852 0064 13       		.uleb128 0x13
 1853 0065 01       		.byte	0x1
 1854 0066 0B       		.uleb128 0xb
 1855 0067 0B       		.uleb128 0xb
 1856 0068 3A       		.uleb128 0x3a
 1857 0069 0B       		.uleb128 0xb
 1858 006a 3B       		.uleb128 0x3b
 1859 006b 0B       		.uleb128 0xb
 1860 006c 01       		.uleb128 0x1
 1861 006d 13       		.uleb128 0x13
 1862 006e 00       		.byte	0
 1863 006f 00       		.byte	0
 1864 0070 09       		.uleb128 0x9
 1865 0071 0F       		.uleb128 0xf
 1866 0072 00       		.byte	0
 1867 0073 0B       		.uleb128 0xb
 1868 0074 0B       		.uleb128 0xb
 1869 0075 49       		.uleb128 0x49
 1870 0076 13       		.uleb128 0x13
 1871 0077 00       		.byte	0
 1872 0078 00       		.byte	0
 1873 0079 0A       		.uleb128 0xa
 1874 007a 0F       		.uleb128 0xf
 1875 007b 00       		.byte	0
 1876 007c 0B       		.uleb128 0xb
 1877 007d 0B       		.uleb128 0xb
 1878 007e 00       		.byte	0
 1879 007f 00       		.byte	0
 1880 0080 0B       		.uleb128 0xb
 1881 0081 35       		.uleb128 0x35
ARM GAS  /tmp/cctZkPFT.s 			page 34


 1882 0082 00       		.byte	0
 1883 0083 49       		.uleb128 0x49
 1884 0084 13       		.uleb128 0x13
 1885 0085 00       		.byte	0
 1886 0086 00       		.byte	0
 1887 0087 0C       		.uleb128 0xc
 1888 0088 17       		.uleb128 0x17
 1889 0089 01       		.byte	0x1
 1890 008a 0B       		.uleb128 0xb
 1891 008b 0B       		.uleb128 0xb
 1892 008c 3A       		.uleb128 0x3a
 1893 008d 0B       		.uleb128 0xb
 1894 008e 3B       		.uleb128 0x3b
 1895 008f 0B       		.uleb128 0xb
 1896 0090 01       		.uleb128 0x1
 1897 0091 13       		.uleb128 0x13
 1898 0092 00       		.byte	0
 1899 0093 00       		.byte	0
 1900 0094 0D       		.uleb128 0xd
 1901 0095 0D       		.uleb128 0xd
 1902 0096 00       		.byte	0
 1903 0097 03       		.uleb128 0x3
 1904 0098 0E       		.uleb128 0xe
 1905 0099 3A       		.uleb128 0x3a
 1906 009a 0B       		.uleb128 0xb
 1907 009b 3B       		.uleb128 0x3b
 1908 009c 0B       		.uleb128 0xb
 1909 009d 49       		.uleb128 0x49
 1910 009e 13       		.uleb128 0x13
 1911 009f 00       		.byte	0
 1912 00a0 00       		.byte	0
 1913 00a1 0E       		.uleb128 0xe
 1914 00a2 26       		.uleb128 0x26
 1915 00a3 00       		.byte	0
 1916 00a4 49       		.uleb128 0x49
 1917 00a5 13       		.uleb128 0x13
 1918 00a6 00       		.byte	0
 1919 00a7 00       		.byte	0
 1920 00a8 0F       		.uleb128 0xf
 1921 00a9 2E       		.uleb128 0x2e
 1922 00aa 01       		.byte	0x1
 1923 00ab 03       		.uleb128 0x3
 1924 00ac 0E       		.uleb128 0xe
 1925 00ad 3A       		.uleb128 0x3a
 1926 00ae 0B       		.uleb128 0xb
 1927 00af 3B       		.uleb128 0x3b
 1928 00b0 0B       		.uleb128 0xb
 1929 00b1 27       		.uleb128 0x27
 1930 00b2 19       		.uleb128 0x19
 1931 00b3 49       		.uleb128 0x49
 1932 00b4 13       		.uleb128 0x13
 1933 00b5 20       		.uleb128 0x20
 1934 00b6 0B       		.uleb128 0xb
 1935 00b7 01       		.uleb128 0x1
 1936 00b8 13       		.uleb128 0x13
 1937 00b9 00       		.byte	0
 1938 00ba 00       		.byte	0
ARM GAS  /tmp/cctZkPFT.s 			page 35


 1939 00bb 10       		.uleb128 0x10
 1940 00bc 05       		.uleb128 0x5
 1941 00bd 00       		.byte	0
 1942 00be 03       		.uleb128 0x3
 1943 00bf 08       		.uleb128 0x8
 1944 00c0 3A       		.uleb128 0x3a
 1945 00c1 0B       		.uleb128 0xb
 1946 00c2 3B       		.uleb128 0x3b
 1947 00c3 0B       		.uleb128 0xb
 1948 00c4 49       		.uleb128 0x49
 1949 00c5 13       		.uleb128 0x13
 1950 00c6 00       		.byte	0
 1951 00c7 00       		.byte	0
 1952 00c8 11       		.uleb128 0x11
 1953 00c9 2E       		.uleb128 0x2e
 1954 00ca 01       		.byte	0x1
 1955 00cb 03       		.uleb128 0x3
 1956 00cc 0E       		.uleb128 0xe
 1957 00cd 3A       		.uleb128 0x3a
 1958 00ce 0B       		.uleb128 0xb
 1959 00cf 3B       		.uleb128 0x3b
 1960 00d0 0B       		.uleb128 0xb
 1961 00d1 27       		.uleb128 0x27
 1962 00d2 19       		.uleb128 0x19
 1963 00d3 20       		.uleb128 0x20
 1964 00d4 0B       		.uleb128 0xb
 1965 00d5 01       		.uleb128 0x1
 1966 00d6 13       		.uleb128 0x13
 1967 00d7 00       		.byte	0
 1968 00d8 00       		.byte	0
 1969 00d9 12       		.uleb128 0x12
 1970 00da 34       		.uleb128 0x34
 1971 00db 00       		.byte	0
 1972 00dc 03       		.uleb128 0x3
 1973 00dd 08       		.uleb128 0x8
 1974 00de 3A       		.uleb128 0x3a
 1975 00df 0B       		.uleb128 0xb
 1976 00e0 3B       		.uleb128 0x3b
 1977 00e1 0B       		.uleb128 0xb
 1978 00e2 49       		.uleb128 0x49
 1979 00e3 13       		.uleb128 0x13
 1980 00e4 00       		.byte	0
 1981 00e5 00       		.byte	0
 1982 00e6 13       		.uleb128 0x13
 1983 00e7 2E       		.uleb128 0x2e
 1984 00e8 01       		.byte	0x1
 1985 00e9 3F       		.uleb128 0x3f
 1986 00ea 19       		.uleb128 0x19
 1987 00eb 03       		.uleb128 0x3
 1988 00ec 0E       		.uleb128 0xe
 1989 00ed 3A       		.uleb128 0x3a
 1990 00ee 0B       		.uleb128 0xb
 1991 00ef 3B       		.uleb128 0x3b
 1992 00f0 0B       		.uleb128 0xb
 1993 00f1 27       		.uleb128 0x27
 1994 00f2 19       		.uleb128 0x19
 1995 00f3 11       		.uleb128 0x11
ARM GAS  /tmp/cctZkPFT.s 			page 36


 1996 00f4 01       		.uleb128 0x1
 1997 00f5 12       		.uleb128 0x12
 1998 00f6 06       		.uleb128 0x6
 1999 00f7 40       		.uleb128 0x40
 2000 00f8 18       		.uleb128 0x18
 2001 00f9 9742     		.uleb128 0x2117
 2002 00fb 19       		.uleb128 0x19
 2003 00fc 01       		.uleb128 0x1
 2004 00fd 13       		.uleb128 0x13
 2005 00fe 00       		.byte	0
 2006 00ff 00       		.byte	0
 2007 0100 14       		.uleb128 0x14
 2008 0101 05       		.uleb128 0x5
 2009 0102 00       		.byte	0
 2010 0103 03       		.uleb128 0x3
 2011 0104 08       		.uleb128 0x8
 2012 0105 3A       		.uleb128 0x3a
 2013 0106 0B       		.uleb128 0xb
 2014 0107 3B       		.uleb128 0x3b
 2015 0108 0B       		.uleb128 0xb
 2016 0109 49       		.uleb128 0x49
 2017 010a 13       		.uleb128 0x13
 2018 010b 02       		.uleb128 0x2
 2019 010c 18       		.uleb128 0x18
 2020 010d 00       		.byte	0
 2021 010e 00       		.byte	0
 2022 010f 15       		.uleb128 0x15
 2023 0110 05       		.uleb128 0x5
 2024 0111 00       		.byte	0
 2025 0112 03       		.uleb128 0x3
 2026 0113 08       		.uleb128 0x8
 2027 0114 3A       		.uleb128 0x3a
 2028 0115 0B       		.uleb128 0xb
 2029 0116 3B       		.uleb128 0x3b
 2030 0117 0B       		.uleb128 0xb
 2031 0118 49       		.uleb128 0x49
 2032 0119 13       		.uleb128 0x13
 2033 011a 02       		.uleb128 0x2
 2034 011b 17       		.uleb128 0x17
 2035 011c 00       		.byte	0
 2036 011d 00       		.byte	0
 2037 011e 16       		.uleb128 0x16
 2038 011f 34       		.uleb128 0x34
 2039 0120 00       		.byte	0
 2040 0121 03       		.uleb128 0x3
 2041 0122 08       		.uleb128 0x8
 2042 0123 3A       		.uleb128 0x3a
 2043 0124 0B       		.uleb128 0xb
 2044 0125 3B       		.uleb128 0x3b
 2045 0126 0B       		.uleb128 0xb
 2046 0127 49       		.uleb128 0x49
 2047 0128 13       		.uleb128 0x13
 2048 0129 02       		.uleb128 0x2
 2049 012a 17       		.uleb128 0x17
 2050 012b 00       		.byte	0
 2051 012c 00       		.byte	0
 2052 012d 17       		.uleb128 0x17
ARM GAS  /tmp/cctZkPFT.s 			page 37


 2053 012e 0B       		.uleb128 0xb
 2054 012f 01       		.byte	0x1
 2055 0130 11       		.uleb128 0x11
 2056 0131 01       		.uleb128 0x1
 2057 0132 12       		.uleb128 0x12
 2058 0133 06       		.uleb128 0x6
 2059 0134 00       		.byte	0
 2060 0135 00       		.byte	0
 2061 0136 18       		.uleb128 0x18
 2062 0137 1D       		.uleb128 0x1d
 2063 0138 01       		.byte	0x1
 2064 0139 31       		.uleb128 0x31
 2065 013a 13       		.uleb128 0x13
 2066 013b 11       		.uleb128 0x11
 2067 013c 01       		.uleb128 0x1
 2068 013d 12       		.uleb128 0x12
 2069 013e 06       		.uleb128 0x6
 2070 013f 58       		.uleb128 0x58
 2071 0140 0B       		.uleb128 0xb
 2072 0141 59       		.uleb128 0x59
 2073 0142 0B       		.uleb128 0xb
 2074 0143 01       		.uleb128 0x1
 2075 0144 13       		.uleb128 0x13
 2076 0145 00       		.byte	0
 2077 0146 00       		.byte	0
 2078 0147 19       		.uleb128 0x19
 2079 0148 05       		.uleb128 0x5
 2080 0149 00       		.byte	0
 2081 014a 31       		.uleb128 0x31
 2082 014b 13       		.uleb128 0x13
 2083 014c 02       		.uleb128 0x2
 2084 014d 17       		.uleb128 0x17
 2085 014e 00       		.byte	0
 2086 014f 00       		.byte	0
 2087 0150 1A       		.uleb128 0x1a
 2088 0151 34       		.uleb128 0x34
 2089 0152 00       		.byte	0
 2090 0153 31       		.uleb128 0x31
 2091 0154 13       		.uleb128 0x13
 2092 0155 02       		.uleb128 0x2
 2093 0156 17       		.uleb128 0x17
 2094 0157 00       		.byte	0
 2095 0158 00       		.byte	0
 2096 0159 1B       		.uleb128 0x1b
 2097 015a 898201   		.uleb128 0x4109
 2098 015d 00       		.byte	0
 2099 015e 11       		.uleb128 0x11
 2100 015f 01       		.uleb128 0x1
 2101 0160 31       		.uleb128 0x31
 2102 0161 13       		.uleb128 0x13
 2103 0162 00       		.byte	0
 2104 0163 00       		.byte	0
 2105 0164 1C       		.uleb128 0x1c
 2106 0165 898201   		.uleb128 0x4109
 2107 0168 01       		.byte	0x1
 2108 0169 11       		.uleb128 0x11
 2109 016a 01       		.uleb128 0x1
ARM GAS  /tmp/cctZkPFT.s 			page 38


 2110 016b 31       		.uleb128 0x31
 2111 016c 13       		.uleb128 0x13
 2112 016d 00       		.byte	0
 2113 016e 00       		.byte	0
 2114 016f 1D       		.uleb128 0x1d
 2115 0170 8A8201   		.uleb128 0x410a
 2116 0173 00       		.byte	0
 2117 0174 02       		.uleb128 0x2
 2118 0175 18       		.uleb128 0x18
 2119 0176 9142     		.uleb128 0x2111
 2120 0178 18       		.uleb128 0x18
 2121 0179 00       		.byte	0
 2122 017a 00       		.byte	0
 2123 017b 1E       		.uleb128 0x1e
 2124 017c 2E       		.uleb128 0x2e
 2125 017d 01       		.byte	0x1
 2126 017e 3F       		.uleb128 0x3f
 2127 017f 19       		.uleb128 0x19
 2128 0180 03       		.uleb128 0x3
 2129 0181 0E       		.uleb128 0xe
 2130 0182 3A       		.uleb128 0x3a
 2131 0183 0B       		.uleb128 0xb
 2132 0184 3B       		.uleb128 0x3b
 2133 0185 0B       		.uleb128 0xb
 2134 0186 27       		.uleb128 0x27
 2135 0187 19       		.uleb128 0x19
 2136 0188 49       		.uleb128 0x49
 2137 0189 13       		.uleb128 0x13
 2138 018a 11       		.uleb128 0x11
 2139 018b 01       		.uleb128 0x1
 2140 018c 12       		.uleb128 0x12
 2141 018d 06       		.uleb128 0x6
 2142 018e 40       		.uleb128 0x40
 2143 018f 18       		.uleb128 0x18
 2144 0190 9742     		.uleb128 0x2117
 2145 0192 19       		.uleb128 0x19
 2146 0193 01       		.uleb128 0x1
 2147 0194 13       		.uleb128 0x13
 2148 0195 00       		.byte	0
 2149 0196 00       		.byte	0
 2150 0197 1F       		.uleb128 0x1f
 2151 0198 34       		.uleb128 0x34
 2152 0199 00       		.byte	0
 2153 019a 03       		.uleb128 0x3
 2154 019b 08       		.uleb128 0x8
 2155 019c 3A       		.uleb128 0x3a
 2156 019d 0B       		.uleb128 0xb
 2157 019e 3B       		.uleb128 0x3b
 2158 019f 0B       		.uleb128 0xb
 2159 01a0 49       		.uleb128 0x49
 2160 01a1 13       		.uleb128 0x13
 2161 01a2 02       		.uleb128 0x2
 2162 01a3 18       		.uleb128 0x18
 2163 01a4 00       		.byte	0
 2164 01a5 00       		.byte	0
 2165 01a6 20       		.uleb128 0x20
 2166 01a7 2E       		.uleb128 0x2e
ARM GAS  /tmp/cctZkPFT.s 			page 39


 2167 01a8 01       		.byte	0x1
 2168 01a9 3F       		.uleb128 0x3f
 2169 01aa 19       		.uleb128 0x19
 2170 01ab 03       		.uleb128 0x3
 2171 01ac 0E       		.uleb128 0xe
 2172 01ad 3A       		.uleb128 0x3a
 2173 01ae 0B       		.uleb128 0xb
 2174 01af 3B       		.uleb128 0x3b
 2175 01b0 05       		.uleb128 0x5
 2176 01b1 27       		.uleb128 0x27
 2177 01b2 19       		.uleb128 0x19
 2178 01b3 49       		.uleb128 0x49
 2179 01b4 13       		.uleb128 0x13
 2180 01b5 11       		.uleb128 0x11
 2181 01b6 01       		.uleb128 0x1
 2182 01b7 12       		.uleb128 0x12
 2183 01b8 06       		.uleb128 0x6
 2184 01b9 40       		.uleb128 0x40
 2185 01ba 18       		.uleb128 0x18
 2186 01bb 9742     		.uleb128 0x2117
 2187 01bd 19       		.uleb128 0x19
 2188 01be 01       		.uleb128 0x1
 2189 01bf 13       		.uleb128 0x13
 2190 01c0 00       		.byte	0
 2191 01c1 00       		.byte	0
 2192 01c2 21       		.uleb128 0x21
 2193 01c3 34       		.uleb128 0x34
 2194 01c4 00       		.byte	0
 2195 01c5 03       		.uleb128 0x3
 2196 01c6 08       		.uleb128 0x8
 2197 01c7 3A       		.uleb128 0x3a
 2198 01c8 0B       		.uleb128 0xb
 2199 01c9 3B       		.uleb128 0x3b
 2200 01ca 05       		.uleb128 0x5
 2201 01cb 49       		.uleb128 0x49
 2202 01cc 13       		.uleb128 0x13
 2203 01cd 02       		.uleb128 0x2
 2204 01ce 17       		.uleb128 0x17
 2205 01cf 00       		.byte	0
 2206 01d0 00       		.byte	0
 2207 01d1 22       		.uleb128 0x22
 2208 01d2 34       		.uleb128 0x34
 2209 01d3 00       		.byte	0
 2210 01d4 03       		.uleb128 0x3
 2211 01d5 08       		.uleb128 0x8
 2212 01d6 3A       		.uleb128 0x3a
 2213 01d7 0B       		.uleb128 0xb
 2214 01d8 3B       		.uleb128 0x3b
 2215 01d9 05       		.uleb128 0x5
 2216 01da 49       		.uleb128 0x49
 2217 01db 13       		.uleb128 0x13
 2218 01dc 02       		.uleb128 0x2
 2219 01dd 18       		.uleb128 0x18
 2220 01de 00       		.byte	0
 2221 01df 00       		.byte	0
 2222 01e0 23       		.uleb128 0x23
 2223 01e1 34       		.uleb128 0x34
ARM GAS  /tmp/cctZkPFT.s 			page 40


 2224 01e2 00       		.byte	0
 2225 01e3 03       		.uleb128 0x3
 2226 01e4 0E       		.uleb128 0xe
 2227 01e5 3A       		.uleb128 0x3a
 2228 01e6 0B       		.uleb128 0xb
 2229 01e7 3B       		.uleb128 0x3b
 2230 01e8 05       		.uleb128 0x5
 2231 01e9 49       		.uleb128 0x49
 2232 01ea 13       		.uleb128 0x13
 2233 01eb 02       		.uleb128 0x2
 2234 01ec 17       		.uleb128 0x17
 2235 01ed 00       		.byte	0
 2236 01ee 00       		.byte	0
 2237 01ef 24       		.uleb128 0x24
 2238 01f0 1D       		.uleb128 0x1d
 2239 01f1 01       		.byte	0x1
 2240 01f2 31       		.uleb128 0x31
 2241 01f3 13       		.uleb128 0x13
 2242 01f4 11       		.uleb128 0x11
 2243 01f5 01       		.uleb128 0x1
 2244 01f6 12       		.uleb128 0x12
 2245 01f7 06       		.uleb128 0x6
 2246 01f8 58       		.uleb128 0x58
 2247 01f9 0B       		.uleb128 0xb
 2248 01fa 59       		.uleb128 0x59
 2249 01fb 05       		.uleb128 0x5
 2250 01fc 01       		.uleb128 0x1
 2251 01fd 13       		.uleb128 0x13
 2252 01fe 00       		.byte	0
 2253 01ff 00       		.byte	0
 2254 0200 25       		.uleb128 0x25
 2255 0201 2E       		.uleb128 0x2e
 2256 0202 01       		.byte	0x1
 2257 0203 3F       		.uleb128 0x3f
 2258 0204 19       		.uleb128 0x19
 2259 0205 03       		.uleb128 0x3
 2260 0206 0E       		.uleb128 0xe
 2261 0207 3A       		.uleb128 0x3a
 2262 0208 0B       		.uleb128 0xb
 2263 0209 3B       		.uleb128 0x3b
 2264 020a 05       		.uleb128 0x5
 2265 020b 27       		.uleb128 0x27
 2266 020c 19       		.uleb128 0x19
 2267 020d 11       		.uleb128 0x11
 2268 020e 01       		.uleb128 0x1
 2269 020f 12       		.uleb128 0x12
 2270 0210 06       		.uleb128 0x6
 2271 0211 40       		.uleb128 0x40
 2272 0212 18       		.uleb128 0x18
 2273 0213 9742     		.uleb128 0x2117
 2274 0215 19       		.uleb128 0x19
 2275 0216 01       		.uleb128 0x1
 2276 0217 13       		.uleb128 0x13
 2277 0218 00       		.byte	0
 2278 0219 00       		.byte	0
 2279 021a 26       		.uleb128 0x26
 2280 021b 0B       		.uleb128 0xb
ARM GAS  /tmp/cctZkPFT.s 			page 41


 2281 021c 01       		.byte	0x1
 2282 021d 11       		.uleb128 0x11
 2283 021e 01       		.uleb128 0x1
 2284 021f 12       		.uleb128 0x12
 2285 0220 06       		.uleb128 0x6
 2286 0221 01       		.uleb128 0x1
 2287 0222 13       		.uleb128 0x13
 2288 0223 00       		.byte	0
 2289 0224 00       		.byte	0
 2290 0225 27       		.uleb128 0x27
 2291 0226 34       		.uleb128 0x34
 2292 0227 00       		.byte	0
 2293 0228 03       		.uleb128 0x3
 2294 0229 08       		.uleb128 0x8
 2295 022a 3A       		.uleb128 0x3a
 2296 022b 0B       		.uleb128 0xb
 2297 022c 3B       		.uleb128 0x3b
 2298 022d 05       		.uleb128 0x5
 2299 022e 49       		.uleb128 0x49
 2300 022f 13       		.uleb128 0x13
 2301 0230 00       		.byte	0
 2302 0231 00       		.byte	0
 2303 0232 28       		.uleb128 0x28
 2304 0233 34       		.uleb128 0x34
 2305 0234 00       		.byte	0
 2306 0235 03       		.uleb128 0x3
 2307 0236 0E       		.uleb128 0xe
 2308 0237 3A       		.uleb128 0x3a
 2309 0238 0B       		.uleb128 0xb
 2310 0239 3B       		.uleb128 0x3b
 2311 023a 0B       		.uleb128 0xb
 2312 023b 49       		.uleb128 0x49
 2313 023c 13       		.uleb128 0x13
 2314 023d 3F       		.uleb128 0x3f
 2315 023e 19       		.uleb128 0x19
 2316 023f 3C       		.uleb128 0x3c
 2317 0240 19       		.uleb128 0x19
 2318 0241 00       		.byte	0
 2319 0242 00       		.byte	0
 2320 0243 29       		.uleb128 0x29
 2321 0244 2E       		.uleb128 0x2e
 2322 0245 01       		.byte	0x1
 2323 0246 3F       		.uleb128 0x3f
 2324 0247 19       		.uleb128 0x19
 2325 0248 03       		.uleb128 0x3
 2326 0249 0E       		.uleb128 0xe
 2327 024a 3A       		.uleb128 0x3a
 2328 024b 0B       		.uleb128 0xb
 2329 024c 3B       		.uleb128 0x3b
 2330 024d 0B       		.uleb128 0xb
 2331 024e 27       		.uleb128 0x27
 2332 024f 19       		.uleb128 0x19
 2333 0250 49       		.uleb128 0x49
 2334 0251 13       		.uleb128 0x13
 2335 0252 3C       		.uleb128 0x3c
 2336 0253 19       		.uleb128 0x19
 2337 0254 01       		.uleb128 0x1
ARM GAS  /tmp/cctZkPFT.s 			page 42


 2338 0255 13       		.uleb128 0x13
 2339 0256 00       		.byte	0
 2340 0257 00       		.byte	0
 2341 0258 2A       		.uleb128 0x2a
 2342 0259 05       		.uleb128 0x5
 2343 025a 00       		.byte	0
 2344 025b 49       		.uleb128 0x49
 2345 025c 13       		.uleb128 0x13
 2346 025d 00       		.byte	0
 2347 025e 00       		.byte	0
 2348 025f 2B       		.uleb128 0x2b
 2349 0260 2E       		.uleb128 0x2e
 2350 0261 01       		.byte	0x1
 2351 0262 3F       		.uleb128 0x3f
 2352 0263 19       		.uleb128 0x19
 2353 0264 03       		.uleb128 0x3
 2354 0265 0E       		.uleb128 0xe
 2355 0266 3A       		.uleb128 0x3a
 2356 0267 0B       		.uleb128 0xb
 2357 0268 3B       		.uleb128 0x3b
 2358 0269 0B       		.uleb128 0xb
 2359 026a 27       		.uleb128 0x27
 2360 026b 19       		.uleb128 0x19
 2361 026c 3C       		.uleb128 0x3c
 2362 026d 19       		.uleb128 0x19
 2363 026e 01       		.uleb128 0x1
 2364 026f 13       		.uleb128 0x13
 2365 0270 00       		.byte	0
 2366 0271 00       		.byte	0
 2367 0272 2C       		.uleb128 0x2c
 2368 0273 2E       		.uleb128 0x2e
 2369 0274 00       		.byte	0
 2370 0275 3F       		.uleb128 0x3f
 2371 0276 19       		.uleb128 0x19
 2372 0277 03       		.uleb128 0x3
 2373 0278 0E       		.uleb128 0xe
 2374 0279 3A       		.uleb128 0x3a
 2375 027a 0B       		.uleb128 0xb
 2376 027b 3B       		.uleb128 0x3b
 2377 027c 0B       		.uleb128 0xb
 2378 027d 27       		.uleb128 0x27
 2379 027e 19       		.uleb128 0x19
 2380 027f 3C       		.uleb128 0x3c
 2381 0280 19       		.uleb128 0x19
 2382 0281 00       		.byte	0
 2383 0282 00       		.byte	0
 2384 0283 00       		.byte	0
 2385              		.section	.debug_loc,"",%progbits
 2386              	.Ldebug_loc0:
 2387              	.LLST0:
 2388 0000 00000000 		.4byte	.LVL1
 2389 0004 0A000000 		.4byte	.LVL3
 2390 0008 0100     		.2byte	0x1
 2391 000a 50       		.byte	0x50
 2392 000b 0A000000 		.4byte	.LVL3
 2393 000f 9E000000 		.4byte	.LVL23
 2394 0013 0100     		.2byte	0x1
ARM GAS  /tmp/cctZkPFT.s 			page 43


 2395 0015 55       		.byte	0x55
 2396 0016 9E000000 		.4byte	.LVL23
 2397 001a B0000000 		.4byte	.LVL25
 2398 001e 0100     		.2byte	0x1
 2399 0020 52       		.byte	0x52
 2400 0021 B0000000 		.4byte	.LVL25
 2401 0025 C8000000 		.4byte	.LVL29
 2402 0029 0100     		.2byte	0x1
 2403 002b 55       		.byte	0x55
 2404 002c C8000000 		.4byte	.LVL29
 2405 0030 D0000000 		.4byte	.LFE9
 2406 0034 0400     		.2byte	0x4
 2407 0036 F3       		.byte	0xf3
 2408 0037 01       		.uleb128 0x1
 2409 0038 50       		.byte	0x50
 2410 0039 9F       		.byte	0x9f
 2411 003a 00000000 		.4byte	0
 2412 003e 00000000 		.4byte	0
 2413              	.LLST1:
 2414 0042 08000000 		.4byte	.LVL2
 2415 0046 C8000000 		.4byte	.LVL28
 2416 004a 0100     		.2byte	0x1
 2417 004c 54       		.byte	0x54
 2418 004d 00000000 		.4byte	0
 2419 0051 00000000 		.4byte	0
 2420              	.LLST2:
 2421 0055 0E000000 		.4byte	.LVL4
 2422 0059 99000000 		.4byte	.LVL21-1
 2423 005d 0100     		.2byte	0x1
 2424 005f 50       		.byte	0x50
 2425 0060 00000000 		.4byte	0
 2426 0064 00000000 		.4byte	0
 2427              	.LLST3:
 2428 0068 2A000000 		.4byte	.LVL5
 2429 006c 56000000 		.4byte	.LVL11
 2430 0070 0100     		.2byte	0x1
 2431 0072 50       		.byte	0x50
 2432 0073 56000000 		.4byte	.LVL11
 2433 0077 5A000000 		.4byte	.LVL13
 2434 007b 0200     		.2byte	0x2
 2435 007d 71       		.byte	0x71
 2436 007e 00       		.sleb128 0
 2437 007f 00000000 		.4byte	0
 2438 0083 00000000 		.4byte	0
 2439              	.LLST4:
 2440 0087 38000000 		.4byte	.LVL6
 2441 008b 4C000000 		.4byte	.LVL9
 2442 008f 0100     		.2byte	0x1
 2443 0091 51       		.byte	0x51
 2444 0092 4C000000 		.4byte	.LVL9
 2445 0096 50000000 		.4byte	.LVL10
 2446 009a 0200     		.2byte	0x2
 2447 009c 70       		.byte	0x70
 2448 009d 24       		.sleb128 36
 2449 009e 00000000 		.4byte	0
 2450 00a2 00000000 		.4byte	0
 2451              	.LLST5:
ARM GAS  /tmp/cctZkPFT.s 			page 44


 2452 00a6 38000000 		.4byte	.LVL6
 2453 00aa 56000000 		.4byte	.LVL11
 2454 00ae 0100     		.2byte	0x1
 2455 00b0 50       		.byte	0x50
 2456 00b1 56000000 		.4byte	.LVL11
 2457 00b5 5A000000 		.4byte	.LVL13
 2458 00b9 0200     		.2byte	0x2
 2459 00bb 71       		.byte	0x71
 2460 00bc 00       		.sleb128 0
 2461 00bd 00000000 		.4byte	0
 2462 00c1 00000000 		.4byte	0
 2463              	.LLST6:
 2464 00c5 38000000 		.4byte	.LVL6
 2465 00c9 3A000000 		.4byte	.LVL7
 2466 00cd 0100     		.2byte	0x1
 2467 00cf 51       		.byte	0x51
 2468 00d0 3A000000 		.4byte	.LVL7
 2469 00d4 58000000 		.4byte	.LVL12
 2470 00d8 0100     		.2byte	0x1
 2471 00da 52       		.byte	0x52
 2472 00db 00000000 		.4byte	0
 2473 00df 00000000 		.4byte	0
 2474              	.LLST7:
 2475 00e3 60000000 		.4byte	.LVL14
 2476 00e7 8A000000 		.4byte	.LVL20
 2477 00eb 0100     		.2byte	0x1
 2478 00ed 50       		.byte	0x50
 2479 00ee 00000000 		.4byte	0
 2480 00f2 00000000 		.4byte	0
 2481              	.LLST8:
 2482 00f6 6E000000 		.4byte	.LVL15
 2483 00fa 82000000 		.4byte	.LVL18
 2484 00fe 0100     		.2byte	0x1
 2485 0100 51       		.byte	0x51
 2486 0101 82000000 		.4byte	.LVL18
 2487 0105 86000000 		.4byte	.LVL19
 2488 0109 0200     		.2byte	0x2
 2489 010b 70       		.byte	0x70
 2490 010c 24       		.sleb128 36
 2491 010d 00000000 		.4byte	0
 2492 0111 00000000 		.4byte	0
 2493              	.LLST9:
 2494 0115 6E000000 		.4byte	.LVL15
 2495 0119 8A000000 		.4byte	.LVL20
 2496 011d 0100     		.2byte	0x1
 2497 011f 50       		.byte	0x50
 2498 0120 00000000 		.4byte	0
 2499 0124 00000000 		.4byte	0
 2500              	.LLST10:
 2501 0128 6E000000 		.4byte	.LVL15
 2502 012c 70000000 		.4byte	.LVL16
 2503 0130 0100     		.2byte	0x1
 2504 0132 51       		.byte	0x51
 2505 0133 70000000 		.4byte	.LVL16
 2506 0137 8A000000 		.4byte	.LVL20
 2507 013b 0100     		.2byte	0x1
 2508 013d 52       		.byte	0x52
ARM GAS  /tmp/cctZkPFT.s 			page 45


 2509 013e 00000000 		.4byte	0
 2510 0142 00000000 		.4byte	0
 2511              	.LLST11:
 2512 0146 8A000000 		.4byte	.LVL20
 2513 014a 99000000 		.4byte	.LVL21-1
 2514 014e 0100     		.2byte	0x1
 2515 0150 50       		.byte	0x50
 2516 0151 00000000 		.4byte	0
 2517 0155 00000000 		.4byte	0
 2518              	.LLST12:
 2519 0159 9C000000 		.4byte	.LVL22
 2520 015d B0000000 		.4byte	.LVL25
 2521 0161 0100     		.2byte	0x1
 2522 0163 52       		.byte	0x52
 2523 0164 B0000000 		.4byte	.LVL25
 2524 0168 C0000000 		.4byte	.LVL27
 2525 016c 0100     		.2byte	0x1
 2526 016e 55       		.byte	0x55
 2527 016f 00000000 		.4byte	0
 2528 0173 00000000 		.4byte	0
 2529              	.LLST13:
 2530 0177 9C000000 		.4byte	.LVL22
 2531 017b C0000000 		.4byte	.LVL27
 2532 017f 0100     		.2byte	0x1
 2533 0181 54       		.byte	0x54
 2534 0182 00000000 		.4byte	0
 2535 0186 00000000 		.4byte	0
 2536              	.LLST14:
 2537 018a 9C000000 		.4byte	.LVL22
 2538 018e 9E000000 		.4byte	.LVL23
 2539 0192 0100     		.2byte	0x1
 2540 0194 52       		.byte	0x52
 2541 0195 9E000000 		.4byte	.LVL23
 2542 0199 BD000000 		.4byte	.LVL26-1
 2543 019d 0100     		.2byte	0x1
 2544 019f 53       		.byte	0x53
 2545 01a0 00000000 		.4byte	0
 2546 01a4 00000000 		.4byte	0
 2547              	.LLST15:
 2548 01a8 00000000 		.4byte	.LVL30
 2549 01ac 07000000 		.4byte	.LVL31-1
 2550 01b0 0100     		.2byte	0x1
 2551 01b2 50       		.byte	0x50
 2552 01b3 07000000 		.4byte	.LVL31-1
 2553 01b7 0C000000 		.4byte	.LFE8
 2554 01bb 0400     		.2byte	0x4
 2555 01bd F3       		.byte	0xf3
 2556 01be 01       		.uleb128 0x1
 2557 01bf 50       		.byte	0x50
 2558 01c0 9F       		.byte	0x9f
 2559 01c1 00000000 		.4byte	0
 2560 01c5 00000000 		.4byte	0
 2561              	.LLST16:
 2562 01c9 00000000 		.4byte	.LVL32
 2563 01cd 04000000 		.4byte	.LVL33
 2564 01d1 0100     		.2byte	0x1
 2565 01d3 50       		.byte	0x50
ARM GAS  /tmp/cctZkPFT.s 			page 46


 2566 01d4 04000000 		.4byte	.LVL33
 2567 01d8 24000000 		.4byte	.LFE11
 2568 01dc 0100     		.2byte	0x1
 2569 01de 53       		.byte	0x53
 2570 01df 00000000 		.4byte	0
 2571 01e3 00000000 		.4byte	0
 2572              	.LLST17:
 2573 01e7 00000000 		.4byte	.LVL34
 2574 01eb 07000000 		.4byte	.LVL35-1
 2575 01ef 0100     		.2byte	0x1
 2576 01f1 50       		.byte	0x50
 2577 01f2 07000000 		.4byte	.LVL35-1
 2578 01f6 0C000000 		.4byte	.LFE10
 2579 01fa 0400     		.2byte	0x4
 2580 01fc F3       		.byte	0xf3
 2581 01fd 01       		.uleb128 0x1
 2582 01fe 50       		.byte	0x50
 2583 01ff 9F       		.byte	0x9f
 2584 0200 00000000 		.4byte	0
 2585 0204 00000000 		.4byte	0
 2586              	.LLST18:
 2587 0208 06000000 		.4byte	.LVL36
 2588 020c 32000000 		.4byte	.LVL42
 2589 0210 0100     		.2byte	0x1
 2590 0212 50       		.byte	0x50
 2591 0213 48000000 		.4byte	.LVL46
 2592 0217 4C000000 		.4byte	.LVL47
 2593 021b 0100     		.2byte	0x1
 2594 021d 50       		.byte	0x50
 2595 021e 00000000 		.4byte	0
 2596 0222 00000000 		.4byte	0
 2597              	.LLST19:
 2598 0226 0A000000 		.4byte	.LVL37
 2599 022a 50000000 		.4byte	.LVL48
 2600 022e 0100     		.2byte	0x1
 2601 0230 54       		.byte	0x54
 2602 0231 50000000 		.4byte	.LVL48
 2603 0235 58000000 		.4byte	.LFE12
 2604 0239 0100     		.2byte	0x1
 2605 023b 50       		.byte	0x50
 2606 023c 00000000 		.4byte	0
 2607 0240 00000000 		.4byte	0
 2608              	.LLST20:
 2609 0244 16000000 		.4byte	.LVL38
 2610 0248 34000000 		.4byte	.LVL43
 2611 024c 0100     		.2byte	0x1
 2612 024e 53       		.byte	0x53
 2613 024f 00000000 		.4byte	0
 2614 0253 00000000 		.4byte	0
 2615              	.LLST21:
 2616 0257 16000000 		.4byte	.LVL38
 2617 025b 42000000 		.4byte	.LVL44
 2618 025f 0100     		.2byte	0x1
 2619 0261 51       		.byte	0x51
 2620 0262 00000000 		.4byte	0
 2621 0266 00000000 		.4byte	0
 2622              	.LLST22:
ARM GAS  /tmp/cctZkPFT.s 			page 47


 2623 026a 30000000 		.4byte	.LVL41
 2624 026e 48000000 		.4byte	.LVL46
 2625 0272 0100     		.2byte	0x1
 2626 0274 54       		.byte	0x54
 2627 0275 00000000 		.4byte	0
 2628 0279 00000000 		.4byte	0
 2629              	.LLST23:
 2630 027d 32000000 		.4byte	.LVL42
 2631 0281 45000000 		.4byte	.LVL45-1
 2632 0285 0100     		.2byte	0x1
 2633 0287 50       		.byte	0x50
 2634 0288 00000000 		.4byte	0
 2635 028c 00000000 		.4byte	0
 2636              	.LLST24:
 2637 0290 06000000 		.4byte	.LVL49
 2638 0294 30000000 		.4byte	.LVL55
 2639 0298 0100     		.2byte	0x1
 2640 029a 50       		.byte	0x50
 2641 029b 44000000 		.4byte	.LVL58
 2642 029f 48000000 		.4byte	.LVL59
 2643 02a3 0100     		.2byte	0x1
 2644 02a5 50       		.byte	0x50
 2645 02a6 00000000 		.4byte	0
 2646 02aa 00000000 		.4byte	0
 2647              	.LLST25:
 2648 02ae 08000000 		.4byte	.LVL50
 2649 02b2 4A000000 		.4byte	.LVL60
 2650 02b6 0100     		.2byte	0x1
 2651 02b8 54       		.byte	0x54
 2652 02b9 4A000000 		.4byte	.LVL60
 2653 02bd 50000000 		.4byte	.LFE13
 2654 02c1 0100     		.2byte	0x1
 2655 02c3 50       		.byte	0x50
 2656 02c4 00000000 		.4byte	0
 2657 02c8 00000000 		.4byte	0
 2658              	.LLST26:
 2659 02cc 14000000 		.4byte	.LVL51
 2660 02d0 32000000 		.4byte	.LVL56
 2661 02d4 0100     		.2byte	0x1
 2662 02d6 53       		.byte	0x53
 2663 02d7 00000000 		.4byte	0
 2664 02db 00000000 		.4byte	0
 2665              	.LLST27:
 2666 02df 14000000 		.4byte	.LVL51
 2667 02e3 41000000 		.4byte	.LVL57-1
 2668 02e7 0100     		.2byte	0x1
 2669 02e9 51       		.byte	0x51
 2670 02ea 00000000 		.4byte	0
 2671 02ee 00000000 		.4byte	0
 2672              	.LLST28:
 2673 02f2 2E000000 		.4byte	.LVL54
 2674 02f6 44000000 		.4byte	.LVL58
 2675 02fa 0100     		.2byte	0x1
 2676 02fc 54       		.byte	0x54
 2677 02fd 00000000 		.4byte	0
 2678 0301 00000000 		.4byte	0
 2679              	.LLST29:
ARM GAS  /tmp/cctZkPFT.s 			page 48


 2680 0305 30000000 		.4byte	.LVL55
 2681 0309 41000000 		.4byte	.LVL57-1
 2682 030d 0100     		.2byte	0x1
 2683 030f 50       		.byte	0x50
 2684 0310 00000000 		.4byte	0
 2685 0314 00000000 		.4byte	0
 2686              	.LLST30:
 2687 0318 06000000 		.4byte	.LVL61
 2688 031c 42000000 		.4byte	.LVL68
 2689 0320 0100     		.2byte	0x1
 2690 0322 54       		.byte	0x54
 2691 0323 00000000 		.4byte	0
 2692 0327 00000000 		.4byte	0
 2693              	.LLST31:
 2694 032b 12000000 		.4byte	.LVL62
 2695 032f 2D000000 		.4byte	.LVL64-1
 2696 0333 0100     		.2byte	0x1
 2697 0335 53       		.byte	0x53
 2698 0336 30000000 		.4byte	.LVL65
 2699 033a 32000000 		.4byte	.LVL66
 2700 033e 0100     		.2byte	0x1
 2701 0340 53       		.byte	0x53
 2702 0341 00000000 		.4byte	0
 2703 0345 00000000 		.4byte	0
 2704              	.LLST32:
 2705 0349 1C000000 		.4byte	.LVL63
 2706 034d 2D000000 		.4byte	.LVL64-1
 2707 0351 0100     		.2byte	0x1
 2708 0353 53       		.byte	0x53
 2709 0354 00000000 		.4byte	0
 2710 0358 00000000 		.4byte	0
 2711              	.LLST33:
 2712 035c 1C000000 		.4byte	.LVL63
 2713 0360 2D000000 		.4byte	.LVL64-1
 2714 0364 0100     		.2byte	0x1
 2715 0366 50       		.byte	0x50
 2716 0367 00000000 		.4byte	0
 2717 036b 00000000 		.4byte	0
 2718              		.section	.debug_aranges,"",%progbits
 2719 0000 54000000 		.4byte	0x54
 2720 0004 0200     		.2byte	0x2
 2721 0006 00000000 		.4byte	.Ldebug_info0
 2722 000a 04       		.byte	0x4
 2723 000b 00       		.byte	0
 2724 000c 0000     		.2byte	0
 2725 000e 0000     		.2byte	0
 2726 0010 00000000 		.4byte	.LFB7
 2727 0014 0A000000 		.4byte	.LFE7-.LFB7
 2728 0018 00000000 		.4byte	.LFB9
 2729 001c D0000000 		.4byte	.LFE9-.LFB9
 2730 0020 00000000 		.4byte	.LFB8
 2731 0024 0C000000 		.4byte	.LFE8-.LFB8
 2732 0028 00000000 		.4byte	.LFB11
 2733 002c 24000000 		.4byte	.LFE11-.LFB11
 2734 0030 00000000 		.4byte	.LFB10
 2735 0034 0C000000 		.4byte	.LFE10-.LFB10
 2736 0038 00000000 		.4byte	.LFB12
ARM GAS  /tmp/cctZkPFT.s 			page 49


 2737 003c 58000000 		.4byte	.LFE12-.LFB12
 2738 0040 00000000 		.4byte	.LFB13
 2739 0044 50000000 		.4byte	.LFE13-.LFB13
 2740 0048 00000000 		.4byte	.LFB14
 2741 004c 48000000 		.4byte	.LFE14-.LFB14
 2742 0050 00000000 		.4byte	0
 2743 0054 00000000 		.4byte	0
 2744              		.section	.debug_ranges,"",%progbits
 2745              	.Ldebug_ranges0:
 2746 0000 00000000 		.4byte	.LFB7
 2747 0004 0A000000 		.4byte	.LFE7
 2748 0008 00000000 		.4byte	.LFB9
 2749 000c D0000000 		.4byte	.LFE9
 2750 0010 00000000 		.4byte	.LFB8
 2751 0014 0C000000 		.4byte	.LFE8
 2752 0018 00000000 		.4byte	.LFB11
 2753 001c 24000000 		.4byte	.LFE11
 2754 0020 00000000 		.4byte	.LFB10
 2755 0024 0C000000 		.4byte	.LFE10
 2756 0028 00000000 		.4byte	.LFB12
 2757 002c 58000000 		.4byte	.LFE12
 2758 0030 00000000 		.4byte	.LFB13
 2759 0034 50000000 		.4byte	.LFE13
 2760 0038 00000000 		.4byte	.LFB14
 2761 003c 48000000 		.4byte	.LFE14
 2762 0040 00000000 		.4byte	0
 2763 0044 00000000 		.4byte	0
 2764              		.section	.debug_line,"",%progbits
 2765              	.Ldebug_line0:
 2766 0000 FB020000 		.section	.debug_str,"MS",%progbits,1
 2766      02009001 
 2766      00000201 
 2766      FB0E0D00 
 2766      01010101 
 2767              	.LASF40:
 2768 0000 705F6D73 		.ascii	"p_msg\000"
 2768      6700
 2769              	.LASF62:
 2770 0006 7264796D 		.ascii	"rdymsg\000"
 2770      736700
 2771              	.LASF5:
 2772 000d 5F5F7569 		.ascii	"__uint8_t\000"
 2772      6E74385F 
 2772      7400
 2773              	.LASF11:
 2774 0017 6C6F6E67 		.ascii	"long long unsigned int\000"
 2774      206C6F6E 
 2774      6720756E 
 2774      7369676E 
 2774      65642069 
 2775              	.LASF63:
 2776 002e 65786974 		.ascii	"exitcode\000"
 2776      636F6465 
 2776      00
 2777              	.LASF81:
 2778 0037 43686962 		.ascii	"ChibiOS_2.6.5/os/kernel/src/chmtx.c\000"
 2778      694F535F 
ARM GAS  /tmp/cctZkPFT.s 			page 50


 2778      322E362E 
 2778      352F6F73 
 2778      2F6B6572 
 2779              	.LASF74:
 2780 005b 63684D74 		.ascii	"chMtxUnlock\000"
 2780      78556E6C 
 2780      6F636B00 
 2781              	.LASF28:
 2782 0067 705F7072 		.ascii	"p_prio\000"
 2782      696F00
 2783              	.LASF10:
 2784 006e 6C6F6E67 		.ascii	"long long int\000"
 2784      206C6F6E 
 2784      6720696E 
 2784      7400
 2785              	.LASF1:
 2786 007c 7369676E 		.ascii	"signed char\000"
 2786      65642063 
 2786      68617200 
 2787              	.LASF44:
 2788 0088 705F6D70 		.ascii	"p_mpool\000"
 2788      6F6F6C00 
 2789              	.LASF15:
 2790 0090 626F6F6C 		.ascii	"bool_t\000"
 2790      5F7400
 2791              	.LASF59:
 2792 0097 6D5F7175 		.ascii	"m_queue\000"
 2792      65756500 
 2793              	.LASF20:
 2794 009f 74736C69 		.ascii	"tslices_t\000"
 2794      6365735F 
 2794      7400
 2795              	.LASF7:
 2796 00a9 6C6F6E67 		.ascii	"long int\000"
 2796      20696E74 
 2796      00
 2797              	.LASF18:
 2798 00b2 74737461 		.ascii	"tstate_t\000"
 2798      74655F74 
 2798      00
 2799              	.LASF70:
 2800 00bb 63684D74 		.ascii	"chMtxLockS\000"
 2800      784C6F63 
 2800      6B5300
 2801              	.LASF72:
 2802 00c6 63684D74 		.ascii	"chMtxTryLockS\000"
 2802      78547279 
 2802      4C6F636B 
 2802      5300
 2803              	.LASF30:
 2804 00d4 705F6E65 		.ascii	"p_newer\000"
 2804      77657200 
 2805              	.LASF86:
 2806 00dc 63685363 		.ascii	"chSchRescheduleS\000"
 2806      68526573 
 2806      63686564 
 2806      756C6553 
ARM GAS  /tmp/cctZkPFT.s 			page 51


 2806      00
 2807              	.LASF8:
 2808 00ed 5F5F7569 		.ascii	"__uint32_t\000"
 2808      6E743332 
 2808      5F7400
 2809              	.LASF47:
 2810 00f8 72656761 		.ascii	"regarm_t\000"
 2810      726D5F74 
 2810      00
 2811              	.LASF76:
 2812 0101 63684D74 		.ascii	"chMtxUnlockS\000"
 2812      78556E6C 
 2812      6F636B53 
 2812      00
 2813              	.LASF0:
 2814 010e 756E7369 		.ascii	"unsigned int\000"
 2814      676E6564 
 2814      20696E74 
 2814      00
 2815              	.LASF9:
 2816 011b 6C6F6E67 		.ascii	"long unsigned int\000"
 2816      20756E73 
 2816      69676E65 
 2816      6420696E 
 2816      7400
 2817              	.LASF49:
 2818 012d 636F6E74 		.ascii	"context\000"
 2818      65787400 
 2819              	.LASF4:
 2820 0135 73686F72 		.ascii	"short unsigned int\000"
 2820      7420756E 
 2820      7369676E 
 2820      65642069 
 2820      6E7400
 2821              	.LASF22:
 2822 0148 6D73675F 		.ascii	"msg_t\000"
 2822      7400
 2823              	.LASF54:
 2824 014e 725F6E65 		.ascii	"r_newer\000"
 2824      77657200 
 2825              	.LASF77:
 2826 0156 63684D74 		.ascii	"chMtxUnlockAll\000"
 2826      78556E6C 
 2826      6F636B41 
 2826      6C6C00
 2827              	.LASF75:
 2828 0165 6E657770 		.ascii	"newprio\000"
 2828      72696F00 
 2829              	.LASF80:
 2830 016d 474E5520 		.ascii	"GNU C 4.8.4 20140526 (release) [ARM/embedded-4_8-br"
 2830      4320342E 
 2830      382E3420 
 2830      32303134 
 2830      30353236 
 2831 01a0 616E6368 		.ascii	"anch revision 211358] -mcpu=cortex-m0 -mno-thumb-in"
 2831      20726576 
 2831      6973696F 
ARM GAS  /tmp/cctZkPFT.s 			page 52


 2831      6E203231 
 2831      31333538 
 2832 01d3 74657277 		.ascii	"terwork -mthumb -ggdb -O1 -fomit-frame-pointer -ffu"
 2832      6F726B20 
 2832      2D6D7468 
 2832      756D6220 
 2832      2D676764 
 2833 0206 6E637469 		.ascii	"nction-sections -fdata-sections -fno-common\000"
 2833      6F6E2D73 
 2833      65637469 
 2833      6F6E7320 
 2833      2D666461 
 2834              	.LASF46:
 2835 0232 54687265 		.ascii	"ThreadsList\000"
 2835      6164734C 
 2835      69737400 
 2836              	.LASF23:
 2837 023e 6576656E 		.ascii	"eventmask_t\000"
 2837      746D6173 
 2837      6B5F7400 
 2838              	.LASF73:
 2839 024a 63684D74 		.ascii	"chMtxTryLock\000"
 2839      78547279 
 2839      4C6F636B 
 2839      00
 2840              	.LASF58:
 2841 0257 4D757465 		.ascii	"Mutex\000"
 2841      7800
 2842              	.LASF50:
 2843 025d 73697A65 		.ascii	"sizetype\000"
 2843      74797065 
 2843      00
 2844              	.LASF71:
 2845 0266 63684D74 		.ascii	"chMtxLock\000"
 2845      784C6F63 
 2845      6B00
 2846              	.LASF31:
 2847 0270 705F6F6C 		.ascii	"p_older\000"
 2847      64657200 
 2848              	.LASF53:
 2849 0278 725F6374 		.ascii	"r_ctx\000"
 2849      7800
 2850              	.LASF45:
 2851 027e 54687265 		.ascii	"ThreadsQueue\000"
 2851      61647351 
 2851      75657565 
 2851      00
 2852              	.LASF67:
 2853 028b 64657175 		.ascii	"dequeue\000"
 2853      65756500 
 2854              	.LASF56:
 2855 0293 725F6375 		.ascii	"r_current\000"
 2855      7272656E 
 2855      7400
 2856              	.LASF55:
 2857 029d 725F6F6C 		.ascii	"r_older\000"
 2857      64657200 
ARM GAS  /tmp/cctZkPFT.s 			page 53


 2858              	.LASF19:
 2859 02a5 74726566 		.ascii	"trefs_t\000"
 2859      735F7400 
 2860              	.LASF27:
 2861 02ad 705F7072 		.ascii	"p_prev\000"
 2861      657600
 2862              	.LASF21:
 2863 02b4 74707269 		.ascii	"tprio_t\000"
 2863      6F5F7400 
 2864              	.LASF16:
 2865 02bc 5F426F6F 		.ascii	"_Bool\000"
 2865      6C00
 2866              	.LASF13:
 2867 02c2 696E7433 		.ascii	"int32_t\000"
 2867      325F7400 
 2868              	.LASF2:
 2869 02ca 756E7369 		.ascii	"unsigned char\000"
 2869      676E6564 
 2869      20636861 
 2869      7200
 2870              	.LASF42:
 2871 02d8 705F6D74 		.ascii	"p_mtxlist\000"
 2871      786C6973 
 2871      7400
 2872              	.LASF3:
 2873 02e2 73686F72 		.ascii	"short int\000"
 2873      7420696E 
 2873      7400
 2874              	.LASF33:
 2875 02ec 705F7374 		.ascii	"p_state\000"
 2875      61746500 
 2876              	.LASF36:
 2877 02f4 705F7072 		.ascii	"p_preempt\000"
 2877      65656D70 
 2877      7400
 2878              	.LASF52:
 2879 02fe 725F7072 		.ascii	"r_prio\000"
 2879      696F00
 2880              	.LASF65:
 2881 0305 65776D61 		.ascii	"ewmask\000"
 2881      736B00
 2882              	.LASF26:
 2883 030c 705F6E65 		.ascii	"p_next\000"
 2883      787400
 2884              	.LASF17:
 2885 0313 746D6F64 		.ascii	"tmode_t\000"
 2885      655F7400 
 2886              	.LASF34:
 2887 031b 705F666C 		.ascii	"p_flags\000"
 2887      61677300 
 2888              	.LASF25:
 2889 0323 54687265 		.ascii	"Thread\000"
 2889      616400
 2890              	.LASF78:
 2891 032a 63685363 		.ascii	"chSchGoSleepS\000"
 2891      68476F53 
 2891      6C656570 
ARM GAS  /tmp/cctZkPFT.s 			page 54


 2891      5300
 2892              	.LASF41:
 2893 0338 705F6570 		.ascii	"p_epending\000"
 2893      656E6469 
 2893      6E6700
 2894              	.LASF14:
 2895 0343 75696E74 		.ascii	"uint32_t\000"
 2895      33325F74 
 2895      00
 2896              	.LASF51:
 2897 034c 725F7175 		.ascii	"r_queue\000"
 2897      65756500 
 2898              	.LASF85:
 2899 0354 63685363 		.ascii	"chSchReadyI\000"
 2899      68526561 
 2899      64794900 
 2900              	.LASF66:
 2901 0360 63686172 		.ascii	"char\000"
 2901      00
 2902              	.LASF68:
 2903 0365 6669666F 		.ascii	"fifo_remove\000"
 2903      5F72656D 
 2903      6F766500 
 2904              	.LASF61:
 2905 0371 6D5F6E65 		.ascii	"m_next\000"
 2905      787400
 2906              	.LASF24:
 2907 0378 73797374 		.ascii	"systime_t\000"
 2907      696D655F 
 2907      7400
 2908              	.LASF43:
 2909 0382 705F7265 		.ascii	"p_realprio\000"
 2909      616C7072 
 2909      696F00
 2910              	.LASF6:
 2911 038d 5F5F696E 		.ascii	"__int32_t\000"
 2911      7433325F 
 2911      7400
 2912              	.LASF83:
 2913 0397 7072696F 		.ascii	"prio_insert\000"
 2913      5F696E73 
 2913      65727400 
 2914              	.LASF37:
 2915 03a3 705F7469 		.ascii	"p_time\000"
 2915      6D6500
 2916              	.LASF82:
 2917 03aa 2F484444 		.ascii	"/HDD/GIT/variometer/Altimeter/\000"
 2917      2F474954 
 2917      2F766172 
 2917      696F6D65 
 2917      7465722F 
 2918              	.LASF48:
 2919 03c9 696E7463 		.ascii	"intctx\000"
 2919      747800
 2920              	.LASF39:
 2921 03d0 705F6D73 		.ascii	"p_msgqueue\000"
 2921      67717565 
ARM GAS  /tmp/cctZkPFT.s 			page 55


 2921      756500
 2922              	.LASF79:
 2923 03db 63685363 		.ascii	"chSchWakeupS\000"
 2923      6857616B 
 2923      65757053 
 2923      00
 2924              	.LASF69:
 2925 03e8 63684D74 		.ascii	"chMtxInit\000"
 2925      78496E69 
 2925      7400
 2926              	.LASF35:
 2927 03f2 705F7265 		.ascii	"p_refs\000"
 2927      667300
 2928              	.LASF57:
 2929 03f9 52656164 		.ascii	"ReadyList\000"
 2929      794C6973 
 2929      7400
 2930              	.LASF84:
 2931 0403 726C6973 		.ascii	"rlist\000"
 2931      7400
 2932              	.LASF12:
 2933 0409 75696E74 		.ascii	"uint8_t\000"
 2933      385F7400 
 2934              	.LASF64:
 2935 0411 77746F62 		.ascii	"wtobjp\000"
 2935      6A7000
 2936              	.LASF32:
 2937 0418 705F6E61 		.ascii	"p_name\000"
 2937      6D6500
 2938              	.LASF60:
 2939 041f 6D5F6F77 		.ascii	"m_owner\000"
 2939      6E657200 
 2940              	.LASF29:
 2941 0427 705F6374 		.ascii	"p_ctx\000"
 2941      7800
 2942              	.LASF38:
 2943 042d 705F7761 		.ascii	"p_waiting\000"
 2943      6974696E 
 2943      6700
 2944              		.ident	"GCC: (GNU Tools for ARM Embedded Processors) 4.8.4 20140526 (release) [ARM/embedded-4_8-br
ARM GAS  /tmp/cctZkPFT.s 			page 56


DEFINED SYMBOLS
                            *ABS*:00000000 chmtx.c
     /tmp/cctZkPFT.s:18     .text.chMtxInit:00000000 $t
     /tmp/cctZkPFT.s:23     .text.chMtxInit:00000000 chMtxInit
     /tmp/cctZkPFT.s:42     .text.chMtxLockS:00000000 $t
     /tmp/cctZkPFT.s:47     .text.chMtxLockS:00000000 chMtxLockS
     /tmp/cctZkPFT.s:269    .text.chMtxLockS:000000cc $d
     /tmp/cctZkPFT.s:274    .text.chMtxLock:00000000 $t
     /tmp/cctZkPFT.s:279    .text.chMtxLock:00000000 chMtxLock
     /tmp/cctZkPFT.s:308    .text.chMtxTryLockS:00000000 $t
     /tmp/cctZkPFT.s:313    .text.chMtxTryLockS:00000000 chMtxTryLockS
     /tmp/cctZkPFT.s:346    .text.chMtxTryLockS:00000020 $d
     /tmp/cctZkPFT.s:351    .text.chMtxTryLock:00000000 $t
     /tmp/cctZkPFT.s:356    .text.chMtxTryLock:00000000 chMtxTryLock
     /tmp/cctZkPFT.s:385    .text.chMtxUnlock:00000000 $t
     /tmp/cctZkPFT.s:390    .text.chMtxUnlock:00000000 chMtxUnlock
     /tmp/cctZkPFT.s:492    .text.chMtxUnlock:00000054 $d
     /tmp/cctZkPFT.s:497    .text.chMtxUnlockS:00000000 $t
     /tmp/cctZkPFT.s:502    .text.chMtxUnlockS:00000000 chMtxUnlockS
     /tmp/cctZkPFT.s:592    .text.chMtxUnlockS:0000004c $d
     /tmp/cctZkPFT.s:597    .text.chMtxUnlockAll:00000000 $t
     /tmp/cctZkPFT.s:602    .text.chMtxUnlockAll:00000000 chMtxUnlockAll
     /tmp/cctZkPFT.s:691    .text.chMtxUnlockAll:00000044 $d
                     .debug_frame:00000010 $d

UNDEFINED SYMBOLS
chSchReadyI
chSchGoSleepS
rlist
chSchWakeupS
chSchRescheduleS
