ARM GAS  /tmp/cctZkPFT.s 			page 1


   1              		.cpu cortex-m0
   2              		.fpu softvfp
   3              		.eabi_attribute 20, 1
   4              		.eabi_attribute 21, 1
   5              		.eabi_attribute 23, 3
   6              		.eabi_attribute 24, 1
   7              		.eabi_attribute 25, 1
   8              		.eabi_attribute 26, 1
   9              		.eabi_attribute 30, 1
  10              		.eabi_attribute 34, 0
  11              		.eabi_attribute 18, 4
  12              		.code	16
  13              		.file	"chmtx.c"
  14              		.text
  15              	.Ltext0:
  16              		.cfi_sections	.debug_frame
  17              		.section	.text.chMtxInit,"ax",%progbits
  18              		.align	2
  19              		.global	chMtxInit
  20              		.code	16
  21              		.thumb_func
  22              		.type	chMtxInit, %function
  23              	chMtxInit:
  24              	.LFB7:
  25              		.file 1 "ChibiOS_2.6.5/os/kernel/src/chmtx.c"
  26              		.loc 1 86 0
  27              		.cfi_startproc
  28              	.LVL0:
  29              		.loc 1 90 0
  30 0000 4060     		str	r0, [r0, #4]
  31 0002 0060     		str	r0, [r0]
  32              		.loc 1 91 0
  33 0004 0023     		mov	r3, #0
  34 0006 8360     		str	r3, [r0, #8]
  35              		.loc 1 92 0
  36              		@ sp needed
  37 0008 7047     		bx	lr
  38              		.cfi_endproc
  39              	.LFE7:
  40              		.size	chMtxInit, .-chMtxInit
  41              		.section	.text.chMtxLockS,"ax",%progbits
  42              		.align	2
  43              		.global	chMtxLockS
  44              		.code	16
  45              		.thumb_func
  46              		.type	chMtxLockS, %function
  47              	chMtxLockS:
  48              	.LFB9:
  49              		.loc 1 121 0
  50              		.cfi_startproc
  51              	.LVL1:
  52 0000 70B5     		push	{r4, r5, r6, lr}
  53              		.cfi_def_cfa_offset 16
  54              		.cfi_offset 4, -16
  55              		.cfi_offset 5, -12
  56              		.cfi_offset 6, -8
  57              		.cfi_offset 14, -4
ARM GAS  /tmp/cctZkPFT.s 			page 2


  58 0002 051C     		mov	r5, r0
  59              		.loc 1 122 0
  60 0004 314B     		ldr	r3, .L16
  61 0006 9C69     		ldr	r4, [r3, #24]
  62              	.LVL2:
  63              		.loc 1 128 0
  64 0008 8068     		ldr	r0, [r0, #8]
  65              	.LVL3:
  66 000a 0028     		cmp	r0, #0
  67 000c 58D0     		beq	.L3
  68              	.LVL4:
  69              	.LBB25:
  70              		.loc 1 135 0 discriminator 1
  71 000e A268     		ldr	r2, [r4, #8]
  72 0010 8168     		ldr	r1, [r0, #8]
  73 0012 9142     		cmp	r1, r2
  74 0014 41D2     		bcs	.L4
  75              	.L10:
  76              		.loc 1 137 0
  77 0016 8260     		str	r2, [r0, #8]
  78              		.loc 1 139 0
  79 0018 027F     		ldrb	r2, [r0, #28]
  80 001a 042A     		cmp	r2, #4
  81 001c 05D0     		beq	.L5
  82 001e D2B2     		uxtb	r2, r2
  83 0020 052A     		cmp	r2, #5
  84 0022 1DD0     		beq	.L6
  85 0024 002A     		cmp	r2, #0
  86 0026 38D1     		bne	.L4
  87 0028 2FE0     		b	.L7
  88              	.L5:
  89              	.LVL5:
  90              	.LBB26:
  91              	.LBB27:
  92              		.file 2 "ChibiOS_2.6.5/os/kernel/include/chinline.h"
  93              		.loc 2 75 0
  94 002a 4268     		ldr	r2, [r0, #4]
  95 002c 0368     		ldr	r3, [r0]
  96 002e 1360     		str	r3, [r2]
  97              		.loc 2 76 0
  98 0030 0268     		ldr	r2, [r0]
  99 0032 4668     		ldr	r6, [r0, #4]
 100 0034 5660     		str	r6, [r2, #4]
 101              	.LBE27:
 102              	.LBE26:
 103              		.loc 1 142 0
 104 0036 416A     		ldr	r1, [r0, #36]
 105              	.LVL6:
 106              	.LBB28:
 107              	.LBB29:
 108              		.loc 2 43 0
 109 0038 0A1C     		mov	r2, r1
 110              	.LVL7:
 111              	.L9:
 112              		.loc 2 45 0
 113 003a 1268     		ldr	r2, [r2]
 114              	.LVL8:
ARM GAS  /tmp/cctZkPFT.s 			page 3


 115              		.loc 2 46 0
 116 003c 9142     		cmp	r1, r2
 117 003e 03D0     		beq	.L8
 118 0040 9368     		ldr	r3, [r2, #8]
 119 0042 8668     		ldr	r6, [r0, #8]
 120 0044 B342     		cmp	r3, r6
 121 0046 F8D2     		bcs	.L9
 122              	.L8:
 123              		.loc 2 47 0
 124 0048 0260     		str	r2, [r0]
 125              		.loc 2 48 0
 126 004a 5168     		ldr	r1, [r2, #4]
 127              	.LVL9:
 128 004c 4160     		str	r1, [r0, #4]
 129              		.loc 2 49 0
 130 004e 5060     		str	r0, [r2, #4]
 131              	.LVL10:
 132 0050 0860     		str	r0, [r1]
 133              	.LBE29:
 134              	.LBE28:
 135              		.loc 1 143 0
 136 0052 436A     		ldr	r3, [r0, #36]
 137 0054 9868     		ldr	r0, [r3, #8]
 138              	.LVL11:
 139              		.loc 1 135 0
 140 0056 A268     		ldr	r2, [r4, #8]
 141              	.LVL12:
 142 0058 8168     		ldr	r1, [r0, #8]
 143              	.LVL13:
 144 005a 9142     		cmp	r1, r2
 145 005c DBD3     		bcc	.L10
 146 005e 1CE0     		b	.L4
 147              	.L6:
 148              	.LVL14:
 149              	.LBB30:
 150              	.LBB31:
 151              		.loc 2 75 0
 152 0060 4268     		ldr	r2, [r0, #4]
 153 0062 0368     		ldr	r3, [r0]
 154 0064 1360     		str	r3, [r2]
 155              		.loc 2 76 0
 156 0066 0268     		ldr	r2, [r0]
 157 0068 4668     		ldr	r6, [r0, #4]
 158 006a 5660     		str	r6, [r2, #4]
 159              	.LBE31:
 160              	.LBE30:
 161              		.loc 1 158 0
 162 006c 416A     		ldr	r1, [r0, #36]
 163              	.LVL15:
 164              	.LBB32:
 165              	.LBB33:
 166              		.loc 2 43 0
 167 006e 0A1C     		mov	r2, r1
 168              	.LVL16:
 169              	.L12:
 170              		.loc 2 45 0
 171 0070 1268     		ldr	r2, [r2]
ARM GAS  /tmp/cctZkPFT.s 			page 4


 172              	.LVL17:
 173              		.loc 2 46 0
 174 0072 9142     		cmp	r1, r2
 175 0074 03D0     		beq	.L11
 176 0076 9368     		ldr	r3, [r2, #8]
 177 0078 8668     		ldr	r6, [r0, #8]
 178 007a B342     		cmp	r3, r6
 179 007c F8D2     		bcs	.L12
 180              	.L11:
 181              		.loc 2 47 0
 182 007e 0260     		str	r2, [r0]
 183              		.loc 2 48 0
 184 0080 5168     		ldr	r1, [r2, #4]
 185              	.LVL18:
 186 0082 4160     		str	r1, [r0, #4]
 187              		.loc 2 49 0
 188 0084 5060     		str	r0, [r2, #4]
 189              	.LVL19:
 190 0086 0860     		str	r0, [r1]
 191 0088 07E0     		b	.L4
 192              	.LVL20:
 193              	.L7:
 194              	.LBE33:
 195              	.LBE32:
 196              	.LBB34:
 197              	.LBB35:
 198              		.loc 2 75 0
 199 008a 4268     		ldr	r2, [r0, #4]
 200 008c 0168     		ldr	r1, [r0]
 201 008e 1160     		str	r1, [r2]
 202              		.loc 2 76 0
 203 0090 0268     		ldr	r2, [r0]
 204 0092 4368     		ldr	r3, [r0, #4]
 205 0094 5360     		str	r3, [r2, #4]
 206              	.LBE35:
 207              	.LBE34:
 208              		.loc 1 167 0
 209 0096 FFF7FEFF 		bl	chSchReadyI
 210              	.LVL21:
 211              	.L4:
 212              		.loc 1 173 0
 213 009a 2A1C     		mov	r2, r5
 214              	.LVL22:
 215              	.LBB36:
 216              	.LBB37:
 217              		.loc 2 43 0
 218 009c 2B1C     		mov	r3, r5
 219              	.LVL23:
 220              	.L14:
 221              		.loc 2 45 0
 222 009e 1B68     		ldr	r3, [r3]
 223              	.LVL24:
 224              		.loc 2 46 0
 225 00a0 9A42     		cmp	r2, r3
 226 00a2 03D0     		beq	.L13
 227 00a4 9E68     		ldr	r6, [r3, #8]
 228 00a6 A068     		ldr	r0, [r4, #8]
ARM GAS  /tmp/cctZkPFT.s 			page 5


 229 00a8 8642     		cmp	r6, r0
 230 00aa F8D2     		bcs	.L14
 231              	.L13:
 232              		.loc 2 47 0
 233 00ac 2360     		str	r3, [r4]
 234              		.loc 2 48 0
 235 00ae 5A68     		ldr	r2, [r3, #4]
 236              	.LVL25:
 237 00b0 6260     		str	r2, [r4, #4]
 238              		.loc 2 49 0
 239 00b2 5C60     		str	r4, [r3, #4]
 240 00b4 1460     		str	r4, [r2]
 241              	.LBE37:
 242              	.LBE36:
 243              		.loc 1 174 0
 244 00b6 6562     		str	r5, [r4, #36]
 245              		.loc 1 175 0
 246 00b8 0420     		mov	r0, #4
 247 00ba FFF7FEFF 		bl	chSchGoSleepS
 248              	.LVL26:
 249              	.LBE25:
 250 00be 03E0     		b	.L2
 251              	.LVL27:
 252              	.L3:
 253              		.loc 1 183 0
 254 00c0 AC60     		str	r4, [r5, #8]
 255              		.loc 1 184 0
 256 00c2 E16B     		ldr	r1, [r4, #60]
 257 00c4 E960     		str	r1, [r5, #12]
 258              		.loc 1 185 0
 259 00c6 E563     		str	r5, [r4, #60]
 260              	.L2:
 261              		.loc 1 187 0
 262              		@ sp needed
 263              	.LVL28:
 264              	.LVL29:
 265 00c8 70BD     		pop	{r4, r5, r6, pc}
 266              	.L17:
 267 00ca C046     		.align	2
 268              	.L16:
 269 00cc 00000000 		.word	rlist
 270              		.cfi_endproc
 271              	.LFE9:
 272              		.size	chMtxLockS, .-chMtxLockS
 273              		.section	.text.chMtxLock,"ax",%progbits
 274              		.align	2
 275              		.global	chMtxLock
 276              		.code	16
 277              		.thumb_func
 278              		.type	chMtxLock, %function
 279              	chMtxLock:
 280              	.LFB8:
 281              		.loc 1 103 0
 282              		.cfi_startproc
 283              	.LVL30:
 284 0000 08B5     		push	{r3, lr}
 285              		.cfi_def_cfa_offset 8
ARM GAS  /tmp/cctZkPFT.s 			page 6


 286              		.cfi_offset 3, -8
 287              		.cfi_offset 14, -4
 288              		.loc 1 105 0
 289              	@ 105 "ChibiOS_2.6.5/os/kernel/src/chmtx.c" 1
 290 0002 72B6     		cpsid   i
 291              	@ 0 "" 2
 292              		.loc 1 107 0
 293              		.code	16
 294 0004 FFF7FEFF 		bl	chMtxLockS
 295              	.LVL31:
 296              		.loc 1 109 0
 297              	@ 109 "ChibiOS_2.6.5/os/kernel/src/chmtx.c" 1
 298 0008 62B6     		cpsie   i
 299              	@ 0 "" 2
 300              		.loc 1 110 0
 301              		.code	16
 302              		@ sp needed
 303 000a 08BD     		pop	{r3, pc}
 304              		.cfi_endproc
 305              	.LFE8:
 306              		.size	chMtxLock, .-chMtxLock
 307              		.section	.text.chMtxTryLockS,"ax",%progbits
 308              		.align	2
 309              		.global	chMtxTryLockS
 310              		.code	16
 311              		.thumb_func
 312              		.type	chMtxTryLockS, %function
 313              	chMtxTryLockS:
 314              	.LFB11:
 315              		.loc 1 234 0
 316              		.cfi_startproc
 317              	.LVL32:
 318 0000 031C     		mov	r3, r0
 319              		.loc 1 240 0
 320 0002 0020     		mov	r0, #0
 321              	.LVL33:
 322              		.loc 1 239 0
 323 0004 9968     		ldr	r1, [r3, #8]
 324 0006 0029     		cmp	r1, #0
 325 0008 08D1     		bne	.L20
 326              		.loc 1 241 0
 327 000a 054A     		ldr	r2, .L22
 328 000c 9169     		ldr	r1, [r2, #24]
 329 000e 9960     		str	r1, [r3, #8]
 330              		.loc 1 242 0
 331 0010 9169     		ldr	r1, [r2, #24]
 332 0012 C96B     		ldr	r1, [r1, #60]
 333 0014 D960     		str	r1, [r3, #12]
 334              		.loc 1 243 0
 335 0016 9269     		ldr	r2, [r2, #24]
 336 0018 D363     		str	r3, [r2, #60]
 337              		.loc 1 244 0
 338 001a 0120     		mov	r0, #1
 339              	.L20:
 340              		.loc 1 245 0
 341              		@ sp needed
 342 001c 7047     		bx	lr
ARM GAS  /tmp/cctZkPFT.s 			page 7


 343              	.L23:
 344 001e C046     		.align	2
 345              	.L22:
 346 0020 00000000 		.word	rlist
 347              		.cfi_endproc
 348              	.LFE11:
 349              		.size	chMtxTryLockS, .-chMtxTryLockS
 350              		.section	.text.chMtxTryLock,"ax",%progbits
 351              		.align	2
 352              		.global	chMtxTryLock
 353              		.code	16
 354              		.thumb_func
 355              		.type	chMtxTryLock, %function
 356              	chMtxTryLock:
 357              	.LFB10:
 358              		.loc 1 206 0
 359              		.cfi_startproc
 360              	.LVL34:
 361 0000 08B5     		push	{r3, lr}
 362              		.cfi_def_cfa_offset 8
 363              		.cfi_offset 3, -8
 364              		.cfi_offset 14, -4
 365              		.loc 1 209 0
 366              	@ 209 "ChibiOS_2.6.5/os/kernel/src/chmtx.c" 1
 367 0002 72B6     		cpsid   i
 368              	@ 0 "" 2
 369              		.loc 1 211 0
 370              		.code	16
 371 0004 FFF7FEFF 		bl	chMtxTryLockS
 372              	.LVL35:
 373              		.loc 1 213 0
 374              	@ 213 "ChibiOS_2.6.5/os/kernel/src/chmtx.c" 1
 375 0008 62B6     		cpsie   i
 376              	@ 0 "" 2
 377              		.loc 1 215 0
 378              		.code	16
 379              		@ sp needed
 380 000a 08BD     		pop	{r3, pc}
 381              		.cfi_endproc
 382              	.LFE10:
 383              		.size	chMtxTryLock, .-chMtxTryLock
 384              		.section	.text.chMtxUnlock,"ax",%progbits
 385              		.align	2
 386              		.global	chMtxUnlock
 387              		.code	16
 388              		.thumb_func
 389              		.type	chMtxUnlock, %function
 390              	chMtxUnlock:
 391              	.LFB12:
 392              		.loc 1 257 0
 393              		.cfi_startproc
 394 0000 10B5     		push	{r4, lr}
 395              		.cfi_def_cfa_offset 8
 396              		.cfi_offset 4, -8
 397              		.cfi_offset 14, -4
 398              		.loc 1 258 0
 399 0002 144B     		ldr	r3, .L32
ARM GAS  /tmp/cctZkPFT.s 			page 8


 400 0004 9869     		ldr	r0, [r3, #24]
 401              	.LVL36:
 402              		.loc 1 261 0
 403              	@ 261 "ChibiOS_2.6.5/os/kernel/src/chmtx.c" 1
 404 0006 72B6     		cpsid   i
 405              	@ 0 "" 2
 406              		.loc 1 270 0
 407              		.code	16
 408 0008 C46B     		ldr	r4, [r0, #60]
 409              	.LVL37:
 410              		.loc 1 271 0
 411 000a E368     		ldr	r3, [r4, #12]
 412 000c C363     		str	r3, [r0, #60]
 413              		.loc 1 273 0
 414 000e 2268     		ldr	r2, [r4]
 415 0010 A242     		cmp	r2, r4
 416 0012 19D0     		beq	.L26
 417              	.LBB38:
 418              		.loc 1 278 0
 419 0014 016C     		ldr	r1, [r0, #64]
 420              	.LVL38:
 421              		.loc 1 280 0
 422 0016 002B     		cmp	r3, #0
 423 0018 09D0     		beq	.L27
 424              	.L30:
 425              		.loc 1 284 0
 426 001a 1A68     		ldr	r2, [r3]
 427 001c 9A42     		cmp	r2, r3
 428 001e 03D0     		beq	.L28
 429              		.loc 1 284 0 is_stmt 0 discriminator 1
 430 0020 9268     		ldr	r2, [r2, #8]
 431 0022 9142     		cmp	r1, r2
 432 0024 00D2     		bcs	.L28
 433 0026 111C     		mov	r1, r2
 434              	.LVL39:
 435              	.L28:
 436              		.loc 1 286 0 is_stmt 1
 437 0028 DB68     		ldr	r3, [r3, #12]
 438              	.LVL40:
 439              		.loc 1 280 0
 440 002a 002B     		cmp	r3, #0
 441 002c F5D1     		bne	.L30
 442              	.L27:
 443              		.loc 1 290 0
 444 002e 8160     		str	r1, [r0, #8]
 445              	.LVL41:
 446              	.LBB39:
 447              	.LBB40:
 448              		.loc 2 60 0
 449 0030 2068     		ldr	r0, [r4]
 450              	.LVL42:
 451              		.loc 2 62 0
 452 0032 0368     		ldr	r3, [r0]
 453              	.LVL43:
 454 0034 2360     		str	r3, [r4]
 455 0036 5C60     		str	r4, [r3, #4]
 456              	.LBE40:
ARM GAS  /tmp/cctZkPFT.s 			page 9


 457              	.LBE39:
 458              		.loc 1 294 0
 459 0038 A060     		str	r0, [r4, #8]
 460              		.loc 1 295 0
 461 003a C36B     		ldr	r3, [r0, #60]
 462 003c E360     		str	r3, [r4, #12]
 463              		.loc 1 296 0
 464 003e C463     		str	r4, [r0, #60]
 465              		.loc 1 297 0
 466 0040 0021     		mov	r1, #0
 467              	.LVL44:
 468 0042 FFF7FEFF 		bl	chSchWakeupS
 469              	.LVL45:
 470              	.LBE38:
 471 0046 01E0     		b	.L31
 472              	.LVL46:
 473              	.L26:
 474              		.loc 1 300 0
 475 0048 0023     		mov	r3, #0
 476 004a A360     		str	r3, [r4, #8]
 477              	.LVL47:
 478              	.L31:
 479              		.loc 1 301 0
 480              	@ 301 "ChibiOS_2.6.5/os/kernel/src/chmtx.c" 1
 481 004c 62B6     		cpsie   i
 482              	@ 0 "" 2
 483              		.loc 1 303 0
 484              		.code	16
 485 004e 201C     		mov	r0, r4
 486              		@ sp needed
 487              	.LVL48:
 488 0050 10BD     		pop	{r4, pc}
 489              	.L33:
 490 0052 C046     		.align	2
 491              	.L32:
 492 0054 00000000 		.word	rlist
 493              		.cfi_endproc
 494              	.LFE12:
 495              		.size	chMtxUnlock, .-chMtxUnlock
 496              		.section	.text.chMtxUnlockS,"ax",%progbits
 497              		.align	2
 498              		.global	chMtxUnlockS
 499              		.code	16
 500              		.thumb_func
 501              		.type	chMtxUnlockS, %function
 502              	chMtxUnlockS:
 503              	.LFB13:
 504              		.loc 1 317 0
 505              		.cfi_startproc
 506 0000 10B5     		push	{r4, lr}
 507              		.cfi_def_cfa_offset 8
 508              		.cfi_offset 4, -8
 509              		.cfi_offset 14, -4
 510              		.loc 1 318 0
 511 0002 124B     		ldr	r3, .L41
 512 0004 9869     		ldr	r0, [r3, #24]
 513              	.LVL49:
ARM GAS  /tmp/cctZkPFT.s 			page 10


 514              		.loc 1 331 0
 515 0006 C46B     		ldr	r4, [r0, #60]
 516              	.LVL50:
 517              		.loc 1 332 0
 518 0008 E368     		ldr	r3, [r4, #12]
 519 000a C363     		str	r3, [r0, #60]
 520              		.loc 1 334 0
 521 000c 2268     		ldr	r2, [r4]
 522 000e A242     		cmp	r2, r4
 523 0010 18D0     		beq	.L35
 524              	.LBB41:
 525              		.loc 1 339 0
 526 0012 016C     		ldr	r1, [r0, #64]
 527              	.LVL51:
 528              		.loc 1 341 0
 529 0014 002B     		cmp	r3, #0
 530 0016 09D0     		beq	.L36
 531              	.L39:
 532              		.loc 1 345 0
 533 0018 1A68     		ldr	r2, [r3]
 534 001a 9A42     		cmp	r2, r3
 535 001c 03D0     		beq	.L37
 536              		.loc 1 345 0 is_stmt 0 discriminator 1
 537 001e 9268     		ldr	r2, [r2, #8]
 538 0020 9142     		cmp	r1, r2
 539 0022 00D2     		bcs	.L37
 540 0024 111C     		mov	r1, r2
 541              	.LVL52:
 542              	.L37:
 543              		.loc 1 347 0 is_stmt 1
 544 0026 DB68     		ldr	r3, [r3, #12]
 545              	.LVL53:
 546              		.loc 1 341 0
 547 0028 002B     		cmp	r3, #0
 548 002a F5D1     		bne	.L39
 549              	.L36:
 550              		.loc 1 349 0
 551 002c 8160     		str	r1, [r0, #8]
 552              	.LVL54:
 553              	.LBB42:
 554              	.LBB43:
 555              		.loc 2 60 0
 556 002e 2068     		ldr	r0, [r4]
 557              	.LVL55:
 558              		.loc 2 62 0
 559 0030 0368     		ldr	r3, [r0]
 560              	.LVL56:
 561 0032 2360     		str	r3, [r4]
 562 0034 5C60     		str	r4, [r3, #4]
 563              	.LBE43:
 564              	.LBE42:
 565              		.loc 1 353 0
 566 0036 A060     		str	r0, [r4, #8]
 567              		.loc 1 354 0
 568 0038 C36B     		ldr	r3, [r0, #60]
 569 003a E360     		str	r3, [r4, #12]
 570              		.loc 1 355 0
ARM GAS  /tmp/cctZkPFT.s 			page 11


 571 003c C463     		str	r4, [r0, #60]
 572              		.loc 1 356 0
 573 003e FFF7FEFF 		bl	chSchReadyI
 574              	.LVL57:
 575              	.LBE41:
 576 0042 01E0     		b	.L40
 577              	.LVL58:
 578              	.L35:
 579              		.loc 1 359 0
 580 0044 0023     		mov	r3, #0
 581 0046 A360     		str	r3, [r4, #8]
 582              	.LVL59:
 583              	.L40:
 584              		.loc 1 361 0
 585 0048 201C     		mov	r0, r4
 586              		@ sp needed
 587              	.LVL60:
 588 004a 10BD     		pop	{r4, pc}
 589              	.L42:
 590              		.align	2
 591              	.L41:
 592 004c 00000000 		.word	rlist
 593              		.cfi_endproc
 594              	.LFE13:
 595              		.size	chMtxUnlockS, .-chMtxUnlockS
 596              		.section	.text.chMtxUnlockAll,"ax",%progbits
 597              		.align	2
 598              		.global	chMtxUnlockAll
 599              		.code	16
 600              		.thumb_func
 601              		.type	chMtxUnlockAll, %function
 602              	chMtxUnlockAll:
 603              	.LFB14:
 604              		.loc 1 374 0
 605              		.cfi_startproc
 606 0000 38B5     		push	{r3, r4, r5, lr}
 607              		.cfi_def_cfa_offset 16
 608              		.cfi_offset 3, -16
 609              		.cfi_offset 4, -12
 610              		.cfi_offset 5, -8
 611              		.cfi_offset 14, -4
 612              		.loc 1 375 0
 613 0002 104B     		ldr	r3, .L49
 614 0004 9C69     		ldr	r4, [r3, #24]
 615              	.LVL61:
 616              		.loc 1 377 0
 617              	@ 377 "ChibiOS_2.6.5/os/kernel/src/chmtx.c" 1
 618 0006 72B6     		cpsid   i
 619              	@ 0 "" 2
 620              		.loc 1 378 0
 621              		.code	16
 622 0008 E26B     		ldr	r2, [r4, #60]
 623 000a 002A     		cmp	r2, #0
 624 000c 18D0     		beq	.L44
 625              	.LBB44:
 626              		.loc 1 390 0
 627 000e 0025     		mov	r5, #0
ARM GAS  /tmp/cctZkPFT.s 			page 12


 628              	.L48:
 629              		.loc 1 380 0
 630 0010 E36B     		ldr	r3, [r4, #60]
 631              	.LVL62:
 632              		.loc 1 381 0
 633 0012 DA68     		ldr	r2, [r3, #12]
 634 0014 E263     		str	r2, [r4, #60]
 635              		.loc 1 382 0
 636 0016 1868     		ldr	r0, [r3]
 637 0018 9842     		cmp	r0, r3
 638 001a 09D0     		beq	.L45
 639              	.LVL63:
 640              	.LBB45:
 641              	.LBB46:
 642              	.LBB47:
 643              		.loc 2 62 0
 644 001c 0268     		ldr	r2, [r0]
 645 001e 1A60     		str	r2, [r3]
 646 0020 5360     		str	r3, [r2, #4]
 647              	.LBE47:
 648              	.LBE46:
 649              		.loc 1 384 0
 650 0022 9860     		str	r0, [r3, #8]
 651              		.loc 1 385 0
 652 0024 C26B     		ldr	r2, [r0, #60]
 653 0026 DA60     		str	r2, [r3, #12]
 654              		.loc 1 386 0
 655 0028 C363     		str	r3, [r0, #60]
 656              		.loc 1 387 0
 657 002a FFF7FEFF 		bl	chSchReadyI
 658              	.LVL64:
 659              	.LBE45:
 660 002e 00E0     		b	.L46
 661              	.LVL65:
 662              	.L45:
 663              		.loc 1 390 0
 664 0030 9D60     		str	r5, [r3, #8]
 665              	.LVL66:
 666              	.L46:
 667              	.LBE44:
 668              		.loc 1 391 0
 669 0032 E36B     		ldr	r3, [r4, #60]
 670 0034 002B     		cmp	r3, #0
 671 0036 EBD1     		bne	.L48
 672              		.loc 1 392 0
 673 0038 226C     		ldr	r2, [r4, #64]
 674 003a A260     		str	r2, [r4, #8]
 675              		.loc 1 393 0
 676 003c FFF7FEFF 		bl	chSchRescheduleS
 677              	.LVL67:
 678              	.L44:
 679              		.loc 1 395 0
 680              	@ 395 "ChibiOS_2.6.5/os/kernel/src/chmtx.c" 1
 681 0040 62B6     		cpsie   i
 682              	@ 0 "" 2
 683              		.loc 1 396 0
 684              		.code	16
ARM GAS  /tmp/cctZkPFT.s 			page 13


 685              		@ sp needed
 686              	.LVL68:
 687 0042 38BD     		pop	{r3, r4, r5, pc}
 688              	.L50:
 689              		.align	2
 690              	.L49:
 691 0044 00000000 		.word	rlist
 692              		.cfi_endproc
 693              	.LFE14:
 694              		.size	chMtxUnlockAll, .-chMtxUnlockAll
 695              		.text
 696              	.Letext0:
 697              		.file 3 "/usr/local/lpcxpresso_7.3.0_186/lpcxpresso/tools/arm-none-eabi/include/machine/_default_t
 698              		.file 4 "/usr/local/lpcxpresso_7.3.0_186/lpcxpresso/tools/arm-none-eabi/include/stdint.h"
 699              		.file 5 "ChibiOS_2.6.5/os/ports/GCC/ARMCMx/chtypes.h"
 700              		.file 6 "ChibiOS_2.6.5/os/kernel/include/chlists.h"
 701              		.file 7 "ChibiOS_2.6.5/os/kernel/include/chthreads.h"
 702              		.file 8 "ChibiOS_2.6.5/os/ports/GCC/ARMCMx/chcore_v6m.h"
 703              		.file 9 "ChibiOS_2.6.5/os/kernel/include/chschd.h"
 704              		.file 10 "ChibiOS_2.6.5/os/kernel/include/chmtx.h"