ARM GAS  /tmp/ccGAfTzb.s 			page 1


   1              		.cpu cortex-m0
   2              		.fpu softvfp
   3              		.eabi_attribute 20, 1
   4              		.eabi_attribute 21, 1
   5              		.eabi_attribute 23, 3
   6              		.eabi_attribute 24, 1
   7              		.eabi_attribute 25, 1
   8              		.eabi_attribute 26, 1
   9              		.eabi_attribute 30, 1
  10              		.eabi_attribute 34, 0
  11              		.eabi_attribute 18, 4
  12              		.code	16
  13              		.file	"chqueues.c"
  14              		.text
  15              	.Ltext0:
  16              		.cfi_sections	.debug_frame
  17              		.section	.text.qwait,"ax",%progbits
  18              		.align	2
  19              		.code	16
  20              		.thumb_func
  21              		.type	qwait, %function
  22              	qwait:
  23              	.LFB7:
  24              		.file 1 "ChibiOS_2.6.5/os/kernel/src/chqueues.c"
  25              		.loc 1 70 0
  26              		.cfi_startproc
  27              	.LVL0:
  28 0000 08B5     		push	{r3, lr}
  29              		.cfi_def_cfa_offset 8
  30              		.cfi_offset 3, -8
  31              		.cfi_offset 14, -4
  32              		.loc 1 72 0
  33 0002 0029     		cmp	r1, #0
  34 0004 0BD0     		beq	.L3
  35              		.loc 1 74 0
  36 0006 074B     		ldr	r3, .L4
  37 0008 9B69     		ldr	r3, [r3, #24]
  38 000a 5862     		str	r0, [r3, #36]
  39              	.LVL1:
  40              	.LBB12:
  41              	.LBB13:
  42              		.file 2 "ChibiOS_2.6.5/os/kernel/include/chinline.h"
  43              		.loc 2 54 0
  44 000c 1860     		str	r0, [r3]
  45              		.loc 2 55 0
  46 000e 4268     		ldr	r2, [r0, #4]
  47 0010 5A60     		str	r2, [r3, #4]
  48              		.loc 2 56 0
  49 0012 4360     		str	r3, [r0, #4]
  50 0014 1360     		str	r3, [r2]
  51              	.LBE13:
  52              	.LBE12:
  53              		.loc 1 76 0
  54 0016 0D20     		mov	r0, #13
  55              	.LVL2:
  56 0018 FFF7FEFF 		bl	chSchGoSleepTimeoutS
  57              	.LVL3:
ARM GAS  /tmp/ccGAfTzb.s 			page 2


  58 001c 01E0     		b	.L2
  59              	.LVL4:
  60              	.L3:
  61              		.loc 1 73 0
  62 001e 0120     		mov	r0, #1
  63              	.LVL5:
  64 0020 4042     		neg	r0, r0
  65              	.LVL6:
  66              	.L2:
  67              		.loc 1 77 0
  68              		@ sp needed
  69 0022 08BD     		pop	{r3, pc}
  70              	.L5:
  71              		.align	2
  72              	.L4:
  73 0024 00000000 		.word	rlist
  74              		.cfi_endproc
  75              	.LFE7:
  76              		.size	qwait, .-qwait
  77              		.section	.text.chIQInit,"ax",%progbits
  78              		.align	2
  79              		.global	chIQInit
  80              		.code	16
  81              		.thumb_func
  82              		.type	chIQInit, %function
  83              	chIQInit:
  84              	.LFB8:
  85              		.loc 1 96 0
  86              		.cfi_startproc
  87              	.LVL7:
  88 0000 10B5     		push	{r4, lr}
  89              		.cfi_def_cfa_offset 8
  90              		.cfi_offset 4, -8
  91              		.cfi_offset 14, -4
  92              		.loc 1 98 0
  93 0002 4060     		str	r0, [r0, #4]
  94 0004 0060     		str	r0, [r0]
  95              		.loc 1 99 0
  96 0006 0024     		mov	r4, #0
  97 0008 8460     		str	r4, [r0, #8]
  98              		.loc 1 100 0
  99 000a 4161     		str	r1, [r0, #20]
 100 000c 8161     		str	r1, [r0, #24]
 101 000e C160     		str	r1, [r0, #12]
 102              		.loc 1 101 0
 103 0010 8918     		add	r1, r1, r2
 104              	.LVL8:
 105 0012 0161     		str	r1, [r0, #16]
 106              		.loc 1 102 0
 107 0014 C361     		str	r3, [r0, #28]
 108              		.loc 1 103 0
 109 0016 029B     		ldr	r3, [sp, #8]
 110              	.LVL9:
 111 0018 0362     		str	r3, [r0, #32]
 112              		.loc 1 104 0
 113              		@ sp needed
 114 001a 10BD     		pop	{r4, pc}
ARM GAS  /tmp/ccGAfTzb.s 			page 3


 115              		.cfi_endproc
 116              	.LFE8:
 117              		.size	chIQInit, .-chIQInit
 118              		.section	.text.chIQResetI,"ax",%progbits
 119              		.align	2
 120              		.global	chIQResetI
 121              		.code	16
 122              		.thumb_func
 123              		.type	chIQResetI, %function
 124              	chIQResetI:
 125              	.LFB9:
 126              		.loc 1 117 0
 127              		.cfi_startproc
 128              	.LVL10:
 129 0000 70B5     		push	{r4, r5, r6, lr}
 130              		.cfi_def_cfa_offset 16
 131              		.cfi_offset 4, -16
 132              		.cfi_offset 5, -12
 133              		.cfi_offset 6, -8
 134              		.cfi_offset 14, -4
 135 0002 041C     		mov	r4, r0
 136              		.loc 1 121 0
 137 0004 C368     		ldr	r3, [r0, #12]
 138 0006 4361     		str	r3, [r0, #20]
 139 0008 8361     		str	r3, [r0, #24]
 140              		.loc 1 122 0
 141 000a 0023     		mov	r3, #0
 142 000c 8360     		str	r3, [r0, #8]
 143              		.loc 1 123 0
 144 000e 0068     		ldr	r0, [r0]
 145              	.LVL11:
 146 0010 251C     		mov	r5, r4
 147 0012 A042     		cmp	r0, r4
 148 0014 0AD0     		beq	.L7
 149              		.loc 1 124 0
 150 0016 0226     		mov	r6, #2
 151 0018 7642     		neg	r6, r6
 152              	.L9:
 153              	.LVL12:
 154              	.LBB14:
 155              	.LBB15:
 156              		.loc 2 62 0
 157 001a 0368     		ldr	r3, [r0]
 158 001c 2360     		str	r3, [r4]
 159 001e 5D60     		str	r5, [r3, #4]
 160              	.LBE15:
 161              	.LBE14:
 162              		.loc 1 124 0
 163 0020 FFF7FEFF 		bl	chSchReadyI
 164              	.LVL13:
 165 0024 4662     		str	r6, [r0, #36]
 166              		.loc 1 123 0
 167 0026 2068     		ldr	r0, [r4]
 168 0028 A842     		cmp	r0, r5
 169 002a F6D1     		bne	.L9
 170              	.LVL14:
 171              	.L7:
ARM GAS  /tmp/ccGAfTzb.s 			page 4


 172              		.loc 1 125 0
 173              		@ sp needed
 174              	.LVL15:
 175              	.LVL16:
 176 002c 70BD     		pop	{r4, r5, r6, pc}
 177              		.cfi_endproc
 178              	.LFE9:
 179              		.size	chIQResetI, .-chIQResetI
 180 002e C046     		.section	.text.chIQPutI,"ax",%progbits
 181              		.align	2
 182              		.global	chIQPutI
 183              		.code	16
 184              		.thumb_func
 185              		.type	chIQPutI, %function
 186              	chIQPutI:
 187              	.LFB10:
 188              		.loc 1 140 0
 189              		.cfi_startproc
 190              	.LVL17:
 191 0000 08B5     		push	{r3, lr}
 192              		.cfi_def_cfa_offset 8
 193              		.cfi_offset 3, -8
 194              		.cfi_offset 14, -4
 195              		.loc 1 144 0
 196 0002 4369     		ldr	r3, [r0, #20]
 197 0004 8269     		ldr	r2, [r0, #24]
 198 0006 9342     		cmp	r3, r2
 199 0008 17D1     		bne	.L11
 200              		.loc 1 144 0 is_stmt 0 discriminator 1
 201 000a 8268     		ldr	r2, [r0, #8]
 202 000c 002A     		cmp	r2, #0
 203 000e 0FD1     		bne	.L15
 204 0010 13E0     		b	.L11
 205              	.L13:
 206              		.loc 1 150 0 is_stmt 1
 207 0012 C368     		ldr	r3, [r0, #12]
 208 0014 4361     		str	r3, [r0, #20]
 209              	.L14:
 210              		.loc 1 152 0
 211 0016 0368     		ldr	r3, [r0]
 212 0018 8342     		cmp	r3, r0
 213 001a 0CD0     		beq	.L16
 214              	.LVL18:
 215              	.LBB16:
 216              	.LBB17:
 217              		.loc 2 62 0
 218 001c 1A68     		ldr	r2, [r3]
 219 001e 0260     		str	r2, [r0]
 220 0020 5060     		str	r0, [r2, #4]
 221              	.LBE17:
 222              	.LBE16:
 223              		.loc 1 153 0
 224 0022 181C     		mov	r0, r3
 225              	.LVL19:
 226 0024 FFF7FEFF 		bl	chSchReadyI
 227              	.LVL20:
 228 0028 0023     		mov	r3, #0
ARM GAS  /tmp/ccGAfTzb.s 			page 5


 229 002a 4362     		str	r3, [r0, #36]
 230              		.loc 1 155 0
 231 002c 0020     		mov	r0, #0
 232 002e 0FE0     		b	.L17
 233              	.LVL21:
 234              	.L15:
 235              		.loc 1 145 0
 236 0030 0420     		mov	r0, #4
 237              	.LVL22:
 238 0032 4042     		neg	r0, r0
 239 0034 0CE0     		b	.L17
 240              	.LVL23:
 241              	.L16:
 242              		.loc 1 155 0
 243 0036 0020     		mov	r0, #0
 244              	.LVL24:
 245 0038 0AE0     		b	.L17
 246              	.LVL25:
 247              	.L11:
 248              		.loc 1 147 0
 249 003a 8268     		ldr	r2, [r0, #8]
 250 003c 0132     		add	r2, r2, #1
 251 003e 8260     		str	r2, [r0, #8]
 252              		.loc 1 148 0
 253 0040 5A1C     		add	r2, r3, #1
 254 0042 4261     		str	r2, [r0, #20]
 255 0044 1970     		strb	r1, [r3]
 256              		.loc 1 149 0
 257 0046 4269     		ldr	r2, [r0, #20]
 258 0048 0369     		ldr	r3, [r0, #16]
 259 004a 9A42     		cmp	r2, r3
 260 004c E1D2     		bcs	.L13
 261 004e E2E7     		b	.L14
 262              	.LVL26:
 263              	.L17:
 264              		.loc 1 156 0
 265              		@ sp needed
 266 0050 08BD     		pop	{r3, pc}
 267              		.cfi_endproc
 268              	.LFE10:
 269              		.size	chIQPutI, .-chIQPutI
 270 0052 C046     		.section	.text.chIQGetTimeout,"ax",%progbits
 271              		.align	2
 272              		.global	chIQGetTimeout
 273              		.code	16
 274              		.thumb_func
 275              		.type	chIQGetTimeout, %function
 276              	chIQGetTimeout:
 277              	.LFB11:
 278              		.loc 1 178 0
 279              		.cfi_startproc
 280              	.LVL27:
 281 0000 38B5     		push	{r3, r4, r5, lr}
 282              		.cfi_def_cfa_offset 16
 283              		.cfi_offset 3, -16
 284              		.cfi_offset 4, -12
 285              		.cfi_offset 5, -8
ARM GAS  /tmp/ccGAfTzb.s 			page 6


 286              		.cfi_offset 14, -4
 287 0002 041C     		mov	r4, r0
 288 0004 0D1C     		mov	r5, r1
 289              		.loc 1 181 0
 290              	@ 181 "ChibiOS_2.6.5/os/kernel/src/chqueues.c" 1
 291 0006 72B6     		cpsid   i
 292              	@ 0 "" 2
 293              		.loc 1 182 0
 294              		.code	16
 295 0008 C369     		ldr	r3, [r0, #28]
 296 000a 002B     		cmp	r3, #0
 297 000c 09D0     		beq	.L21
 298              		.loc 1 183 0
 299 000e 9847     		blx	r3
 300              	.LVL28:
 301 0010 07E0     		b	.L21
 302              	.L23:
 303              	.LBB18:
 304              		.loc 1 187 0
 305 0012 201C     		mov	r0, r4
 306 0014 291C     		mov	r1, r5
 307 0016 FFF7FEFF 		bl	qwait
 308              	.LVL29:
 309 001a 0028     		cmp	r0, #0
 310 001c 01DA     		bge	.L21
 311              		.loc 1 188 0
 312              	@ 188 "ChibiOS_2.6.5/os/kernel/src/chqueues.c" 1
 313 001e 62B6     		cpsie   i
 314              	@ 0 "" 2
 315              		.loc 1 189 0
 316              		.code	16
 317 0020 0EE0     		b	.L22
 318              	.LVL30:
 319              	.L21:
 320              	.LBE18:
 321              		.loc 1 185 0 discriminator 1
 322 0022 A368     		ldr	r3, [r4, #8]
 323 0024 002B     		cmp	r3, #0
 324 0026 F4D0     		beq	.L23
 325              		.loc 1 193 0
 326 0028 013B     		sub	r3, r3, #1
 327 002a A360     		str	r3, [r4, #8]
 328              		.loc 1 194 0
 329 002c A269     		ldr	r2, [r4, #24]
 330 002e 531C     		add	r3, r2, #1
 331 0030 A361     		str	r3, [r4, #24]
 332 0032 1078     		ldrb	r0, [r2]
 333              	.LVL31:
 334              		.loc 1 195 0
 335 0034 2269     		ldr	r2, [r4, #16]
 336              	.LVL32:
 337 0036 9342     		cmp	r3, r2
 338 0038 01D3     		bcc	.L24
 339              		.loc 1 196 0
 340 003a E368     		ldr	r3, [r4, #12]
 341              	.LVL33:
 342 003c A361     		str	r3, [r4, #24]
ARM GAS  /tmp/ccGAfTzb.s 			page 7


 343              	.LVL34:
 344              	.L24:
 345              		.loc 1 198 0
 346              	@ 198 "ChibiOS_2.6.5/os/kernel/src/chqueues.c" 1
 347 003e 62B6     		cpsie   i
 348              	@ 0 "" 2
 349              	.LVL35:
 350              		.code	16
 351              	.L22:
 352              		.loc 1 200 0
 353              		@ sp needed
 354              	.LVL36:
 355              	.LVL37:
 356 0040 38BD     		pop	{r3, r4, r5, pc}
 357              		.cfi_endproc
 358              	.LFE11:
 359              		.size	chIQGetTimeout, .-chIQGetTimeout
 360 0042 C046     		.section	.text.chIQReadTimeout,"ax",%progbits
 361              		.align	2
 362              		.global	chIQReadTimeout
 363              		.code	16
 364              		.thumb_func
 365              		.type	chIQReadTimeout, %function
 366              	chIQReadTimeout:
 367              	.LFB12:
 368              		.loc 1 227 0
 369              		.cfi_startproc
 370              	.LVL38:
 371 0000 F0B5     		push	{r4, r5, r6, r7, lr}
 372              		.cfi_def_cfa_offset 20
 373              		.cfi_offset 4, -20
 374              		.cfi_offset 5, -16
 375              		.cfi_offset 6, -12
 376              		.cfi_offset 7, -8
 377              		.cfi_offset 14, -4
 378 0002 5746     		mov	r7, r10
 379 0004 4E46     		mov	r6, r9
 380 0006 4546     		mov	r5, r8
 381 0008 E0B4     		push	{r5, r6, r7}
 382              		.cfi_def_cfa_offset 32
 383              		.cfi_offset 8, -32
 384              		.cfi_offset 9, -28
 385              		.cfi_offset 10, -24
 386 000a 041C     		mov	r4, r0
 387 000c 8A46     		mov	r10, r1
 388 000e 9146     		mov	r9, r2
 389 0010 1E1C     		mov	r6, r3
 390              		.loc 1 228 0
 391 0012 C269     		ldr	r2, [r0, #28]
 392              	.LVL39:
 393 0014 9046     		mov	r8, r2
 394              	.LVL40:
 395              		.loc 1 233 0
 396              	@ 233 "ChibiOS_2.6.5/os/kernel/src/chqueues.c" 1
 397 0016 72B6     		cpsid   i
 398              	@ 0 "" 2
 399              		.loc 1 229 0
ARM GAS  /tmp/ccGAfTzb.s 			page 8


 400              		.code	16
 401 0018 0027     		mov	r7, #0
 402              	.LVL41:
 403              	.L32:
 404              		.loc 1 235 0
 405 001a 4346     		mov	r3, r8
 406 001c 002B     		cmp	r3, #0
 407 001e 0AD0     		beq	.L28
 408              	.LVL42:
 409              		.loc 1 236 0
 410 0020 201C     		mov	r0, r4
 411 0022 C047     		blx	r8
 412              	.LVL43:
 413 0024 07E0     		b	.L28
 414              	.L30:
 415              		.loc 1 239 0
 416 0026 201C     		mov	r0, r4
 417 0028 311C     		mov	r1, r6
 418 002a FFF7FEFF 		bl	qwait
 419              	.LVL44:
 420 002e 0028     		cmp	r0, #0
 421 0030 01D0     		beq	.L28
 422              		.loc 1 240 0
 423              	@ 240 "ChibiOS_2.6.5/os/kernel/src/chqueues.c" 1
 424 0032 62B6     		cpsie   i
 425              	@ 0 "" 2
 426              		.loc 1 241 0
 427              		.code	16
 428 0034 16E0     		b	.L29
 429              	.L28:
 430              		.loc 1 238 0 discriminator 1
 431 0036 A568     		ldr	r5, [r4, #8]
 432 0038 002D     		cmp	r5, #0
 433 003a F4D0     		beq	.L30
 434              		.loc 1 245 0
 435 003c 013D     		sub	r5, r5, #1
 436 003e A560     		str	r5, [r4, #8]
 437              	.LVL45:
 438              		.loc 1 246 0
 439 0040 A369     		ldr	r3, [r4, #24]
 440 0042 5A1C     		add	r2, r3, #1
 441 0044 A261     		str	r2, [r4, #24]
 442 0046 1B78     		ldrb	r3, [r3]
 443 0048 5246     		mov	r2, r10
 444 004a D355     		strb	r3, [r2, r7]
 445              		.loc 1 247 0
 446 004c A369     		ldr	r3, [r4, #24]
 447 004e 2269     		ldr	r2, [r4, #16]
 448 0050 9342     		cmp	r3, r2
 449 0052 01D3     		bcc	.L31
 450              		.loc 1 248 0
 451 0054 E368     		ldr	r3, [r4, #12]
 452 0056 A361     		str	r3, [r4, #24]
 453              	.L31:
 454              		.loc 1 250 0
 455              	@ 250 "ChibiOS_2.6.5/os/kernel/src/chqueues.c" 1
 456 0058 62B6     		cpsie   i
ARM GAS  /tmp/ccGAfTzb.s 			page 9


 457              	@ 0 "" 2
 458              		.loc 1 251 0
 459              		.code	16
 460 005a 0137     		add	r7, r7, #1
 461              	.LVL46:
 462              		.loc 1 252 0
 463 005c B945     		cmp	r9, r7
 464 005e 01D0     		beq	.L29
 465              		.loc 1 255 0
 466              	@ 255 "ChibiOS_2.6.5/os/kernel/src/chqueues.c" 1
 467 0060 72B6     		cpsid   i
 468              	@ 0 "" 2
 469              		.loc 1 256 0
 470              		.code	16
 471 0062 DAE7     		b	.L32
 472              	.LVL47:
 473              	.L29:
 474              		.loc 1 257 0
 475 0064 381C     		mov	r0, r7
 476              		@ sp needed
 477              	.LVL48:
 478              	.LVL49:
 479              	.LVL50:
 480              	.LVL51:
 481 0066 1CBC     		pop	{r2, r3, r4}
 482 0068 9046     		mov	r8, r2
 483 006a 9946     		mov	r9, r3
 484 006c A246     		mov	r10, r4
 485 006e F0BD     		pop	{r4, r5, r6, r7, pc}
 486              		.cfi_endproc
 487              	.LFE12:
 488              		.size	chIQReadTimeout, .-chIQReadTimeout
 489              		.section	.text.chOQInit,"ax",%progbits
 490              		.align	2
 491              		.global	chOQInit
 492              		.code	16
 493              		.thumb_func
 494              		.type	chOQInit, %function
 495              	chOQInit:
 496              	.LFB13:
 497              		.loc 1 276 0
 498              		.cfi_startproc
 499              	.LVL52:
 500              		.loc 1 278 0
 501 0000 4060     		str	r0, [r0, #4]
 502 0002 0060     		str	r0, [r0]
 503              		.loc 1 279 0
 504 0004 8260     		str	r2, [r0, #8]
 505              		.loc 1 280 0
 506 0006 4161     		str	r1, [r0, #20]
 507 0008 8161     		str	r1, [r0, #24]
 508 000a C160     		str	r1, [r0, #12]
 509              		.loc 1 281 0
 510 000c 8918     		add	r1, r1, r2
 511              	.LVL53:
 512 000e 0161     		str	r1, [r0, #16]
 513              		.loc 1 282 0
ARM GAS  /tmp/ccGAfTzb.s 			page 10


 514 0010 C361     		str	r3, [r0, #28]
 515              		.loc 1 283 0
 516 0012 009B     		ldr	r3, [sp]
 517              	.LVL54:
 518 0014 0362     		str	r3, [r0, #32]
 519              		.loc 1 284 0
 520              		@ sp needed
 521 0016 7047     		bx	lr
 522              		.cfi_endproc
 523              	.LFE13:
 524              		.size	chOQInit, .-chOQInit
 525              		.section	.text.chOQResetI,"ax",%progbits
 526              		.align	2
 527              		.global	chOQResetI
 528              		.code	16
 529              		.thumb_func
 530              		.type	chOQResetI, %function
 531              	chOQResetI:
 532              	.LFB14:
 533              		.loc 1 297 0
 534              		.cfi_startproc
 535              	.LVL55:
 536 0000 70B5     		push	{r4, r5, r6, lr}
 537              		.cfi_def_cfa_offset 16
 538              		.cfi_offset 4, -16
 539              		.cfi_offset 5, -12
 540              		.cfi_offset 6, -8
 541              		.cfi_offset 14, -4
 542 0002 041C     		mov	r4, r0
 543              		.loc 1 301 0
 544 0004 C368     		ldr	r3, [r0, #12]
 545 0006 4361     		str	r3, [r0, #20]
 546 0008 8361     		str	r3, [r0, #24]
 547              		.loc 1 302 0
 548 000a 0269     		ldr	r2, [r0, #16]
 549 000c D31A     		sub	r3, r2, r3
 550 000e 8360     		str	r3, [r0, #8]
 551              		.loc 1 303 0
 552 0010 0068     		ldr	r0, [r0]
 553              	.LVL56:
 554 0012 251C     		mov	r5, r4
 555 0014 A042     		cmp	r0, r4
 556 0016 0AD0     		beq	.L34
 557              		.loc 1 304 0
 558 0018 0226     		mov	r6, #2
 559 001a 7642     		neg	r6, r6
 560              	.L36:
 561              	.LVL57:
 562              	.LBB19:
 563              	.LBB20:
 564              		.loc 2 62 0
 565 001c 0368     		ldr	r3, [r0]
 566 001e 2360     		str	r3, [r4]
 567 0020 5D60     		str	r5, [r3, #4]
 568              	.LBE20:
 569              	.LBE19:
 570              		.loc 1 304 0
ARM GAS  /tmp/ccGAfTzb.s 			page 11


 571 0022 FFF7FEFF 		bl	chSchReadyI
 572              	.LVL58:
 573 0026 4662     		str	r6, [r0, #36]
 574              		.loc 1 303 0
 575 0028 2068     		ldr	r0, [r4]
 576 002a A842     		cmp	r0, r5
 577 002c F6D1     		bne	.L36
 578              	.LVL59:
 579              	.L34:
 580              		.loc 1 305 0
 581              		@ sp needed
 582              	.LVL60:
 583              	.LVL61:
 584 002e 70BD     		pop	{r4, r5, r6, pc}
 585              		.cfi_endproc
 586              	.LFE14:
 587              		.size	chOQResetI, .-chOQResetI
 588              		.section	.text.chOQPutTimeout,"ax",%progbits
 589              		.align	2
 590              		.global	chOQPutTimeout
 591              		.code	16
 592              		.thumb_func
 593              		.type	chOQPutTimeout, %function
 594              	chOQPutTimeout:
 595              	.LFB15:
 596              		.loc 1 329 0
 597              		.cfi_startproc
 598              	.LVL62:
 599 0000 70B5     		push	{r4, r5, r6, lr}
 600              		.cfi_def_cfa_offset 16
 601              		.cfi_offset 4, -16
 602              		.cfi_offset 5, -12
 603              		.cfi_offset 6, -8
 604              		.cfi_offset 14, -4
 605 0002 041C     		mov	r4, r0
 606 0004 0E1C     		mov	r6, r1
 607 0006 151C     		mov	r5, r2
 608              		.loc 1 331 0
 609              	@ 331 "ChibiOS_2.6.5/os/kernel/src/chqueues.c" 1
 610 0008 72B6     		cpsid   i
 611              	@ 0 "" 2
 612              		.loc 1 332 0
 613              		.code	16
 614 000a 07E0     		b	.L38
 615              	.LVL63:
 616              	.L41:
 617              	.LBB21:
 618              		.loc 1 335 0
 619 000c 201C     		mov	r0, r4
 620 000e 291C     		mov	r1, r5
 621 0010 FFF7FEFF 		bl	qwait
 622              	.LVL64:
 623 0014 0028     		cmp	r0, #0
 624 0016 01DA     		bge	.L38
 625              		.loc 1 336 0
 626              	@ 336 "ChibiOS_2.6.5/os/kernel/src/chqueues.c" 1
 627 0018 62B6     		cpsie   i
ARM GAS  /tmp/ccGAfTzb.s 			page 12


 628              	@ 0 "" 2
 629              		.loc 1 337 0
 630              		.code	16
 631 001a 15E0     		b	.L40
 632              	.LVL65:
 633              	.L38:
 634              	.LBE21:
 635              		.loc 1 332 0 discriminator 1
 636 001c A368     		ldr	r3, [r4, #8]
 637 001e 002B     		cmp	r3, #0
 638 0020 F4D0     		beq	.L41
 639              		.loc 1 341 0
 640 0022 013B     		sub	r3, r3, #1
 641 0024 A360     		str	r3, [r4, #8]
 642              		.loc 1 342 0
 643 0026 6369     		ldr	r3, [r4, #20]
 644 0028 5A1C     		add	r2, r3, #1
 645 002a 6261     		str	r2, [r4, #20]
 646 002c 1E70     		strb	r6, [r3]
 647              		.loc 1 343 0
 648 002e 6269     		ldr	r2, [r4, #20]
 649 0030 2369     		ldr	r3, [r4, #16]
 650 0032 9A42     		cmp	r2, r3
 651 0034 01D3     		bcc	.L42
 652              		.loc 1 344 0
 653 0036 E268     		ldr	r2, [r4, #12]
 654 0038 6261     		str	r2, [r4, #20]
 655              	.L42:
 656              		.loc 1 346 0
 657 003a E369     		ldr	r3, [r4, #28]
 658 003c 002B     		cmp	r3, #0
 659 003e 01D0     		beq	.L43
 660              		.loc 1 347 0
 661 0040 201C     		mov	r0, r4
 662 0042 9847     		blx	r3
 663              	.LVL66:
 664              	.L43:
 665              		.loc 1 349 0
 666              	@ 349 "ChibiOS_2.6.5/os/kernel/src/chqueues.c" 1
 667 0044 62B6     		cpsie   i
 668              	@ 0 "" 2
 669              		.loc 1 350 0
 670              		.code	16
 671 0046 0020     		mov	r0, #0
 672              	.L40:
 673              		.loc 1 351 0
 674              		@ sp needed
 675              	.LVL67:
 676              	.LVL68:
 677 0048 70BD     		pop	{r4, r5, r6, pc}
 678              		.cfi_endproc
 679              	.LFE15:
 680              		.size	chOQPutTimeout, .-chOQPutTimeout
 681 004a C046     		.section	.text.chOQGetI,"ax",%progbits
 682              		.align	2
 683              		.global	chOQGetI
 684              		.code	16
ARM GAS  /tmp/ccGAfTzb.s 			page 13


 685              		.thumb_func
 686              		.type	chOQGetI, %function
 687              	chOQGetI:
 688              	.LFB16:
 689              		.loc 1 363 0
 690              		.cfi_startproc
 691              	.LVL69:
 692 0000 10B5     		push	{r4, lr}
 693              		.cfi_def_cfa_offset 8
 694              		.cfi_offset 4, -8
 695              		.cfi_offset 14, -4
 696              		.loc 1 368 0
 697 0002 8369     		ldr	r3, [r0, #24]
 698 0004 4269     		ldr	r2, [r0, #20]
 699 0006 9A42     		cmp	r2, r3
 700 0008 15D1     		bne	.L45
 701              		.loc 1 368 0 is_stmt 0 discriminator 1
 702 000a 8268     		ldr	r2, [r0, #8]
 703 000c 002A     		cmp	r2, #0
 704 000e 0FD1     		bne	.L50
 705 0010 11E0     		b	.L45
 706              	.LVL70:
 707              	.L48:
 708              		.loc 1 374 0 is_stmt 1
 709 0012 C368     		ldr	r3, [r0, #12]
 710 0014 8361     		str	r3, [r0, #24]
 711              	.LVL71:
 712              	.L49:
 713              		.loc 1 376 0
 714 0016 0368     		ldr	r3, [r0]
 715 0018 8342     		cmp	r3, r0
 716 001a 07D0     		beq	.L47
 717              	.LVL72:
 718              	.LBB22:
 719              	.LBB23:
 720              		.loc 2 62 0
 721 001c 1A68     		ldr	r2, [r3]
 722 001e 0260     		str	r2, [r0]
 723 0020 5060     		str	r0, [r2, #4]
 724              	.LBE23:
 725              	.LBE22:
 726              		.loc 1 377 0
 727 0022 181C     		mov	r0, r3
 728              	.LVL73:
 729 0024 FFF7FEFF 		bl	chSchReadyI
 730              	.LVL74:
 731 0028 0023     		mov	r3, #0
 732 002a 4362     		str	r3, [r0, #36]
 733              	.LVL75:
 734              	.L47:
 735              		.loc 1 379 0
 736 002c 201C     		mov	r0, r4
 737 002e 0CE0     		b	.L51
 738              	.LVL76:
 739              	.L50:
 740              		.loc 1 369 0
 741 0030 0320     		mov	r0, #3
ARM GAS  /tmp/ccGAfTzb.s 			page 14


 742              	.LVL77:
 743 0032 4042     		neg	r0, r0
 744 0034 09E0     		b	.L51
 745              	.LVL78:
 746              	.L45:
 747              		.loc 1 371 0
 748 0036 8268     		ldr	r2, [r0, #8]
 749 0038 0132     		add	r2, r2, #1
 750 003a 8260     		str	r2, [r0, #8]
 751              		.loc 1 372 0
 752 003c 5A1C     		add	r2, r3, #1
 753 003e 8261     		str	r2, [r0, #24]
 754 0040 1C78     		ldrb	r4, [r3]
 755              	.LVL79:
 756              		.loc 1 373 0
 757 0042 0369     		ldr	r3, [r0, #16]
 758              	.LVL80:
 759 0044 9A42     		cmp	r2, r3
 760 0046 E4D2     		bcs	.L48
 761 0048 E5E7     		b	.L49
 762              	.LVL81:
 763              	.L51:
 764              		.loc 1 380 0
 765              		@ sp needed
 766 004a 10BD     		pop	{r4, pc}
 767              		.cfi_endproc
 768              	.LFE16:
 769              		.size	chOQGetI, .-chOQGetI
 770              		.section	.text.chOQWriteTimeout,"ax",%progbits
 771              		.align	2
 772              		.global	chOQWriteTimeout
 773              		.code	16
 774              		.thumb_func
 775              		.type	chOQWriteTimeout, %function
 776              	chOQWriteTimeout:
 777              	.LFB17:
 778              		.loc 1 407 0
 779              		.cfi_startproc
 780              	.LVL82:
 781 0000 F0B5     		push	{r4, r5, r6, r7, lr}
 782              		.cfi_def_cfa_offset 20
 783              		.cfi_offset 4, -20
 784              		.cfi_offset 5, -16
 785              		.cfi_offset 6, -12
 786              		.cfi_offset 7, -8
 787              		.cfi_offset 14, -4
 788 0002 5746     		mov	r7, r10
 789 0004 4E46     		mov	r6, r9
 790 0006 4546     		mov	r5, r8
 791 0008 E0B4     		push	{r5, r6, r7}
 792              		.cfi_def_cfa_offset 32
 793              		.cfi_offset 8, -32
 794              		.cfi_offset 9, -28
 795              		.cfi_offset 10, -24
 796 000a 041C     		mov	r4, r0
 797 000c 0F1C     		mov	r7, r1
 798 000e 161C     		mov	r6, r2
ARM GAS  /tmp/ccGAfTzb.s 			page 15


 799 0010 9A46     		mov	r10, r3
 800              		.loc 1 408 0
 801 0012 C269     		ldr	r2, [r0, #28]
 802              	.LVL83:
 803 0014 9146     		mov	r9, r2
 804              	.LVL84:
 805              		.loc 1 413 0
 806              	@ 413 "ChibiOS_2.6.5/os/kernel/src/chqueues.c" 1
 807 0016 72B6     		cpsid   i
 808              	@ 0 "" 2
 809              		.loc 1 409 0
 810              		.code	16
 811 0018 0023     		mov	r3, #0
 812              	.LVL85:
 813 001a 9846     		mov	r8, r3
 814 001c 07E0     		b	.L53
 815              	.LVL86:
 816              	.L56:
 817              		.loc 1 416 0
 818 001e 201C     		mov	r0, r4
 819 0020 5146     		mov	r1, r10
 820 0022 FFF7FEFF 		bl	qwait
 821              	.LVL87:
 822 0026 0028     		cmp	r0, #0
 823 0028 01D0     		beq	.L53
 824              		.loc 1 417 0
 825              	@ 417 "ChibiOS_2.6.5/os/kernel/src/chqueues.c" 1
 826 002a 62B6     		cpsie   i
 827              	@ 0 "" 2
 828              		.loc 1 418 0
 829              		.code	16
 830 002c 1EE0     		b	.L55
 831              	.LVL88:
 832              	.L53:
 833              		.loc 1 415 0 discriminator 1
 834 002e A568     		ldr	r5, [r4, #8]
 835 0030 002D     		cmp	r5, #0
 836 0032 F4D0     		beq	.L56
 837              		.loc 1 421 0
 838 0034 013D     		sub	r5, r5, #1
 839 0036 A560     		str	r5, [r4, #8]
 840              		.loc 1 422 0
 841 0038 6269     		ldr	r2, [r4, #20]
 842 003a 531C     		add	r3, r2, #1
 843 003c 6361     		str	r3, [r4, #20]
 844 003e 7D1C     		add	r5, r7, #1
 845              	.LVL89:
 846 0040 3B78     		ldrb	r3, [r7]
 847 0042 1370     		strb	r3, [r2]
 848              		.loc 1 423 0
 849 0044 6269     		ldr	r2, [r4, #20]
 850 0046 2369     		ldr	r3, [r4, #16]
 851 0048 9A42     		cmp	r2, r3
 852 004a 01D3     		bcc	.L57
 853              		.loc 1 424 0
 854 004c E268     		ldr	r2, [r4, #12]
 855 004e 6261     		str	r2, [r4, #20]
ARM GAS  /tmp/ccGAfTzb.s 			page 16


 856              	.L57:
 857              		.loc 1 426 0
 858 0050 4B46     		mov	r3, r9
 859 0052 002B     		cmp	r3, #0
 860 0054 01D0     		beq	.L58
 861              	.LVL90:
 862              		.loc 1 427 0
 863 0056 201C     		mov	r0, r4
 864 0058 C847     		blx	r9
 865              	.LVL91:
 866              	.L58:
 867              		.loc 1 429 0
 868              	@ 429 "ChibiOS_2.6.5/os/kernel/src/chqueues.c" 1
 869 005a 62B6     		cpsie   i
 870              	@ 0 "" 2
 871              		.loc 1 430 0
 872              		.code	16
 873 005c 0122     		mov	r2, #1
 874 005e 9044     		add	r8, r8, r2
 875              	.LVL92:
 876              		.loc 1 431 0
 877 0060 013E     		sub	r6, r6, #1
 878              	.LVL93:
 879 0062 002E     		cmp	r6, #0
 880 0064 02D0     		beq	.L55
 881              		.loc 1 433 0
 882              	@ 433 "ChibiOS_2.6.5/os/kernel/src/chqueues.c" 1
 883 0066 72B6     		cpsid   i
 884              	@ 0 "" 2
 885              		.loc 1 422 0
 886              		.code	16
 887 0068 2F1C     		mov	r7, r5
 888              		.loc 1 434 0
 889 006a E0E7     		b	.L53
 890              	.LVL94:
 891              	.L55:
 892              		.loc 1 435 0
 893 006c 4046     		mov	r0, r8
 894              		@ sp needed
 895              	.LVL95:
 896              	.LVL96:
 897              	.LVL97:
 898              	.LVL98:
 899              	.LVL99:
 900 006e 1CBC     		pop	{r2, r3, r4}
 901 0070 9046     		mov	r8, r2
 902 0072 9946     		mov	r9, r3
 903 0074 A246     		mov	r10, r4
 904 0076 F0BD     		pop	{r4, r5, r6, r7, pc}
 905              		.cfi_endproc
 906              	.LFE17:
 907              		.size	chOQWriteTimeout, .-chOQWriteTimeout
 908              		.text
 909              	.Letext0:
 910              		.file 3 "/usr/local/lpcxpresso_7.3.0_186/lpcxpresso/tools/lib/gcc/arm-none-eabi/4.8.4/include/stdd
 911              		.file 4 "/usr/local/lpcxpresso_7.3.0_186/lpcxpresso/tools/arm-none-eabi/include/machine/_default_t
 912              		.file 5 "/usr/local/lpcxpresso_7.3.0_186/lpcxpresso/tools/arm-none-eabi/include/stdint.h"
ARM GAS  /tmp/ccGAfTzb.s 			page 17


 913              		.file 6 "ChibiOS_2.6.5/os/ports/GCC/ARMCMx/chtypes.h"
 914              		.file 7 "ChibiOS_2.6.5/os/kernel/include/chlists.h"
 915              		.file 8 "ChibiOS_2.6.5/os/kernel/include/chthreads.h"
 916              		.file 9 "ChibiOS_2.6.5/os/ports/GCC/ARMCMx/chcore_v6m.h"
 917              		.file 10 "ChibiOS_2.6.5/os/kernel/include/chschd.h"
 918              		.file 11 "ChibiOS_2.6.5/os/kernel/include/chmtx.h"
 919              		.file 12 "ChibiOS_2.6.5/os/kernel/include/chqueues.h"
 920              		.section	.debug_info,"",%progbits
 921              	.Ldebug_info0:
 922 0000 730A0000 		.4byte	0xa73
 923 0004 0400     		.2byte	0x4
 924 0006 00000000 		.4byte	.Ldebug_abbrev0
 925 000a 04       		.byte	0x4
 926 000b 01       		.uleb128 0x1
 927 000c 8D010000 		.4byte	.LASF95
 928 0010 01       		.byte	0x1
 929 0011 52020000 		.4byte	.LASF96
 930 0015 12040000 		.4byte	.LASF97
 931 0019 00000000 		.4byte	.Ldebug_ranges0+0
 932 001d 00000000 		.4byte	0
 933 0021 00000000 		.4byte	.Ldebug_line0
 934 0025 02       		.uleb128 0x2
 935 0026 04       		.byte	0x4
 936 0027 05       		.byte	0x5
 937 0028 696E7400 		.ascii	"int\000"
 938 002c 03       		.uleb128 0x3
 939 002d 21000000 		.4byte	.LASF2
 940 0031 03       		.byte	0x3
 941 0032 D4       		.byte	0xd4
 942 0033 37000000 		.4byte	0x37
 943 0037 04       		.uleb128 0x4
 944 0038 04       		.byte	0x4
 945 0039 07       		.byte	0x7
 946 003a 35010000 		.4byte	.LASF0
 947 003e 04       		.uleb128 0x4
 948 003f 01       		.byte	0x1
 949 0040 06       		.byte	0x6
 950 0041 9D000000 		.4byte	.LASF1
 951 0045 03       		.uleb128 0x3
 952 0046 44000000 		.4byte	.LASF3
 953 004a 04       		.byte	0x4
 954 004b 1C       		.byte	0x1c
 955 004c 50000000 		.4byte	0x50
 956 0050 04       		.uleb128 0x4
 957 0051 01       		.byte	0x1
 958 0052 08       		.byte	0x8
 959 0053 3C030000 		.4byte	.LASF4
 960 0057 04       		.uleb128 0x4
 961 0058 02       		.byte	0x2
 962 0059 05       		.byte	0x5
 963 005a 54030000 		.4byte	.LASF5
 964 005e 04       		.uleb128 0x4
 965 005f 02       		.byte	0x2
 966 0060 07       		.byte	0x7
 967 0061 6C010000 		.4byte	.LASF6
 968 0065 03       		.uleb128 0x3
 969 0066 F1030000 		.4byte	.LASF7
ARM GAS  /tmp/ccGAfTzb.s 			page 18


 970 006a 04       		.byte	0x4
 971 006b 37       		.byte	0x37
 972 006c 70000000 		.4byte	0x70
 973 0070 04       		.uleb128 0x4
 974 0071 04       		.byte	0x4
 975 0072 05       		.byte	0x5
 976 0073 D0000000 		.4byte	.LASF8
 977 0077 03       		.uleb128 0x3
 978 0078 04010000 		.4byte	.LASF9
 979 007c 04       		.byte	0x4
 980 007d 38       		.byte	0x38
 981 007e 82000000 		.4byte	0x82
 982 0082 04       		.uleb128 0x4
 983 0083 04       		.byte	0x4
 984 0084 07       		.byte	0x7
 985 0085 4D010000 		.4byte	.LASF10
 986 0089 04       		.uleb128 0x4
 987 008a 08       		.byte	0x8
 988 008b 05       		.byte	0x5
 989 008c 8F000000 		.4byte	.LASF11
 990 0090 04       		.uleb128 0x4
 991 0091 08       		.byte	0x8
 992 0092 07       		.byte	0x7
 993 0093 5E000000 		.4byte	.LASF12
 994 0097 03       		.uleb128 0x3
 995 0098 69040000 		.4byte	.LASF13
 996 009c 05       		.byte	0x5
 997 009d 2A       		.byte	0x2a
 998 009e 45000000 		.4byte	0x45
 999 00a2 03       		.uleb128 0x3
 1000 00a3 34030000 		.4byte	.LASF14
 1001 00a7 05       		.byte	0x5
 1002 00a8 41       		.byte	0x41
 1003 00a9 65000000 		.4byte	0x65
 1004 00ad 03       		.uleb128 0x3
 1005 00ae A7030000 		.4byte	.LASF15
 1006 00b2 05       		.byte	0x5
 1007 00b3 42       		.byte	0x42
 1008 00b4 77000000 		.4byte	0x77
 1009 00b8 03       		.uleb128 0x3
 1010 00b9 B1000000 		.4byte	.LASF16
 1011 00bd 06       		.byte	0x6
 1012 00be 2B       		.byte	0x2b
 1013 00bf C3000000 		.4byte	0xc3
 1014 00c3 04       		.uleb128 0x4
 1015 00c4 01       		.byte	0x1
 1016 00c5 02       		.byte	0x2
 1017 00c6 2E030000 		.4byte	.LASF17
 1018 00ca 03       		.uleb128 0x3
 1019 00cb 85030000 		.4byte	.LASF18
 1020 00cf 06       		.byte	0x6
 1021 00d0 2C       		.byte	0x2c
 1022 00d1 97000000 		.4byte	0x97
 1023 00d5 03       		.uleb128 0x3
 1024 00d6 D9000000 		.4byte	.LASF19
 1025 00da 06       		.byte	0x6
 1026 00db 2D       		.byte	0x2d
ARM GAS  /tmp/ccGAfTzb.s 			page 19


 1027 00dc 97000000 		.4byte	0x97
 1028 00e0 03       		.uleb128 0x3
 1029 00e1 05030000 		.4byte	.LASF20
 1030 00e5 06       		.byte	0x6
 1031 00e6 2E       		.byte	0x2e
 1032 00e7 97000000 		.4byte	0x97
 1033 00eb 03       		.uleb128 0x3
 1034 00ec C0000000 		.4byte	.LASF21
 1035 00f0 06       		.byte	0x6
 1036 00f1 2F       		.byte	0x2f
 1037 00f2 97000000 		.4byte	0x97
 1038 00f6 03       		.uleb128 0x3
 1039 00f7 1E030000 		.4byte	.LASF22
 1040 00fb 06       		.byte	0x6
 1041 00fc 30       		.byte	0x30
 1042 00fd AD000000 		.4byte	0xad
 1043 0101 03       		.uleb128 0x3
 1044 0102 7F010000 		.4byte	.LASF23
 1045 0106 06       		.byte	0x6
 1046 0107 31       		.byte	0x31
 1047 0108 A2000000 		.4byte	0xa2
 1048 010c 03       		.uleb128 0x3
 1049 010d 85020000 		.4byte	.LASF24
 1050 0111 06       		.byte	0x6
 1051 0112 33       		.byte	0x33
 1052 0113 AD000000 		.4byte	0xad
 1053 0117 03       		.uleb128 0x3
 1054 0118 DC030000 		.4byte	.LASF25
 1055 011c 06       		.byte	0x6
 1056 011d 35       		.byte	0x35
 1057 011e AD000000 		.4byte	0xad
 1058 0122 03       		.uleb128 0x3
 1059 0123 95030000 		.4byte	.LASF26
 1060 0127 07       		.byte	0x7
 1061 0128 2A       		.byte	0x2a
 1062 0129 2D010000 		.4byte	0x12d
 1063 012d 05       		.uleb128 0x5
 1064 012e 95030000 		.4byte	.LASF26
 1065 0132 48       		.byte	0x48
 1066 0133 08       		.byte	0x8
 1067 0134 5E       		.byte	0x5e
 1068 0135 2A020000 		.4byte	0x22a
 1069 0139 06       		.uleb128 0x6
 1070 013a 7E030000 		.4byte	.LASF27
 1071 013e 08       		.byte	0x8
 1072 013f 5F       		.byte	0x5f
 1073 0140 4B020000 		.4byte	0x24b
 1074 0144 00       		.byte	0
 1075 0145 06       		.uleb128 0x6
 1076 0146 17030000 		.4byte	.LASF28
 1077 014a 08       		.byte	0x8
 1078 014b 61       		.byte	0x61
 1079 014c 4B020000 		.4byte	0x24b
 1080 0150 04       		.byte	0x4
 1081 0151 06       		.uleb128 0x6
 1082 0152 7E000000 		.4byte	.LASF29
 1083 0156 08       		.byte	0x8
ARM GAS  /tmp/ccGAfTzb.s 			page 20


 1084 0157 63       		.byte	0x63
 1085 0158 F6000000 		.4byte	0xf6
 1086 015c 08       		.byte	0x8
 1087 015d 06       		.uleb128 0x6
 1088 015e A3040000 		.4byte	.LASF30
 1089 0162 08       		.byte	0x8
 1090 0163 64       		.byte	0x64
 1091 0164 FB020000 		.4byte	0x2fb
 1092 0168 0C       		.byte	0xc
 1093 0169 06       		.uleb128 0x6
 1094 016a FC000000 		.4byte	.LASF31
 1095 016e 08       		.byte	0x8
 1096 016f 66       		.byte	0x66
 1097 0170 4B020000 		.4byte	0x24b
 1098 0174 10       		.byte	0x10
 1099 0175 06       		.uleb128 0x6
 1100 0176 D3020000 		.4byte	.LASF32
 1101 017a 08       		.byte	0x8
 1102 017b 67       		.byte	0x67
 1103 017c 4B020000 		.4byte	0x24b
 1104 0180 14       		.byte	0x14
 1105 0181 06       		.uleb128 0x6
 1106 0182 78040000 		.4byte	.LASF33
 1107 0186 08       		.byte	0x8
 1108 0187 6E       		.byte	0x6e
 1109 0188 F9030000 		.4byte	0x3f9
 1110 018c 18       		.byte	0x18
 1111 018d 06       		.uleb128 0x6
 1112 018e 5E030000 		.4byte	.LASF34
 1113 0192 08       		.byte	0x8
 1114 0193 79       		.byte	0x79
 1115 0194 D5000000 		.4byte	0xd5
 1116 0198 1C       		.byte	0x1c
 1117 0199 06       		.uleb128 0x6
 1118 019a 8D030000 		.4byte	.LASF35
 1119 019e 08       		.byte	0x8
 1120 019f 7D       		.byte	0x7d
 1121 01a0 CA000000 		.4byte	0xca
 1122 01a4 1D       		.byte	0x1d
 1123 01a5 06       		.uleb128 0x6
 1124 01a6 49040000 		.4byte	.LASF36
 1125 01aa 08       		.byte	0x8
 1126 01ab 82       		.byte	0x82
 1127 01ac E0000000 		.4byte	0xe0
 1128 01b0 1E       		.byte	0x1e
 1129 01b1 06       		.uleb128 0x6
 1130 01b2 66030000 		.4byte	.LASF37
 1131 01b6 08       		.byte	0x8
 1132 01b7 88       		.byte	0x88
 1133 01b8 EB000000 		.4byte	0xeb
 1134 01bc 1F       		.byte	0x1f
 1135 01bd 06       		.uleb128 0x6
 1136 01be 0B040000 		.4byte	.LASF38
 1137 01c2 08       		.byte	0x8
 1138 01c3 8F       		.byte	0x8f
 1139 01c4 21030000 		.4byte	0x321
 1140 01c8 20       		.byte	0x20
ARM GAS  /tmp/ccGAfTzb.s 			page 21


 1141 01c9 07       		.uleb128 0x7
 1142 01ca 705F7500 		.ascii	"p_u\000"
 1143 01ce 08       		.byte	0x8
 1144 01cf B4       		.byte	0xb4
 1145 01d0 C4030000 		.4byte	0x3c4
 1146 01d4 24       		.byte	0x24
 1147 01d5 06       		.uleb128 0x6
 1148 01d6 A9040000 		.4byte	.LASF39
 1149 01da 08       		.byte	0x8
 1150 01db B9       		.byte	0xb9
 1151 01dc 71020000 		.4byte	0x271
 1152 01e0 28       		.byte	0x28
 1153 01e1 06       		.uleb128 0x6
 1154 01e2 38040000 		.4byte	.LASF40
 1155 01e6 08       		.byte	0x8
 1156 01e7 BF       		.byte	0xbf
 1157 01e8 51020000 		.4byte	0x251
 1158 01ec 2C       		.byte	0x2c
 1159 01ed 06       		.uleb128 0x6
 1160 01ee 09000000 		.4byte	.LASF41
 1161 01f2 08       		.byte	0x8
 1162 01f3 C3       		.byte	0xc3
 1163 01f4 01010000 		.4byte	0x101
 1164 01f8 34       		.byte	0x34
 1165 01f9 06       		.uleb128 0x6
 1166 01fa 9C030000 		.4byte	.LASF42
 1167 01fe 08       		.byte	0x8
 1168 01ff C9       		.byte	0xc9
 1169 0200 0C010000 		.4byte	0x10c
 1170 0204 38       		.byte	0x38
 1171 0205 06       		.uleb128 0x6
 1172 0206 4A030000 		.4byte	.LASF43
 1173 020a 08       		.byte	0x8
 1174 020b D0       		.byte	0xd0
 1175 020c 0B040000 		.4byte	0x40b
 1176 0210 3C       		.byte	0x3c
 1177 0211 06       		.uleb128 0x6
 1178 0212 E6030000 		.4byte	.LASF44
 1179 0216 08       		.byte	0x8
 1180 0217 D4       		.byte	0xd4
 1181 0218 F6000000 		.4byte	0xf6
 1182 021c 40       		.byte	0x40
 1183 021d 06       		.uleb128 0x6
 1184 021e A9000000 		.4byte	.LASF45
 1185 0222 08       		.byte	0x8
 1186 0223 DA       		.byte	0xda
 1187 0224 87020000 		.4byte	0x287
 1188 0228 44       		.byte	0x44
 1189 0229 00       		.byte	0
 1190 022a 08       		.uleb128 0x8
 1191 022b 08       		.byte	0x8
 1192 022c 07       		.byte	0x7
 1193 022d 61       		.byte	0x61
 1194 022e 4B020000 		.4byte	0x24b
 1195 0232 06       		.uleb128 0x6
 1196 0233 7E030000 		.4byte	.LASF27
 1197 0237 07       		.byte	0x7
ARM GAS  /tmp/ccGAfTzb.s 			page 22


 1198 0238 62       		.byte	0x62
 1199 0239 4B020000 		.4byte	0x24b
 1200 023d 00       		.byte	0
 1201 023e 06       		.uleb128 0x6
 1202 023f 17030000 		.4byte	.LASF28
 1203 0243 07       		.byte	0x7
 1204 0244 64       		.byte	0x64
 1205 0245 4B020000 		.4byte	0x24b
 1206 0249 04       		.byte	0x4
 1207 024a 00       		.byte	0
 1208 024b 09       		.uleb128 0x9
 1209 024c 04       		.byte	0x4
 1210 024d 22010000 		.4byte	0x122
 1211 0251 03       		.uleb128 0x3
 1212 0252 E1020000 		.4byte	.LASF46
 1213 0256 07       		.byte	0x7
 1214 0257 66       		.byte	0x66
 1215 0258 2A020000 		.4byte	0x22a
 1216 025c 08       		.uleb128 0x8
 1217 025d 04       		.byte	0x4
 1218 025e 07       		.byte	0x7
 1219 025f 6B       		.byte	0x6b
 1220 0260 71020000 		.4byte	0x271
 1221 0264 06       		.uleb128 0x6
 1222 0265 7E030000 		.4byte	.LASF27
 1223 0269 07       		.byte	0x7
 1224 026a 6D       		.byte	0x6d
 1225 026b 4B020000 		.4byte	0x24b
 1226 026f 00       		.byte	0
 1227 0270 00       		.byte	0
 1228 0271 03       		.uleb128 0x3
 1229 0272 79020000 		.4byte	.LASF47
 1230 0276 07       		.byte	0x7
 1231 0277 70       		.byte	0x70
 1232 0278 5C020000 		.4byte	0x25c
 1233 027c 03       		.uleb128 0x3
 1234 027d 0F010000 		.4byte	.LASF48
 1235 0281 09       		.byte	0x9
 1236 0282 A7       		.byte	0xa7
 1237 0283 87020000 		.4byte	0x287
 1238 0287 0A       		.uleb128 0xa
 1239 0288 04       		.byte	0x4
 1240 0289 05       		.uleb128 0x5
 1241 028a 31040000 		.4byte	.LASF49
 1242 028e 24       		.byte	0x24
 1243 028f 09       		.byte	0x9
 1244 0290 BA       		.byte	0xba
 1245 0291 FB020000 		.4byte	0x2fb
 1246 0295 07       		.uleb128 0x7
 1247 0296 723800   		.ascii	"r8\000"
 1248 0299 09       		.byte	0x9
 1249 029a BB       		.byte	0xbb
 1250 029b 7C020000 		.4byte	0x27c
 1251 029f 00       		.byte	0
 1252 02a0 07       		.uleb128 0x7
 1253 02a1 723900   		.ascii	"r9\000"
 1254 02a4 09       		.byte	0x9
ARM GAS  /tmp/ccGAfTzb.s 			page 23


 1255 02a5 BC       		.byte	0xbc
 1256 02a6 7C020000 		.4byte	0x27c
 1257 02aa 04       		.byte	0x4
 1258 02ab 07       		.uleb128 0x7
 1259 02ac 72313000 		.ascii	"r10\000"
 1260 02b0 09       		.byte	0x9
 1261 02b1 BD       		.byte	0xbd
 1262 02b2 7C020000 		.4byte	0x27c
 1263 02b6 08       		.byte	0x8
 1264 02b7 07       		.uleb128 0x7
 1265 02b8 72313100 		.ascii	"r11\000"
 1266 02bc 09       		.byte	0x9
 1267 02bd BE       		.byte	0xbe
 1268 02be 7C020000 		.4byte	0x27c
 1269 02c2 0C       		.byte	0xc
 1270 02c3 07       		.uleb128 0x7
 1271 02c4 723400   		.ascii	"r4\000"
 1272 02c7 09       		.byte	0x9
 1273 02c8 BF       		.byte	0xbf
 1274 02c9 7C020000 		.4byte	0x27c
 1275 02cd 10       		.byte	0x10
 1276 02ce 07       		.uleb128 0x7
 1277 02cf 723500   		.ascii	"r5\000"
 1278 02d2 09       		.byte	0x9
 1279 02d3 C0       		.byte	0xc0
 1280 02d4 7C020000 		.4byte	0x27c
 1281 02d8 14       		.byte	0x14
 1282 02d9 07       		.uleb128 0x7
 1283 02da 723600   		.ascii	"r6\000"
 1284 02dd 09       		.byte	0x9
 1285 02de C1       		.byte	0xc1
 1286 02df 7C020000 		.4byte	0x27c
 1287 02e3 18       		.byte	0x18
 1288 02e4 07       		.uleb128 0x7
 1289 02e5 723700   		.ascii	"r7\000"
 1290 02e8 09       		.byte	0x9
 1291 02e9 C2       		.byte	0xc2
 1292 02ea 7C020000 		.4byte	0x27c
 1293 02ee 1C       		.byte	0x1c
 1294 02ef 07       		.uleb128 0x7
 1295 02f0 6C7200   		.ascii	"lr\000"
 1296 02f3 09       		.byte	0x9
 1297 02f4 C3       		.byte	0xc3
 1298 02f5 7C020000 		.4byte	0x27c
 1299 02f9 20       		.byte	0x20
 1300 02fa 00       		.byte	0
 1301 02fb 05       		.uleb128 0x5
 1302 02fc 5F010000 		.4byte	.LASF50
 1303 0300 04       		.byte	0x4
 1304 0301 09       		.byte	0x9
 1305 0302 CD       		.byte	0xcd
 1306 0303 14030000 		.4byte	0x314
 1307 0307 07       		.uleb128 0x7
 1308 0308 72313300 		.ascii	"r13\000"
 1309 030c 09       		.byte	0x9
 1310 030d CE       		.byte	0xce
 1311 030e 14030000 		.4byte	0x314
ARM GAS  /tmp/ccGAfTzb.s 			page 24


 1312 0312 00       		.byte	0
 1313 0313 00       		.byte	0
 1314 0314 09       		.uleb128 0x9
 1315 0315 04       		.byte	0x4
 1316 0316 89020000 		.4byte	0x289
 1317 031a 04       		.uleb128 0x4
 1318 031b 04       		.byte	0x4
 1319 031c 07       		.byte	0x7
 1320 031d C0020000 		.4byte	.LASF51
 1321 0321 0B       		.uleb128 0xb
 1322 0322 17010000 		.4byte	0x117
 1323 0326 08       		.uleb128 0x8
 1324 0327 1C       		.byte	0x1c
 1325 0328 0A       		.byte	0xa
 1326 0329 5E       		.byte	0x5e
 1327 032a 77030000 		.4byte	0x377
 1328 032e 06       		.uleb128 0x6
 1329 032f B0030000 		.4byte	.LASF52
 1330 0333 0A       		.byte	0xa
 1331 0334 5F       		.byte	0x5f
 1332 0335 51020000 		.4byte	0x251
 1333 0339 00       		.byte	0
 1334 033a 06       		.uleb128 0x6
 1335 033b 70030000 		.4byte	.LASF53
 1336 033f 0A       		.byte	0xa
 1337 0340 60       		.byte	0x60
 1338 0341 F6000000 		.4byte	0xf6
 1339 0345 08       		.byte	0x8
 1340 0346 06       		.uleb128 0x6
 1341 0347 DB020000 		.4byte	.LASF54
 1342 034b 0A       		.byte	0xa
 1343 034c 62       		.byte	0x62
 1344 034d FB020000 		.4byte	0x2fb
 1345 0351 0C       		.byte	0xc
 1346 0352 06       		.uleb128 0x6
 1347 0353 85010000 		.4byte	.LASF55
 1348 0357 0A       		.byte	0xa
 1349 0358 65       		.byte	0x65
 1350 0359 4B020000 		.4byte	0x24b
 1351 035d 10       		.byte	0x10
 1352 035e 06       		.uleb128 0x6
 1353 035f FD020000 		.4byte	.LASF56
 1354 0363 0A       		.byte	0xa
 1355 0364 66       		.byte	0x66
 1356 0365 4B020000 		.4byte	0x24b
 1357 0369 14       		.byte	0x14
 1358 036a 06       		.uleb128 0x6
 1359 036b F3020000 		.4byte	.LASF57
 1360 036f 0A       		.byte	0xa
 1361 0370 69       		.byte	0x69
 1362 0371 4B020000 		.4byte	0x24b
 1363 0375 18       		.byte	0x18
 1364 0376 00       		.byte	0
 1365 0377 03       		.uleb128 0x3
 1366 0378 50040000 		.4byte	.LASF58
 1367 037c 0A       		.byte	0xa
 1368 037d 6B       		.byte	0x6b
ARM GAS  /tmp/ccGAfTzb.s 			page 25


 1369 037e 26030000 		.4byte	0x326
 1370 0382 05       		.uleb128 0x5
 1371 0383 9C020000 		.4byte	.LASF59
 1372 0387 10       		.byte	0x10
 1373 0388 0B       		.byte	0xb
 1374 0389 2C       		.byte	0x2c
 1375 038a B3030000 		.4byte	0x3b3
 1376 038e 06       		.uleb128 0x6
 1377 038f B8000000 		.4byte	.LASF60
 1378 0393 0B       		.byte	0xb
 1379 0394 2D       		.byte	0x2d
 1380 0395 51020000 		.4byte	0x251
 1381 0399 00       		.byte	0
 1382 039a 06       		.uleb128 0x6
 1383 039b 9B040000 		.4byte	.LASF61
 1384 039f 0B       		.byte	0xb
 1385 03a0 2F       		.byte	0x2f
 1386 03a1 4B020000 		.4byte	0x24b
 1387 03a5 08       		.byte	0x8
 1388 03a6 06       		.uleb128 0x6
 1389 03a7 D5030000 		.4byte	.LASF62
 1390 03ab 0B       		.byte	0xb
 1391 03ac 31       		.byte	0x31
 1392 03ad B3030000 		.4byte	0x3b3
 1393 03b1 0C       		.byte	0xc
 1394 03b2 00       		.byte	0
 1395 03b3 09       		.uleb128 0x9
 1396 03b4 04       		.byte	0x4
 1397 03b5 82030000 		.4byte	0x382
 1398 03b9 03       		.uleb128 0x3
 1399 03ba 9C020000 		.4byte	.LASF59
 1400 03be 0B       		.byte	0xb
 1401 03bf 33       		.byte	0x33
 1402 03c0 82030000 		.4byte	0x382
 1403 03c4 0C       		.uleb128 0xc
 1404 03c5 04       		.byte	0x4
 1405 03c6 08       		.byte	0x8
 1406 03c7 96       		.byte	0x96
 1407 03c8 F9030000 		.4byte	0x3f9
 1408 03cc 0D       		.uleb128 0xd
 1409 03cd 28000000 		.4byte	.LASF63
 1410 03d1 08       		.byte	0x8
 1411 03d2 9D       		.byte	0x9d
 1412 03d3 01010000 		.4byte	0x101
 1413 03d7 0D       		.uleb128 0xd
 1414 03d8 75000000 		.4byte	.LASF64
 1415 03dc 08       		.byte	0x8
 1416 03dd A4       		.byte	0xa4
 1417 03de 01010000 		.4byte	0x101
 1418 03e2 0D       		.uleb128 0xd
 1419 03e3 71040000 		.4byte	.LASF65
 1420 03e7 08       		.byte	0x8
 1421 03e8 AB       		.byte	0xab
 1422 03e9 87020000 		.4byte	0x287
 1423 03ed 0D       		.uleb128 0xd
 1424 03ee 77030000 		.4byte	.LASF66
 1425 03f2 08       		.byte	0x8
ARM GAS  /tmp/ccGAfTzb.s 			page 26


 1426 03f3 B2       		.byte	0xb2
 1427 03f4 0C010000 		.4byte	0x10c
 1428 03f8 00       		.byte	0
 1429 03f9 09       		.uleb128 0x9
 1430 03fa 04       		.byte	0x4
 1431 03fb FF030000 		.4byte	0x3ff
 1432 03ff 0E       		.uleb128 0xe
 1433 0400 04040000 		.4byte	0x404
 1434 0404 04       		.uleb128 0x4
 1435 0405 01       		.byte	0x1
 1436 0406 08       		.byte	0x8
 1437 0407 C4030000 		.4byte	.LASF67
 1438 040b 09       		.uleb128 0x9
 1439 040c 04       		.byte	0x4
 1440 040d B9030000 		.4byte	0x3b9
 1441 0411 03       		.uleb128 0x3
 1442 0412 A2020000 		.4byte	.LASF68
 1443 0416 0C       		.byte	0xc
 1444 0417 37       		.byte	0x37
 1445 0418 1C040000 		.4byte	0x41c
 1446 041c 05       		.uleb128 0x5
 1447 041d A2020000 		.4byte	.LASF68
 1448 0421 24       		.byte	0x24
 1449 0422 0C       		.byte	0xc
 1450 0423 45       		.byte	0x45
 1451 0424 89040000 		.4byte	0x489
 1452 0428 06       		.uleb128 0x6
 1453 0429 85000000 		.4byte	.LASF69
 1454 042d 0C       		.byte	0xc
 1455 042e 46       		.byte	0x46
 1456 042f 51020000 		.4byte	0x251
 1457 0433 00       		.byte	0
 1458 0434 06       		.uleb128 0x6
 1459 0435 C9020000 		.4byte	.LASF70
 1460 0439 0C       		.byte	0xc
 1461 043a 47       		.byte	0x47
 1462 043b 2C000000 		.4byte	0x2c
 1463 043f 08       		.byte	0x8
 1464 0440 06       		.uleb128 0x6
 1465 0441 EB000000 		.4byte	.LASF71
 1466 0445 0C       		.byte	0xc
 1467 0446 48       		.byte	0x48
 1468 0447 AB040000 		.4byte	0x4ab
 1469 044b 0C       		.byte	0xc
 1470 044c 06       		.uleb128 0x6
 1471 044d 43040000 		.4byte	.LASF72
 1472 0451 0C       		.byte	0xc
 1473 0452 49       		.byte	0x49
 1474 0453 AB040000 		.4byte	0x4ab
 1475 0457 10       		.byte	0x10
 1476 0458 06       		.uleb128 0x6
 1477 0459 F4000000 		.4byte	.LASF73
 1478 045d 0C       		.byte	0xc
 1479 045e 4B       		.byte	0x4b
 1480 045f AB040000 		.4byte	0x4ab
 1481 0463 14       		.byte	0x14
 1482 0464 06       		.uleb128 0x6
ARM GAS  /tmp/ccGAfTzb.s 			page 27


 1483 0465 26030000 		.4byte	.LASF74
 1484 0469 0C       		.byte	0xc
 1485 046a 4C       		.byte	0x4c
 1486 046b AB040000 		.4byte	0x4ab
 1487 046f 18       		.byte	0x18
 1488 0470 06       		.uleb128 0x6
 1489 0471 5A040000 		.4byte	.LASF75
 1490 0475 0C       		.byte	0xc
 1491 0476 4D       		.byte	0x4d
 1492 0477 89040000 		.4byte	0x489
 1493 047b 1C       		.byte	0x1c
 1494 047c 06       		.uleb128 0x6
 1495 047d 94040000 		.4byte	.LASF76
 1496 0481 0C       		.byte	0xc
 1497 0482 4E       		.byte	0x4e
 1498 0483 87020000 		.4byte	0x287
 1499 0487 20       		.byte	0x20
 1500 0488 00       		.byte	0
 1501 0489 03       		.uleb128 0x3
 1502 048a 0D030000 		.4byte	.LASF77
 1503 048e 0C       		.byte	0xc
 1504 048f 3A       		.byte	0x3a
 1505 0490 94040000 		.4byte	0x494
 1506 0494 09       		.uleb128 0x9
 1507 0495 04       		.byte	0x4
 1508 0496 9A040000 		.4byte	0x49a
 1509 049a 0F       		.uleb128 0xf
 1510 049b A5040000 		.4byte	0x4a5
 1511 049f 10       		.uleb128 0x10
 1512 04a0 A5040000 		.4byte	0x4a5
 1513 04a4 00       		.byte	0
 1514 04a5 09       		.uleb128 0x9
 1515 04a6 04       		.byte	0x4
 1516 04a7 11040000 		.4byte	0x411
 1517 04ab 09       		.uleb128 0x9
 1518 04ac 04       		.byte	0x4
 1519 04ad 97000000 		.4byte	0x97
 1520 04b1 03       		.uleb128 0x3
 1521 04b2 91020000 		.4byte	.LASF78
 1522 04b6 0C       		.byte	0xc
 1523 04b7 82       		.byte	0x82
 1524 04b8 11040000 		.4byte	0x411
 1525 04bc 03       		.uleb128 0x3
 1526 04bd 38000000 		.4byte	.LASF79
 1527 04c1 0C       		.byte	0xc
 1528 04c2 F5       		.byte	0xf5
 1529 04c3 11040000 		.4byte	0x411
 1530 04c7 09       		.uleb128 0x9
 1531 04c8 04       		.byte	0x4
 1532 04c9 CD040000 		.4byte	0x4cd
 1533 04cd 0E       		.uleb128 0xe
 1534 04ce 97000000 		.4byte	0x97
 1535 04d2 11       		.uleb128 0x11
 1536 04d3 0F000000 		.4byte	.LASF98
 1537 04d7 02       		.byte	0x2
 1538 04d8 34       		.byte	0x34
 1539 04d9 03       		.byte	0x3
ARM GAS  /tmp/ccGAfTzb.s 			page 28


 1540 04da F4040000 		.4byte	0x4f4
 1541 04de 12       		.uleb128 0x12
 1542 04df 747000   		.ascii	"tp\000"
 1543 04e2 02       		.byte	0x2
 1544 04e3 34       		.byte	0x34
 1545 04e4 4B020000 		.4byte	0x24b
 1546 04e8 12       		.uleb128 0x12
 1547 04e9 74717000 		.ascii	"tqp\000"
 1548 04ed 02       		.byte	0x2
 1549 04ee 34       		.byte	0x34
 1550 04ef F4040000 		.4byte	0x4f4
 1551 04f3 00       		.byte	0
 1552 04f4 09       		.uleb128 0x9
 1553 04f5 04       		.byte	0x4
 1554 04f6 51020000 		.4byte	0x251
 1555 04fa 13       		.uleb128 0x13
 1556 04fb C9030000 		.4byte	.LASF99
 1557 04ff 02       		.byte	0x2
 1558 0500 3B       		.byte	0x3b
 1559 0501 4B020000 		.4byte	0x24b
 1560 0505 03       		.byte	0x3
 1561 0506 20050000 		.4byte	0x520
 1562 050a 12       		.uleb128 0x12
 1563 050b 74717000 		.ascii	"tqp\000"
 1564 050f 02       		.byte	0x2
 1565 0510 3B       		.byte	0x3b
 1566 0511 F4040000 		.4byte	0x4f4
 1567 0515 14       		.uleb128 0x14
 1568 0516 747000   		.ascii	"tp\000"
 1569 0519 02       		.byte	0x2
 1570 051a 3C       		.byte	0x3c
 1571 051b 4B020000 		.4byte	0x24b
 1572 051f 00       		.byte	0
 1573 0520 15       		.uleb128 0x15
 1574 0521 CA000000 		.4byte	.LASF100
 1575 0525 01       		.byte	0x1
 1576 0526 46       		.byte	0x46
 1577 0527 01010000 		.4byte	0x101
 1578 052b 00000000 		.4byte	.LFB7
 1579 052f 28000000 		.4byte	.LFE7-.LFB7
 1580 0533 01       		.uleb128 0x1
 1581 0534 9C       		.byte	0x9c
 1582 0535 93050000 		.4byte	0x593
 1583 0539 16       		.uleb128 0x16
 1584 053a 717000   		.ascii	"qp\000"
 1585 053d 01       		.byte	0x1
 1586 053e 46       		.byte	0x46
 1587 053f A5040000 		.4byte	0x4a5
 1588 0543 00000000 		.4byte	.LLST0
 1589 0547 17       		.uleb128 0x17
 1590 0548 EE020000 		.4byte	.LASF80
 1591 054c 01       		.byte	0x1
 1592 054d 46       		.byte	0x46
 1593 054e 17010000 		.4byte	0x117
 1594 0552 3A000000 		.4byte	.LLST1
 1595 0556 18       		.uleb128 0x18
 1596 0557 D2040000 		.4byte	0x4d2
ARM GAS  /tmp/ccGAfTzb.s 			page 29


 1597 055b 0C000000 		.4byte	.LBB12
 1598 055f 0A000000 		.4byte	.LBE12-.LBB12
 1599 0563 01       		.byte	0x1
 1600 0564 4B       		.byte	0x4b
 1601 0565 7C050000 		.4byte	0x57c
 1602 0569 19       		.uleb128 0x19
 1603 056a E8040000 		.4byte	0x4e8
 1604 056e 74000000 		.4byte	.LLST2
 1605 0572 19       		.uleb128 0x19
 1606 0573 DE040000 		.4byte	0x4de
 1607 0577 95000000 		.4byte	.LLST3
 1608 057b 00       		.byte	0
 1609 057c 1A       		.uleb128 0x1a
 1610 057d 1C000000 		.4byte	.LVL3
 1611 0581 4B0A0000 		.4byte	0xa4b
 1612 0585 1B       		.uleb128 0x1b
 1613 0586 01       		.uleb128 0x1
 1614 0587 51       		.byte	0x51
 1615 0588 03       		.uleb128 0x3
 1616 0589 F3       		.byte	0xf3
 1617 058a 01       		.uleb128 0x1
 1618 058b 51       		.byte	0x51
 1619 058c 1B       		.uleb128 0x1b
 1620 058d 01       		.uleb128 0x1
 1621 058e 50       		.byte	0x50
 1622 058f 01       		.uleb128 0x1
 1623 0590 3D       		.byte	0x3d
 1624 0591 00       		.byte	0
 1625 0592 00       		.byte	0
 1626 0593 1C       		.uleb128 0x1c
 1627 0594 2F000000 		.4byte	.LASF84
 1628 0598 01       		.byte	0x1
 1629 0599 5F       		.byte	0x5f
 1630 059a 00000000 		.4byte	.LFB8
 1631 059e 1C000000 		.4byte	.LFE8-.LFB8
 1632 05a2 01       		.uleb128 0x1
 1633 05a3 9C       		.byte	0x9c
 1634 05a4 EE050000 		.4byte	0x5ee
 1635 05a8 1D       		.uleb128 0x1d
 1636 05a9 69717000 		.ascii	"iqp\000"
 1637 05ad 01       		.byte	0x1
 1638 05ae 5F       		.byte	0x5f
 1639 05af EE050000 		.4byte	0x5ee
 1640 05b3 01       		.uleb128 0x1
 1641 05b4 50       		.byte	0x50
 1642 05b5 16       		.uleb128 0x16
 1643 05b6 627000   		.ascii	"bp\000"
 1644 05b9 01       		.byte	0x1
 1645 05ba 5F       		.byte	0x5f
 1646 05bb AB040000 		.4byte	0x4ab
 1647 05bf A8000000 		.4byte	.LLST4
 1648 05c3 1E       		.uleb128 0x1e
 1649 05c4 67010000 		.4byte	.LASF81
 1650 05c8 01       		.byte	0x1
 1651 05c9 5F       		.byte	0x5f
 1652 05ca 2C000000 		.4byte	0x2c
 1653 05ce 01       		.uleb128 0x1
ARM GAS  /tmp/ccGAfTzb.s 			page 30


 1654 05cf 52       		.byte	0x52
 1655 05d0 17       		.uleb128 0x17
 1656 05d1 FB030000 		.4byte	.LASF82
 1657 05d5 01       		.byte	0x1
 1658 05d6 5F       		.byte	0x5f
 1659 05d7 89040000 		.4byte	0x489
 1660 05db C7000000 		.4byte	.LLST5
 1661 05df 1E       		.uleb128 0x1e
 1662 05e0 18010000 		.4byte	.LASF83
 1663 05e4 01       		.byte	0x1
 1664 05e5 60       		.byte	0x60
 1665 05e6 87020000 		.4byte	0x287
 1666 05ea 02       		.uleb128 0x2
 1667 05eb 91       		.byte	0x91
 1668 05ec 00       		.sleb128 0
 1669 05ed 00       		.byte	0
 1670 05ee 09       		.uleb128 0x9
 1671 05ef 04       		.byte	0x4
 1672 05f0 B1040000 		.4byte	0x4b1
 1673 05f4 1C       		.uleb128 0x1c
 1674 05f5 42010000 		.4byte	.LASF85
 1675 05f9 01       		.byte	0x1
 1676 05fa 75       		.byte	0x75
 1677 05fb 00000000 		.4byte	.LFB9
 1678 05ff 2E000000 		.4byte	.LFE9-.LFB9
 1679 0603 01       		.uleb128 0x1
 1680 0604 9C       		.byte	0x9c
 1681 0605 52060000 		.4byte	0x652
 1682 0609 16       		.uleb128 0x16
 1683 060a 69717000 		.ascii	"iqp\000"
 1684 060e 01       		.byte	0x1
 1685 060f 75       		.byte	0x75
 1686 0610 EE050000 		.4byte	0x5ee
 1687 0614 E6000000 		.4byte	.LLST6
 1688 0618 18       		.uleb128 0x18
 1689 0619 FA040000 		.4byte	0x4fa
 1690 061d 1A000000 		.4byte	.LBB14
 1691 0621 06000000 		.4byte	.LBE14-.LBB14
 1692 0625 01       		.byte	0x1
 1693 0626 7C       		.byte	0x7c
 1694 0627 48060000 		.4byte	0x648
 1695 062b 19       		.uleb128 0x19
 1696 062c 0A050000 		.4byte	0x50a
 1697 0630 1D010000 		.4byte	.LLST7
 1698 0634 1F       		.uleb128 0x1f
 1699 0635 1A000000 		.4byte	.LBB15
 1700 0639 06000000 		.4byte	.LBE15-.LBB15
 1701 063d 20       		.uleb128 0x20
 1702 063e 15050000 		.4byte	0x515
 1703 0642 30010000 		.4byte	.LLST8
 1704 0646 00       		.byte	0
 1705 0647 00       		.byte	0
 1706 0648 21       		.uleb128 0x21
 1707 0649 24000000 		.4byte	.LVL13
 1708 064d 650A0000 		.4byte	0xa65
 1709 0651 00       		.byte	0
 1710 0652 22       		.uleb128 0x22
ARM GAS  /tmp/ccGAfTzb.s 			page 31


 1711 0653 2C010000 		.4byte	.LASF86
 1712 0657 01       		.byte	0x1
 1713 0658 8C       		.byte	0x8c
 1714 0659 01010000 		.4byte	0x101
 1715 065d 00000000 		.4byte	.LFB10
 1716 0661 52000000 		.4byte	.LFE10-.LFB10
 1717 0665 01       		.uleb128 0x1
 1718 0666 9C       		.byte	0x9c
 1719 0667 C1060000 		.4byte	0x6c1
 1720 066b 16       		.uleb128 0x16
 1721 066c 69717000 		.ascii	"iqp\000"
 1722 0670 01       		.byte	0x1
 1723 0671 8C       		.byte	0x8c
 1724 0672 EE050000 		.4byte	0x5ee
 1725 0676 43010000 		.4byte	.LLST9
 1726 067a 16       		.uleb128 0x16
 1727 067b 6200     		.ascii	"b\000"
 1728 067d 01       		.byte	0x1
 1729 067e 8C       		.byte	0x8c
 1730 067f 97000000 		.4byte	0x97
 1731 0683 BB010000 		.4byte	.LLST10
 1732 0687 18       		.uleb128 0x18
 1733 0688 FA040000 		.4byte	0x4fa
 1734 068c 1C000000 		.4byte	.LBB16
 1735 0690 06000000 		.4byte	.LBE16-.LBB16
 1736 0694 01       		.byte	0x1
 1737 0695 99       		.byte	0x99
 1738 0696 B7060000 		.4byte	0x6b7
 1739 069a 19       		.uleb128 0x19
 1740 069b 0A050000 		.4byte	0x50a
 1741 069f F5010000 		.4byte	.LLST11
 1742 06a3 1F       		.uleb128 0x1f
 1743 06a4 1C000000 		.4byte	.LBB17
 1744 06a8 06000000 		.4byte	.LBE17-.LBB17
 1745 06ac 20       		.uleb128 0x20
 1746 06ad 15050000 		.4byte	0x515
 1747 06b1 22020000 		.4byte	.LLST12
 1748 06b5 00       		.byte	0
 1749 06b6 00       		.byte	0
 1750 06b7 21       		.uleb128 0x21
 1751 06b8 28000000 		.4byte	.LVL20
 1752 06bc 650A0000 		.4byte	0xa65
 1753 06c0 00       		.byte	0
 1754 06c1 22       		.uleb128 0x22
 1755 06c2 B3040000 		.4byte	.LASF87
 1756 06c6 01       		.byte	0x1
 1757 06c7 B2       		.byte	0xb2
 1758 06c8 01010000 		.4byte	0x101
 1759 06cc 00000000 		.4byte	.LFB11
 1760 06d0 42000000 		.4byte	.LFE11-.LFB11
 1761 06d4 01       		.uleb128 0x1
 1762 06d5 9C       		.byte	0x9c
 1763 06d6 45070000 		.4byte	0x745
 1764 06da 16       		.uleb128 0x16
 1765 06db 69717000 		.ascii	"iqp\000"
 1766 06df 01       		.byte	0x1
 1767 06e0 B2       		.byte	0xb2
ARM GAS  /tmp/ccGAfTzb.s 			page 32


 1768 06e1 EE050000 		.4byte	0x5ee
 1769 06e5 35020000 		.4byte	.LLST13
 1770 06e9 17       		.uleb128 0x17
 1771 06ea EE020000 		.4byte	.LASF80
 1772 06ee 01       		.byte	0x1
 1773 06ef B2       		.byte	0xb2
 1774 06f0 17010000 		.4byte	0x117
 1775 06f4 61020000 		.4byte	.LLST14
 1776 06f8 23       		.uleb128 0x23
 1777 06f9 6200     		.ascii	"b\000"
 1778 06fb 01       		.byte	0x1
 1779 06fc B3       		.byte	0xb3
 1780 06fd 97000000 		.4byte	0x97
 1781 0701 8D020000 		.4byte	.LLST15
 1782 0705 24       		.uleb128 0x24
 1783 0706 12000000 		.4byte	.LBB18
 1784 070a 10000000 		.4byte	.LBE18-.LBB18
 1785 070e 38070000 		.4byte	0x738
 1786 0712 23       		.uleb128 0x23
 1787 0713 6D736700 		.ascii	"msg\000"
 1788 0717 01       		.byte	0x1
 1789 0718 BA       		.byte	0xba
 1790 0719 01010000 		.4byte	0x101
 1791 071d C7020000 		.4byte	.LLST16
 1792 0721 1A       		.uleb128 0x1a
 1793 0722 1A000000 		.4byte	.LVL29
 1794 0726 20050000 		.4byte	0x520
 1795 072a 1B       		.uleb128 0x1b
 1796 072b 01       		.uleb128 0x1
 1797 072c 51       		.byte	0x51
 1798 072d 02       		.uleb128 0x2
 1799 072e 75       		.byte	0x75
 1800 072f 00       		.sleb128 0
 1801 0730 1B       		.uleb128 0x1b
 1802 0731 01       		.uleb128 0x1
 1803 0732 50       		.byte	0x50
 1804 0733 02       		.uleb128 0x2
 1805 0734 74       		.byte	0x74
 1806 0735 00       		.sleb128 0
 1807 0736 00       		.byte	0
 1808 0737 00       		.byte	0
 1809 0738 25       		.uleb128 0x25
 1810 0739 10000000 		.4byte	.LVL28
 1811 073d 1B       		.uleb128 0x1b
 1812 073e 01       		.uleb128 0x1
 1813 073f 50       		.byte	0x50
 1814 0740 02       		.uleb128 0x2
 1815 0741 74       		.byte	0x74
 1816 0742 00       		.sleb128 0
 1817 0743 00       		.byte	0
 1818 0744 00       		.byte	0
 1819 0745 22       		.uleb128 0x22
 1820 0746 4E000000 		.4byte	.LASF88
 1821 074a 01       		.byte	0x1
 1822 074b E2       		.byte	0xe2
 1823 074c 2C000000 		.4byte	0x2c
 1824 0750 00000000 		.4byte	.LFB12
ARM GAS  /tmp/ccGAfTzb.s 			page 33


 1825 0754 70000000 		.4byte	.LFE12-.LFB12
 1826 0758 01       		.uleb128 0x1
 1827 0759 9C       		.byte	0x9c
 1828 075a DD070000 		.4byte	0x7dd
 1829 075e 16       		.uleb128 0x16
 1830 075f 69717000 		.ascii	"iqp\000"
 1831 0763 01       		.byte	0x1
 1832 0764 E2       		.byte	0xe2
 1833 0765 EE050000 		.4byte	0x5ee
 1834 0769 DA020000 		.4byte	.LLST17
 1835 076d 16       		.uleb128 0x16
 1836 076e 627000   		.ascii	"bp\000"
 1837 0771 01       		.byte	0x1
 1838 0772 E2       		.byte	0xe2
 1839 0773 AB040000 		.4byte	0x4ab
 1840 0777 06030000 		.4byte	.LLST18
 1841 077b 16       		.uleb128 0x16
 1842 077c 6E00     		.ascii	"n\000"
 1843 077e 01       		.byte	0x1
 1844 077f E3       		.byte	0xe3
 1845 0780 2C000000 		.4byte	0x2c
 1846 0784 4B030000 		.4byte	.LLST19
 1847 0788 17       		.uleb128 0x17
 1848 0789 EE020000 		.4byte	.LASF80
 1849 078d 01       		.byte	0x1
 1850 078e E3       		.byte	0xe3
 1851 078f 17010000 		.4byte	0x117
 1852 0793 79030000 		.4byte	.LLST20
 1853 0797 23       		.uleb128 0x23
 1854 0798 6E667900 		.ascii	"nfy\000"
 1855 079c 01       		.byte	0x1
 1856 079d E4       		.byte	0xe4
 1857 079e 89040000 		.4byte	0x489
 1858 07a2 A5030000 		.4byte	.LLST21
 1859 07a6 23       		.uleb128 0x23
 1860 07a7 7200     		.ascii	"r\000"
 1861 07a9 01       		.byte	0x1
 1862 07aa E5       		.byte	0xe5
 1863 07ab 2C000000 		.4byte	0x2c
 1864 07af D9030000 		.4byte	.LLST22
 1865 07b3 26       		.uleb128 0x26
 1866 07b4 24000000 		.4byte	.LVL43
 1867 07b8 02       		.uleb128 0x2
 1868 07b9 78       		.byte	0x78
 1869 07ba 00       		.sleb128 0
 1870 07bb C6070000 		.4byte	0x7c6
 1871 07bf 1B       		.uleb128 0x1b
 1872 07c0 01       		.uleb128 0x1
 1873 07c1 50       		.byte	0x50
 1874 07c2 02       		.uleb128 0x2
 1875 07c3 74       		.byte	0x74
 1876 07c4 00       		.sleb128 0
 1877 07c5 00       		.byte	0
 1878 07c6 1A       		.uleb128 0x1a
 1879 07c7 2E000000 		.4byte	.LVL44
 1880 07cb 20050000 		.4byte	0x520
 1881 07cf 1B       		.uleb128 0x1b
ARM GAS  /tmp/ccGAfTzb.s 			page 34


 1882 07d0 01       		.uleb128 0x1
 1883 07d1 51       		.byte	0x51
 1884 07d2 02       		.uleb128 0x2
 1885 07d3 76       		.byte	0x76
 1886 07d4 00       		.sleb128 0
 1887 07d5 1B       		.uleb128 0x1b
 1888 07d6 01       		.uleb128 0x1
 1889 07d7 50       		.byte	0x50
 1890 07d8 02       		.uleb128 0x2
 1891 07d9 74       		.byte	0x74
 1892 07da 00       		.sleb128 0
 1893 07db 00       		.byte	0
 1894 07dc 00       		.byte	0
 1895 07dd 27       		.uleb128 0x27
 1896 07de 00000000 		.4byte	.LASF89
 1897 07e2 01       		.byte	0x1
 1898 07e3 1301     		.2byte	0x113
 1899 07e5 00000000 		.4byte	.LFB13
 1900 07e9 18000000 		.4byte	.LFE13-.LFB13
 1901 07ed 01       		.uleb128 0x1
 1902 07ee 9C       		.byte	0x9c
 1903 07ef 3E080000 		.4byte	0x83e
 1904 07f3 28       		.uleb128 0x28
 1905 07f4 6F717000 		.ascii	"oqp\000"
 1906 07f8 01       		.byte	0x1
 1907 07f9 1301     		.2byte	0x113
 1908 07fb 3E080000 		.4byte	0x83e
 1909 07ff 01       		.uleb128 0x1
 1910 0800 50       		.byte	0x50
 1911 0801 29       		.uleb128 0x29
 1912 0802 627000   		.ascii	"bp\000"
 1913 0805 01       		.byte	0x1
 1914 0806 1301     		.2byte	0x113
 1915 0808 AB040000 		.4byte	0x4ab
 1916 080c 03040000 		.4byte	.LLST23
 1917 0810 2A       		.uleb128 0x2a
 1918 0811 67010000 		.4byte	.LASF81
 1919 0815 01       		.byte	0x1
 1920 0816 1301     		.2byte	0x113
 1921 0818 2C000000 		.4byte	0x2c
 1922 081c 01       		.uleb128 0x1
 1923 081d 52       		.byte	0x52
 1924 081e 2B       		.uleb128 0x2b
 1925 081f 1C000000 		.4byte	.LASF90
 1926 0823 01       		.byte	0x1
 1927 0824 1301     		.2byte	0x113
 1928 0826 89040000 		.4byte	0x489
 1929 082a 22040000 		.4byte	.LLST24
 1930 082e 2A       		.uleb128 0x2a
 1931 082f 18010000 		.4byte	.LASF83
 1932 0833 01       		.byte	0x1
 1933 0834 1401     		.2byte	0x114
 1934 0836 87020000 		.4byte	0x287
 1935 083a 02       		.uleb128 0x2
 1936 083b 91       		.byte	0x91
 1937 083c 00       		.sleb128 0
 1938 083d 00       		.byte	0
ARM GAS  /tmp/ccGAfTzb.s 			page 35


 1939 083e 09       		.uleb128 0x9
 1940 083f 04       		.byte	0x4
 1941 0840 BC040000 		.4byte	0x4bc
 1942 0844 27       		.uleb128 0x27
 1943 0845 00040000 		.4byte	.LASF91
 1944 0849 01       		.byte	0x1
 1945 084a 2901     		.2byte	0x129
 1946 084c 00000000 		.4byte	.LFB14
 1947 0850 30000000 		.4byte	.LFE14-.LFB14
 1948 0854 01       		.uleb128 0x1
 1949 0855 9C       		.byte	0x9c
 1950 0856 A5080000 		.4byte	0x8a5
 1951 085a 29       		.uleb128 0x29
 1952 085b 6F717000 		.ascii	"oqp\000"
 1953 085f 01       		.byte	0x1
 1954 0860 2901     		.2byte	0x129
 1955 0862 3E080000 		.4byte	0x83e
 1956 0866 41040000 		.4byte	.LLST25
 1957 086a 2C       		.uleb128 0x2c
 1958 086b FA040000 		.4byte	0x4fa
 1959 086f 1C000000 		.4byte	.LBB19
 1960 0873 06000000 		.4byte	.LBE19-.LBB19
 1961 0877 01       		.byte	0x1
 1962 0878 3001     		.2byte	0x130
 1963 087a 9B080000 		.4byte	0x89b
 1964 087e 19       		.uleb128 0x19
 1965 087f 0A050000 		.4byte	0x50a
 1966 0883 78040000 		.4byte	.LLST26
 1967 0887 1F       		.uleb128 0x1f
 1968 0888 1C000000 		.4byte	.LBB20
 1969 088c 06000000 		.4byte	.LBE20-.LBB20
 1970 0890 20       		.uleb128 0x20
 1971 0891 15050000 		.4byte	0x515
 1972 0895 8B040000 		.4byte	.LLST27
 1973 0899 00       		.byte	0
 1974 089a 00       		.byte	0
 1975 089b 21       		.uleb128 0x21
 1976 089c 26000000 		.4byte	.LVL58
 1977 08a0 650A0000 		.4byte	0xa65
 1978 08a4 00       		.byte	0
 1979 08a5 2D       		.uleb128 0x2d
 1980 08a6 1D010000 		.4byte	.LASF92
 1981 08aa 01       		.byte	0x1
 1982 08ab 4901     		.2byte	0x149
 1983 08ad 01010000 		.4byte	0x101
 1984 08b1 00000000 		.4byte	.LFB15
 1985 08b5 4A000000 		.4byte	.LFE15-.LFB15
 1986 08b9 01       		.uleb128 0x1
 1987 08ba 9C       		.byte	0x9c
 1988 08bb 2E090000 		.4byte	0x92e
 1989 08bf 29       		.uleb128 0x29
 1990 08c0 6F717000 		.ascii	"oqp\000"
 1991 08c4 01       		.byte	0x1
 1992 08c5 4901     		.2byte	0x149
 1993 08c7 3E080000 		.4byte	0x83e
 1994 08cb 9E040000 		.4byte	.LLST28
 1995 08cf 29       		.uleb128 0x29
ARM GAS  /tmp/ccGAfTzb.s 			page 36


 1996 08d0 6200     		.ascii	"b\000"
 1997 08d2 01       		.byte	0x1
 1998 08d3 4901     		.2byte	0x149
 1999 08d5 97000000 		.4byte	0x97
 2000 08d9 CA040000 		.4byte	.LLST29
 2001 08dd 2B       		.uleb128 0x2b
 2002 08de EE020000 		.4byte	.LASF80
 2003 08e2 01       		.byte	0x1
 2004 08e3 4901     		.2byte	0x149
 2005 08e5 17010000 		.4byte	0x117
 2006 08e9 EB040000 		.4byte	.LLST30
 2007 08ed 24       		.uleb128 0x24
 2008 08ee 0C000000 		.4byte	.LBB21
 2009 08f2 10000000 		.4byte	.LBE21-.LBB21
 2010 08f6 21090000 		.4byte	0x921
 2011 08fa 2E       		.uleb128 0x2e
 2012 08fb 6D736700 		.ascii	"msg\000"
 2013 08ff 01       		.byte	0x1
 2014 0900 4D01     		.2byte	0x14d
 2015 0902 01010000 		.4byte	0x101
 2016 0906 17050000 		.4byte	.LLST31
 2017 090a 1A       		.uleb128 0x1a
 2018 090b 14000000 		.4byte	.LVL64
 2019 090f 20050000 		.4byte	0x520
 2020 0913 1B       		.uleb128 0x1b
 2021 0914 01       		.uleb128 0x1
 2022 0915 51       		.byte	0x51
 2023 0916 02       		.uleb128 0x2
 2024 0917 75       		.byte	0x75
 2025 0918 00       		.sleb128 0
 2026 0919 1B       		.uleb128 0x1b
 2027 091a 01       		.uleb128 0x1
 2028 091b 50       		.byte	0x50
 2029 091c 02       		.uleb128 0x2
 2030 091d 74       		.byte	0x74
 2031 091e 00       		.sleb128 0
 2032 091f 00       		.byte	0
 2033 0920 00       		.byte	0
 2034 0921 25       		.uleb128 0x25
 2035 0922 44000000 		.4byte	.LVL66
 2036 0926 1B       		.uleb128 0x1b
 2037 0927 01       		.uleb128 0x1
 2038 0928 50       		.byte	0x50
 2039 0929 02       		.uleb128 0x2
 2040 092a 74       		.byte	0x74
 2041 092b 00       		.sleb128 0
 2042 092c 00       		.byte	0
 2043 092d 00       		.byte	0
 2044 092e 2D       		.uleb128 0x2d
 2045 092f E2000000 		.4byte	.LASF93
 2046 0933 01       		.byte	0x1
 2047 0934 6B01     		.2byte	0x16b
 2048 0936 01010000 		.4byte	0x101
 2049 093a 00000000 		.4byte	.LFB16
 2050 093e 4C000000 		.4byte	.LFE16-.LFB16
 2051 0942 01       		.uleb128 0x1
 2052 0943 9C       		.byte	0x9c
ARM GAS  /tmp/ccGAfTzb.s 			page 37


 2053 0944 A1090000 		.4byte	0x9a1
 2054 0948 29       		.uleb128 0x29
 2055 0949 6F717000 		.ascii	"oqp\000"
 2056 094d 01       		.byte	0x1
 2057 094e 6B01     		.2byte	0x16b
 2058 0950 3E080000 		.4byte	0x83e
 2059 0954 2A050000 		.4byte	.LLST32
 2060 0958 2E       		.uleb128 0x2e
 2061 0959 6200     		.ascii	"b\000"
 2062 095b 01       		.byte	0x1
 2063 095c 6C01     		.2byte	0x16c
 2064 095e 97000000 		.4byte	0x97
 2065 0962 89050000 		.4byte	.LLST33
 2066 0966 2C       		.uleb128 0x2c
 2067 0967 FA040000 		.4byte	0x4fa
 2068 096b 1C000000 		.4byte	.LBB22
 2069 096f 06000000 		.4byte	.LBE22-.LBB22
 2070 0973 01       		.byte	0x1
 2071 0974 7901     		.2byte	0x179
 2072 0976 97090000 		.4byte	0x997
 2073 097a 19       		.uleb128 0x19
 2074 097b 0A050000 		.4byte	0x50a
 2075 097f C0050000 		.4byte	.LLST34
 2076 0983 1F       		.uleb128 0x1f
 2077 0984 1C000000 		.4byte	.LBB23
 2078 0988 06000000 		.4byte	.LBE23-.LBB23
 2079 098c 20       		.uleb128 0x20
 2080 098d 15050000 		.4byte	0x515
 2081 0991 ED050000 		.4byte	.LLST35
 2082 0995 00       		.byte	0
 2083 0996 00       		.byte	0
 2084 0997 21       		.uleb128 0x21
 2085 0998 28000000 		.4byte	.LVL74
 2086 099c 650A0000 		.4byte	0xa65
 2087 09a0 00       		.byte	0
 2088 09a1 2D       		.uleb128 0x2d
 2089 09a2 AF020000 		.4byte	.LASF94
 2090 09a6 01       		.byte	0x1
 2091 09a7 9601     		.2byte	0x196
 2092 09a9 2C000000 		.4byte	0x2c
 2093 09ad 00000000 		.4byte	.LFB17
 2094 09b1 78000000 		.4byte	.LFE17-.LFB17
 2095 09b5 01       		.uleb128 0x1
 2096 09b6 9C       		.byte	0x9c
 2097 09b7 400A0000 		.4byte	0xa40
 2098 09bb 29       		.uleb128 0x29
 2099 09bc 6F717000 		.ascii	"oqp\000"
 2100 09c0 01       		.byte	0x1
 2101 09c1 9601     		.2byte	0x196
 2102 09c3 3E080000 		.4byte	0x83e
 2103 09c7 00060000 		.4byte	.LLST36
 2104 09cb 29       		.uleb128 0x29
 2105 09cc 627000   		.ascii	"bp\000"
 2106 09cf 01       		.byte	0x1
 2107 09d0 9601     		.2byte	0x196
 2108 09d2 C7040000 		.4byte	0x4c7
 2109 09d6 2C060000 		.4byte	.LLST37
ARM GAS  /tmp/ccGAfTzb.s 			page 38


 2110 09da 29       		.uleb128 0x29
 2111 09db 6E00     		.ascii	"n\000"
 2112 09dd 01       		.byte	0x1
 2113 09de 9701     		.2byte	0x197
 2114 09e0 2C000000 		.4byte	0x2c
 2115 09e4 55060000 		.4byte	.LLST38
 2116 09e8 2B       		.uleb128 0x2b
 2117 09e9 EE020000 		.4byte	.LASF80
 2118 09ed 01       		.byte	0x1
 2119 09ee 9701     		.2byte	0x197
 2120 09f0 17010000 		.4byte	0x117
 2121 09f4 73060000 		.4byte	.LLST39
 2122 09f8 2E       		.uleb128 0x2e
 2123 09f9 6E667900 		.ascii	"nfy\000"
 2124 09fd 01       		.byte	0x1
 2125 09fe 9801     		.2byte	0x198
 2126 0a00 89040000 		.4byte	0x489
 2127 0a04 9F060000 		.4byte	.LLST40
 2128 0a08 2E       		.uleb128 0x2e
 2129 0a09 7700     		.ascii	"w\000"
 2130 0a0b 01       		.byte	0x1
 2131 0a0c 9901     		.2byte	0x199
 2132 0a0e 2C000000 		.4byte	0x2c
 2133 0a12 D3060000 		.4byte	.LLST41
 2134 0a16 2F       		.uleb128 0x2f
 2135 0a17 26000000 		.4byte	.LVL87
 2136 0a1b 20050000 		.4byte	0x520
 2137 0a1f 300A0000 		.4byte	0xa30
 2138 0a23 1B       		.uleb128 0x1b
 2139 0a24 01       		.uleb128 0x1
 2140 0a25 51       		.byte	0x51
 2141 0a26 02       		.uleb128 0x2
 2142 0a27 7A       		.byte	0x7a
 2143 0a28 00       		.sleb128 0
 2144 0a29 1B       		.uleb128 0x1b
 2145 0a2a 01       		.uleb128 0x1
 2146 0a2b 50       		.byte	0x50
 2147 0a2c 02       		.uleb128 0x2
 2148 0a2d 74       		.byte	0x74
 2149 0a2e 00       		.sleb128 0
 2150 0a2f 00       		.byte	0
 2151 0a30 30       		.uleb128 0x30
 2152 0a31 5A000000 		.4byte	.LVL91
 2153 0a35 02       		.uleb128 0x2
 2154 0a36 79       		.byte	0x79
 2155 0a37 00       		.sleb128 0
 2156 0a38 1B       		.uleb128 0x1b
 2157 0a39 01       		.uleb128 0x1
 2158 0a3a 50       		.byte	0x50
 2159 0a3b 02       		.uleb128 0x2
 2160 0a3c 74       		.byte	0x74
 2161 0a3d 00       		.sleb128 0
 2162 0a3e 00       		.byte	0
 2163 0a3f 00       		.byte	0
 2164 0a40 31       		.uleb128 0x31
 2165 0a41 63040000 		.4byte	.LASF101
 2166 0a45 0A       		.byte	0xa
ARM GAS  /tmp/ccGAfTzb.s 			page 39


 2167 0a46 6F       		.byte	0x6f
 2168 0a47 77030000 		.4byte	0x377
 2169 0a4b 32       		.uleb128 0x32
 2170 0a4c 7F040000 		.4byte	.LASF102
 2171 0a50 0A       		.byte	0xa
 2172 0a51 96       		.byte	0x96
 2173 0a52 01010000 		.4byte	0x101
 2174 0a56 650A0000 		.4byte	0xa65
 2175 0a5a 10       		.uleb128 0x10
 2176 0a5b D5000000 		.4byte	0xd5
 2177 0a5f 10       		.uleb128 0x10
 2178 0a60 17010000 		.4byte	0x117
 2179 0a64 00       		.byte	0
 2180 0a65 33       		.uleb128 0x33
 2181 0a66 B8030000 		.4byte	.LASF103
 2182 0a6a 0A       		.byte	0xa
 2183 0a6b 90       		.byte	0x90
 2184 0a6c 4B020000 		.4byte	0x24b
 2185 0a70 10       		.uleb128 0x10
 2186 0a71 4B020000 		.4byte	0x24b
 2187 0a75 00       		.byte	0
 2188 0a76 00       		.byte	0
 2189              		.section	.debug_abbrev,"",%progbits
 2190              	.Ldebug_abbrev0:
 2191 0000 01       		.uleb128 0x1
 2192 0001 11       		.uleb128 0x11
 2193 0002 01       		.byte	0x1
 2194 0003 25       		.uleb128 0x25
 2195 0004 0E       		.uleb128 0xe
 2196 0005 13       		.uleb128 0x13
 2197 0006 0B       		.uleb128 0xb
 2198 0007 03       		.uleb128 0x3
 2199 0008 0E       		.uleb128 0xe
 2200 0009 1B       		.uleb128 0x1b
 2201 000a 0E       		.uleb128 0xe
 2202 000b 55       		.uleb128 0x55
 2203 000c 17       		.uleb128 0x17
 2204 000d 11       		.uleb128 0x11
 2205 000e 01       		.uleb128 0x1
 2206 000f 10       		.uleb128 0x10
 2207 0010 17       		.uleb128 0x17
 2208 0011 00       		.byte	0
 2209 0012 00       		.byte	0
 2210 0013 02       		.uleb128 0x2
 2211 0014 24       		.uleb128 0x24
 2212 0015 00       		.byte	0
 2213 0016 0B       		.uleb128 0xb
 2214 0017 0B       		.uleb128 0xb
 2215 0018 3E       		.uleb128 0x3e
 2216 0019 0B       		.uleb128 0xb
 2217 001a 03       		.uleb128 0x3
 2218 001b 08       		.uleb128 0x8
 2219 001c 00       		.byte	0
 2220 001d 00       		.byte	0
 2221 001e 03       		.uleb128 0x3
 2222 001f 16       		.uleb128 0x16
 2223 0020 00       		.byte	0
ARM GAS  /tmp/ccGAfTzb.s 			page 40


 2224 0021 03       		.uleb128 0x3
 2225 0022 0E       		.uleb128 0xe
 2226 0023 3A       		.uleb128 0x3a
 2227 0024 0B       		.uleb128 0xb
 2228 0025 3B       		.uleb128 0x3b
 2229 0026 0B       		.uleb128 0xb
 2230 0027 49       		.uleb128 0x49
 2231 0028 13       		.uleb128 0x13
 2232 0029 00       		.byte	0
 2233 002a 00       		.byte	0
 2234 002b 04       		.uleb128 0x4
 2235 002c 24       		.uleb128 0x24
 2236 002d 00       		.byte	0
 2237 002e 0B       		.uleb128 0xb
 2238 002f 0B       		.uleb128 0xb
 2239 0030 3E       		.uleb128 0x3e
 2240 0031 0B       		.uleb128 0xb
 2241 0032 03       		.uleb128 0x3
 2242 0033 0E       		.uleb128 0xe
 2243 0034 00       		.byte	0
 2244 0035 00       		.byte	0
 2245 0036 05       		.uleb128 0x5
 2246 0037 13       		.uleb128 0x13
 2247 0038 01       		.byte	0x1
 2248 0039 03       		.uleb128 0x3
 2249 003a 0E       		.uleb128 0xe
 2250 003b 0B       		.uleb128 0xb
 2251 003c 0B       		.uleb128 0xb
 2252 003d 3A       		.uleb128 0x3a
 2253 003e 0B       		.uleb128 0xb
 2254 003f 3B       		.uleb128 0x3b
 2255 0040 0B       		.uleb128 0xb
 2256 0041 01       		.uleb128 0x1
 2257 0042 13       		.uleb128 0x13
 2258 0043 00       		.byte	0
 2259 0044 00       		.byte	0
 2260 0045 06       		.uleb128 0x6
 2261 0046 0D       		.uleb128 0xd
 2262 0047 00       		.byte	0
 2263 0048 03       		.uleb128 0x3
 2264 0049 0E       		.uleb128 0xe
 2265 004a 3A       		.uleb128 0x3a
 2266 004b 0B       		.uleb128 0xb
 2267 004c 3B       		.uleb128 0x3b
 2268 004d 0B       		.uleb128 0xb
 2269 004e 49       		.uleb128 0x49
 2270 004f 13       		.uleb128 0x13
 2271 0050 38       		.uleb128 0x38
 2272 0051 0B       		.uleb128 0xb
 2273 0052 00       		.byte	0
 2274 0053 00       		.byte	0
 2275 0054 07       		.uleb128 0x7
 2276 0055 0D       		.uleb128 0xd
 2277 0056 00       		.byte	0
 2278 0057 03       		.uleb128 0x3
 2279 0058 08       		.uleb128 0x8
 2280 0059 3A       		.uleb128 0x3a
ARM GAS  /tmp/ccGAfTzb.s 			page 41


 2281 005a 0B       		.uleb128 0xb
 2282 005b 3B       		.uleb128 0x3b
 2283 005c 0B       		.uleb128 0xb
 2284 005d 49       		.uleb128 0x49
 2285 005e 13       		.uleb128 0x13
 2286 005f 38       		.uleb128 0x38
 2287 0060 0B       		.uleb128 0xb
 2288 0061 00       		.byte	0
 2289 0062 00       		.byte	0
 2290 0063 08       		.uleb128 0x8
 2291 0064 13       		.uleb128 0x13
 2292 0065 01       		.byte	0x1
 2293 0066 0B       		.uleb128 0xb
 2294 0067 0B       		.uleb128 0xb
 2295 0068 3A       		.uleb128 0x3a
 2296 0069 0B       		.uleb128 0xb
 2297 006a 3B       		.uleb128 0x3b
 2298 006b 0B       		.uleb128 0xb
 2299 006c 01       		.uleb128 0x1
 2300 006d 13       		.uleb128 0x13
 2301 006e 00       		.byte	0
 2302 006f 00       		.byte	0
 2303 0070 09       		.uleb128 0x9
 2304 0071 0F       		.uleb128 0xf
 2305 0072 00       		.byte	0
 2306 0073 0B       		.uleb128 0xb
 2307 0074 0B       		.uleb128 0xb
 2308 0075 49       		.uleb128 0x49
 2309 0076 13       		.uleb128 0x13
 2310 0077 00       		.byte	0
 2311 0078 00       		.byte	0
 2312 0079 0A       		.uleb128 0xa
 2313 007a 0F       		.uleb128 0xf
 2314 007b 00       		.byte	0
 2315 007c 0B       		.uleb128 0xb
 2316 007d 0B       		.uleb128 0xb
 2317 007e 00       		.byte	0
 2318 007f 00       		.byte	0
 2319 0080 0B       		.uleb128 0xb
 2320 0081 35       		.uleb128 0x35
 2321 0082 00       		.byte	0
 2322 0083 49       		.uleb128 0x49
 2323 0084 13       		.uleb128 0x13
 2324 0085 00       		.byte	0
 2325 0086 00       		.byte	0
 2326 0087 0C       		.uleb128 0xc
 2327 0088 17       		.uleb128 0x17
 2328 0089 01       		.byte	0x1
 2329 008a 0B       		.uleb128 0xb
 2330 008b 0B       		.uleb128 0xb
 2331 008c 3A       		.uleb128 0x3a
 2332 008d 0B       		.uleb128 0xb
 2333 008e 3B       		.uleb128 0x3b
 2334 008f 0B       		.uleb128 0xb
 2335 0090 01       		.uleb128 0x1
 2336 0091 13       		.uleb128 0x13
 2337 0092 00       		.byte	0
ARM GAS  /tmp/ccGAfTzb.s 			page 42


 2338 0093 00       		.byte	0
 2339 0094 0D       		.uleb128 0xd
 2340 0095 0D       		.uleb128 0xd
 2341 0096 00       		.byte	0
 2342 0097 03       		.uleb128 0x3
 2343 0098 0E       		.uleb128 0xe
 2344 0099 3A       		.uleb128 0x3a
 2345 009a 0B       		.uleb128 0xb
 2346 009b 3B       		.uleb128 0x3b
 2347 009c 0B       		.uleb128 0xb
 2348 009d 49       		.uleb128 0x49
 2349 009e 13       		.uleb128 0x13
 2350 009f 00       		.byte	0
 2351 00a0 00       		.byte	0
 2352 00a1 0E       		.uleb128 0xe
 2353 00a2 26       		.uleb128 0x26
 2354 00a3 00       		.byte	0
 2355 00a4 49       		.uleb128 0x49
 2356 00a5 13       		.uleb128 0x13
 2357 00a6 00       		.byte	0
 2358 00a7 00       		.byte	0
 2359 00a8 0F       		.uleb128 0xf
 2360 00a9 15       		.uleb128 0x15
 2361 00aa 01       		.byte	0x1
 2362 00ab 27       		.uleb128 0x27
 2363 00ac 19       		.uleb128 0x19
 2364 00ad 01       		.uleb128 0x1
 2365 00ae 13       		.uleb128 0x13
 2366 00af 00       		.byte	0
 2367 00b0 00       		.byte	0
 2368 00b1 10       		.uleb128 0x10
 2369 00b2 05       		.uleb128 0x5
 2370 00b3 00       		.byte	0
 2371 00b4 49       		.uleb128 0x49
 2372 00b5 13       		.uleb128 0x13
 2373 00b6 00       		.byte	0
 2374 00b7 00       		.byte	0
 2375 00b8 11       		.uleb128 0x11
 2376 00b9 2E       		.uleb128 0x2e
 2377 00ba 01       		.byte	0x1
 2378 00bb 03       		.uleb128 0x3
 2379 00bc 0E       		.uleb128 0xe
 2380 00bd 3A       		.uleb128 0x3a
 2381 00be 0B       		.uleb128 0xb
 2382 00bf 3B       		.uleb128 0x3b
 2383 00c0 0B       		.uleb128 0xb
 2384 00c1 27       		.uleb128 0x27
 2385 00c2 19       		.uleb128 0x19
 2386 00c3 20       		.uleb128 0x20
 2387 00c4 0B       		.uleb128 0xb
 2388 00c5 01       		.uleb128 0x1
 2389 00c6 13       		.uleb128 0x13
 2390 00c7 00       		.byte	0
 2391 00c8 00       		.byte	0
 2392 00c9 12       		.uleb128 0x12
 2393 00ca 05       		.uleb128 0x5
 2394 00cb 00       		.byte	0
ARM GAS  /tmp/ccGAfTzb.s 			page 43


 2395 00cc 03       		.uleb128 0x3
 2396 00cd 08       		.uleb128 0x8
 2397 00ce 3A       		.uleb128 0x3a
 2398 00cf 0B       		.uleb128 0xb
 2399 00d0 3B       		.uleb128 0x3b
 2400 00d1 0B       		.uleb128 0xb
 2401 00d2 49       		.uleb128 0x49
 2402 00d3 13       		.uleb128 0x13
 2403 00d4 00       		.byte	0
 2404 00d5 00       		.byte	0
 2405 00d6 13       		.uleb128 0x13
 2406 00d7 2E       		.uleb128 0x2e
 2407 00d8 01       		.byte	0x1
 2408 00d9 03       		.uleb128 0x3
 2409 00da 0E       		.uleb128 0xe
 2410 00db 3A       		.uleb128 0x3a
 2411 00dc 0B       		.uleb128 0xb
 2412 00dd 3B       		.uleb128 0x3b
 2413 00de 0B       		.uleb128 0xb
 2414 00df 27       		.uleb128 0x27
 2415 00e0 19       		.uleb128 0x19
 2416 00e1 49       		.uleb128 0x49
 2417 00e2 13       		.uleb128 0x13
 2418 00e3 20       		.uleb128 0x20
 2419 00e4 0B       		.uleb128 0xb
 2420 00e5 01       		.uleb128 0x1
 2421 00e6 13       		.uleb128 0x13
 2422 00e7 00       		.byte	0
 2423 00e8 00       		.byte	0
 2424 00e9 14       		.uleb128 0x14
 2425 00ea 34       		.uleb128 0x34
 2426 00eb 00       		.byte	0
 2427 00ec 03       		.uleb128 0x3
 2428 00ed 08       		.uleb128 0x8
 2429 00ee 3A       		.uleb128 0x3a
 2430 00ef 0B       		.uleb128 0xb
 2431 00f0 3B       		.uleb128 0x3b
 2432 00f1 0B       		.uleb128 0xb
 2433 00f2 49       		.uleb128 0x49
 2434 00f3 13       		.uleb128 0x13
 2435 00f4 00       		.byte	0
 2436 00f5 00       		.byte	0
 2437 00f6 15       		.uleb128 0x15
 2438 00f7 2E       		.uleb128 0x2e
 2439 00f8 01       		.byte	0x1
 2440 00f9 03       		.uleb128 0x3
 2441 00fa 0E       		.uleb128 0xe
 2442 00fb 3A       		.uleb128 0x3a
 2443 00fc 0B       		.uleb128 0xb
 2444 00fd 3B       		.uleb128 0x3b
 2445 00fe 0B       		.uleb128 0xb
 2446 00ff 27       		.uleb128 0x27
 2447 0100 19       		.uleb128 0x19
 2448 0101 49       		.uleb128 0x49
 2449 0102 13       		.uleb128 0x13
 2450 0103 11       		.uleb128 0x11
 2451 0104 01       		.uleb128 0x1
ARM GAS  /tmp/ccGAfTzb.s 			page 44


 2452 0105 12       		.uleb128 0x12
 2453 0106 06       		.uleb128 0x6
 2454 0107 40       		.uleb128 0x40
 2455 0108 18       		.uleb128 0x18
 2456 0109 9742     		.uleb128 0x2117
 2457 010b 19       		.uleb128 0x19
 2458 010c 01       		.uleb128 0x1
 2459 010d 13       		.uleb128 0x13
 2460 010e 00       		.byte	0
 2461 010f 00       		.byte	0
 2462 0110 16       		.uleb128 0x16
 2463 0111 05       		.uleb128 0x5
 2464 0112 00       		.byte	0
 2465 0113 03       		.uleb128 0x3
 2466 0114 08       		.uleb128 0x8
 2467 0115 3A       		.uleb128 0x3a
 2468 0116 0B       		.uleb128 0xb
 2469 0117 3B       		.uleb128 0x3b
 2470 0118 0B       		.uleb128 0xb
 2471 0119 49       		.uleb128 0x49
 2472 011a 13       		.uleb128 0x13
 2473 011b 02       		.uleb128 0x2
 2474 011c 17       		.uleb128 0x17
 2475 011d 00       		.byte	0
 2476 011e 00       		.byte	0
 2477 011f 17       		.uleb128 0x17
 2478 0120 05       		.uleb128 0x5
 2479 0121 00       		.byte	0
 2480 0122 03       		.uleb128 0x3
 2481 0123 0E       		.uleb128 0xe
 2482 0124 3A       		.uleb128 0x3a
 2483 0125 0B       		.uleb128 0xb
 2484 0126 3B       		.uleb128 0x3b
 2485 0127 0B       		.uleb128 0xb
 2486 0128 49       		.uleb128 0x49
 2487 0129 13       		.uleb128 0x13
 2488 012a 02       		.uleb128 0x2
 2489 012b 17       		.uleb128 0x17
 2490 012c 00       		.byte	0
 2491 012d 00       		.byte	0
 2492 012e 18       		.uleb128 0x18
 2493 012f 1D       		.uleb128 0x1d
 2494 0130 01       		.byte	0x1
 2495 0131 31       		.uleb128 0x31
 2496 0132 13       		.uleb128 0x13
 2497 0133 11       		.uleb128 0x11
 2498 0134 01       		.uleb128 0x1
 2499 0135 12       		.uleb128 0x12
 2500 0136 06       		.uleb128 0x6
 2501 0137 58       		.uleb128 0x58
 2502 0138 0B       		.uleb128 0xb
 2503 0139 59       		.uleb128 0x59
 2504 013a 0B       		.uleb128 0xb
 2505 013b 01       		.uleb128 0x1
 2506 013c 13       		.uleb128 0x13
 2507 013d 00       		.byte	0
 2508 013e 00       		.byte	0
ARM GAS  /tmp/ccGAfTzb.s 			page 45


 2509 013f 19       		.uleb128 0x19
 2510 0140 05       		.uleb128 0x5
 2511 0141 00       		.byte	0
 2512 0142 31       		.uleb128 0x31
 2513 0143 13       		.uleb128 0x13
 2514 0144 02       		.uleb128 0x2
 2515 0145 17       		.uleb128 0x17
 2516 0146 00       		.byte	0
 2517 0147 00       		.byte	0
 2518 0148 1A       		.uleb128 0x1a
 2519 0149 898201   		.uleb128 0x4109
 2520 014c 01       		.byte	0x1
 2521 014d 11       		.uleb128 0x11
 2522 014e 01       		.uleb128 0x1
 2523 014f 31       		.uleb128 0x31
 2524 0150 13       		.uleb128 0x13
 2525 0151 00       		.byte	0
 2526 0152 00       		.byte	0
 2527 0153 1B       		.uleb128 0x1b
 2528 0154 8A8201   		.uleb128 0x410a
 2529 0157 00       		.byte	0
 2530 0158 02       		.uleb128 0x2
 2531 0159 18       		.uleb128 0x18
 2532 015a 9142     		.uleb128 0x2111
 2533 015c 18       		.uleb128 0x18
 2534 015d 00       		.byte	0
 2535 015e 00       		.byte	0
 2536 015f 1C       		.uleb128 0x1c
 2537 0160 2E       		.uleb128 0x2e
 2538 0161 01       		.byte	0x1
 2539 0162 3F       		.uleb128 0x3f
 2540 0163 19       		.uleb128 0x19
 2541 0164 03       		.uleb128 0x3
 2542 0165 0E       		.uleb128 0xe
 2543 0166 3A       		.uleb128 0x3a
 2544 0167 0B       		.uleb128 0xb
 2545 0168 3B       		.uleb128 0x3b
 2546 0169 0B       		.uleb128 0xb
 2547 016a 27       		.uleb128 0x27
 2548 016b 19       		.uleb128 0x19
 2549 016c 11       		.uleb128 0x11
 2550 016d 01       		.uleb128 0x1
 2551 016e 12       		.uleb128 0x12
 2552 016f 06       		.uleb128 0x6
 2553 0170 40       		.uleb128 0x40
 2554 0171 18       		.uleb128 0x18
 2555 0172 9742     		.uleb128 0x2117
 2556 0174 19       		.uleb128 0x19
 2557 0175 01       		.uleb128 0x1
 2558 0176 13       		.uleb128 0x13
 2559 0177 00       		.byte	0
 2560 0178 00       		.byte	0
 2561 0179 1D       		.uleb128 0x1d
 2562 017a 05       		.uleb128 0x5
 2563 017b 00       		.byte	0
 2564 017c 03       		.uleb128 0x3
 2565 017d 08       		.uleb128 0x8
ARM GAS  /tmp/ccGAfTzb.s 			page 46


 2566 017e 3A       		.uleb128 0x3a
 2567 017f 0B       		.uleb128 0xb
 2568 0180 3B       		.uleb128 0x3b
 2569 0181 0B       		.uleb128 0xb
 2570 0182 49       		.uleb128 0x49
 2571 0183 13       		.uleb128 0x13
 2572 0184 02       		.uleb128 0x2
 2573 0185 18       		.uleb128 0x18
 2574 0186 00       		.byte	0
 2575 0187 00       		.byte	0
 2576 0188 1E       		.uleb128 0x1e
 2577 0189 05       		.uleb128 0x5
 2578 018a 00       		.byte	0
 2579 018b 03       		.uleb128 0x3
 2580 018c 0E       		.uleb128 0xe
 2581 018d 3A       		.uleb128 0x3a
 2582 018e 0B       		.uleb128 0xb
 2583 018f 3B       		.uleb128 0x3b
 2584 0190 0B       		.uleb128 0xb
 2585 0191 49       		.uleb128 0x49
 2586 0192 13       		.uleb128 0x13
 2587 0193 02       		.uleb128 0x2
 2588 0194 18       		.uleb128 0x18
 2589 0195 00       		.byte	0
 2590 0196 00       		.byte	0
 2591 0197 1F       		.uleb128 0x1f
 2592 0198 0B       		.uleb128 0xb
 2593 0199 01       		.byte	0x1
 2594 019a 11       		.uleb128 0x11
 2595 019b 01       		.uleb128 0x1
 2596 019c 12       		.uleb128 0x12
 2597 019d 06       		.uleb128 0x6
 2598 019e 00       		.byte	0
 2599 019f 00       		.byte	0
 2600 01a0 20       		.uleb128 0x20
 2601 01a1 34       		.uleb128 0x34
 2602 01a2 00       		.byte	0
 2603 01a3 31       		.uleb128 0x31
 2604 01a4 13       		.uleb128 0x13
 2605 01a5 02       		.uleb128 0x2
 2606 01a6 17       		.uleb128 0x17
 2607 01a7 00       		.byte	0
 2608 01a8 00       		.byte	0
 2609 01a9 21       		.uleb128 0x21
 2610 01aa 898201   		.uleb128 0x4109
 2611 01ad 00       		.byte	0
 2612 01ae 11       		.uleb128 0x11
 2613 01af 01       		.uleb128 0x1
 2614 01b0 31       		.uleb128 0x31
 2615 01b1 13       		.uleb128 0x13
 2616 01b2 00       		.byte	0
 2617 01b3 00       		.byte	0
 2618 01b4 22       		.uleb128 0x22
 2619 01b5 2E       		.uleb128 0x2e
 2620 01b6 01       		.byte	0x1
 2621 01b7 3F       		.uleb128 0x3f
 2622 01b8 19       		.uleb128 0x19
ARM GAS  /tmp/ccGAfTzb.s 			page 47


 2623 01b9 03       		.uleb128 0x3
 2624 01ba 0E       		.uleb128 0xe
 2625 01bb 3A       		.uleb128 0x3a
 2626 01bc 0B       		.uleb128 0xb
 2627 01bd 3B       		.uleb128 0x3b
 2628 01be 0B       		.uleb128 0xb
 2629 01bf 27       		.uleb128 0x27
 2630 01c0 19       		.uleb128 0x19
 2631 01c1 49       		.uleb128 0x49
 2632 01c2 13       		.uleb128 0x13
 2633 01c3 11       		.uleb128 0x11
 2634 01c4 01       		.uleb128 0x1
 2635 01c5 12       		.uleb128 0x12
 2636 01c6 06       		.uleb128 0x6
 2637 01c7 40       		.uleb128 0x40
 2638 01c8 18       		.uleb128 0x18
 2639 01c9 9742     		.uleb128 0x2117
 2640 01cb 19       		.uleb128 0x19
 2641 01cc 01       		.uleb128 0x1
 2642 01cd 13       		.uleb128 0x13
 2643 01ce 00       		.byte	0
 2644 01cf 00       		.byte	0
 2645 01d0 23       		.uleb128 0x23
 2646 01d1 34       		.uleb128 0x34
 2647 01d2 00       		.byte	0
 2648 01d3 03       		.uleb128 0x3
 2649 01d4 08       		.uleb128 0x8
 2650 01d5 3A       		.uleb128 0x3a
 2651 01d6 0B       		.uleb128 0xb
 2652 01d7 3B       		.uleb128 0x3b
 2653 01d8 0B       		.uleb128 0xb
 2654 01d9 49       		.uleb128 0x49
 2655 01da 13       		.uleb128 0x13
 2656 01db 02       		.uleb128 0x2
 2657 01dc 17       		.uleb128 0x17
 2658 01dd 00       		.byte	0
 2659 01de 00       		.byte	0
 2660 01df 24       		.uleb128 0x24
 2661 01e0 0B       		.uleb128 0xb
 2662 01e1 01       		.byte	0x1
 2663 01e2 11       		.uleb128 0x11
 2664 01e3 01       		.uleb128 0x1
 2665 01e4 12       		.uleb128 0x12
 2666 01e5 06       		.uleb128 0x6
 2667 01e6 01       		.uleb128 0x1
 2668 01e7 13       		.uleb128 0x13
 2669 01e8 00       		.byte	0
 2670 01e9 00       		.byte	0
 2671 01ea 25       		.uleb128 0x25
 2672 01eb 898201   		.uleb128 0x4109
 2673 01ee 01       		.byte	0x1
 2674 01ef 11       		.uleb128 0x11
 2675 01f0 01       		.uleb128 0x1
 2676 01f1 00       		.byte	0
 2677 01f2 00       		.byte	0
 2678 01f3 26       		.uleb128 0x26
 2679 01f4 898201   		.uleb128 0x4109
ARM GAS  /tmp/ccGAfTzb.s 			page 48


 2680 01f7 01       		.byte	0x1
 2681 01f8 11       		.uleb128 0x11
 2682 01f9 01       		.uleb128 0x1
 2683 01fa 9342     		.uleb128 0x2113
 2684 01fc 18       		.uleb128 0x18
 2685 01fd 01       		.uleb128 0x1
 2686 01fe 13       		.uleb128 0x13
 2687 01ff 00       		.byte	0
 2688 0200 00       		.byte	0
 2689 0201 27       		.uleb128 0x27
 2690 0202 2E       		.uleb128 0x2e
 2691 0203 01       		.byte	0x1
 2692 0204 3F       		.uleb128 0x3f
 2693 0205 19       		.uleb128 0x19
 2694 0206 03       		.uleb128 0x3
 2695 0207 0E       		.uleb128 0xe
 2696 0208 3A       		.uleb128 0x3a
 2697 0209 0B       		.uleb128 0xb
 2698 020a 3B       		.uleb128 0x3b
 2699 020b 05       		.uleb128 0x5
 2700 020c 27       		.uleb128 0x27
 2701 020d 19       		.uleb128 0x19
 2702 020e 11       		.uleb128 0x11
 2703 020f 01       		.uleb128 0x1
 2704 0210 12       		.uleb128 0x12
 2705 0211 06       		.uleb128 0x6
 2706 0212 40       		.uleb128 0x40
 2707 0213 18       		.uleb128 0x18
 2708 0214 9742     		.uleb128 0x2117
 2709 0216 19       		.uleb128 0x19
 2710 0217 01       		.uleb128 0x1
 2711 0218 13       		.uleb128 0x13
 2712 0219 00       		.byte	0
 2713 021a 00       		.byte	0
 2714 021b 28       		.uleb128 0x28
 2715 021c 05       		.uleb128 0x5
 2716 021d 00       		.byte	0
 2717 021e 03       		.uleb128 0x3
 2718 021f 08       		.uleb128 0x8
 2719 0220 3A       		.uleb128 0x3a
 2720 0221 0B       		.uleb128 0xb
 2721 0222 3B       		.uleb128 0x3b
 2722 0223 05       		.uleb128 0x5
 2723 0224 49       		.uleb128 0x49
 2724 0225 13       		.uleb128 0x13
 2725 0226 02       		.uleb128 0x2
 2726 0227 18       		.uleb128 0x18
 2727 0228 00       		.byte	0
 2728 0229 00       		.byte	0
 2729 022a 29       		.uleb128 0x29
 2730 022b 05       		.uleb128 0x5
 2731 022c 00       		.byte	0
 2732 022d 03       		.uleb128 0x3
 2733 022e 08       		.uleb128 0x8
 2734 022f 3A       		.uleb128 0x3a
 2735 0230 0B       		.uleb128 0xb
 2736 0231 3B       		.uleb128 0x3b
ARM GAS  /tmp/ccGAfTzb.s 			page 49


 2737 0232 05       		.uleb128 0x5
 2738 0233 49       		.uleb128 0x49
 2739 0234 13       		.uleb128 0x13
 2740 0235 02       		.uleb128 0x2
 2741 0236 17       		.uleb128 0x17
 2742 0237 00       		.byte	0
 2743 0238 00       		.byte	0
 2744 0239 2A       		.uleb128 0x2a
 2745 023a 05       		.uleb128 0x5
 2746 023b 00       		.byte	0
 2747 023c 03       		.uleb128 0x3
 2748 023d 0E       		.uleb128 0xe
 2749 023e 3A       		.uleb128 0x3a
 2750 023f 0B       		.uleb128 0xb
 2751 0240 3B       		.uleb128 0x3b
 2752 0241 05       		.uleb128 0x5
 2753 0242 49       		.uleb128 0x49
 2754 0243 13       		.uleb128 0x13
 2755 0244 02       		.uleb128 0x2
 2756 0245 18       		.uleb128 0x18
 2757 0246 00       		.byte	0
 2758 0247 00       		.byte	0
 2759 0248 2B       		.uleb128 0x2b
 2760 0249 05       		.uleb128 0x5
 2761 024a 00       		.byte	0
 2762 024b 03       		.uleb128 0x3
 2763 024c 0E       		.uleb128 0xe
 2764 024d 3A       		.uleb128 0x3a
 2765 024e 0B       		.uleb128 0xb
 2766 024f 3B       		.uleb128 0x3b
 2767 0250 05       		.uleb128 0x5
 2768 0251 49       		.uleb128 0x49
 2769 0252 13       		.uleb128 0x13
 2770 0253 02       		.uleb128 0x2
 2771 0254 17       		.uleb128 0x17
 2772 0255 00       		.byte	0
 2773 0256 00       		.byte	0
 2774 0257 2C       		.uleb128 0x2c
 2775 0258 1D       		.uleb128 0x1d
 2776 0259 01       		.byte	0x1
 2777 025a 31       		.uleb128 0x31
 2778 025b 13       		.uleb128 0x13
 2779 025c 11       		.uleb128 0x11
 2780 025d 01       		.uleb128 0x1
 2781 025e 12       		.uleb128 0x12
 2782 025f 06       		.uleb128 0x6
 2783 0260 58       		.uleb128 0x58
 2784 0261 0B       		.uleb128 0xb
 2785 0262 59       		.uleb128 0x59
 2786 0263 05       		.uleb128 0x5
 2787 0264 01       		.uleb128 0x1
 2788 0265 13       		.uleb128 0x13
 2789 0266 00       		.byte	0
 2790 0267 00       		.byte	0
 2791 0268 2D       		.uleb128 0x2d
 2792 0269 2E       		.uleb128 0x2e
 2793 026a 01       		.byte	0x1
ARM GAS  /tmp/ccGAfTzb.s 			page 50


 2794 026b 3F       		.uleb128 0x3f
 2795 026c 19       		.uleb128 0x19
 2796 026d 03       		.uleb128 0x3
 2797 026e 0E       		.uleb128 0xe
 2798 026f 3A       		.uleb128 0x3a
 2799 0270 0B       		.uleb128 0xb
 2800 0271 3B       		.uleb128 0x3b
 2801 0272 05       		.uleb128 0x5
 2802 0273 27       		.uleb128 0x27
 2803 0274 19       		.uleb128 0x19
 2804 0275 49       		.uleb128 0x49
 2805 0276 13       		.uleb128 0x13
 2806 0277 11       		.uleb128 0x11
 2807 0278 01       		.uleb128 0x1
 2808 0279 12       		.uleb128 0x12
 2809 027a 06       		.uleb128 0x6
 2810 027b 40       		.uleb128 0x40
 2811 027c 18       		.uleb128 0x18
 2812 027d 9742     		.uleb128 0x2117
 2813 027f 19       		.uleb128 0x19
 2814 0280 01       		.uleb128 0x1
 2815 0281 13       		.uleb128 0x13
 2816 0282 00       		.byte	0
 2817 0283 00       		.byte	0
 2818 0284 2E       		.uleb128 0x2e
 2819 0285 34       		.uleb128 0x34
 2820 0286 00       		.byte	0
 2821 0287 03       		.uleb128 0x3
 2822 0288 08       		.uleb128 0x8
 2823 0289 3A       		.uleb128 0x3a
 2824 028a 0B       		.uleb128 0xb
 2825 028b 3B       		.uleb128 0x3b
 2826 028c 05       		.uleb128 0x5
 2827 028d 49       		.uleb128 0x49
 2828 028e 13       		.uleb128 0x13
 2829 028f 02       		.uleb128 0x2
 2830 0290 17       		.uleb128 0x17
 2831 0291 00       		.byte	0
 2832 0292 00       		.byte	0
 2833 0293 2F       		.uleb128 0x2f
 2834 0294 898201   		.uleb128 0x4109
 2835 0297 01       		.byte	0x1
 2836 0298 11       		.uleb128 0x11
 2837 0299 01       		.uleb128 0x1
 2838 029a 31       		.uleb128 0x31
 2839 029b 13       		.uleb128 0x13
 2840 029c 01       		.uleb128 0x1
 2841 029d 13       		.uleb128 0x13
 2842 029e 00       		.byte	0
 2843 029f 00       		.byte	0
 2844 02a0 30       		.uleb128 0x30
 2845 02a1 898201   		.uleb128 0x4109
 2846 02a4 01       		.byte	0x1
 2847 02a5 11       		.uleb128 0x11
 2848 02a6 01       		.uleb128 0x1
 2849 02a7 9342     		.uleb128 0x2113
 2850 02a9 18       		.uleb128 0x18
ARM GAS  /tmp/ccGAfTzb.s 			page 51


 2851 02aa 00       		.byte	0
 2852 02ab 00       		.byte	0
 2853 02ac 31       		.uleb128 0x31
 2854 02ad 34       		.uleb128 0x34
 2855 02ae 00       		.byte	0
 2856 02af 03       		.uleb128 0x3
 2857 02b0 0E       		.uleb128 0xe
 2858 02b1 3A       		.uleb128 0x3a
 2859 02b2 0B       		.uleb128 0xb
 2860 02b3 3B       		.uleb128 0x3b
 2861 02b4 0B       		.uleb128 0xb
 2862 02b5 49       		.uleb128 0x49
 2863 02b6 13       		.uleb128 0x13
 2864 02b7 3F       		.uleb128 0x3f
 2865 02b8 19       		.uleb128 0x19
 2866 02b9 3C       		.uleb128 0x3c
 2867 02ba 19       		.uleb128 0x19
 2868 02bb 00       		.byte	0
 2869 02bc 00       		.byte	0
 2870 02bd 32       		.uleb128 0x32
 2871 02be 2E       		.uleb128 0x2e
 2872 02bf 01       		.byte	0x1
 2873 02c0 3F       		.uleb128 0x3f
 2874 02c1 19       		.uleb128 0x19
 2875 02c2 03       		.uleb128 0x3
 2876 02c3 0E       		.uleb128 0xe
 2877 02c4 3A       		.uleb128 0x3a
 2878 02c5 0B       		.uleb128 0xb
 2879 02c6 3B       		.uleb128 0x3b
 2880 02c7 0B       		.uleb128 0xb
 2881 02c8 27       		.uleb128 0x27
 2882 02c9 19       		.uleb128 0x19
 2883 02ca 49       		.uleb128 0x49
 2884 02cb 13       		.uleb128 0x13
 2885 02cc 3C       		.uleb128 0x3c
 2886 02cd 19       		.uleb128 0x19
 2887 02ce 01       		.uleb128 0x1
 2888 02cf 13       		.uleb128 0x13
 2889 02d0 00       		.byte	0
 2890 02d1 00       		.byte	0
 2891 02d2 33       		.uleb128 0x33
 2892 02d3 2E       		.uleb128 0x2e
 2893 02d4 01       		.byte	0x1
 2894 02d5 3F       		.uleb128 0x3f
 2895 02d6 19       		.uleb128 0x19
 2896 02d7 03       		.uleb128 0x3
 2897 02d8 0E       		.uleb128 0xe
 2898 02d9 3A       		.uleb128 0x3a
 2899 02da 0B       		.uleb128 0xb
 2900 02db 3B       		.uleb128 0x3b
 2901 02dc 0B       		.uleb128 0xb
 2902 02dd 27       		.uleb128 0x27
 2903 02de 19       		.uleb128 0x19
 2904 02df 49       		.uleb128 0x49
 2905 02e0 13       		.uleb128 0x13
 2906 02e1 3C       		.uleb128 0x3c
 2907 02e2 19       		.uleb128 0x19
ARM GAS  /tmp/ccGAfTzb.s 			page 52


 2908 02e3 00       		.byte	0
 2909 02e4 00       		.byte	0
 2910 02e5 00       		.byte	0
 2911              		.section	.debug_loc,"",%progbits
 2912              	.Ldebug_loc0:
 2913              	.LLST0:
 2914 0000 00000000 		.4byte	.LVL0
 2915 0004 18000000 		.4byte	.LVL2
 2916 0008 0100     		.2byte	0x1
 2917 000a 50       		.byte	0x50
 2918 000b 18000000 		.4byte	.LVL2
 2919 000f 1E000000 		.4byte	.LVL4
 2920 0013 0400     		.2byte	0x4
 2921 0015 F3       		.byte	0xf3
 2922 0016 01       		.uleb128 0x1
 2923 0017 50       		.byte	0x50
 2924 0018 9F       		.byte	0x9f
 2925 0019 1E000000 		.4byte	.LVL4
 2926 001d 20000000 		.4byte	.LVL5
 2927 0021 0100     		.2byte	0x1
 2928 0023 50       		.byte	0x50
 2929 0024 20000000 		.4byte	.LVL5
 2930 0028 28000000 		.4byte	.LFE7
 2931 002c 0400     		.2byte	0x4
 2932 002e F3       		.byte	0xf3
 2933 002f 01       		.uleb128 0x1
 2934 0030 50       		.byte	0x50
 2935 0031 9F       		.byte	0x9f
 2936 0032 00000000 		.4byte	0
 2937 0036 00000000 		.4byte	0
 2938              	.LLST1:
 2939 003a 00000000 		.4byte	.LVL0
 2940 003e 1B000000 		.4byte	.LVL3-1
 2941 0042 0100     		.2byte	0x1
 2942 0044 51       		.byte	0x51
 2943 0045 1B000000 		.4byte	.LVL3-1
 2944 0049 1E000000 		.4byte	.LVL4
 2945 004d 0400     		.2byte	0x4
 2946 004f F3       		.byte	0xf3
 2947 0050 01       		.uleb128 0x1
 2948 0051 51       		.byte	0x51
 2949 0052 9F       		.byte	0x9f
 2950 0053 1E000000 		.4byte	.LVL4
 2951 0057 22000000 		.4byte	.LVL6
 2952 005b 0100     		.2byte	0x1
 2953 005d 51       		.byte	0x51
 2954 005e 22000000 		.4byte	.LVL6
 2955 0062 28000000 		.4byte	.LFE7
 2956 0066 0400     		.2byte	0x4
 2957 0068 F3       		.byte	0xf3
 2958 0069 01       		.uleb128 0x1
 2959 006a 51       		.byte	0x51
 2960 006b 9F       		.byte	0x9f
 2961 006c 00000000 		.4byte	0
 2962 0070 00000000 		.4byte	0
 2963              	.LLST2:
 2964 0074 0C000000 		.4byte	.LVL1
ARM GAS  /tmp/ccGAfTzb.s 			page 53


 2965 0078 18000000 		.4byte	.LVL2
 2966 007c 0100     		.2byte	0x1
 2967 007e 50       		.byte	0x50
 2968 007f 18000000 		.4byte	.LVL2
 2969 0083 1E000000 		.4byte	.LVL4
 2970 0087 0400     		.2byte	0x4
 2971 0089 F3       		.byte	0xf3
 2972 008a 01       		.uleb128 0x1
 2973 008b 50       		.byte	0x50
 2974 008c 9F       		.byte	0x9f
 2975 008d 00000000 		.4byte	0
 2976 0091 00000000 		.4byte	0
 2977              	.LLST3:
 2978 0095 0C000000 		.4byte	.LVL1
 2979 0099 1B000000 		.4byte	.LVL3-1
 2980 009d 0100     		.2byte	0x1
 2981 009f 53       		.byte	0x53
 2982 00a0 00000000 		.4byte	0
 2983 00a4 00000000 		.4byte	0
 2984              	.LLST4:
 2985 00a8 00000000 		.4byte	.LVL7
 2986 00ac 12000000 		.4byte	.LVL8
 2987 00b0 0100     		.2byte	0x1
 2988 00b2 51       		.byte	0x51
 2989 00b3 12000000 		.4byte	.LVL8
 2990 00b7 1C000000 		.4byte	.LFE8
 2991 00bb 0200     		.2byte	0x2
 2992 00bd 70       		.byte	0x70
 2993 00be 14       		.sleb128 20
 2994 00bf 00000000 		.4byte	0
 2995 00c3 00000000 		.4byte	0
 2996              	.LLST5:
 2997 00c7 00000000 		.4byte	.LVL7
 2998 00cb 18000000 		.4byte	.LVL9
 2999 00cf 0100     		.2byte	0x1
 3000 00d1 53       		.byte	0x53
 3001 00d2 18000000 		.4byte	.LVL9
 3002 00d6 1C000000 		.4byte	.LFE8
 3003 00da 0200     		.2byte	0x2
 3004 00dc 70       		.byte	0x70
 3005 00dd 1C       		.sleb128 28
 3006 00de 00000000 		.4byte	0
 3007 00e2 00000000 		.4byte	0
 3008              	.LLST6:
 3009 00e6 00000000 		.4byte	.LVL10
 3010 00ea 10000000 		.4byte	.LVL11
 3011 00ee 0100     		.2byte	0x1
 3012 00f0 50       		.byte	0x50
 3013 00f1 10000000 		.4byte	.LVL11
 3014 00f5 2C000000 		.4byte	.LVL15
 3015 00f9 0100     		.2byte	0x1
 3016 00fb 54       		.byte	0x54
 3017 00fc 2C000000 		.4byte	.LVL15
 3018 0100 2C000000 		.4byte	.LVL16
 3019 0104 0100     		.2byte	0x1
 3020 0106 55       		.byte	0x55
 3021 0107 2C000000 		.4byte	.LVL16
ARM GAS  /tmp/ccGAfTzb.s 			page 54


 3022 010b 2E000000 		.4byte	.LFE9
 3023 010f 0400     		.2byte	0x4
 3024 0111 F3       		.byte	0xf3
 3025 0112 01       		.uleb128 0x1
 3026 0113 50       		.byte	0x50
 3027 0114 9F       		.byte	0x9f
 3028 0115 00000000 		.4byte	0
 3029 0119 00000000 		.4byte	0
 3030              	.LLST7:
 3031 011d 1A000000 		.4byte	.LVL12
 3032 0121 2C000000 		.4byte	.LVL14
 3033 0125 0100     		.2byte	0x1
 3034 0127 54       		.byte	0x54
 3035 0128 00000000 		.4byte	0
 3036 012c 00000000 		.4byte	0
 3037              	.LLST8:
 3038 0130 1A000000 		.4byte	.LVL12
 3039 0134 23000000 		.4byte	.LVL13-1
 3040 0138 0100     		.2byte	0x1
 3041 013a 50       		.byte	0x50
 3042 013b 00000000 		.4byte	0
 3043 013f 00000000 		.4byte	0
 3044              	.LLST9:
 3045 0143 00000000 		.4byte	.LVL17
 3046 0147 24000000 		.4byte	.LVL19
 3047 014b 0100     		.2byte	0x1
 3048 014d 50       		.byte	0x50
 3049 014e 24000000 		.4byte	.LVL19
 3050 0152 27000000 		.4byte	.LVL20-1
 3051 0156 0200     		.2byte	0x2
 3052 0158 72       		.byte	0x72
 3053 0159 04       		.sleb128 4
 3054 015a 27000000 		.4byte	.LVL20-1
 3055 015e 30000000 		.4byte	.LVL21
 3056 0162 0400     		.2byte	0x4
 3057 0164 F3       		.byte	0xf3
 3058 0165 01       		.uleb128 0x1
 3059 0166 50       		.byte	0x50
 3060 0167 9F       		.byte	0x9f
 3061 0168 30000000 		.4byte	.LVL21
 3062 016c 32000000 		.4byte	.LVL22
 3063 0170 0100     		.2byte	0x1
 3064 0172 50       		.byte	0x50
 3065 0173 32000000 		.4byte	.LVL22
 3066 0177 36000000 		.4byte	.LVL23
 3067 017b 0400     		.2byte	0x4
 3068 017d F3       		.byte	0xf3
 3069 017e 01       		.uleb128 0x1
 3070 017f 50       		.byte	0x50
 3071 0180 9F       		.byte	0x9f
 3072 0181 36000000 		.4byte	.LVL23
 3073 0185 38000000 		.4byte	.LVL24
 3074 0189 0100     		.2byte	0x1
 3075 018b 50       		.byte	0x50
 3076 018c 38000000 		.4byte	.LVL24
 3077 0190 3A000000 		.4byte	.LVL25
 3078 0194 0400     		.2byte	0x4
ARM GAS  /tmp/ccGAfTzb.s 			page 55


 3079 0196 F3       		.byte	0xf3
 3080 0197 01       		.uleb128 0x1
 3081 0198 50       		.byte	0x50
 3082 0199 9F       		.byte	0x9f
 3083 019a 3A000000 		.4byte	.LVL25
 3084 019e 50000000 		.4byte	.LVL26
 3085 01a2 0100     		.2byte	0x1
 3086 01a4 50       		.byte	0x50
 3087 01a5 50000000 		.4byte	.LVL26
 3088 01a9 52000000 		.4byte	.LFE10
 3089 01ad 0400     		.2byte	0x4
 3090 01af F3       		.byte	0xf3
 3091 01b0 01       		.uleb128 0x1
 3092 01b1 50       		.byte	0x50
 3093 01b2 9F       		.byte	0x9f
 3094 01b3 00000000 		.4byte	0
 3095 01b7 00000000 		.4byte	0
 3096              	.LLST10:
 3097 01bb 00000000 		.4byte	.LVL17
 3098 01bf 27000000 		.4byte	.LVL20-1
 3099 01c3 0100     		.2byte	0x1
 3100 01c5 51       		.byte	0x51
 3101 01c6 27000000 		.4byte	.LVL20-1
 3102 01ca 30000000 		.4byte	.LVL21
 3103 01ce 0400     		.2byte	0x4
 3104 01d0 F3       		.byte	0xf3
 3105 01d1 01       		.uleb128 0x1
 3106 01d2 51       		.byte	0x51
 3107 01d3 9F       		.byte	0x9f
 3108 01d4 30000000 		.4byte	.LVL21
 3109 01d8 50000000 		.4byte	.LVL26
 3110 01dc 0100     		.2byte	0x1
 3111 01de 51       		.byte	0x51
 3112 01df 50000000 		.4byte	.LVL26
 3113 01e3 52000000 		.4byte	.LFE10
 3114 01e7 0400     		.2byte	0x4
 3115 01e9 F3       		.byte	0xf3
 3116 01ea 01       		.uleb128 0x1
 3117 01eb 51       		.byte	0x51
 3118 01ec 9F       		.byte	0x9f
 3119 01ed 00000000 		.4byte	0
 3120 01f1 00000000 		.4byte	0
 3121              	.LLST11:
 3122 01f5 1C000000 		.4byte	.LVL18
 3123 01f9 24000000 		.4byte	.LVL19
 3124 01fd 0100     		.2byte	0x1
 3125 01ff 50       		.byte	0x50
 3126 0200 24000000 		.4byte	.LVL19
 3127 0204 27000000 		.4byte	.LVL20-1
 3128 0208 0200     		.2byte	0x2
 3129 020a 72       		.byte	0x72
 3130 020b 04       		.sleb128 4
 3131 020c 27000000 		.4byte	.LVL20-1
 3132 0210 30000000 		.4byte	.LVL21
 3133 0214 0400     		.2byte	0x4
 3134 0216 F3       		.byte	0xf3
 3135 0217 01       		.uleb128 0x1
ARM GAS  /tmp/ccGAfTzb.s 			page 56


 3136 0218 50       		.byte	0x50
 3137 0219 9F       		.byte	0x9f
 3138 021a 00000000 		.4byte	0
 3139 021e 00000000 		.4byte	0
 3140              	.LLST12:
 3141 0222 1C000000 		.4byte	.LVL18
 3142 0226 27000000 		.4byte	.LVL20-1
 3143 022a 0100     		.2byte	0x1
 3144 022c 53       		.byte	0x53
 3145 022d 00000000 		.4byte	0
 3146 0231 00000000 		.4byte	0
 3147              	.LLST13:
 3148 0235 00000000 		.4byte	.LVL27
 3149 0239 0F000000 		.4byte	.LVL28-1
 3150 023d 0100     		.2byte	0x1
 3151 023f 50       		.byte	0x50
 3152 0240 0F000000 		.4byte	.LVL28-1
 3153 0244 40000000 		.4byte	.LVL36
 3154 0248 0100     		.2byte	0x1
 3155 024a 54       		.byte	0x54
 3156 024b 40000000 		.4byte	.LVL36
 3157 024f 42000000 		.4byte	.LFE11
 3158 0253 0400     		.2byte	0x4
 3159 0255 F3       		.byte	0xf3
 3160 0256 01       		.uleb128 0x1
 3161 0257 50       		.byte	0x50
 3162 0258 9F       		.byte	0x9f
 3163 0259 00000000 		.4byte	0
 3164 025d 00000000 		.4byte	0
 3165              	.LLST14:
 3166 0261 00000000 		.4byte	.LVL27
 3167 0265 0F000000 		.4byte	.LVL28-1
 3168 0269 0100     		.2byte	0x1
 3169 026b 51       		.byte	0x51
 3170 026c 0F000000 		.4byte	.LVL28-1
 3171 0270 40000000 		.4byte	.LVL37
 3172 0274 0100     		.2byte	0x1
 3173 0276 55       		.byte	0x55
 3174 0277 40000000 		.4byte	.LVL37
 3175 027b 42000000 		.4byte	.LFE11
 3176 027f 0400     		.2byte	0x4
 3177 0281 F3       		.byte	0xf3
 3178 0282 01       		.uleb128 0x1
 3179 0283 51       		.byte	0x51
 3180 0284 9F       		.byte	0x9f
 3181 0285 00000000 		.4byte	0
 3182 0289 00000000 		.4byte	0
 3183              	.LLST15:
 3184 028d 34000000 		.4byte	.LVL31
 3185 0291 36000000 		.4byte	.LVL32
 3186 0295 0200     		.2byte	0x2
 3187 0297 72       		.byte	0x72
 3188 0298 00       		.sleb128 0
 3189 0299 36000000 		.4byte	.LVL32
 3190 029d 3C000000 		.4byte	.LVL33
 3191 02a1 0200     		.2byte	0x2
 3192 02a3 73       		.byte	0x73
ARM GAS  /tmp/ccGAfTzb.s 			page 57


 3193 02a4 7F       		.sleb128 -1
 3194 02a5 3C000000 		.4byte	.LVL33
 3195 02a9 3E000000 		.4byte	.LVL34
 3196 02ad 0500     		.2byte	0x5
 3197 02af 74       		.byte	0x74
 3198 02b0 18       		.sleb128 24
 3199 02b1 06       		.byte	0x6
 3200 02b2 31       		.byte	0x31
 3201 02b3 1C       		.byte	0x1c
 3202 02b4 3E000000 		.4byte	.LVL34
 3203 02b8 40000000 		.4byte	.LVL35
 3204 02bc 0100     		.2byte	0x1
 3205 02be 50       		.byte	0x50
 3206 02bf 00000000 		.4byte	0
 3207 02c3 00000000 		.4byte	0
 3208              	.LLST16:
 3209 02c7 1A000000 		.4byte	.LVL29
 3210 02cb 22000000 		.4byte	.LVL30
 3211 02cf 0100     		.2byte	0x1
 3212 02d1 50       		.byte	0x50
 3213 02d2 00000000 		.4byte	0
 3214 02d6 00000000 		.4byte	0
 3215              	.LLST17:
 3216 02da 00000000 		.4byte	.LVL38
 3217 02de 1A000000 		.4byte	.LVL41
 3218 02e2 0100     		.2byte	0x1
 3219 02e4 50       		.byte	0x50
 3220 02e5 1A000000 		.4byte	.LVL41
 3221 02e9 66000000 		.4byte	.LVL48
 3222 02ed 0100     		.2byte	0x1
 3223 02ef 54       		.byte	0x54
 3224 02f0 66000000 		.4byte	.LVL48
 3225 02f4 70000000 		.4byte	.LFE12
 3226 02f8 0400     		.2byte	0x4
 3227 02fa F3       		.byte	0xf3
 3228 02fb 01       		.uleb128 0x1
 3229 02fc 50       		.byte	0x50
 3230 02fd 9F       		.byte	0x9f
 3231 02fe 00000000 		.4byte	0
 3232 0302 00000000 		.4byte	0
 3233              	.LLST18:
 3234 0306 00000000 		.4byte	.LVL38
 3235 030a 1A000000 		.4byte	.LVL41
 3236 030e 0100     		.2byte	0x1
 3237 0310 51       		.byte	0x51
 3238 0311 1A000000 		.4byte	.LVL41
 3239 0315 40000000 		.4byte	.LVL45
 3240 0319 0600     		.2byte	0x6
 3241 031b 7A       		.byte	0x7a
 3242 031c 00       		.sleb128 0
 3243 031d 77       		.byte	0x77
 3244 031e 00       		.sleb128 0
 3245 031f 22       		.byte	0x22
 3246 0320 9F       		.byte	0x9f
 3247 0321 40000000 		.4byte	.LVL45
 3248 0325 5C000000 		.4byte	.LVL46
 3249 0329 0800     		.2byte	0x8
ARM GAS  /tmp/ccGAfTzb.s 			page 58


 3250 032b 7A       		.byte	0x7a
 3251 032c 00       		.sleb128 0
 3252 032d 77       		.byte	0x77
 3253 032e 00       		.sleb128 0
 3254 032f 22       		.byte	0x22
 3255 0330 23       		.byte	0x23
 3256 0331 01       		.uleb128 0x1
 3257 0332 9F       		.byte	0x9f
 3258 0333 5C000000 		.4byte	.LVL46
 3259 0337 64000000 		.4byte	.LVL47
 3260 033b 0600     		.2byte	0x6
 3261 033d 7A       		.byte	0x7a
 3262 033e 00       		.sleb128 0
 3263 033f 77       		.byte	0x77
 3264 0340 00       		.sleb128 0
 3265 0341 22       		.byte	0x22
 3266 0342 9F       		.byte	0x9f
 3267 0343 00000000 		.4byte	0
 3268 0347 00000000 		.4byte	0
 3269              	.LLST19:
 3270 034b 00000000 		.4byte	.LVL38
 3271 034f 14000000 		.4byte	.LVL39
 3272 0353 0100     		.2byte	0x1
 3273 0355 52       		.byte	0x52
 3274 0356 14000000 		.4byte	.LVL39
 3275 035a 1A000000 		.4byte	.LVL41
 3276 035e 0100     		.2byte	0x1
 3277 0360 59       		.byte	0x59
 3278 0361 1A000000 		.4byte	.LVL41
 3279 0365 64000000 		.4byte	.LVL47
 3280 0369 0600     		.2byte	0x6
 3281 036b 79       		.byte	0x79
 3282 036c 00       		.sleb128 0
 3283 036d 77       		.byte	0x77
 3284 036e 00       		.sleb128 0
 3285 036f 1C       		.byte	0x1c
 3286 0370 9F       		.byte	0x9f
 3287 0371 00000000 		.4byte	0
 3288 0375 00000000 		.4byte	0
 3289              	.LLST20:
 3290 0379 00000000 		.4byte	.LVL38
 3291 037d 1A000000 		.4byte	.LVL41
 3292 0381 0100     		.2byte	0x1
 3293 0383 53       		.byte	0x53
 3294 0384 1A000000 		.4byte	.LVL41
 3295 0388 66000000 		.4byte	.LVL49
 3296 038c 0100     		.2byte	0x1
 3297 038e 56       		.byte	0x56
 3298 038f 66000000 		.4byte	.LVL49
 3299 0393 70000000 		.4byte	.LFE12
 3300 0397 0400     		.2byte	0x4
 3301 0399 F3       		.byte	0xf3
 3302 039a 01       		.uleb128 0x1
 3303 039b 53       		.byte	0x53
 3304 039c 9F       		.byte	0x9f
 3305 039d 00000000 		.4byte	0
 3306 03a1 00000000 		.4byte	0
ARM GAS  /tmp/ccGAfTzb.s 			page 59


 3307              	.LLST21:
 3308 03a5 16000000 		.4byte	.LVL40
 3309 03a9 1A000000 		.4byte	.LVL41
 3310 03ad 0100     		.2byte	0x1
 3311 03af 52       		.byte	0x52
 3312 03b0 1A000000 		.4byte	.LVL41
 3313 03b4 20000000 		.4byte	.LVL42
 3314 03b8 0100     		.2byte	0x1
 3315 03ba 58       		.byte	0x58
 3316 03bb 20000000 		.4byte	.LVL42
 3317 03bf 23000000 		.4byte	.LVL43-1
 3318 03c3 0100     		.2byte	0x1
 3319 03c5 53       		.byte	0x53
 3320 03c6 23000000 		.4byte	.LVL43-1
 3321 03ca 66000000 		.4byte	.LVL51
 3322 03ce 0100     		.2byte	0x1
 3323 03d0 58       		.byte	0x58
 3324 03d1 00000000 		.4byte	0
 3325 03d5 00000000 		.4byte	0
 3326              	.LLST22:
 3327 03d9 16000000 		.4byte	.LVL40
 3328 03dd 1A000000 		.4byte	.LVL41
 3329 03e1 0200     		.2byte	0x2
 3330 03e3 30       		.byte	0x30
 3331 03e4 9F       		.byte	0x9f
 3332 03e5 1A000000 		.4byte	.LVL41
 3333 03e9 66000000 		.4byte	.LVL50
 3334 03ed 0100     		.2byte	0x1
 3335 03ef 57       		.byte	0x57
 3336 03f0 66000000 		.4byte	.LVL50
 3337 03f4 70000000 		.4byte	.LFE12
 3338 03f8 0100     		.2byte	0x1
 3339 03fa 50       		.byte	0x50
 3340 03fb 00000000 		.4byte	0
 3341 03ff 00000000 		.4byte	0
 3342              	.LLST23:
 3343 0403 00000000 		.4byte	.LVL52
 3344 0407 0E000000 		.4byte	.LVL53
 3345 040b 0100     		.2byte	0x1
 3346 040d 51       		.byte	0x51
 3347 040e 0E000000 		.4byte	.LVL53
 3348 0412 18000000 		.4byte	.LFE13
 3349 0416 0200     		.2byte	0x2
 3350 0418 70       		.byte	0x70
 3351 0419 14       		.sleb128 20
 3352 041a 00000000 		.4byte	0
 3353 041e 00000000 		.4byte	0
 3354              	.LLST24:
 3355 0422 00000000 		.4byte	.LVL52
 3356 0426 14000000 		.4byte	.LVL54
 3357 042a 0100     		.2byte	0x1
 3358 042c 53       		.byte	0x53
 3359 042d 14000000 		.4byte	.LVL54
 3360 0431 18000000 		.4byte	.LFE13
 3361 0435 0200     		.2byte	0x2
 3362 0437 70       		.byte	0x70
 3363 0438 1C       		.sleb128 28
ARM GAS  /tmp/ccGAfTzb.s 			page 60


 3364 0439 00000000 		.4byte	0
 3365 043d 00000000 		.4byte	0
 3366              	.LLST25:
 3367 0441 00000000 		.4byte	.LVL55
 3368 0445 12000000 		.4byte	.LVL56
 3369 0449 0100     		.2byte	0x1
 3370 044b 50       		.byte	0x50
 3371 044c 12000000 		.4byte	.LVL56
 3372 0450 2E000000 		.4byte	.LVL60
 3373 0454 0100     		.2byte	0x1
 3374 0456 54       		.byte	0x54
 3375 0457 2E000000 		.4byte	.LVL60
 3376 045b 2E000000 		.4byte	.LVL61
 3377 045f 0100     		.2byte	0x1
 3378 0461 55       		.byte	0x55
 3379 0462 2E000000 		.4byte	.LVL61
 3380 0466 30000000 		.4byte	.LFE14
 3381 046a 0400     		.2byte	0x4
 3382 046c F3       		.byte	0xf3
 3383 046d 01       		.uleb128 0x1
 3384 046e 50       		.byte	0x50
 3385 046f 9F       		.byte	0x9f
 3386 0470 00000000 		.4byte	0
 3387 0474 00000000 		.4byte	0
 3388              	.LLST26:
 3389 0478 1C000000 		.4byte	.LVL57
 3390 047c 2E000000 		.4byte	.LVL59
 3391 0480 0100     		.2byte	0x1
 3392 0482 54       		.byte	0x54
 3393 0483 00000000 		.4byte	0
 3394 0487 00000000 		.4byte	0
 3395              	.LLST27:
 3396 048b 1C000000 		.4byte	.LVL57
 3397 048f 25000000 		.4byte	.LVL58-1
 3398 0493 0100     		.2byte	0x1
 3399 0495 50       		.byte	0x50
 3400 0496 00000000 		.4byte	0
 3401 049a 00000000 		.4byte	0
 3402              	.LLST28:
 3403 049e 00000000 		.4byte	.LVL62
 3404 04a2 0C000000 		.4byte	.LVL63
 3405 04a6 0100     		.2byte	0x1
 3406 04a8 50       		.byte	0x50
 3407 04a9 0C000000 		.4byte	.LVL63
 3408 04ad 48000000 		.4byte	.LVL67
 3409 04b1 0100     		.2byte	0x1
 3410 04b3 54       		.byte	0x54
 3411 04b4 48000000 		.4byte	.LVL67
 3412 04b8 4A000000 		.4byte	.LFE15
 3413 04bc 0400     		.2byte	0x4
 3414 04be F3       		.byte	0xf3
 3415 04bf 01       		.uleb128 0x1
 3416 04c0 50       		.byte	0x50
 3417 04c1 9F       		.byte	0x9f
 3418 04c2 00000000 		.4byte	0
 3419 04c6 00000000 		.4byte	0
 3420              	.LLST29:
ARM GAS  /tmp/ccGAfTzb.s 			page 61


 3421 04ca 00000000 		.4byte	.LVL62
 3422 04ce 0C000000 		.4byte	.LVL63
 3423 04d2 0100     		.2byte	0x1
 3424 04d4 51       		.byte	0x51
 3425 04d5 0C000000 		.4byte	.LVL63
 3426 04d9 4A000000 		.4byte	.LFE15
 3427 04dd 0400     		.2byte	0x4
 3428 04df F3       		.byte	0xf3
 3429 04e0 01       		.uleb128 0x1
 3430 04e1 51       		.byte	0x51
 3431 04e2 9F       		.byte	0x9f
 3432 04e3 00000000 		.4byte	0
 3433 04e7 00000000 		.4byte	0
 3434              	.LLST30:
 3435 04eb 00000000 		.4byte	.LVL62
 3436 04ef 0C000000 		.4byte	.LVL63
 3437 04f3 0100     		.2byte	0x1
 3438 04f5 52       		.byte	0x52
 3439 04f6 0C000000 		.4byte	.LVL63
 3440 04fa 48000000 		.4byte	.LVL68
 3441 04fe 0100     		.2byte	0x1
 3442 0500 55       		.byte	0x55
 3443 0501 48000000 		.4byte	.LVL68
 3444 0505 4A000000 		.4byte	.LFE15
 3445 0509 0400     		.2byte	0x4
 3446 050b F3       		.byte	0xf3
 3447 050c 01       		.uleb128 0x1
 3448 050d 52       		.byte	0x52
 3449 050e 9F       		.byte	0x9f
 3450 050f 00000000 		.4byte	0
 3451 0513 00000000 		.4byte	0
 3452              	.LLST31:
 3453 0517 14000000 		.4byte	.LVL64
 3454 051b 1C000000 		.4byte	.LVL65
 3455 051f 0100     		.2byte	0x1
 3456 0521 50       		.byte	0x50
 3457 0522 00000000 		.4byte	0
 3458 0526 00000000 		.4byte	0
 3459              	.LLST32:
 3460 052a 00000000 		.4byte	.LVL69
 3461 052e 24000000 		.4byte	.LVL73
 3462 0532 0100     		.2byte	0x1
 3463 0534 50       		.byte	0x50
 3464 0535 24000000 		.4byte	.LVL73
 3465 0539 27000000 		.4byte	.LVL74-1
 3466 053d 0200     		.2byte	0x2
 3467 053f 72       		.byte	0x72
 3468 0540 04       		.sleb128 4
 3469 0541 27000000 		.4byte	.LVL74-1
 3470 0545 30000000 		.4byte	.LVL76
 3471 0549 0400     		.2byte	0x4
 3472 054b F3       		.byte	0xf3
 3473 054c 01       		.uleb128 0x1
 3474 054d 50       		.byte	0x50
 3475 054e 9F       		.byte	0x9f
 3476 054f 30000000 		.4byte	.LVL76
 3477 0553 32000000 		.4byte	.LVL77
ARM GAS  /tmp/ccGAfTzb.s 			page 62


 3478 0557 0100     		.2byte	0x1
 3479 0559 50       		.byte	0x50
 3480 055a 32000000 		.4byte	.LVL77
 3481 055e 36000000 		.4byte	.LVL78
 3482 0562 0400     		.2byte	0x4
 3483 0564 F3       		.byte	0xf3
 3484 0565 01       		.uleb128 0x1
 3485 0566 50       		.byte	0x50
 3486 0567 9F       		.byte	0x9f
 3487 0568 36000000 		.4byte	.LVL78
 3488 056c 4A000000 		.4byte	.LVL81
 3489 0570 0100     		.2byte	0x1
 3490 0572 50       		.byte	0x50
 3491 0573 4A000000 		.4byte	.LVL81
 3492 0577 4C000000 		.4byte	.LFE16
 3493 057b 0400     		.2byte	0x4
 3494 057d F3       		.byte	0xf3
 3495 057e 01       		.uleb128 0x1
 3496 057f 50       		.byte	0x50
 3497 0580 9F       		.byte	0x9f
 3498 0581 00000000 		.4byte	0
 3499 0585 00000000 		.4byte	0
 3500              	.LLST33:
 3501 0589 12000000 		.4byte	.LVL70
 3502 058d 16000000 		.4byte	.LVL71
 3503 0591 0200     		.2byte	0x2
 3504 0593 72       		.byte	0x72
 3505 0594 7F       		.sleb128 -1
 3506 0595 16000000 		.4byte	.LVL71
 3507 0599 30000000 		.4byte	.LVL76
 3508 059d 0100     		.2byte	0x1
 3509 059f 54       		.byte	0x54
 3510 05a0 42000000 		.4byte	.LVL79
 3511 05a4 44000000 		.4byte	.LVL80
 3512 05a8 0200     		.2byte	0x2
 3513 05aa 73       		.byte	0x73
 3514 05ab 00       		.sleb128 0
 3515 05ac 44000000 		.4byte	.LVL80
 3516 05b0 4A000000 		.4byte	.LVL81
 3517 05b4 0200     		.2byte	0x2
 3518 05b6 72       		.byte	0x72
 3519 05b7 7F       		.sleb128 -1
 3520 05b8 00000000 		.4byte	0
 3521 05bc 00000000 		.4byte	0
 3522              	.LLST34:
 3523 05c0 1C000000 		.4byte	.LVL72
 3524 05c4 24000000 		.4byte	.LVL73
 3525 05c8 0100     		.2byte	0x1
 3526 05ca 50       		.byte	0x50
 3527 05cb 24000000 		.4byte	.LVL73
 3528 05cf 27000000 		.4byte	.LVL74-1
 3529 05d3 0200     		.2byte	0x2
 3530 05d5 72       		.byte	0x72
 3531 05d6 04       		.sleb128 4
 3532 05d7 27000000 		.4byte	.LVL74-1
 3533 05db 2C000000 		.4byte	.LVL75
 3534 05df 0400     		.2byte	0x4
ARM GAS  /tmp/ccGAfTzb.s 			page 63


 3535 05e1 F3       		.byte	0xf3
 3536 05e2 01       		.uleb128 0x1
 3537 05e3 50       		.byte	0x50
 3538 05e4 9F       		.byte	0x9f
 3539 05e5 00000000 		.4byte	0
 3540 05e9 00000000 		.4byte	0
 3541              	.LLST35:
 3542 05ed 1C000000 		.4byte	.LVL72
 3543 05f1 27000000 		.4byte	.LVL74-1
 3544 05f5 0100     		.2byte	0x1
 3545 05f7 53       		.byte	0x53
 3546 05f8 00000000 		.4byte	0
 3547 05fc 00000000 		.4byte	0
 3548              	.LLST36:
 3549 0600 00000000 		.4byte	.LVL82
 3550 0604 1E000000 		.4byte	.LVL86
 3551 0608 0100     		.2byte	0x1
 3552 060a 50       		.byte	0x50
 3553 060b 1E000000 		.4byte	.LVL86
 3554 060f 6E000000 		.4byte	.LVL95
 3555 0613 0100     		.2byte	0x1
 3556 0615 54       		.byte	0x54
 3557 0616 6E000000 		.4byte	.LVL95
 3558 061a 78000000 		.4byte	.LFE17
 3559 061e 0400     		.2byte	0x4
 3560 0620 F3       		.byte	0xf3
 3561 0621 01       		.uleb128 0x1
 3562 0622 50       		.byte	0x50
 3563 0623 9F       		.byte	0x9f
 3564 0624 00000000 		.4byte	0
 3565 0628 00000000 		.4byte	0
 3566              	.LLST37:
 3567 062c 00000000 		.4byte	.LVL82
 3568 0630 1E000000 		.4byte	.LVL86
 3569 0634 0100     		.2byte	0x1
 3570 0636 51       		.byte	0x51
 3571 0637 1E000000 		.4byte	.LVL86
 3572 063b 40000000 		.4byte	.LVL89
 3573 063f 0100     		.2byte	0x1
 3574 0641 57       		.byte	0x57
 3575 0642 40000000 		.4byte	.LVL89
 3576 0646 6C000000 		.4byte	.LVL94
 3577 064a 0100     		.2byte	0x1
 3578 064c 55       		.byte	0x55
 3579 064d 00000000 		.4byte	0
 3580 0651 00000000 		.4byte	0
 3581              	.LLST38:
 3582 0655 00000000 		.4byte	.LVL82
 3583 0659 14000000 		.4byte	.LVL83
 3584 065d 0100     		.2byte	0x1
 3585 065f 52       		.byte	0x52
 3586 0660 14000000 		.4byte	.LVL83
 3587 0664 6E000000 		.4byte	.LVL96
 3588 0668 0100     		.2byte	0x1
 3589 066a 56       		.byte	0x56
 3590 066b 00000000 		.4byte	0
 3591 066f 00000000 		.4byte	0
ARM GAS  /tmp/ccGAfTzb.s 			page 64


 3592              	.LLST39:
 3593 0673 00000000 		.4byte	.LVL82
 3594 0677 1A000000 		.4byte	.LVL85
 3595 067b 0100     		.2byte	0x1
 3596 067d 53       		.byte	0x53
 3597 067e 1A000000 		.4byte	.LVL85
 3598 0682 6E000000 		.4byte	.LVL99
 3599 0686 0100     		.2byte	0x1
 3600 0688 5A       		.byte	0x5a
 3601 0689 6E000000 		.4byte	.LVL99
 3602 068d 78000000 		.4byte	.LFE17
 3603 0691 0400     		.2byte	0x4
 3604 0693 F3       		.byte	0xf3
 3605 0694 01       		.uleb128 0x1
 3606 0695 53       		.byte	0x53
 3607 0696 9F       		.byte	0x9f
 3608 0697 00000000 		.4byte	0
 3609 069b 00000000 		.4byte	0
 3610              	.LLST40:
 3611 069f 16000000 		.4byte	.LVL84
 3612 06a3 1E000000 		.4byte	.LVL86
 3613 06a7 0100     		.2byte	0x1
 3614 06a9 52       		.byte	0x52
 3615 06aa 1E000000 		.4byte	.LVL86
 3616 06ae 56000000 		.4byte	.LVL90
 3617 06b2 0100     		.2byte	0x1
 3618 06b4 59       		.byte	0x59
 3619 06b5 56000000 		.4byte	.LVL90
 3620 06b9 59000000 		.4byte	.LVL91-1
 3621 06bd 0100     		.2byte	0x1
 3622 06bf 53       		.byte	0x53
 3623 06c0 59000000 		.4byte	.LVL91-1
 3624 06c4 6E000000 		.4byte	.LVL98
 3625 06c8 0100     		.2byte	0x1
 3626 06ca 59       		.byte	0x59
 3627 06cb 00000000 		.4byte	0
 3628 06cf 00000000 		.4byte	0
 3629              	.LLST41:
 3630 06d3 16000000 		.4byte	.LVL84
 3631 06d7 1E000000 		.4byte	.LVL86
 3632 06db 0200     		.2byte	0x2
 3633 06dd 30       		.byte	0x30
 3634 06de 9F       		.byte	0x9f
 3635 06df 1E000000 		.4byte	.LVL86
 3636 06e3 6E000000 		.4byte	.LVL97
 3637 06e7 0100     		.2byte	0x1
 3638 06e9 58       		.byte	0x58
 3639 06ea 6E000000 		.4byte	.LVL97
 3640 06ee 78000000 		.4byte	.LFE17
 3641 06f2 0100     		.2byte	0x1
 3642 06f4 50       		.byte	0x50
 3643 06f5 00000000 		.4byte	0
 3644 06f9 00000000 		.4byte	0
 3645              		.section	.debug_aranges,"",%progbits
 3646 0000 6C000000 		.4byte	0x6c
 3647 0004 0200     		.2byte	0x2
 3648 0006 00000000 		.4byte	.Ldebug_info0
ARM GAS  /tmp/ccGAfTzb.s 			page 65


 3649 000a 04       		.byte	0x4
 3650 000b 00       		.byte	0
 3651 000c 0000     		.2byte	0
 3652 000e 0000     		.2byte	0
 3653 0010 00000000 		.4byte	.LFB7
 3654 0014 28000000 		.4byte	.LFE7-.LFB7
 3655 0018 00000000 		.4byte	.LFB8
 3656 001c 1C000000 		.4byte	.LFE8-.LFB8
 3657 0020 00000000 		.4byte	.LFB9
 3658 0024 2E000000 		.4byte	.LFE9-.LFB9
 3659 0028 00000000 		.4byte	.LFB10
 3660 002c 52000000 		.4byte	.LFE10-.LFB10
 3661 0030 00000000 		.4byte	.LFB11
 3662 0034 42000000 		.4byte	.LFE11-.LFB11
 3663 0038 00000000 		.4byte	.LFB12
 3664 003c 70000000 		.4byte	.LFE12-.LFB12
 3665 0040 00000000 		.4byte	.LFB13
 3666 0044 18000000 		.4byte	.LFE13-.LFB13
 3667 0048 00000000 		.4byte	.LFB14
 3668 004c 30000000 		.4byte	.LFE14-.LFB14
 3669 0050 00000000 		.4byte	.LFB15
 3670 0054 4A000000 		.4byte	.LFE15-.LFB15
 3671 0058 00000000 		.4byte	.LFB16
 3672 005c 4C000000 		.4byte	.LFE16-.LFB16
 3673 0060 00000000 		.4byte	.LFB17
 3674 0064 78000000 		.4byte	.LFE17-.LFB17
 3675 0068 00000000 		.4byte	0
 3676 006c 00000000 		.4byte	0
 3677              		.section	.debug_ranges,"",%progbits
 3678              	.Ldebug_ranges0:
 3679 0000 00000000 		.4byte	.LFB7
 3680 0004 28000000 		.4byte	.LFE7
 3681 0008 00000000 		.4byte	.LFB8
 3682 000c 1C000000 		.4byte	.LFE8
 3683 0010 00000000 		.4byte	.LFB9
 3684 0014 2E000000 		.4byte	.LFE9
 3685 0018 00000000 		.4byte	.LFB10
 3686 001c 52000000 		.4byte	.LFE10
 3687 0020 00000000 		.4byte	.LFB11
 3688 0024 42000000 		.4byte	.LFE11
 3689 0028 00000000 		.4byte	.LFB12
 3690 002c 70000000 		.4byte	.LFE12
 3691 0030 00000000 		.4byte	.LFB13
 3692 0034 18000000 		.4byte	.LFE13
 3693 0038 00000000 		.4byte	.LFB14
 3694 003c 30000000 		.4byte	.LFE14
 3695 0040 00000000 		.4byte	.LFB15
 3696 0044 4A000000 		.4byte	.LFE15
 3697 0048 00000000 		.4byte	.LFB16
 3698 004c 4C000000 		.4byte	.LFE16
 3699 0050 00000000 		.4byte	.LFB17
 3700 0054 78000000 		.4byte	.LFE17
 3701 0058 00000000 		.4byte	0
 3702 005c 00000000 		.4byte	0
 3703              		.section	.debug_line,"",%progbits
 3704              	.Ldebug_line0:
 3705 0000 92030000 		.section	.debug_str,"MS",%progbits,1
ARM GAS  /tmp/ccGAfTzb.s 			page 66


 3705      02000202 
 3705      00000201 
 3705      FB0E0D00 
 3705      01010101 
 3706              	.LASF89:
 3707 0000 63684F51 		.ascii	"chOQInit\000"
 3707      496E6974 
 3707      00
 3708              	.LASF41:
 3709 0009 705F6D73 		.ascii	"p_msg\000"
 3709      6700
 3710              	.LASF98:
 3711 000f 71756575 		.ascii	"queue_insert\000"
 3711      655F696E 
 3711      73657274 
 3711      00
 3712              	.LASF90:
 3713 001c 6F6E6679 		.ascii	"onfy\000"
 3713      00
 3714              	.LASF2:
 3715 0021 73697A65 		.ascii	"size_t\000"
 3715      5F7400
 3716              	.LASF63:
 3717 0028 7264796D 		.ascii	"rdymsg\000"
 3717      736700
 3718              	.LASF84:
 3719 002f 63684951 		.ascii	"chIQInit\000"
 3719      496E6974 
 3719      00
 3720              	.LASF79:
 3721 0038 4F757470 		.ascii	"OutputQueue\000"
 3721      75745175 
 3721      65756500 
 3722              	.LASF3:
 3723 0044 5F5F7569 		.ascii	"__uint8_t\000"
 3723      6E74385F 
 3723      7400
 3724              	.LASF88:
 3725 004e 63684951 		.ascii	"chIQReadTimeout\000"
 3725      52656164 
 3725      54696D65 
 3725      6F757400 
 3726              	.LASF12:
 3727 005e 6C6F6E67 		.ascii	"long long unsigned int\000"
 3727      206C6F6E 
 3727      6720756E 
 3727      7369676E 
 3727      65642069 
 3728              	.LASF64:
 3729 0075 65786974 		.ascii	"exitcode\000"
 3729      636F6465 
 3729      00
 3730              	.LASF29:
 3731 007e 705F7072 		.ascii	"p_prio\000"
 3731      696F00
 3732              	.LASF69:
 3733 0085 715F7761 		.ascii	"q_waiting\000"
ARM GAS  /tmp/ccGAfTzb.s 			page 67


 3733      6974696E 
 3733      6700
 3734              	.LASF11:
 3735 008f 6C6F6E67 		.ascii	"long long int\000"
 3735      206C6F6E 
 3735      6720696E 
 3735      7400
 3736              	.LASF1:
 3737 009d 7369676E 		.ascii	"signed char\000"
 3737      65642063 
 3737      68617200 
 3738              	.LASF45:
 3739 00a9 705F6D70 		.ascii	"p_mpool\000"
 3739      6F6F6C00 
 3740              	.LASF16:
 3741 00b1 626F6F6C 		.ascii	"bool_t\000"
 3741      5F7400
 3742              	.LASF60:
 3743 00b8 6D5F7175 		.ascii	"m_queue\000"
 3743      65756500 
 3744              	.LASF21:
 3745 00c0 74736C69 		.ascii	"tslices_t\000"
 3745      6365735F 
 3745      7400
 3746              	.LASF100:
 3747 00ca 71776169 		.ascii	"qwait\000"
 3747      7400
 3748              	.LASF8:
 3749 00d0 6C6F6E67 		.ascii	"long int\000"
 3749      20696E74 
 3749      00
 3750              	.LASF19:
 3751 00d9 74737461 		.ascii	"tstate_t\000"
 3751      74655F74 
 3751      00
 3752              	.LASF93:
 3753 00e2 63684F51 		.ascii	"chOQGetI\000"
 3753      47657449 
 3753      00
 3754              	.LASF71:
 3755 00eb 715F6275 		.ascii	"q_buffer\000"
 3755      66666572 
 3755      00
 3756              	.LASF73:
 3757 00f4 715F7772 		.ascii	"q_wrptr\000"
 3757      70747200 
 3758              	.LASF31:
 3759 00fc 705F6E65 		.ascii	"p_newer\000"
 3759      77657200 
 3760              	.LASF9:
 3761 0104 5F5F7569 		.ascii	"__uint32_t\000"
 3761      6E743332 
 3761      5F7400
 3762              	.LASF48:
 3763 010f 72656761 		.ascii	"regarm_t\000"
 3763      726D5F74 
 3763      00
ARM GAS  /tmp/ccGAfTzb.s 			page 68


 3764              	.LASF83:
 3765 0118 6C696E6B 		.ascii	"link\000"
 3765      00
 3766              	.LASF92:
 3767 011d 63684F51 		.ascii	"chOQPutTimeout\000"
 3767      50757454 
 3767      696D656F 
 3767      757400
 3768              	.LASF86:
 3769 012c 63684951 		.ascii	"chIQPutI\000"
 3769      50757449 
 3769      00
 3770              	.LASF0:
 3771 0135 756E7369 		.ascii	"unsigned int\000"
 3771      676E6564 
 3771      20696E74 
 3771      00
 3772              	.LASF85:
 3773 0142 63684951 		.ascii	"chIQResetI\000"
 3773      52657365 
 3773      744900
 3774              	.LASF10:
 3775 014d 6C6F6E67 		.ascii	"long unsigned int\000"
 3775      20756E73 
 3775      69676E65 
 3775      6420696E 
 3775      7400
 3776              	.LASF50:
 3777 015f 636F6E74 		.ascii	"context\000"
 3777      65787400 
 3778              	.LASF81:
 3779 0167 73697A65 		.ascii	"size\000"
 3779      00
 3780              	.LASF6:
 3781 016c 73686F72 		.ascii	"short unsigned int\000"
 3781      7420756E 
 3781      7369676E 
 3781      65642069 
 3781      6E7400
 3782              	.LASF23:
 3783 017f 6D73675F 		.ascii	"msg_t\000"
 3783      7400
 3784              	.LASF55:
 3785 0185 725F6E65 		.ascii	"r_newer\000"
 3785      77657200 
 3786              	.LASF95:
 3787 018d 474E5520 		.ascii	"GNU C 4.8.4 20140526 (release) [ARM/embedded-4_8-br"
 3787      4320342E 
 3787      382E3420 
 3787      32303134 
 3787      30353236 
 3788 01c0 616E6368 		.ascii	"anch revision 211358] -mcpu=cortex-m0 -mno-thumb-in"
 3788      20726576 
 3788      6973696F 
 3788      6E203231 
 3788      31333538 
 3789 01f3 74657277 		.ascii	"terwork -mthumb -ggdb -O1 -fomit-frame-pointer -ffu"
ARM GAS  /tmp/ccGAfTzb.s 			page 69


 3789      6F726B20 
 3789      2D6D7468 
 3789      756D6220 
 3789      2D676764 
 3790 0226 6E637469 		.ascii	"nction-sections -fdata-sections -fno-common\000"
 3790      6F6E2D73 
 3790      65637469 
 3790      6F6E7320 
 3790      2D666461 
 3791              	.LASF96:
 3792 0252 43686962 		.ascii	"ChibiOS_2.6.5/os/kernel/src/chqueues.c\000"
 3792      694F535F 
 3792      322E362E 
 3792      352F6F73 
 3792      2F6B6572 
 3793              	.LASF47:
 3794 0279 54687265 		.ascii	"ThreadsList\000"
 3794      6164734C 
 3794      69737400 
 3795              	.LASF24:
 3796 0285 6576656E 		.ascii	"eventmask_t\000"
 3796      746D6173 
 3796      6B5F7400 
 3797              	.LASF78:
 3798 0291 496E7075 		.ascii	"InputQueue\000"
 3798      74517565 
 3798      756500
 3799              	.LASF59:
 3800 029c 4D757465 		.ascii	"Mutex\000"
 3800      7800
 3801              	.LASF68:
 3802 02a2 47656E65 		.ascii	"GenericQueue\000"
 3802      72696351 
 3802      75657565 
 3802      00
 3803              	.LASF94:
 3804 02af 63684F51 		.ascii	"chOQWriteTimeout\000"
 3804      57726974 
 3804      6554696D 
 3804      656F7574 
 3804      00
 3805              	.LASF51:
 3806 02c0 73697A65 		.ascii	"sizetype\000"
 3806      74797065 
 3806      00
 3807              	.LASF70:
 3808 02c9 715F636F 		.ascii	"q_counter\000"
 3808      756E7465 
 3808      7200
 3809              	.LASF32:
 3810 02d3 705F6F6C 		.ascii	"p_older\000"
 3810      64657200 
 3811              	.LASF54:
 3812 02db 725F6374 		.ascii	"r_ctx\000"
 3812      7800
 3813              	.LASF46:
 3814 02e1 54687265 		.ascii	"ThreadsQueue\000"
ARM GAS  /tmp/ccGAfTzb.s 			page 70


 3814      61647351 
 3814      75657565 
 3814      00
 3815              	.LASF80:
 3816 02ee 74696D65 		.ascii	"time\000"
 3816      00
 3817              	.LASF57:
 3818 02f3 725F6375 		.ascii	"r_current\000"
 3818      7272656E 
 3818      7400
 3819              	.LASF56:
 3820 02fd 725F6F6C 		.ascii	"r_older\000"
 3820      64657200 
 3821              	.LASF20:
 3822 0305 74726566 		.ascii	"trefs_t\000"
 3822      735F7400 
 3823              	.LASF77:
 3824 030d 716E6F74 		.ascii	"qnotify_t\000"
 3824      6966795F 
 3824      7400
 3825              	.LASF28:
 3826 0317 705F7072 		.ascii	"p_prev\000"
 3826      657600
 3827              	.LASF22:
 3828 031e 74707269 		.ascii	"tprio_t\000"
 3828      6F5F7400 
 3829              	.LASF74:
 3830 0326 715F7264 		.ascii	"q_rdptr\000"
 3830      70747200 
 3831              	.LASF17:
 3832 032e 5F426F6F 		.ascii	"_Bool\000"
 3832      6C00
 3833              	.LASF14:
 3834 0334 696E7433 		.ascii	"int32_t\000"
 3834      325F7400 
 3835              	.LASF4:
 3836 033c 756E7369 		.ascii	"unsigned char\000"
 3836      676E6564 
 3836      20636861 
 3836      7200
 3837              	.LASF43:
 3838 034a 705F6D74 		.ascii	"p_mtxlist\000"
 3838      786C6973 
 3838      7400
 3839              	.LASF5:
 3840 0354 73686F72 		.ascii	"short int\000"
 3840      7420696E 
 3840      7400
 3841              	.LASF34:
 3842 035e 705F7374 		.ascii	"p_state\000"
 3842      61746500 
 3843              	.LASF37:
 3844 0366 705F7072 		.ascii	"p_preempt\000"
 3844      65656D70 
 3844      7400
 3845              	.LASF53:
 3846 0370 725F7072 		.ascii	"r_prio\000"
ARM GAS  /tmp/ccGAfTzb.s 			page 71


 3846      696F00
 3847              	.LASF66:
 3848 0377 65776D61 		.ascii	"ewmask\000"
 3848      736B00
 3849              	.LASF27:
 3850 037e 705F6E65 		.ascii	"p_next\000"
 3850      787400
 3851              	.LASF18:
 3852 0385 746D6F64 		.ascii	"tmode_t\000"
 3852      655F7400 
 3853              	.LASF35:
 3854 038d 705F666C 		.ascii	"p_flags\000"
 3854      61677300 
 3855              	.LASF26:
 3856 0395 54687265 		.ascii	"Thread\000"
 3856      616400
 3857              	.LASF42:
 3858 039c 705F6570 		.ascii	"p_epending\000"
 3858      656E6469 
 3858      6E6700
 3859              	.LASF15:
 3860 03a7 75696E74 		.ascii	"uint32_t\000"
 3860      33325F74 
 3860      00
 3861              	.LASF52:
 3862 03b0 725F7175 		.ascii	"r_queue\000"
 3862      65756500 
 3863              	.LASF103:
 3864 03b8 63685363 		.ascii	"chSchReadyI\000"
 3864      68526561 
 3864      64794900 
 3865              	.LASF67:
 3866 03c4 63686172 		.ascii	"char\000"
 3866      00
 3867              	.LASF99:
 3868 03c9 6669666F 		.ascii	"fifo_remove\000"
 3868      5F72656D 
 3868      6F766500 
 3869              	.LASF62:
 3870 03d5 6D5F6E65 		.ascii	"m_next\000"
 3870      787400
 3871              	.LASF25:
 3872 03dc 73797374 		.ascii	"systime_t\000"
 3872      696D655F 
 3872      7400
 3873              	.LASF44:
 3874 03e6 705F7265 		.ascii	"p_realprio\000"
 3874      616C7072 
 3874      696F00
 3875              	.LASF7:
 3876 03f1 5F5F696E 		.ascii	"__int32_t\000"
 3876      7433325F 
 3876      7400
 3877              	.LASF82:
 3878 03fb 696E6679 		.ascii	"infy\000"
 3878      00
 3879              	.LASF91:
ARM GAS  /tmp/ccGAfTzb.s 			page 72


 3880 0400 63684F51 		.ascii	"chOQResetI\000"
 3880      52657365 
 3880      744900
 3881              	.LASF38:
 3882 040b 705F7469 		.ascii	"p_time\000"
 3882      6D6500
 3883              	.LASF97:
 3884 0412 2F484444 		.ascii	"/HDD/GIT/variometer/Altimeter/\000"
 3884      2F474954 
 3884      2F766172 
 3884      696F6D65 
 3884      7465722F 
 3885              	.LASF49:
 3886 0431 696E7463 		.ascii	"intctx\000"
 3886      747800
 3887              	.LASF40:
 3888 0438 705F6D73 		.ascii	"p_msgqueue\000"
 3888      67717565 
 3888      756500
 3889              	.LASF72:
 3890 0443 715F746F 		.ascii	"q_top\000"
 3890      7000
 3891              	.LASF36:
 3892 0449 705F7265 		.ascii	"p_refs\000"
 3892      667300
 3893              	.LASF58:
 3894 0450 52656164 		.ascii	"ReadyList\000"
 3894      794C6973 
 3894      7400
 3895              	.LASF75:
 3896 045a 715F6E6F 		.ascii	"q_notify\000"
 3896      74696679 
 3896      00
 3897              	.LASF101:
 3898 0463 726C6973 		.ascii	"rlist\000"
 3898      7400
 3899              	.LASF13:
 3900 0469 75696E74 		.ascii	"uint8_t\000"
 3900      385F7400 
 3901              	.LASF65:
 3902 0471 77746F62 		.ascii	"wtobjp\000"
 3902      6A7000
 3903              	.LASF33:
 3904 0478 705F6E61 		.ascii	"p_name\000"
 3904      6D6500
 3905              	.LASF102:
 3906 047f 63685363 		.ascii	"chSchGoSleepTimeoutS\000"
 3906      68476F53 
 3906      6C656570 
 3906      54696D65 
 3906      6F757453 
 3907              	.LASF76:
 3908 0494 715F6C69 		.ascii	"q_link\000"
 3908      6E6B00
 3909              	.LASF61:
 3910 049b 6D5F6F77 		.ascii	"m_owner\000"
 3910      6E657200 
ARM GAS  /tmp/ccGAfTzb.s 			page 73


 3911              	.LASF30:
 3912 04a3 705F6374 		.ascii	"p_ctx\000"
 3912      7800
 3913              	.LASF39:
 3914 04a9 705F7761 		.ascii	"p_waiting\000"
 3914      6974696E 
 3914      6700
 3915              	.LASF87:
 3916 04b3 63684951 		.ascii	"chIQGetTimeout\000"
 3916      47657454 
 3916      696D656F 
 3916      757400
 3917              		.ident	"GCC: (GNU Tools for ARM Embedded Processors) 4.8.4 20140526 (release) [ARM/embedded-4_8-br
ARM GAS  /tmp/ccGAfTzb.s 			page 74


DEFINED SYMBOLS
                            *ABS*:00000000 chqueues.c
     /tmp/ccGAfTzb.s:18     .text.qwait:00000000 $t
     /tmp/ccGAfTzb.s:22     .text.qwait:00000000 qwait
     /tmp/ccGAfTzb.s:73     .text.qwait:00000024 $d
     /tmp/ccGAfTzb.s:78     .text.chIQInit:00000000 $t
     /tmp/ccGAfTzb.s:83     .text.chIQInit:00000000 chIQInit
     /tmp/ccGAfTzb.s:119    .text.chIQResetI:00000000 $t
     /tmp/ccGAfTzb.s:124    .text.chIQResetI:00000000 chIQResetI
     /tmp/ccGAfTzb.s:181    .text.chIQPutI:00000000 $t
     /tmp/ccGAfTzb.s:186    .text.chIQPutI:00000000 chIQPutI
     /tmp/ccGAfTzb.s:271    .text.chIQGetTimeout:00000000 $t
     /tmp/ccGAfTzb.s:276    .text.chIQGetTimeout:00000000 chIQGetTimeout
     /tmp/ccGAfTzb.s:361    .text.chIQReadTimeout:00000000 $t
     /tmp/ccGAfTzb.s:366    .text.chIQReadTimeout:00000000 chIQReadTimeout
     /tmp/ccGAfTzb.s:490    .text.chOQInit:00000000 $t
     /tmp/ccGAfTzb.s:495    .text.chOQInit:00000000 chOQInit
     /tmp/ccGAfTzb.s:526    .text.chOQResetI:00000000 $t
     /tmp/ccGAfTzb.s:531    .text.chOQResetI:00000000 chOQResetI
     /tmp/ccGAfTzb.s:589    .text.chOQPutTimeout:00000000 $t
     /tmp/ccGAfTzb.s:594    .text.chOQPutTimeout:00000000 chOQPutTimeout
     /tmp/ccGAfTzb.s:682    .text.chOQGetI:00000000 $t
     /tmp/ccGAfTzb.s:687    .text.chOQGetI:00000000 chOQGetI
     /tmp/ccGAfTzb.s:771    .text.chOQWriteTimeout:00000000 $t
     /tmp/ccGAfTzb.s:776    .text.chOQWriteTimeout:00000000 chOQWriteTimeout
                     .debug_frame:00000010 $d

UNDEFINED SYMBOLS
chSchGoSleepTimeoutS
rlist
chSchReadyI
