ARM GAS  /tmp/ccGAfTzb.s 			page 1


   1              		.cpu cortex-m0
   2              		.fpu softvfp
   3              		.eabi_attribute 20, 1
   4              		.eabi_attribute 21, 1
   5              		.eabi_attribute 23, 3
   6              		.eabi_attribute 24, 1
   7              		.eabi_attribute 25, 1
   8              		.eabi_attribute 26, 1
   9              		.eabi_attribute 30, 1
  10              		.eabi_attribute 34, 0
  11              		.eabi_attribute 18, 4
  12              		.code	16
  13              		.file	"chqueues.c"
  14              		.text
  15              	.Ltext0:
  16              		.cfi_sections	.debug_frame
  17              		.section	.text.qwait,"ax",%progbits
  18              		.align	2
  19              		.code	16
  20              		.thumb_func
  21              		.type	qwait, %function
  22              	qwait:
  23              	.LFB7:
  24              		.file 1 "ChibiOS_2.6.5/os/kernel/src/chqueues.c"
  25              		.loc 1 70 0
  26              		.cfi_startproc
  27              	.LVL0:
  28 0000 08B5     		push	{r3, lr}
  29              		.cfi_def_cfa_offset 8
  30              		.cfi_offset 3, -8
  31              		.cfi_offset 14, -4
  32              		.loc 1 72 0
  33 0002 0029     		cmp	r1, #0
  34 0004 0BD0     		beq	.L3
  35              		.loc 1 74 0
  36 0006 074B     		ldr	r3, .L4
  37 0008 9B69     		ldr	r3, [r3, #24]
  38 000a 5862     		str	r0, [r3, #36]
  39              	.LVL1:
  40              	.LBB12:
  41              	.LBB13:
  42              		.file 2 "ChibiOS_2.6.5/os/kernel/include/chinline.h"
  43              		.loc 2 54 0
  44 000c 1860     		str	r0, [r3]
  45              		.loc 2 55 0
  46 000e 4268     		ldr	r2, [r0, #4]
  47 0010 5A60     		str	r2, [r3, #4]
  48              		.loc 2 56 0
  49 0012 4360     		str	r3, [r0, #4]
  50 0014 1360     		str	r3, [r2]
  51              	.LBE13:
  52              	.LBE12:
  53              		.loc 1 76 0
  54 0016 0D20     		mov	r0, #13
  55              	.LVL2:
  56 0018 FFF7FEFF 		bl	chSchGoSleepTimeoutS
  57              	.LVL3:
ARM GAS  /tmp/ccGAfTzb.s 			page 2


  58 001c 01E0     		b	.L2
  59              	.LVL4:
  60              	.L3:
  61              		.loc 1 73 0
  62 001e 0120     		mov	r0, #1
  63              	.LVL5:
  64 0020 4042     		neg	r0, r0
  65              	.LVL6:
  66              	.L2:
  67              		.loc 1 77 0
  68              		@ sp needed
  69 0022 08BD     		pop	{r3, pc}
  70              	.L5:
  71              		.align	2
  72              	.L4:
  73 0024 00000000 		.word	rlist
  74              		.cfi_endproc
  75              	.LFE7:
  76              		.size	qwait, .-qwait
  77              		.section	.text.chIQInit,"ax",%progbits
  78              		.align	2
  79              		.global	chIQInit
  80              		.code	16
  81              		.thumb_func
  82              		.type	chIQInit, %function
  83              	chIQInit:
  84              	.LFB8:
  85              		.loc 1 96 0
  86              		.cfi_startproc
  87              	.LVL7:
  88 0000 10B5     		push	{r4, lr}
  89              		.cfi_def_cfa_offset 8
  90              		.cfi_offset 4, -8
  91              		.cfi_offset 14, -4
  92              		.loc 1 98 0
  93 0002 4060     		str	r0, [r0, #4]
  94 0004 0060     		str	r0, [r0]
  95              		.loc 1 99 0
  96 0006 0024     		mov	r4, #0
  97 0008 8460     		str	r4, [r0, #8]
  98              		.loc 1 100 0
  99 000a 4161     		str	r1, [r0, #20]
 100 000c 8161     		str	r1, [r0, #24]
 101 000e C160     		str	r1, [r0, #12]
 102              		.loc 1 101 0
 103 0010 8918     		add	r1, r1, r2
 104              	.LVL8:
 105 0012 0161     		str	r1, [r0, #16]
 106              		.loc 1 102 0
 107 0014 C361     		str	r3, [r0, #28]
 108              		.loc 1 103 0
 109 0016 029B     		ldr	r3, [sp, #8]
 110              	.LVL9:
 111 0018 0362     		str	r3, [r0, #32]
 112              		.loc 1 104 0
 113              		@ sp needed
 114 001a 10BD     		pop	{r4, pc}
ARM GAS  /tmp/ccGAfTzb.s 			page 3


 115              		.cfi_endproc
 116              	.LFE8:
 117              		.size	chIQInit, .-chIQInit
 118              		.section	.text.chIQResetI,"ax",%progbits
 119              		.align	2
 120              		.global	chIQResetI
 121              		.code	16
 122              		.thumb_func
 123              		.type	chIQResetI, %function
 124              	chIQResetI:
 125              	.LFB9:
 126              		.loc 1 117 0
 127              		.cfi_startproc
 128              	.LVL10:
 129 0000 70B5     		push	{r4, r5, r6, lr}
 130              		.cfi_def_cfa_offset 16
 131              		.cfi_offset 4, -16
 132              		.cfi_offset 5, -12
 133              		.cfi_offset 6, -8
 134              		.cfi_offset 14, -4
 135 0002 041C     		mov	r4, r0
 136              		.loc 1 121 0
 137 0004 C368     		ldr	r3, [r0, #12]
 138 0006 4361     		str	r3, [r0, #20]
 139 0008 8361     		str	r3, [r0, #24]
 140              		.loc 1 122 0
 141 000a 0023     		mov	r3, #0
 142 000c 8360     		str	r3, [r0, #8]
 143              		.loc 1 123 0
 144 000e 0068     		ldr	r0, [r0]
 145              	.LVL11:
 146 0010 251C     		mov	r5, r4
 147 0012 A042     		cmp	r0, r4
 148 0014 0AD0     		beq	.L7
 149              		.loc 1 124 0
 150 0016 0226     		mov	r6, #2
 151 0018 7642     		neg	r6, r6
 152              	.L9:
 153              	.LVL12:
 154              	.LBB14:
 155              	.LBB15:
 156              		.loc 2 62 0
 157 001a 0368     		ldr	r3, [r0]
 158 001c 2360     		str	r3, [r4]
 159 001e 5D60     		str	r5, [r3, #4]
 160              	.LBE15:
 161              	.LBE14:
 162              		.loc 1 124 0
 163 0020 FFF7FEFF 		bl	chSchReadyI
 164              	.LVL13:
 165 0024 4662     		str	r6, [r0, #36]
 166              		.loc 1 123 0
 167 0026 2068     		ldr	r0, [r4]
 168 0028 A842     		cmp	r0, r5
 169 002a F6D1     		bne	.L9
 170              	.LVL14:
 171              	.L7:
ARM GAS  /tmp/ccGAfTzb.s 			page 4


 172              		.loc 1 125 0
 173              		@ sp needed
 174              	.LVL15:
 175              	.LVL16:
 176 002c 70BD     		pop	{r4, r5, r6, pc}
 177              		.cfi_endproc
 178              	.LFE9:
 179              		.size	chIQResetI, .-chIQResetI
 180 002e C046     		.section	.text.chIQPutI,"ax",%progbits
 181              		.align	2
 182              		.global	chIQPutI
 183              		.code	16
 184              		.thumb_func
 185              		.type	chIQPutI, %function
 186              	chIQPutI:
 187              	.LFB10:
 188              		.loc 1 140 0
 189              		.cfi_startproc
 190              	.LVL17:
 191 0000 08B5     		push	{r3, lr}
 192              		.cfi_def_cfa_offset 8
 193              		.cfi_offset 3, -8
 194              		.cfi_offset 14, -4
 195              		.loc 1 144 0
 196 0002 4369     		ldr	r3, [r0, #20]
 197 0004 8269     		ldr	r2, [r0, #24]
 198 0006 9342     		cmp	r3, r2
 199 0008 17D1     		bne	.L11
 200              		.loc 1 144 0 is_stmt 0 discriminator 1
 201 000a 8268     		ldr	r2, [r0, #8]
 202 000c 002A     		cmp	r2, #0
 203 000e 0FD1     		bne	.L15
 204 0010 13E0     		b	.L11
 205              	.L13:
 206              		.loc 1 150 0 is_stmt 1
 207 0012 C368     		ldr	r3, [r0, #12]
 208 0014 4361     		str	r3, [r0, #20]
 209              	.L14:
 210              		.loc 1 152 0
 211 0016 0368     		ldr	r3, [r0]
 212 0018 8342     		cmp	r3, r0
 213 001a 0CD0     		beq	.L16
 214              	.LVL18:
 215              	.LBB16:
 216              	.LBB17:
 217              		.loc 2 62 0
 218 001c 1A68     		ldr	r2, [r3]
 219 001e 0260     		str	r2, [r0]
 220 0020 5060     		str	r0, [r2, #4]
 221              	.LBE17:
 222              	.LBE16:
 223              		.loc 1 153 0
 224 0022 181C     		mov	r0, r3
 225              	.LVL19:
 226 0024 FFF7FEFF 		bl	chSchReadyI
 227              	.LVL20:
 228 0028 0023     		mov	r3, #0
ARM GAS  /tmp/ccGAfTzb.s 			page 5


 229 002a 4362     		str	r3, [r0, #36]
 230              		.loc 1 155 0
 231 002c 0020     		mov	r0, #0
 232 002e 0FE0     		b	.L17
 233              	.LVL21:
 234              	.L15:
 235              		.loc 1 145 0
 236 0030 0420     		mov	r0, #4
 237              	.LVL22:
 238 0032 4042     		neg	r0, r0
 239 0034 0CE0     		b	.L17
 240              	.LVL23:
 241              	.L16:
 242              		.loc 1 155 0
 243 0036 0020     		mov	r0, #0
 244              	.LVL24:
 245 0038 0AE0     		b	.L17
 246              	.LVL25:
 247              	.L11:
 248              		.loc 1 147 0
 249 003a 8268     		ldr	r2, [r0, #8]
 250 003c 0132     		add	r2, r2, #1
 251 003e 8260     		str	r2, [r0, #8]
 252              		.loc 1 148 0
 253 0040 5A1C     		add	r2, r3, #1
 254 0042 4261     		str	r2, [r0, #20]
 255 0044 1970     		strb	r1, [r3]
 256              		.loc 1 149 0
 257 0046 4269     		ldr	r2, [r0, #20]
 258 0048 0369     		ldr	r3, [r0, #16]
 259 004a 9A42     		cmp	r2, r3
 260 004c E1D2     		bcs	.L13
 261 004e E2E7     		b	.L14
 262              	.LVL26:
 263              	.L17:
 264              		.loc 1 156 0
 265              		@ sp needed
 266 0050 08BD     		pop	{r3, pc}
 267              		.cfi_endproc
 268              	.LFE10:
 269              		.size	chIQPutI, .-chIQPutI
 270 0052 C046     		.section	.text.chIQGetTimeout,"ax",%progbits
 271              		.align	2
 272              		.global	chIQGetTimeout
 273              		.code	16
 274              		.thumb_func
 275              		.type	chIQGetTimeout, %function
 276              	chIQGetTimeout:
 277              	.LFB11:
 278              		.loc 1 178 0
 279              		.cfi_startproc
 280              	.LVL27:
 281 0000 38B5     		push	{r3, r4, r5, lr}
 282              		.cfi_def_cfa_offset 16
 283              		.cfi_offset 3, -16
 284              		.cfi_offset 4, -12
 285              		.cfi_offset 5, -8
ARM GAS  /tmp/ccGAfTzb.s 			page 6


 286              		.cfi_offset 14, -4
 287 0002 041C     		mov	r4, r0
 288 0004 0D1C     		mov	r5, r1
 289              		.loc 1 181 0
 290              	@ 181 "ChibiOS_2.6.5/os/kernel/src/chqueues.c" 1
 291 0006 72B6     		cpsid   i
 292              	@ 0 "" 2
 293              		.loc 1 182 0
 294              		.code	16
 295 0008 C369     		ldr	r3, [r0, #28]
 296 000a 002B     		cmp	r3, #0
 297 000c 09D0     		beq	.L21
 298              		.loc 1 183 0
 299 000e 9847     		blx	r3
 300              	.LVL28:
 301 0010 07E0     		b	.L21
 302              	.L23:
 303              	.LBB18:
 304              		.loc 1 187 0
 305 0012 201C     		mov	r0, r4
 306 0014 291C     		mov	r1, r5
 307 0016 FFF7FEFF 		bl	qwait
 308              	.LVL29:
 309 001a 0028     		cmp	r0, #0
 310 001c 01DA     		bge	.L21
 311              		.loc 1 188 0
 312              	@ 188 "ChibiOS_2.6.5/os/kernel/src/chqueues.c" 1
 313 001e 62B6     		cpsie   i
 314              	@ 0 "" 2
 315              		.loc 1 189 0
 316              		.code	16
 317 0020 0EE0     		b	.L22
 318              	.LVL30:
 319              	.L21:
 320              	.LBE18:
 321              		.loc 1 185 0 discriminator 1
 322 0022 A368     		ldr	r3, [r4, #8]
 323 0024 002B     		cmp	r3, #0
 324 0026 F4D0     		beq	.L23
 325              		.loc 1 193 0
 326 0028 013B     		sub	r3, r3, #1
 327 002a A360     		str	r3, [r4, #8]
 328              		.loc 1 194 0
 329 002c A269     		ldr	r2, [r4, #24]
 330 002e 531C     		add	r3, r2, #1
 331 0030 A361     		str	r3, [r4, #24]
 332 0032 1078     		ldrb	r0, [r2]
 333              	.LVL31:
 334              		.loc 1 195 0
 335 0034 2269     		ldr	r2, [r4, #16]
 336              	.LVL32:
 337 0036 9342     		cmp	r3, r2
 338 0038 01D3     		bcc	.L24
 339              		.loc 1 196 0
 340 003a E368     		ldr	r3, [r4, #12]
 341              	.LVL33:
 342 003c A361     		str	r3, [r4, #24]
ARM GAS  /tmp/ccGAfTzb.s 			page 7


 343              	.LVL34:
 344              	.L24:
 345              		.loc 1 198 0
 346              	@ 198 "ChibiOS_2.6.5/os/kernel/src/chqueues.c" 1
 347 003e 62B6     		cpsie   i
 348              	@ 0 "" 2
 349              	.LVL35:
 350              		.code	16
 351              	.L22:
 352              		.loc 1 200 0
 353              		@ sp needed
 354              	.LVL36:
 355              	.LVL37:
 356 0040 38BD     		pop	{r3, r4, r5, pc}
 357              		.cfi_endproc
 358              	.LFE11:
 359              		.size	chIQGetTimeout, .-chIQGetTimeout
 360 0042 C046     		.section	.text.chIQReadTimeout,"ax",%progbits
 361              		.align	2
 362              		.global	chIQReadTimeout
 363              		.code	16
 364              		.thumb_func
 365              		.type	chIQReadTimeout, %function
 366              	chIQReadTimeout:
 367              	.LFB12:
 368              		.loc 1 227 0
 369              		.cfi_startproc
 370              	.LVL38:
 371 0000 F0B5     		push	{r4, r5, r6, r7, lr}
 372              		.cfi_def_cfa_offset 20
 373              		.cfi_offset 4, -20
 374              		.cfi_offset 5, -16
 375              		.cfi_offset 6, -12
 376              		.cfi_offset 7, -8
 377              		.cfi_offset 14, -4
 378 0002 5746     		mov	r7, r10
 379 0004 4E46     		mov	r6, r9
 380 0006 4546     		mov	r5, r8
 381 0008 E0B4     		push	{r5, r6, r7}
 382              		.cfi_def_cfa_offset 32
 383              		.cfi_offset 8, -32
 384              		.cfi_offset 9, -28
 385              		.cfi_offset 10, -24
 386 000a 041C     		mov	r4, r0
 387 000c 8A46     		mov	r10, r1
 388 000e 9146     		mov	r9, r2
 389 0010 1E1C     		mov	r6, r3
 390              		.loc 1 228 0
 391 0012 C269     		ldr	r2, [r0, #28]
 392              	.LVL39:
 393 0014 9046     		mov	r8, r2
 394              	.LVL40:
 395              		.loc 1 233 0
 396              	@ 233 "ChibiOS_2.6.5/os/kernel/src/chqueues.c" 1
 397 0016 72B6     		cpsid   i
 398              	@ 0 "" 2
 399              		.loc 1 229 0
ARM GAS  /tmp/ccGAfTzb.s 			page 8


 400              		.code	16
 401 0018 0027     		mov	r7, #0
 402              	.LVL41:
 403              	.L32:
 404              		.loc 1 235 0
 405 001a 4346     		mov	r3, r8
 406 001c 002B     		cmp	r3, #0
 407 001e 0AD0     		beq	.L28
 408              	.LVL42:
 409              		.loc 1 236 0
 410 0020 201C     		mov	r0, r4
 411 0022 C047     		blx	r8
 412              	.LVL43:
 413 0024 07E0     		b	.L28
 414              	.L30:
 415              		.loc 1 239 0
 416 0026 201C     		mov	r0, r4
 417 0028 311C     		mov	r1, r6
 418 002a FFF7FEFF 		bl	qwait
 419              	.LVL44:
 420 002e 0028     		cmp	r0, #0
 421 0030 01D0     		beq	.L28
 422              		.loc 1 240 0
 423              	@ 240 "ChibiOS_2.6.5/os/kernel/src/chqueues.c" 1
 424 0032 62B6     		cpsie   i
 425              	@ 0 "" 2
 426              		.loc 1 241 0
 427              		.code	16
 428 0034 16E0     		b	.L29
 429              	.L28:
 430              		.loc 1 238 0 discriminator 1
 431 0036 A568     		ldr	r5, [r4, #8]
 432 0038 002D     		cmp	r5, #0
 433 003a F4D0     		beq	.L30
 434              		.loc 1 245 0
 435 003c 013D     		sub	r5, r5, #1
 436 003e A560     		str	r5, [r4, #8]
 437              	.LVL45:
 438              		.loc 1 246 0
 439 0040 A369     		ldr	r3, [r4, #24]
 440 0042 5A1C     		add	r2, r3, #1
 441 0044 A261     		str	r2, [r4, #24]
 442 0046 1B78     		ldrb	r3, [r3]
 443 0048 5246     		mov	r2, r10
 444 004a D355     		strb	r3, [r2, r7]
 445              		.loc 1 247 0
 446 004c A369     		ldr	r3, [r4, #24]
 447 004e 2269     		ldr	r2, [r4, #16]
 448 0050 9342     		cmp	r3, r2
 449 0052 01D3     		bcc	.L31
 450              		.loc 1 248 0
 451 0054 E368     		ldr	r3, [r4, #12]
 452 0056 A361     		str	r3, [r4, #24]
 453              	.L31:
 454              		.loc 1 250 0
 455              	@ 250 "ChibiOS_2.6.5/os/kernel/src/chqueues.c" 1
 456 0058 62B6     		cpsie   i
ARM GAS  /tmp/ccGAfTzb.s 			page 9


 457              	@ 0 "" 2
 458              		.loc 1 251 0
 459              		.code	16
 460 005a 0137     		add	r7, r7, #1
 461              	.LVL46:
 462              		.loc 1 252 0
 463 005c B945     		cmp	r9, r7
 464 005e 01D0     		beq	.L29
 465              		.loc 1 255 0
 466              	@ 255 "ChibiOS_2.6.5/os/kernel/src/chqueues.c" 1
 467 0060 72B6     		cpsid   i
 468              	@ 0 "" 2
 469              		.loc 1 256 0
 470              		.code	16
 471 0062 DAE7     		b	.L32
 472              	.LVL47:
 473              	.L29:
 474              		.loc 1 257 0
 475 0064 381C     		mov	r0, r7
 476              		@ sp needed
 477              	.LVL48:
 478              	.LVL49:
 479              	.LVL50:
 480              	.LVL51:
 481 0066 1CBC     		pop	{r2, r3, r4}
 482 0068 9046     		mov	r8, r2
 483 006a 9946     		mov	r9, r3
 484 006c A246     		mov	r10, r4
 485 006e F0BD     		pop	{r4, r5, r6, r7, pc}
 486              		.cfi_endproc
 487              	.LFE12:
 488              		.size	chIQReadTimeout, .-chIQReadTimeout
 489              		.section	.text.chOQInit,"ax",%progbits
 490              		.align	2
 491              		.global	chOQInit
 492              		.code	16
 493              		.thumb_func
 494              		.type	chOQInit, %function
 495              	chOQInit:
 496              	.LFB13:
 497              		.loc 1 276 0
 498              		.cfi_startproc
 499              	.LVL52:
 500              		.loc 1 278 0
 501 0000 4060     		str	r0, [r0, #4]
 502 0002 0060     		str	r0, [r0]
 503              		.loc 1 279 0
 504 0004 8260     		str	r2, [r0, #8]
 505              		.loc 1 280 0
 506 0006 4161     		str	r1, [r0, #20]
 507 0008 8161     		str	r1, [r0, #24]
 508 000a C160     		str	r1, [r0, #12]
 509              		.loc 1 281 0
 510 000c 8918     		add	r1, r1, r2
 511              	.LVL53:
 512 000e 0161     		str	r1, [r0, #16]
 513              		.loc 1 282 0
ARM GAS  /tmp/ccGAfTzb.s 			page 10


 514 0010 C361     		str	r3, [r0, #28]
 515              		.loc 1 283 0
 516 0012 009B     		ldr	r3, [sp]
 517              	.LVL54:
 518 0014 0362     		str	r3, [r0, #32]
 519              		.loc 1 284 0
 520              		@ sp needed
 521 0016 7047     		bx	lr
 522              		.cfi_endproc
 523              	.LFE13:
 524              		.size	chOQInit, .-chOQInit
 525              		.section	.text.chOQResetI,"ax",%progbits
 526              		.align	2
 527              		.global	chOQResetI
 528              		.code	16
 529              		.thumb_func
 530              		.type	chOQResetI, %function
 531              	chOQResetI:
 532              	.LFB14:
 533              		.loc 1 297 0
 534              		.cfi_startproc
 535              	.LVL55:
 536 0000 70B5     		push	{r4, r5, r6, lr}
 537              		.cfi_def_cfa_offset 16
 538              		.cfi_offset 4, -16
 539              		.cfi_offset 5, -12
 540              		.cfi_offset 6, -8
 541              		.cfi_offset 14, -4
 542 0002 041C     		mov	r4, r0
 543              		.loc 1 301 0
 544 0004 C368     		ldr	r3, [r0, #12]
 545 0006 4361     		str	r3, [r0, #20]
 546 0008 8361     		str	r3, [r0, #24]
 547              		.loc 1 302 0
 548 000a 0269     		ldr	r2, [r0, #16]
 549 000c D31A     		sub	r3, r2, r3
 550 000e 8360     		str	r3, [r0, #8]
 551              		.loc 1 303 0
 552 0010 0068     		ldr	r0, [r0]
 553              	.LVL56:
 554 0012 251C     		mov	r5, r4
 555 0014 A042     		cmp	r0, r4
 556 0016 0AD0     		beq	.L34
 557              		.loc 1 304 0
 558 0018 0226     		mov	r6, #2
 559 001a 7642     		neg	r6, r6
 560              	.L36:
 561              	.LVL57:
 562              	.LBB19:
 563              	.LBB20:
 564              		.loc 2 62 0
 565 001c 0368     		ldr	r3, [r0]
 566 001e 2360     		str	r3, [r4]
 567 0020 5D60     		str	r5, [r3, #4]
 568              	.LBE20:
 569              	.LBE19:
 570              		.loc 1 304 0
ARM GAS  /tmp/ccGAfTzb.s 			page 11


 571 0022 FFF7FEFF 		bl	chSchReadyI
 572              	.LVL58:
 573 0026 4662     		str	r6, [r0, #36]
 574              		.loc 1 303 0
 575 0028 2068     		ldr	r0, [r4]
 576 002a A842     		cmp	r0, r5
 577 002c F6D1     		bne	.L36
 578              	.LVL59:
 579              	.L34:
 580              		.loc 1 305 0
 581              		@ sp needed
 582              	.LVL60:
 583              	.LVL61:
 584 002e 70BD     		pop	{r4, r5, r6, pc}
 585              		.cfi_endproc
 586              	.LFE14:
 587              		.size	chOQResetI, .-chOQResetI
 588              		.section	.text.chOQPutTimeout,"ax",%progbits
 589              		.align	2
 590              		.global	chOQPutTimeout
 591              		.code	16
 592              		.thumb_func
 593              		.type	chOQPutTimeout, %function
 594              	chOQPutTimeout:
 595              	.LFB15:
 596              		.loc 1 329 0
 597              		.cfi_startproc
 598              	.LVL62:
 599 0000 70B5     		push	{r4, r5, r6, lr}
 600              		.cfi_def_cfa_offset 16
 601              		.cfi_offset 4, -16
 602              		.cfi_offset 5, -12
 603              		.cfi_offset 6, -8
 604              		.cfi_offset 14, -4
 605 0002 041C     		mov	r4, r0
 606 0004 0E1C     		mov	r6, r1
 607 0006 151C     		mov	r5, r2
 608              		.loc 1 331 0
 609              	@ 331 "ChibiOS_2.6.5/os/kernel/src/chqueues.c" 1
 610 0008 72B6     		cpsid   i
 611              	@ 0 "" 2
 612              		.loc 1 332 0
 613              		.code	16
 614 000a 07E0     		b	.L38
 615              	.LVL63:
 616              	.L41:
 617              	.LBB21:
 618              		.loc 1 335 0
 619 000c 201C     		mov	r0, r4
 620 000e 291C     		mov	r1, r5
 621 0010 FFF7FEFF 		bl	qwait
 622              	.LVL64:
 623 0014 0028     		cmp	r0, #0
 624 0016 01DA     		bge	.L38
 625              		.loc 1 336 0
 626              	@ 336 "ChibiOS_2.6.5/os/kernel/src/chqueues.c" 1
 627 0018 62B6     		cpsie   i
ARM GAS  /tmp/ccGAfTzb.s 			page 12


 628              	@ 0 "" 2
 629              		.loc 1 337 0
 630              		.code	16
 631 001a 15E0     		b	.L40
 632              	.LVL65:
 633              	.L38:
 634              	.LBE21:
 635              		.loc 1 332 0 discriminator 1
 636 001c A368     		ldr	r3, [r4, #8]
 637 001e 002B     		cmp	r3, #0
 638 0020 F4D0     		beq	.L41
 639              		.loc 1 341 0
 640 0022 013B     		sub	r3, r3, #1
 641 0024 A360     		str	r3, [r4, #8]
 642              		.loc 1 342 0
 643 0026 6369     		ldr	r3, [r4, #20]
 644 0028 5A1C     		add	r2, r3, #1
 645 002a 6261     		str	r2, [r4, #20]
 646 002c 1E70     		strb	r6, [r3]
 647              		.loc 1 343 0
 648 002e 6269     		ldr	r2, [r4, #20]
 649 0030 2369     		ldr	r3, [r4, #16]
 650 0032 9A42     		cmp	r2, r3
 651 0034 01D3     		bcc	.L42
 652              		.loc 1 344 0
 653 0036 E268     		ldr	r2, [r4, #12]
 654 0038 6261     		str	r2, [r4, #20]
 655              	.L42:
 656              		.loc 1 346 0
 657 003a E369     		ldr	r3, [r4, #28]
 658 003c 002B     		cmp	r3, #0
 659 003e 01D0     		beq	.L43
 660              		.loc 1 347 0
 661 0040 201C     		mov	r0, r4
 662 0042 9847     		blx	r3
 663              	.LVL66:
 664              	.L43:
 665              		.loc 1 349 0
 666              	@ 349 "ChibiOS_2.6.5/os/kernel/src/chqueues.c" 1
 667 0044 62B6     		cpsie   i
 668              	@ 0 "" 2
 669              		.loc 1 350 0
 670              		.code	16
 671 0046 0020     		mov	r0, #0
 672              	.L40:
 673              		.loc 1 351 0
 674              		@ sp needed
 675              	.LVL67:
 676              	.LVL68:
 677 0048 70BD     		pop	{r4, r5, r6, pc}
 678              		.cfi_endproc
 679              	.LFE15:
 680              		.size	chOQPutTimeout, .-chOQPutTimeout
 681 004a C046     		.section	.text.chOQGetI,"ax",%progbits
 682              		.align	2
 683              		.global	chOQGetI
 684              		.code	16
ARM GAS  /tmp/ccGAfTzb.s 			page 13


 685              		.thumb_func
 686              		.type	chOQGetI, %function
 687              	chOQGetI:
 688              	.LFB16:
 689              		.loc 1 363 0
 690              		.cfi_startproc
 691              	.LVL69:
 692 0000 10B5     		push	{r4, lr}
 693              		.cfi_def_cfa_offset 8
 694              		.cfi_offset 4, -8
 695              		.cfi_offset 14, -4
 696              		.loc 1 368 0
 697 0002 8369     		ldr	r3, [r0, #24]
 698 0004 4269     		ldr	r2, [r0, #20]
 699 0006 9A42     		cmp	r2, r3
 700 0008 15D1     		bne	.L45
 701              		.loc 1 368 0 is_stmt 0 discriminator 1
 702 000a 8268     		ldr	r2, [r0, #8]
 703 000c 002A     		cmp	r2, #0
 704 000e 0FD1     		bne	.L50
 705 0010 11E0     		b	.L45
 706              	.LVL70:
 707              	.L48:
 708              		.loc 1 374 0 is_stmt 1
 709 0012 C368     		ldr	r3, [r0, #12]
 710 0014 8361     		str	r3, [r0, #24]
 711              	.LVL71:
 712              	.L49:
 713              		.loc 1 376 0
 714 0016 0368     		ldr	r3, [r0]
 715 0018 8342     		cmp	r3, r0
 716 001a 07D0     		beq	.L47
 717              	.LVL72:
 718              	.LBB22:
 719              	.LBB23:
 720              		.loc 2 62 0
 721 001c 1A68     		ldr	r2, [r3]
 722 001e 0260     		str	r2, [r0]
 723 0020 5060     		str	r0, [r2, #4]
 724              	.LBE23:
 725              	.LBE22:
 726              		.loc 1 377 0
 727 0022 181C     		mov	r0, r3
 728              	.LVL73:
 729 0024 FFF7FEFF 		bl	chSchReadyI
 730              	.LVL74:
 731 0028 0023     		mov	r3, #0
 732 002a 4362     		str	r3, [r0, #36]
 733              	.LVL75:
 734              	.L47:
 735              		.loc 1 379 0
 736 002c 201C     		mov	r0, r4
 737 002e 0CE0     		b	.L51
 738              	.LVL76:
 739              	.L50:
 740              		.loc 1 369 0
 741 0030 0320     		mov	r0, #3
ARM GAS  /tmp/ccGAfTzb.s 			page 14


 742              	.LVL77:
 743 0032 4042     		neg	r0, r0
 744 0034 09E0     		b	.L51
 745              	.LVL78:
 746              	.L45:
 747              		.loc 1 371 0
 748 0036 8268     		ldr	r2, [r0, #8]
 749 0038 0132     		add	r2, r2, #1
 750 003a 8260     		str	r2, [r0, #8]
 751              		.loc 1 372 0
 752 003c 5A1C     		add	r2, r3, #1
 753 003e 8261     		str	r2, [r0, #24]
 754 0040 1C78     		ldrb	r4, [r3]
 755              	.LVL79:
 756              		.loc 1 373 0
 757 0042 0369     		ldr	r3, [r0, #16]
 758              	.LVL80:
 759 0044 9A42     		cmp	r2, r3
 760 0046 E4D2     		bcs	.L48
 761 0048 E5E7     		b	.L49
 762              	.LVL81:
 763              	.L51:
 764              		.loc 1 380 0
 765              		@ sp needed
 766 004a 10BD     		pop	{r4, pc}
 767              		.cfi_endproc
 768              	.LFE16:
 769              		.size	chOQGetI, .-chOQGetI
 770              		.section	.text.chOQWriteTimeout,"ax",%progbits
 771              		.align	2
 772              		.global	chOQWriteTimeout
 773              		.code	16
 774              		.thumb_func
 775              		.type	chOQWriteTimeout, %function
 776              	chOQWriteTimeout:
 777              	.LFB17:
 778              		.loc 1 407 0
 779              		.cfi_startproc
 780              	.LVL82:
 781 0000 F0B5     		push	{r4, r5, r6, r7, lr}
 782              		.cfi_def_cfa_offset 20
 783              		.cfi_offset 4, -20
 784              		.cfi_offset 5, -16
 785              		.cfi_offset 6, -12
 786              		.cfi_offset 7, -8
 787              		.cfi_offset 14, -4
 788 0002 5746     		mov	r7, r10
 789 0004 4E46     		mov	r6, r9
 790 0006 4546     		mov	r5, r8
 791 0008 E0B4     		push	{r5, r6, r7}
 792              		.cfi_def_cfa_offset 32
 793              		.cfi_offset 8, -32
 794              		.cfi_offset 9, -28
 795              		.cfi_offset 10, -24
 796 000a 041C     		mov	r4, r0
 797 000c 0F1C     		mov	r7, r1
 798 000e 161C     		mov	r6, r2
ARM GAS  /tmp/ccGAfTzb.s 			page 15


 799 0010 9A46     		mov	r10, r3
 800              		.loc 1 408 0
 801 0012 C269     		ldr	r2, [r0, #28]
 802              	.LVL83:
 803 0014 9146     		mov	r9, r2
 804              	.LVL84:
 805              		.loc 1 413 0
 806              	@ 413 "ChibiOS_2.6.5/os/kernel/src/chqueues.c" 1
 807 0016 72B6     		cpsid   i
 808              	@ 0 "" 2
 809              		.loc 1 409 0
 810              		.code	16
 811 0018 0023     		mov	r3, #0
 812              	.LVL85:
 813 001a 9846     		mov	r8, r3
 814 001c 07E0     		b	.L53
 815              	.LVL86:
 816              	.L56:
 817              		.loc 1 416 0
 818 001e 201C     		mov	r0, r4
 819 0020 5146     		mov	r1, r10
 820 0022 FFF7FEFF 		bl	qwait
 821              	.LVL87:
 822 0026 0028     		cmp	r0, #0
 823 0028 01D0     		beq	.L53
 824              		.loc 1 417 0
 825              	@ 417 "ChibiOS_2.6.5/os/kernel/src/chqueues.c" 1
 826 002a 62B6     		cpsie   i
 827              	@ 0 "" 2
 828              		.loc 1 418 0
 829              		.code	16
 830 002c 1EE0     		b	.L55
 831              	.LVL88:
 832              	.L53:
 833              		.loc 1 415 0 discriminator 1
 834 002e A568     		ldr	r5, [r4, #8]
 835 0030 002D     		cmp	r5, #0
 836 0032 F4D0     		beq	.L56
 837              		.loc 1 421 0
 838 0034 013D     		sub	r5, r5, #1
 839 0036 A560     		str	r5, [r4, #8]
 840              		.loc 1 422 0
 841 0038 6269     		ldr	r2, [r4, #20]
 842 003a 531C     		add	r3, r2, #1
 843 003c 6361     		str	r3, [r4, #20]
 844 003e 7D1C     		add	r5, r7, #1
 845              	.LVL89:
 846 0040 3B78     		ldrb	r3, [r7]
 847 0042 1370     		strb	r3, [r2]
 848              		.loc 1 423 0
 849 0044 6269     		ldr	r2, [r4, #20]
 850 0046 2369     		ldr	r3, [r4, #16]
 851 0048 9A42     		cmp	r2, r3
 852 004a 01D3     		bcc	.L57
 853              		.loc 1 424 0
 854 004c E268     		ldr	r2, [r4, #12]
 855 004e 6261     		str	r2, [r4, #20]
ARM GAS  /tmp/ccGAfTzb.s 			page 16


 856              	.L57:
 857              		.loc 1 426 0
 858 0050 4B46     		mov	r3, r9
 859 0052 002B     		cmp	r3, #0
 860 0054 01D0     		beq	.L58
 861              	.LVL90:
 862              		.loc 1 427 0
 863 0056 201C     		mov	r0, r4
 864 0058 C847     		blx	r9
 865              	.LVL91:
 866              	.L58:
 867              		.loc 1 429 0
 868              	@ 429 "ChibiOS_2.6.5/os/kernel/src/chqueues.c" 1
 869 005a 62B6     		cpsie   i
 870              	@ 0 "" 2
 871              		.loc 1 430 0
 872              		.code	16
 873 005c 0122     		mov	r2, #1
 874 005e 9044     		add	r8, r8, r2
 875              	.LVL92:
 876              		.loc 1 431 0
 877 0060 013E     		sub	r6, r6, #1
 878              	.LVL93:
 879 0062 002E     		cmp	r6, #0
 880 0064 02D0     		beq	.L55
 881              		.loc 1 433 0
 882              	@ 433 "ChibiOS_2.6.5/os/kernel/src/chqueues.c" 1
 883 0066 72B6     		cpsid   i
 884              	@ 0 "" 2
 885              		.loc 1 422 0
 886              		.code	16
 887 0068 2F1C     		mov	r7, r5
 888              		.loc 1 434 0
 889 006a E0E7     		b	.L53
 890              	.LVL94:
 891              	.L55:
 892              		.loc 1 435 0
 893 006c 4046     		mov	r0, r8
 894              		@ sp needed
 895              	.LVL95:
 896              	.LVL96:
 897              	.LVL97:
 898              	.LVL98:
 899              	.LVL99:
 900 006e 1CBC     		pop	{r2, r3, r4}
 901 0070 9046     		mov	r8, r2
 902 0072 9946     		mov	r9, r3
 903 0074 A246     		mov	r10, r4
 904 0076 F0BD     		pop	{r4, r5, r6, r7, pc}
 905              		.cfi_endproc
 906              	.LFE17:
 907              		.size	chOQWriteTimeout, .-chOQWriteTimeout
 908              		.text
 909              	.Letext0:
 910              		.file 3 "/usr/local/lpcxpresso_7.3.0_186/lpcxpresso/tools/lib/gcc/arm-none-eabi/4.8.4/include/stdd
 911              		.file 4 "/usr/local/lpcxpresso_7.3.0_186/lpcxpresso/tools/arm-none-eabi/include/machine/_default_t
 912              		.file 5 "/usr/local/lpcxpresso_7.3.0_186/lpcxpresso/tools/arm-none-eabi/include/stdint.h"
ARM GAS  /tmp/ccGAfTzb.s 			page 17


 913              		.file 6 "ChibiOS_2.6.5/os/ports/GCC/ARMCMx/chtypes.h"
 914              		.file 7 "ChibiOS_2.6.5/os/kernel/include/chlists.h"
 915              		.file 8 "ChibiOS_2.6.5/os/kernel/include/chthreads.h"
 916              		.file 9 "ChibiOS_2.6.5/os/ports/GCC/ARMCMx/chcore_v6m.h"
 917              		.file 10 "ChibiOS_2.6.5/os/kernel/include/chschd.h"
 918              		.file 11 "ChibiOS_2.6.5/os/kernel/include/chmtx.h"
 919              		.file 12 "ChibiOS_2.6.5/os/kernel/include/chqueues.h"