ARM GAS  /tmp/ccMO6F4C.s 			page 1


   1              		.cpu cortex-m0
   2              		.fpu softvfp
   3              		.eabi_attribute 20, 1
   4              		.eabi_attribute 21, 1
   5              		.eabi_attribute 23, 3
   6              		.eabi_attribute 24, 1
   7              		.eabi_attribute 25, 1
   8              		.eabi_attribute 26, 1
   9              		.eabi_attribute 30, 1
  10              		.eabi_attribute 34, 0
  11              		.eabi_attribute 18, 4
  12              		.code	16
  13              		.file	"chthreads.c"
  14              		.text
  15              	.Ltext0:
  16              		.cfi_sections	.debug_frame
  17              		.section	.text._thread_init,"ax",%progbits
  18              		.align	2
  19              		.global	_thread_init
  20              		.code	16
  21              		.thumb_func
  22              		.type	_thread_init, %function
  23              	_thread_init:
  24              	.LFB7:
  25              		.file 1 "ChibiOS_2.6.5/os/kernel/src/chthreads.c"
  26              		.loc 1 76 0
  27              		.cfi_startproc
  28              	.LVL0:
  29              		.loc 1 78 0
  30 0000 8160     		str	r1, [r0, #8]
  31              		.loc 1 79 0
  32 0002 0223     		mov	r3, #2
  33 0004 0377     		strb	r3, [r0, #28]
  34              		.loc 1 80 0
  35 0006 0023     		mov	r3, #0
  36 0008 4377     		strb	r3, [r0, #29]
  37              		.loc 1 82 0
  38 000a 1422     		mov	r2, #20
  39 000c C277     		strb	r2, [r0, #31]
  40              		.loc 1 85 0
  41 000e 0164     		str	r1, [r0, #64]
  42              		.loc 1 86 0
  43 0010 C363     		str	r3, [r0, #60]
  44              		.loc 1 89 0
  45 0012 8363     		str	r3, [r0, #56]
  46              		.loc 1 92 0
  47 0014 0362     		str	r3, [r0, #32]
  48              		.loc 1 95 0
  49 0016 0122     		mov	r2, #1
  50 0018 8277     		strb	r2, [r0, #30]
  51              		.loc 1 98 0
  52 001a 8361     		str	r3, [r0, #24]
  53              		.loc 1 99 0
  54 001c 064B     		ldr	r3, .L2
  55 001e 0361     		str	r3, [r0, #16]
  56 0020 5A69     		ldr	r2, [r3, #20]
  57 0022 4261     		str	r2, [r0, #20]
ARM GAS  /tmp/ccMO6F4C.s 			page 2


  58 0024 5861     		str	r0, [r3, #20]
  59 0026 1061     		str	r0, [r2, #16]
  60              		.loc 1 102 0
  61 0028 031C     		mov	r3, r0
  62 002a 2833     		add	r3, r3, #40
  63 002c 8362     		str	r3, [r0, #40]
  64              		.loc 1 105 0
  65 002e 0433     		add	r3, r3, #4
  66 0030 0363     		str	r3, [r0, #48]
  67 0032 C362     		str	r3, [r0, #44]
  68              		.loc 1 114 0
  69              		@ sp needed
  70 0034 7047     		bx	lr
  71              	.L3:
  72 0036 C046     		.align	2
  73              	.L2:
  74 0038 00000000 		.word	rlist
  75              		.cfi_endproc
  76              	.LFE7:
  77              		.size	_thread_init, .-_thread_init
  78              		.section	.text.chThdCreateI,"ax",%progbits
  79              		.align	2
  80              		.global	chThdCreateI
  81              		.code	16
  82              		.thumb_func
  83              		.type	chThdCreateI, %function
  84              	chThdCreateI:
  85              	.LFB8:
  86              		.loc 1 158 0
  87              		.cfi_startproc
  88              	.LVL1:
  89 0000 10B5     		push	{r4, lr}
  90              		.cfi_def_cfa_offset 8
  91              		.cfi_offset 4, -8
  92              		.cfi_offset 14, -4
  93              	.LVL2:
  94              		.loc 1 167 0
  95 0002 0C1C     		mov	r4, r1
  96 0004 243C     		sub	r4, r4, #36
  97 0006 0419     		add	r4, r0, r4
  98 0008 C460     		str	r4, [r0, #12]
  99 000a 2361     		str	r3, [r4, #16]
 100 000c C368     		ldr	r3, [r0, #12]
 101              	.LVL3:
 102 000e 0299     		ldr	r1, [sp, #8]
 103              	.LVL4:
 104 0010 5961     		str	r1, [r3, #20]
 105              	.LVL5:
 106 0012 C368     		ldr	r3, [r0, #12]
 107 0014 0249     		ldr	r1, .L5
 108 0016 1962     		str	r1, [r3, #32]
 109              		.loc 1 168 0
 110 0018 111C     		mov	r1, r2
 111 001a FFF7FEFF 		bl	_thread_init
 112              	.LVL6:
 113              		.loc 1 169 0
 114              		@ sp needed
ARM GAS  /tmp/ccMO6F4C.s 			page 3


 115 001e 10BD     		pop	{r4, pc}
 116              	.L6:
 117              		.align	2
 118              	.L5:
 119 0020 00000000 		.word	_port_thread_start
 120              		.cfi_endproc
 121              	.LFE8:
 122              		.size	chThdCreateI, .-chThdCreateI
 123              		.section	.text.chThdCreateStatic,"ax",%progbits
 124              		.align	2
 125              		.global	chThdCreateStatic
 126              		.code	16
 127              		.thumb_func
 128              		.type	chThdCreateStatic, %function
 129              	chThdCreateStatic:
 130              	.LFB9:
 131              		.loc 1 188 0
 132              		.cfi_startproc
 133              	.LVL7:
 134 0000 10B5     		push	{r4, lr}
 135              		.cfi_def_cfa_offset 8
 136              		.cfi_offset 4, -8
 137              		.cfi_offset 14, -4
 138 0002 82B0     		sub	sp, sp, #8
 139              		.cfi_def_cfa_offset 16
 140              		.loc 1 199 0
 141              	@ 199 "ChibiOS_2.6.5/os/kernel/src/chthreads.c" 1
 142 0004 72B6     		cpsid   i
 143              	@ 0 "" 2
 144              		.loc 1 200 0
 145              		.code	16
 146 0006 049C     		ldr	r4, [sp, #16]
 147 0008 0094     		str	r4, [sp]
 148 000a FFF7FEFF 		bl	chThdCreateI
 149              	.LVL8:
 150 000e 041C     		mov	r4, r0
 151              	.LVL9:
 152 0010 0021     		mov	r1, #0
 153 0012 FFF7FEFF 		bl	chSchWakeupS
 154              	.LVL10:
 155              		.loc 1 201 0
 156              	@ 201 "ChibiOS_2.6.5/os/kernel/src/chthreads.c" 1
 157 0016 62B6     		cpsie   i
 158              	@ 0 "" 2
 159              		.loc 1 203 0
 160              		.code	16
 161 0018 201C     		mov	r0, r4
 162 001a 02B0     		add	sp, sp, #8
 163              		@ sp needed
 164              	.LVL11:
 165 001c 10BD     		pop	{r4, pc}
 166              		.cfi_endproc
 167              	.LFE9:
 168              		.size	chThdCreateStatic, .-chThdCreateStatic
 169 001e C046     		.section	.text.chThdSetPriority,"ax",%progbits
 170              		.align	2
 171              		.global	chThdSetPriority
ARM GAS  /tmp/ccMO6F4C.s 			page 4


 172              		.code	16
 173              		.thumb_func
 174              		.type	chThdSetPriority, %function
 175              	chThdSetPriority:
 176              	.LFB10:
 177              		.loc 1 217 0
 178              		.cfi_startproc
 179              	.LVL12:
 180 0000 10B5     		push	{r4, lr}
 181              		.cfi_def_cfa_offset 8
 182              		.cfi_offset 4, -8
 183              		.cfi_offset 14, -4
 184              		.loc 1 222 0
 185              	@ 222 "ChibiOS_2.6.5/os/kernel/src/chthreads.c" 1
 186 0002 72B6     		cpsid   i
 187              	@ 0 "" 2
 188              		.loc 1 224 0
 189              		.code	16
 190 0004 084B     		ldr	r3, .L11
 191 0006 9B69     		ldr	r3, [r3, #24]
 192 0008 1C6C     		ldr	r4, [r3, #64]
 193              	.LVL13:
 194              		.loc 1 225 0
 195 000a 9968     		ldr	r1, [r3, #8]
 196 000c 8C42     		cmp	r4, r1
 197 000e 01D0     		beq	.L9
 198              		.loc 1 225 0 is_stmt 0 discriminator 1
 199 0010 8142     		cmp	r1, r0
 200 0012 00D2     		bcs	.L10
 201              	.L9:
 202              		.loc 1 226 0 is_stmt 1
 203 0014 9860     		str	r0, [r3, #8]
 204              	.L10:
 205              		.loc 1 227 0
 206 0016 044B     		ldr	r3, .L11
 207 0018 9B69     		ldr	r3, [r3, #24]
 208 001a 1864     		str	r0, [r3, #64]
 209              		.loc 1 232 0
 210 001c FFF7FEFF 		bl	chSchRescheduleS
 211              	.LVL14:
 212              		.loc 1 233 0
 213              	@ 233 "ChibiOS_2.6.5/os/kernel/src/chthreads.c" 1
 214 0020 62B6     		cpsie   i
 215              	@ 0 "" 2
 216              		.loc 1 235 0
 217              		.code	16
 218 0022 201C     		mov	r0, r4
 219              		@ sp needed
 220              	.LVL15:
 221 0024 10BD     		pop	{r4, pc}
 222              	.L12:
 223 0026 C046     		.align	2
 224              	.L11:
 225 0028 00000000 		.word	rlist
 226              		.cfi_endproc
 227              	.LFE10:
 228              		.size	chThdSetPriority, .-chThdSetPriority
ARM GAS  /tmp/ccMO6F4C.s 			page 5


 229              		.section	.text.chThdResume,"ax",%progbits
 230              		.align	2
 231              		.global	chThdResume
 232              		.code	16
 233              		.thumb_func
 234              		.type	chThdResume, %function
 235              	chThdResume:
 236              	.LFB11:
 237              		.loc 1 250 0
 238              		.cfi_startproc
 239              	.LVL16:
 240 0000 10B5     		push	{r4, lr}
 241              		.cfi_def_cfa_offset 8
 242              		.cfi_offset 4, -8
 243              		.cfi_offset 14, -4
 244 0002 041C     		mov	r4, r0
 245              		.loc 1 252 0
 246              	@ 252 "ChibiOS_2.6.5/os/kernel/src/chthreads.c" 1
 247 0004 72B6     		cpsid   i
 248              	@ 0 "" 2
 249              		.loc 1 256 0
 250              		.code	16
 251 0006 0021     		mov	r1, #0
 252 0008 FFF7FEFF 		bl	chSchWakeupS
 253              	.LVL17:
 254              		.loc 1 257 0
 255              	@ 257 "ChibiOS_2.6.5/os/kernel/src/chthreads.c" 1
 256 000c 62B6     		cpsie   i
 257              	@ 0 "" 2
 258              		.loc 1 259 0
 259              		.code	16
 260 000e 201C     		mov	r0, r4
 261              		@ sp needed
 262              	.LVL18:
 263 0010 10BD     		pop	{r4, pc}
 264              		.cfi_endproc
 265              	.LFE11:
 266              		.size	chThdResume, .-chThdResume
 267 0012 C046     		.section	.text.chThdTerminate,"ax",%progbits
 268              		.align	2
 269              		.global	chThdTerminate
 270              		.code	16
 271              		.thumb_func
 272              		.type	chThdTerminate, %function
 273              	chThdTerminate:
 274              	.LFB12:
 275              		.loc 1 273 0
 276              		.cfi_startproc
 277              	.LVL19:
 278              		.loc 1 275 0
 279              	@ 275 "ChibiOS_2.6.5/os/kernel/src/chthreads.c" 1
 280 0000 72B6     		cpsid   i
 281              	@ 0 "" 2
 282              		.loc 1 276 0
 283              		.code	16
 284 0002 427F     		ldrb	r2, [r0, #29]
 285 0004 0423     		mov	r3, #4
ARM GAS  /tmp/ccMO6F4C.s 			page 6


 286 0006 1343     		orr	r3, r2
 287 0008 4377     		strb	r3, [r0, #29]
 288              		.loc 1 277 0
 289              	@ 277 "ChibiOS_2.6.5/os/kernel/src/chthreads.c" 1
 290 000a 62B6     		cpsie   i
 291              	@ 0 "" 2
 292              		.loc 1 278 0
 293              		.code	16
 294              		@ sp needed
 295 000c 7047     		bx	lr
 296              		.cfi_endproc
 297              	.LFE12:
 298              		.size	chThdTerminate, .-chThdTerminate
 299 000e C046     		.section	.text.chThdSleep,"ax",%progbits
 300              		.align	2
 301              		.global	chThdSleep
 302              		.code	16
 303              		.thumb_func
 304              		.type	chThdSleep, %function
 305              	chThdSleep:
 306              	.LFB13:
 307              		.loc 1 292 0
 308              		.cfi_startproc
 309              	.LVL20:
 310 0000 08B5     		push	{r3, lr}
 311              		.cfi_def_cfa_offset 8
 312              		.cfi_offset 3, -8
 313              		.cfi_offset 14, -4
 314 0002 011C     		mov	r1, r0
 315              		.loc 1 296 0
 316              	@ 296 "ChibiOS_2.6.5/os/kernel/src/chthreads.c" 1
 317 0004 72B6     		cpsid   i
 318              	@ 0 "" 2
 319              		.loc 1 297 0
 320              		.code	16
 321 0006 0620     		mov	r0, #6
 322              	.LVL21:
 323 0008 FFF7FEFF 		bl	chSchGoSleepTimeoutS
 324              	.LVL22:
 325              		.loc 1 298 0
 326              	@ 298 "ChibiOS_2.6.5/os/kernel/src/chthreads.c" 1
 327 000c 62B6     		cpsie   i
 328              	@ 0 "" 2
 329              		.loc 1 299 0
 330              		.code	16
 331              		@ sp needed
 332 000e 08BD     		pop	{r3, pc}
 333              		.cfi_endproc
 334              	.LFE13:
 335              		.size	chThdSleep, .-chThdSleep
 336              		.section	.text.chThdSleepUntil,"ax",%progbits
 337              		.align	2
 338              		.global	chThdSleepUntil
 339              		.code	16
 340              		.thumb_func
 341              		.type	chThdSleepUntil, %function
 342              	chThdSleepUntil:
ARM GAS  /tmp/ccMO6F4C.s 			page 7


 343              	.LFB14:
 344              		.loc 1 309 0
 345              		.cfi_startproc
 346              	.LVL23:
 347 0000 08B5     		push	{r3, lr}
 348              		.cfi_def_cfa_offset 8
 349              		.cfi_offset 3, -8
 350              		.cfi_offset 14, -4
 351              		.loc 1 311 0
 352              	@ 311 "ChibiOS_2.6.5/os/kernel/src/chthreads.c" 1
 353 0002 72B6     		cpsid   i
 354              	@ 0 "" 2
 355              		.loc 1 312 0
 356              		.code	16
 357 0004 044B     		ldr	r3, .L18
 358 0006 DB68     		ldr	r3, [r3, #12]
 359 0008 C11A     		sub	r1, r0, r3
 360              	.LVL24:
 361 000a 02D0     		beq	.L17
 362              		.loc 1 313 0
 363 000c 0620     		mov	r0, #6
 364 000e FFF7FEFF 		bl	chSchGoSleepTimeoutS
 365              	.LVL25:
 366              	.L17:
 367              		.loc 1 314 0
 368              	@ 314 "ChibiOS_2.6.5/os/kernel/src/chthreads.c" 1
 369 0012 62B6     		cpsie   i
 370              	@ 0 "" 2
 371              		.loc 1 315 0
 372              		.code	16
 373              		@ sp needed
 374 0014 08BD     		pop	{r3, pc}
 375              	.L19:
 376 0016 C046     		.align	2
 377              	.L18:
 378 0018 00000000 		.word	vtlist
 379              		.cfi_endproc
 380              	.LFE14:
 381              		.size	chThdSleepUntil, .-chThdSleepUntil
 382              		.section	.text.chThdYield,"ax",%progbits
 383              		.align	2
 384              		.global	chThdYield
 385              		.code	16
 386              		.thumb_func
 387              		.type	chThdYield, %function
 388              	chThdYield:
 389              	.LFB15:
 390              		.loc 1 324 0
 391              		.cfi_startproc
 392 0000 08B5     		push	{r3, lr}
 393              		.cfi_def_cfa_offset 8
 394              		.cfi_offset 3, -8
 395              		.cfi_offset 14, -4
 396              		.loc 1 326 0
 397              	@ 326 "ChibiOS_2.6.5/os/kernel/src/chthreads.c" 1
 398 0002 72B6     		cpsid   i
 399              	@ 0 "" 2
ARM GAS  /tmp/ccMO6F4C.s 			page 8


 400              		.loc 1 327 0
 401              		.code	16
 402 0004 054B     		ldr	r3, .L22
 403 0006 1A68     		ldr	r2, [r3]
 404 0008 9B69     		ldr	r3, [r3, #24]
 405 000a 9268     		ldr	r2, [r2, #8]
 406 000c 9B68     		ldr	r3, [r3, #8]
 407 000e 9A42     		cmp	r2, r3
 408 0010 01D3     		bcc	.L21
 409              		.loc 1 327 0 is_stmt 0 discriminator 1
 410 0012 FFF7FEFF 		bl	chSchDoRescheduleBehind
 411              	.LVL26:
 412              	.L21:
 413              		.loc 1 328 0 is_stmt 1
 414              	@ 328 "ChibiOS_2.6.5/os/kernel/src/chthreads.c" 1
 415 0016 62B6     		cpsie   i
 416              	@ 0 "" 2
 417              		.loc 1 329 0
 418              		.code	16
 419              		@ sp needed
 420 0018 08BD     		pop	{r3, pc}
 421              	.L23:
 422 001a C046     		.align	2
 423              	.L22:
 424 001c 00000000 		.word	rlist
 425              		.cfi_endproc
 426              	.LFE15:
 427              		.size	chThdYield, .-chThdYield
 428              		.section	.text.chThdExitS,"ax",%progbits
 429              		.align	2
 430              		.global	chThdExitS
 431              		.code	16
 432              		.thumb_func
 433              		.type	chThdExitS, %function
 434              	chThdExitS:
 435              	.LFB17:
 436              		.loc 1 366 0
 437              		.cfi_startproc
 438              	.LVL27:
 439 0000 38B5     		push	{r3, r4, r5, lr}
 440              		.cfi_def_cfa_offset 16
 441              		.cfi_offset 3, -16
 442              		.cfi_offset 4, -12
 443              		.cfi_offset 5, -8
 444              		.cfi_offset 14, -4
 445              		.loc 1 367 0
 446 0002 0E4B     		ldr	r3, .L28
 447 0004 9C69     		ldr	r4, [r3, #24]
 448              	.LVL28:
 449              		.loc 1 369 0
 450 0006 6062     		str	r0, [r4, #36]
 451              		.loc 1 374 0
 452 0008 A06A     		ldr	r0, [r4, #40]
 453              	.LVL29:
 454 000a 251C     		mov	r5, r4
 455 000c 2835     		add	r5, r5, #40
 456 000e A842     		cmp	r0, r5
ARM GAS  /tmp/ccMO6F4C.s 			page 9


 457 0010 06D0     		beq	.L25
 458              	.LVL30:
 459              	.L26:
 460              	.LBB6:
 461              	.LBB7:
 462              		.file 2 "ChibiOS_2.6.5/os/kernel/include/chinline.h"
 463              		.loc 2 89 0
 464 0012 0268     		ldr	r2, [r0]
 465 0014 A262     		str	r2, [r4, #40]
 466              	.LBE7:
 467              	.LBE6:
 468              		.loc 1 375 0
 469 0016 FFF7FEFF 		bl	chSchReadyI
 470              	.LVL31:
 471              		.loc 1 374 0
 472 001a A06A     		ldr	r0, [r4, #40]
 473 001c A842     		cmp	r0, r5
 474 001e F8D1     		bne	.L26
 475              	.LVL32:
 476              	.L25:
 477              		.loc 1 380 0
 478 0020 637F     		ldrb	r3, [r4, #29]
 479 0022 9A07     		lsl	r2, r3, #30
 480 0024 05D1     		bne	.L27
 481              		.loc 1 381 0
 482 0026 6369     		ldr	r3, [r4, #20]
 483 0028 2269     		ldr	r2, [r4, #16]
 484 002a 1A61     		str	r2, [r3, #16]
 485 002c 2369     		ldr	r3, [r4, #16]
 486 002e 6469     		ldr	r4, [r4, #20]
 487              	.LVL33:
 488 0030 5C61     		str	r4, [r3, #20]
 489              	.L27:
 490              		.loc 1 383 0
 491 0032 0E20     		mov	r0, #14
 492 0034 FFF7FEFF 		bl	chSchGoSleepS
 493              	.LVL34:
 494              		.loc 1 386 0
 495              		@ sp needed
 496              	.LVL35:
 497 0038 38BD     		pop	{r3, r4, r5, pc}
 498              	.L29:
 499 003a C046     		.align	2
 500              	.L28:
 501 003c 00000000 		.word	rlist
 502              		.cfi_endproc
 503              	.LFE17:
 504              		.size	chThdExitS, .-chThdExitS
 505              		.section	.text.chThdExit,"ax",%progbits
 506              		.align	2
 507              		.global	chThdExit
 508              		.code	16
 509              		.thumb_func
 510              		.type	chThdExit, %function
 511              	chThdExit:
 512              	.LFB16:
 513              		.loc 1 345 0
ARM GAS  /tmp/ccMO6F4C.s 			page 10


 514              		.cfi_startproc
 515              	.LVL36:
 516 0000 08B5     		push	{r3, lr}
 517              		.cfi_def_cfa_offset 8
 518              		.cfi_offset 3, -8
 519              		.cfi_offset 14, -4
 520              		.loc 1 347 0
 521              	@ 347 "ChibiOS_2.6.5/os/kernel/src/chthreads.c" 1
 522 0002 72B6     		cpsid   i
 523              	@ 0 "" 2
 524              		.loc 1 348 0
 525              		.code	16
 526 0004 FFF7FEFF 		bl	chThdExitS
 527              	.LVL37:
 528              		.loc 1 350 0
 529              		@ sp needed
 530 0008 08BD     		pop	{r3, pc}
 531              		.cfi_endproc
 532              	.LFE16:
 533              		.size	chThdExit, .-chThdExit
 534 000a C046     		.section	.text.chThdWait,"ax",%progbits
 535              		.align	2
 536              		.global	chThdWait
 537              		.code	16
 538              		.thumb_func
 539              		.type	chThdWait, %function
 540              	chThdWait:
 541              	.LFB18:
 542              		.loc 1 420 0
 543              		.cfi_startproc
 544              	.LVL38:
 545 0000 38B5     		push	{r3, r4, r5, lr}
 546              		.cfi_def_cfa_offset 16
 547              		.cfi_offset 3, -16
 548              		.cfi_offset 4, -12
 549              		.cfi_offset 5, -8
 550              		.cfi_offset 14, -4
 551 0002 041C     		mov	r4, r0
 552              		.loc 1 425 0
 553              	@ 425 "ChibiOS_2.6.5/os/kernel/src/chthreads.c" 1
 554 0004 72B6     		cpsid   i
 555              	@ 0 "" 2
 556              		.loc 1 430 0
 557              		.code	16
 558 0006 037F     		ldrb	r3, [r0, #28]
 559 0008 0E2B     		cmp	r3, #14
 560 000a 07D0     		beq	.L32
 561              		.loc 1 431 0
 562 000c 074B     		ldr	r3, .L33
 563 000e 9B69     		ldr	r3, [r3, #24]
 564              	.LVL39:
 565              	.LBB8:
 566              	.LBB9:
 567              		.loc 2 82 0
 568 0010 826A     		ldr	r2, [r0, #40]
 569 0012 1A60     		str	r2, [r3]
 570              		.loc 2 83 0
ARM GAS  /tmp/ccMO6F4C.s 			page 11


 571 0014 8362     		str	r3, [r0, #40]
 572              	.LBE9:
 573              	.LBE8:
 574              		.loc 1 432 0
 575 0016 0720     		mov	r0, #7
 576              	.LVL40:
 577 0018 FFF7FEFF 		bl	chSchGoSleepS
 578              	.LVL41:
 579              	.L32:
 580              		.loc 1 434 0
 581 001c 656A     		ldr	r5, [r4, #36]
 582              	.LVL42:
 583              		.loc 1 435 0
 584              	@ 435 "ChibiOS_2.6.5/os/kernel/src/chthreads.c" 1
 585 001e 62B6     		cpsie   i
 586              	@ 0 "" 2
 587              		.loc 1 437 0
 588              		.code	16
 589 0020 201C     		mov	r0, r4
 590 0022 FFF7FEFF 		bl	chThdRelease
 591              	.LVL43:
 592              		.loc 1 440 0
 593 0026 281C     		mov	r0, r5
 594              		@ sp needed
 595              	.LVL44:
 596              	.LVL45:
 597 0028 38BD     		pop	{r3, r4, r5, pc}
 598              	.L34:
 599 002a C046     		.align	2
 600              	.L33:
 601 002c 00000000 		.word	rlist
 602              		.cfi_endproc
 603              	.LFE18:
 604              		.size	chThdWait, .-chThdWait
 605              		.text
 606              	.Letext0:
 607              		.file 3 "/usr/local/lpcxpresso_7.3.0_186/lpcxpresso/tools/lib/gcc/arm-none-eabi/4.8.4/include/stdd
 608              		.file 4 "/usr/local/lpcxpresso_7.3.0_186/lpcxpresso/tools/arm-none-eabi/include/machine/_default_t
 609              		.file 5 "/usr/local/lpcxpresso_7.3.0_186/lpcxpresso/tools/arm-none-eabi/include/stdint.h"
 610              		.file 6 "ChibiOS_2.6.5/os/ports/GCC/ARMCMx/chtypes.h"
 611              		.file 7 "ChibiOS_2.6.5/os/kernel/include/chlists.h"
 612              		.file 8 "ChibiOS_2.6.5/os/kernel/include/chthreads.h"
 613              		.file 9 "ChibiOS_2.6.5/os/ports/GCC/ARMCMx/chcore_v6m.h"
 614              		.file 10 "ChibiOS_2.6.5/os/kernel/include/chvt.h"
 615              		.file 11 "ChibiOS_2.6.5/os/kernel/include/chschd.h"
 616              		.file 12 "ChibiOS_2.6.5/os/kernel/include/chmtx.h"
 617              		.file 13 "ChibiOS_2.6.5/os/kernel/include/chdynamic.h"