ARM GAS  /tmp/ccVENZS4.s 			page 1


   1              		.cpu cortex-m0
   2              		.fpu softvfp
   3              		.eabi_attribute 20, 1
   4              		.eabi_attribute 21, 1
   5              		.eabi_attribute 23, 3
   6              		.eabi_attribute 24, 1
   7              		.eabi_attribute 25, 1
   8              		.eabi_attribute 26, 1
   9              		.eabi_attribute 30, 1
  10              		.eabi_attribute 34, 0
  11              		.eabi_attribute 18, 4
  12              		.code	16
  13              		.file	"ConfigDescriptor.c"
  14              		.text
  15              	.Ltext0:
  16              		.cfi_sections	.debug_frame
  17              		.section	.text.USB_GetNextDescriptorOfType,"ax",%progbits
  18              		.align	2
  19              		.global	USB_GetNextDescriptorOfType
  20              		.code	16
  21              		.thumb_func
  22              		.type	USB_GetNextDescriptorOfType, %function
  23              	USB_GetNextDescriptorOfType:
  24              	.LFB10:
  25              		.file 1 "USBlib_11U14/Drivers/USB/Core/ConfigDescriptor.c"
  26              		.loc 1 81 0
  27              		.cfi_startproc
  28              	.LVL0:
  29 0000 70B5     		push	{r4, r5, r6, lr}
  30              		.cfi_def_cfa_offset 16
  31              		.cfi_offset 4, -16
  32              		.cfi_offset 5, -12
  33              		.cfi_offset 6, -8
  34              		.cfi_offset 14, -4
  35              		.loc 1 82 0
  36 0002 0FE0     		b	.L2
  37              	.L5:
  38              	.LVL1:
  39              	.LBB9:
  40              	.LBB10:
  41              		.file 2 "USBlib_11U14/Drivers/USB/Core/ConfigDescriptor.h"
  42              		.loc 2 267 0
  43 0004 0C68     		ldr	r4, [r1]
  44 0006 2678     		ldrb	r6, [r4]
  45              	.LVL2:
  46 0008 1D1C     		add	r5, r3, #0
  47 000a B342     		cmp	r3, r6
  48 000c 00D9     		bls	.L3
  49 000e 351C     		add	r5, r6, #0
  50              	.L3:
  51 0010 ABB2     		uxth	r3, r5
  52              	.LVL3:
  53              		.loc 2 272 0
  54 0012 E418     		add	r4, r4, r3
  55 0014 0C60     		str	r4, [r1]
  56              		.loc 2 273 0
  57 0016 0488     		ldrh	r4, [r0]
ARM GAS  /tmp/ccVENZS4.s 			page 2


  58 0018 E31A     		sub	r3, r4, r3
  59 001a 0380     		strh	r3, [r0]
  60              	.LBE10:
  61              	.LBE9:
  62              		.loc 1 86 0
  63 001c 0C68     		ldr	r4, [r1]
  64 001e 6378     		ldrb	r3, [r4, #1]
  65 0020 9342     		cmp	r3, r2
  66 0022 02D0     		beq	.L1
  67              	.LVL4:
  68              	.L2:
  69              		.loc 1 82 0 discriminator 1
  70 0024 0388     		ldrh	r3, [r0]
  71 0026 002B     		cmp	r3, #0
  72 0028 ECD1     		bne	.L5
  73              	.L1:
  74              		.loc 1 89 0
  75              		@ sp needed
  76 002a 70BD     		pop	{r4, r5, r6, pc}
  77              		.cfi_endproc
  78              	.LFE10:
  79              		.size	USB_GetNextDescriptorOfType, .-USB_GetNextDescriptorOfType
  80              		.section	.text.USB_GetNextDescriptorOfTypeBefore,"ax",%progbits
  81              		.align	2
  82              		.global	USB_GetNextDescriptorOfTypeBefore
  83              		.code	16
  84              		.thumb_func
  85              		.type	USB_GetNextDescriptorOfTypeBefore, %function
  86              	USB_GetNextDescriptorOfTypeBefore:
  87              	.LFB11:
  88              		.loc 1 95 0
  89              		.cfi_startproc
  90              	.LVL5:
  91 0000 F0B5     		push	{r4, r5, r6, r7, lr}
  92              		.cfi_def_cfa_offset 20
  93              		.cfi_offset 4, -20
  94              		.cfi_offset 5, -16
  95              		.cfi_offset 6, -12
  96              		.cfi_offset 7, -8
  97              		.cfi_offset 14, -4
  98              		.loc 1 96 0
  99 0002 14E0     		b	.L7
 100              	.L11:
 101              	.LVL6:
 102              	.LBB11:
 103              	.LBB12:
 104              		.loc 2 267 0
 105 0004 0D68     		ldr	r5, [r1]
 106 0006 2F78     		ldrb	r7, [r5]
 107              	.LVL7:
 108 0008 261C     		add	r6, r4, #0
 109 000a BC42     		cmp	r4, r7
 110 000c 00D9     		bls	.L8
 111 000e 3E1C     		add	r6, r7, #0
 112              	.L8:
 113 0010 B4B2     		uxth	r4, r6
 114              	.LVL8:
ARM GAS  /tmp/ccVENZS4.s 			page 3


 115              		.loc 2 272 0
 116 0012 2D19     		add	r5, r5, r4
 117 0014 0D60     		str	r5, [r1]
 118              		.loc 2 273 0
 119 0016 0588     		ldrh	r5, [r0]
 120 0018 2C1B     		sub	r4, r5, r4
 121 001a 0480     		strh	r4, [r0]
 122              	.LBE12:
 123              	.LBE11:
 124              		.loc 1 100 0
 125 001c 0D68     		ldr	r5, [r1]
 126 001e 6C78     		ldrb	r4, [r5, #1]
 127 0020 9442     		cmp	r4, r2
 128 0022 07D0     		beq	.L6
 129              		.loc 1 104 0
 130 0024 9C42     		cmp	r4, r3
 131 0026 02D1     		bne	.L7
 132              		.loc 1 106 0
 133 0028 0023     		mov	r3, #0
 134              	.LVL9:
 135 002a 0380     		strh	r3, [r0]
 136              		.loc 1 107 0
 137 002c 02E0     		b	.L6
 138              	.LVL10:
 139              	.L7:
 140              		.loc 1 96 0 discriminator 1
 141 002e 0488     		ldrh	r4, [r0]
 142 0030 002C     		cmp	r4, #0
 143 0032 E7D1     		bne	.L11
 144              	.LVL11:
 145              	.L6:
 146              		.loc 1 110 0
 147              		@ sp needed
 148 0034 F0BD     		pop	{r4, r5, r6, r7, pc}
 149              		.cfi_endproc
 150              	.LFE11:
 151              		.size	USB_GetNextDescriptorOfTypeBefore, .-USB_GetNextDescriptorOfTypeBefore
 152 0036 C046     		.section	.text.USB_GetNextDescriptorOfTypeAfter,"ax",%progbits
 153              		.align	2
 154              		.global	USB_GetNextDescriptorOfTypeAfter
 155              		.code	16
 156              		.thumb_func
 157              		.type	USB_GetNextDescriptorOfTypeAfter, %function
 158              	USB_GetNextDescriptorOfTypeAfter:
 159              	.LFB12:
 160              		.loc 1 116 0
 161              		.cfi_startproc
 162              	.LVL12:
 163 0000 70B5     		push	{r4, r5, r6, lr}
 164              		.cfi_def_cfa_offset 16
 165              		.cfi_offset 4, -16
 166              		.cfi_offset 5, -12
 167              		.cfi_offset 6, -8
 168              		.cfi_offset 14, -4
 169 0002 041C     		mov	r4, r0
 170 0004 0D1C     		mov	r5, r1
 171 0006 161C     		mov	r6, r2
ARM GAS  /tmp/ccVENZS4.s 			page 4


 172              		.loc 1 117 0
 173 0008 1A1C     		mov	r2, r3
 174              	.LVL13:
 175 000a FFF7FEFF 		bl	USB_GetNextDescriptorOfType
 176              	.LVL14:
 177              		.loc 1 119 0
 178 000e 2388     		ldrh	r3, [r4]
 179 0010 002B     		cmp	r3, #0
 180 0012 04D0     		beq	.L12
 181              		.loc 1 120 0
 182 0014 201C     		mov	r0, r4
 183 0016 291C     		mov	r1, r5
 184 0018 321C     		mov	r2, r6
 185 001a FFF7FEFF 		bl	USB_GetNextDescriptorOfType
 186              	.LVL15:
 187              	.L12:
 188              		.loc 1 121 0
 189              		@ sp needed
 190              	.LVL16:
 191              	.LVL17:
 192 001e 70BD     		pop	{r4, r5, r6, pc}
 193              		.cfi_endproc
 194              	.LFE12:
 195              		.size	USB_GetNextDescriptorOfTypeAfter, .-USB_GetNextDescriptorOfTypeAfter
 196              		.section	.text.USB_GetNextDescriptorComp,"ax",%progbits
 197              		.align	2
 198              		.global	USB_GetNextDescriptorComp
 199              		.code	16
 200              		.thumb_func
 201              		.type	USB_GetNextDescriptorComp, %function
 202              	USB_GetNextDescriptorComp:
 203              	.LFB13:
 204              		.loc 1 126 0
 205              		.cfi_startproc
 206              	.LVL18:
 207 0000 F0B5     		push	{r4, r5, r6, r7, lr}
 208              		.cfi_def_cfa_offset 20
 209              		.cfi_offset 4, -20
 210              		.cfi_offset 5, -16
 211              		.cfi_offset 6, -12
 212              		.cfi_offset 7, -8
 213              		.cfi_offset 14, -4
 214 0002 4746     		mov	r7, r8
 215 0004 80B4     		push	{r7}
 216              		.cfi_def_cfa_offset 24
 217              		.cfi_offset 8, -24
 218 0006 051C     		mov	r5, r0
 219 0008 0E1C     		mov	r6, r1
 220 000a 9046     		mov	r8, r2
 221              		.loc 1 129 0
 222 000c 16E0     		b	.L15
 223              	.LVL19:
 224              	.L19:
 225              	.LBB13:
 226              		.loc 1 131 0
 227 000e 3768     		ldr	r7, [r6]
 228              	.LVL20:
ARM GAS  /tmp/ccVENZS4.s 			page 5


 229              	.LBB14:
 230              	.LBB15:
 231              		.loc 2 267 0
 232 0010 3978     		ldrb	r1, [r7]
 233              	.LVL21:
 234 0012 231C     		add	r3, r4, #0
 235 0014 8C42     		cmp	r4, r1
 236 0016 00D9     		bls	.L16
 237 0018 0B1C     		add	r3, r1, #0
 238              	.L16:
 239 001a 9BB2     		uxth	r3, r3
 240              	.LVL22:
 241              		.loc 2 272 0
 242 001c FA18     		add	r2, r7, r3
 243 001e 3260     		str	r2, [r6]
 244              		.loc 2 273 0
 245 0020 2A88     		ldrh	r2, [r5]
 246 0022 D31A     		sub	r3, r2, r3
 247 0024 2B80     		strh	r3, [r5]
 248              	.LBE15:
 249              	.LBE14:
 250              		.loc 1 136 0
 251 0026 3068     		ldr	r0, [r6]
 252 0028 C047     		blx	r8
 253              	.LVL23:
 254 002a 0228     		cmp	r0, #2
 255 002c 06D0     		beq	.L15
 256 002e 031E     		sub	r3, r0, #0
 257              		.loc 1 138 0
 258 0030 012B     		cmp	r3, #1
 259 0032 07D1     		bne	.L18
 260              		.loc 1 140 0
 261 0034 3760     		str	r7, [r6]
 262              		.loc 1 141 0
 263 0036 2C80     		strh	r4, [r5]
 264              		.loc 1 136 0
 265 0038 0123     		mov	r3, #1
 266 003a 03E0     		b	.L18
 267              	.LVL24:
 268              	.L15:
 269              	.LBE13:
 270              		.loc 1 129 0 discriminator 1
 271 003c 2C88     		ldrh	r4, [r5]
 272 003e 002C     		cmp	r4, #0
 273 0040 E5D1     		bne	.L19
 274              		.loc 1 148 0
 275 0042 0223     		mov	r3, #2
 276              	.L18:
 277              		.loc 1 149 0
 278 0044 181C     		mov	r0, r3
 279              		@ sp needed
 280              	.LVL25:
 281              	.LVL26:
 282              	.LVL27:
 283 0046 04BC     		pop	{r2}
 284 0048 9046     		mov	r8, r2
 285 004a F0BD     		pop	{r4, r5, r6, r7, pc}
ARM GAS  /tmp/ccVENZS4.s 			page 6


 286              		.cfi_endproc
 287              	.LFE13:
 288              		.size	USB_GetNextDescriptorComp, .-USB_GetNextDescriptorComp
 289              		.text
 290              	.Letext0:
 291              		.file 3 "/usr/local/lpcxpresso_7.3.0_186/lpcxpresso/tools/arm-none-eabi/include/machine/_default_t
 292              		.file 4 "/usr/local/lpcxpresso_7.3.0_186/lpcxpresso/tools/arm-none-eabi/include/stdint.h"
 293              		.file 5 "USBlib_11U14/Drivers/USB/Core/StdDescriptors.h"