ARM GAS  /tmp/ccVENZS4.s 			page 1


   1              		.cpu cortex-m0
   2              		.fpu softvfp
   3              		.eabi_attribute 20, 1
   4              		.eabi_attribute 21, 1
   5              		.eabi_attribute 23, 3
   6              		.eabi_attribute 24, 1
   7              		.eabi_attribute 25, 1
   8              		.eabi_attribute 26, 1
   9              		.eabi_attribute 30, 1
  10              		.eabi_attribute 34, 0
  11              		.eabi_attribute 18, 4
  12              		.code	16
  13              		.file	"ConfigDescriptor.c"
  14              		.text
  15              	.Ltext0:
  16              		.cfi_sections	.debug_frame
  17              		.section	.text.USB_GetNextDescriptorOfType,"ax",%progbits
  18              		.align	2
  19              		.global	USB_GetNextDescriptorOfType
  20              		.code	16
  21              		.thumb_func
  22              		.type	USB_GetNextDescriptorOfType, %function
  23              	USB_GetNextDescriptorOfType:
  24              	.LFB10:
  25              		.file 1 "USBlib_11U14/Drivers/USB/Core/ConfigDescriptor.c"
  26              		.loc 1 81 0
  27              		.cfi_startproc
  28              	.LVL0:
  29 0000 70B5     		push	{r4, r5, r6, lr}
  30              		.cfi_def_cfa_offset 16
  31              		.cfi_offset 4, -16
  32              		.cfi_offset 5, -12
  33              		.cfi_offset 6, -8
  34              		.cfi_offset 14, -4
  35              		.loc 1 82 0
  36 0002 0FE0     		b	.L2
  37              	.L5:
  38              	.LVL1:
  39              	.LBB9:
  40              	.LBB10:
  41              		.file 2 "USBlib_11U14/Drivers/USB/Core/ConfigDescriptor.h"
  42              		.loc 2 267 0
  43 0004 0C68     		ldr	r4, [r1]
  44 0006 2678     		ldrb	r6, [r4]
  45              	.LVL2:
  46 0008 1D1C     		add	r5, r3, #0
  47 000a B342     		cmp	r3, r6
  48 000c 00D9     		bls	.L3
  49 000e 351C     		add	r5, r6, #0
  50              	.L3:
  51 0010 ABB2     		uxth	r3, r5
  52              	.LVL3:
  53              		.loc 2 272 0
  54 0012 E418     		add	r4, r4, r3
  55 0014 0C60     		str	r4, [r1]
  56              		.loc 2 273 0
  57 0016 0488     		ldrh	r4, [r0]
ARM GAS  /tmp/ccVENZS4.s 			page 2


  58 0018 E31A     		sub	r3, r4, r3
  59 001a 0380     		strh	r3, [r0]
  60              	.LBE10:
  61              	.LBE9:
  62              		.loc 1 86 0
  63 001c 0C68     		ldr	r4, [r1]
  64 001e 6378     		ldrb	r3, [r4, #1]
  65 0020 9342     		cmp	r3, r2
  66 0022 02D0     		beq	.L1
  67              	.LVL4:
  68              	.L2:
  69              		.loc 1 82 0 discriminator 1
  70 0024 0388     		ldrh	r3, [r0]
  71 0026 002B     		cmp	r3, #0
  72 0028 ECD1     		bne	.L5
  73              	.L1:
  74              		.loc 1 89 0
  75              		@ sp needed
  76 002a 70BD     		pop	{r4, r5, r6, pc}
  77              		.cfi_endproc
  78              	.LFE10:
  79              		.size	USB_GetNextDescriptorOfType, .-USB_GetNextDescriptorOfType
  80              		.section	.text.USB_GetNextDescriptorOfTypeBefore,"ax",%progbits
  81              		.align	2
  82              		.global	USB_GetNextDescriptorOfTypeBefore
  83              		.code	16
  84              		.thumb_func
  85              		.type	USB_GetNextDescriptorOfTypeBefore, %function
  86              	USB_GetNextDescriptorOfTypeBefore:
  87              	.LFB11:
  88              		.loc 1 95 0
  89              		.cfi_startproc
  90              	.LVL5:
  91 0000 F0B5     		push	{r4, r5, r6, r7, lr}
  92              		.cfi_def_cfa_offset 20
  93              		.cfi_offset 4, -20
  94              		.cfi_offset 5, -16
  95              		.cfi_offset 6, -12
  96              		.cfi_offset 7, -8
  97              		.cfi_offset 14, -4
  98              		.loc 1 96 0
  99 0002 14E0     		b	.L7
 100              	.L11:
 101              	.LVL6:
 102              	.LBB11:
 103              	.LBB12:
 104              		.loc 2 267 0
 105 0004 0D68     		ldr	r5, [r1]
 106 0006 2F78     		ldrb	r7, [r5]
 107              	.LVL7:
 108 0008 261C     		add	r6, r4, #0
 109 000a BC42     		cmp	r4, r7
 110 000c 00D9     		bls	.L8
 111 000e 3E1C     		add	r6, r7, #0
 112              	.L8:
 113 0010 B4B2     		uxth	r4, r6
 114              	.LVL8:
ARM GAS  /tmp/ccVENZS4.s 			page 3


 115              		.loc 2 272 0
 116 0012 2D19     		add	r5, r5, r4
 117 0014 0D60     		str	r5, [r1]
 118              		.loc 2 273 0
 119 0016 0588     		ldrh	r5, [r0]
 120 0018 2C1B     		sub	r4, r5, r4
 121 001a 0480     		strh	r4, [r0]
 122              	.LBE12:
 123              	.LBE11:
 124              		.loc 1 100 0
 125 001c 0D68     		ldr	r5, [r1]
 126 001e 6C78     		ldrb	r4, [r5, #1]
 127 0020 9442     		cmp	r4, r2
 128 0022 07D0     		beq	.L6
 129              		.loc 1 104 0
 130 0024 9C42     		cmp	r4, r3
 131 0026 02D1     		bne	.L7
 132              		.loc 1 106 0
 133 0028 0023     		mov	r3, #0
 134              	.LVL9:
 135 002a 0380     		strh	r3, [r0]
 136              		.loc 1 107 0
 137 002c 02E0     		b	.L6
 138              	.LVL10:
 139              	.L7:
 140              		.loc 1 96 0 discriminator 1
 141 002e 0488     		ldrh	r4, [r0]
 142 0030 002C     		cmp	r4, #0
 143 0032 E7D1     		bne	.L11
 144              	.LVL11:
 145              	.L6:
 146              		.loc 1 110 0
 147              		@ sp needed
 148 0034 F0BD     		pop	{r4, r5, r6, r7, pc}
 149              		.cfi_endproc
 150              	.LFE11:
 151              		.size	USB_GetNextDescriptorOfTypeBefore, .-USB_GetNextDescriptorOfTypeBefore
 152 0036 C046     		.section	.text.USB_GetNextDescriptorOfTypeAfter,"ax",%progbits
 153              		.align	2
 154              		.global	USB_GetNextDescriptorOfTypeAfter
 155              		.code	16
 156              		.thumb_func
 157              		.type	USB_GetNextDescriptorOfTypeAfter, %function
 158              	USB_GetNextDescriptorOfTypeAfter:
 159              	.LFB12:
 160              		.loc 1 116 0
 161              		.cfi_startproc
 162              	.LVL12:
 163 0000 70B5     		push	{r4, r5, r6, lr}
 164              		.cfi_def_cfa_offset 16
 165              		.cfi_offset 4, -16
 166              		.cfi_offset 5, -12
 167              		.cfi_offset 6, -8
 168              		.cfi_offset 14, -4
 169 0002 041C     		mov	r4, r0
 170 0004 0D1C     		mov	r5, r1
 171 0006 161C     		mov	r6, r2
ARM GAS  /tmp/ccVENZS4.s 			page 4


 172              		.loc 1 117 0
 173 0008 1A1C     		mov	r2, r3
 174              	.LVL13:
 175 000a FFF7FEFF 		bl	USB_GetNextDescriptorOfType
 176              	.LVL14:
 177              		.loc 1 119 0
 178 000e 2388     		ldrh	r3, [r4]
 179 0010 002B     		cmp	r3, #0
 180 0012 04D0     		beq	.L12
 181              		.loc 1 120 0
 182 0014 201C     		mov	r0, r4
 183 0016 291C     		mov	r1, r5
 184 0018 321C     		mov	r2, r6
 185 001a FFF7FEFF 		bl	USB_GetNextDescriptorOfType
 186              	.LVL15:
 187              	.L12:
 188              		.loc 1 121 0
 189              		@ sp needed
 190              	.LVL16:
 191              	.LVL17:
 192 001e 70BD     		pop	{r4, r5, r6, pc}
 193              		.cfi_endproc
 194              	.LFE12:
 195              		.size	USB_GetNextDescriptorOfTypeAfter, .-USB_GetNextDescriptorOfTypeAfter
 196              		.section	.text.USB_GetNextDescriptorComp,"ax",%progbits
 197              		.align	2
 198              		.global	USB_GetNextDescriptorComp
 199              		.code	16
 200              		.thumb_func
 201              		.type	USB_GetNextDescriptorComp, %function
 202              	USB_GetNextDescriptorComp:
 203              	.LFB13:
 204              		.loc 1 126 0
 205              		.cfi_startproc
 206              	.LVL18:
 207 0000 F0B5     		push	{r4, r5, r6, r7, lr}
 208              		.cfi_def_cfa_offset 20
 209              		.cfi_offset 4, -20
 210              		.cfi_offset 5, -16
 211              		.cfi_offset 6, -12
 212              		.cfi_offset 7, -8
 213              		.cfi_offset 14, -4
 214 0002 4746     		mov	r7, r8
 215 0004 80B4     		push	{r7}
 216              		.cfi_def_cfa_offset 24
 217              		.cfi_offset 8, -24
 218 0006 051C     		mov	r5, r0
 219 0008 0E1C     		mov	r6, r1
 220 000a 9046     		mov	r8, r2
 221              		.loc 1 129 0
 222 000c 16E0     		b	.L15
 223              	.LVL19:
 224              	.L19:
 225              	.LBB13:
 226              		.loc 1 131 0
 227 000e 3768     		ldr	r7, [r6]
 228              	.LVL20:
ARM GAS  /tmp/ccVENZS4.s 			page 5


 229              	.LBB14:
 230              	.LBB15:
 231              		.loc 2 267 0
 232 0010 3978     		ldrb	r1, [r7]
 233              	.LVL21:
 234 0012 231C     		add	r3, r4, #0
 235 0014 8C42     		cmp	r4, r1
 236 0016 00D9     		bls	.L16
 237 0018 0B1C     		add	r3, r1, #0
 238              	.L16:
 239 001a 9BB2     		uxth	r3, r3
 240              	.LVL22:
 241              		.loc 2 272 0
 242 001c FA18     		add	r2, r7, r3
 243 001e 3260     		str	r2, [r6]
 244              		.loc 2 273 0
 245 0020 2A88     		ldrh	r2, [r5]
 246 0022 D31A     		sub	r3, r2, r3
 247 0024 2B80     		strh	r3, [r5]
 248              	.LBE15:
 249              	.LBE14:
 250              		.loc 1 136 0
 251 0026 3068     		ldr	r0, [r6]
 252 0028 C047     		blx	r8
 253              	.LVL23:
 254 002a 0228     		cmp	r0, #2
 255 002c 06D0     		beq	.L15
 256 002e 031E     		sub	r3, r0, #0
 257              		.loc 1 138 0
 258 0030 012B     		cmp	r3, #1
 259 0032 07D1     		bne	.L18
 260              		.loc 1 140 0
 261 0034 3760     		str	r7, [r6]
 262              		.loc 1 141 0
 263 0036 2C80     		strh	r4, [r5]
 264              		.loc 1 136 0
 265 0038 0123     		mov	r3, #1
 266 003a 03E0     		b	.L18
 267              	.LVL24:
 268              	.L15:
 269              	.LBE13:
 270              		.loc 1 129 0 discriminator 1
 271 003c 2C88     		ldrh	r4, [r5]
 272 003e 002C     		cmp	r4, #0
 273 0040 E5D1     		bne	.L19
 274              		.loc 1 148 0
 275 0042 0223     		mov	r3, #2
 276              	.L18:
 277              		.loc 1 149 0
 278 0044 181C     		mov	r0, r3
 279              		@ sp needed
 280              	.LVL25:
 281              	.LVL26:
 282              	.LVL27:
 283 0046 04BC     		pop	{r2}
 284 0048 9046     		mov	r8, r2
 285 004a F0BD     		pop	{r4, r5, r6, r7, pc}
ARM GAS  /tmp/ccVENZS4.s 			page 6


 286              		.cfi_endproc
 287              	.LFE13:
 288              		.size	USB_GetNextDescriptorComp, .-USB_GetNextDescriptorComp
 289              		.text
 290              	.Letext0:
 291              		.file 3 "/usr/local/lpcxpresso_7.3.0_186/lpcxpresso/tools/arm-none-eabi/include/machine/_default_t
 292              		.file 4 "/usr/local/lpcxpresso_7.3.0_186/lpcxpresso/tools/arm-none-eabi/include/stdint.h"
 293              		.file 5 "USBlib_11U14/Drivers/USB/Core/StdDescriptors.h"
 294              		.section	.debug_info,"",%progbits
 295              	.Ldebug_info0:
 296 0000 CA030000 		.4byte	0x3ca
 297 0004 0400     		.2byte	0x4
 298 0006 00000000 		.4byte	.Ldebug_abbrev0
 299 000a 04       		.byte	0x4
 300 000b 01       		.uleb128 0x1
 301 000c 64020000 		.4byte	.LASF40
 302 0010 01       		.byte	0x1
 303 0011 45030000 		.4byte	.LASF41
 304 0015 49010000 		.4byte	.LASF42
 305 0019 00000000 		.4byte	.Ldebug_ranges0+0
 306 001d 00000000 		.4byte	0
 307 0021 00000000 		.4byte	.Ldebug_line0
 308 0025 02       		.uleb128 0x2
 309 0026 01       		.byte	0x1
 310 0027 06       		.byte	0x6
 311 0028 A9030000 		.4byte	.LASF0
 312 002c 03       		.uleb128 0x3
 313 002d 00000000 		.4byte	.LASF3
 314 0031 03       		.byte	0x3
 315 0032 1C       		.byte	0x1c
 316 0033 37000000 		.4byte	0x37
 317 0037 02       		.uleb128 0x2
 318 0038 01       		.byte	0x1
 319 0039 08       		.byte	0x8
 320 003a 9D000000 		.4byte	.LASF1
 321 003e 02       		.uleb128 0x2
 322 003f 02       		.byte	0x2
 323 0040 05       		.byte	0x5
 324 0041 76030000 		.4byte	.LASF2
 325 0045 03       		.uleb128 0x3
 326 0046 2C010000 		.4byte	.LASF4
 327 004a 03       		.byte	0x3
 328 004b 26       		.byte	0x26
 329 004c 50000000 		.4byte	0x50
 330 0050 02       		.uleb128 0x2
 331 0051 02       		.byte	0x2
 332 0052 07       		.byte	0x7
 333 0053 D2000000 		.4byte	.LASF5
 334 0057 02       		.uleb128 0x2
 335 0058 04       		.byte	0x4
 336 0059 05       		.byte	0x5
 337 005a A0030000 		.4byte	.LASF6
 338 005e 02       		.uleb128 0x2
 339 005f 04       		.byte	0x4
 340 0060 07       		.byte	0x7
 341 0061 37010000 		.4byte	.LASF7
 342 0065 02       		.uleb128 0x2
ARM GAS  /tmp/ccVENZS4.s 			page 7


 343 0066 08       		.byte	0x8
 344 0067 05       		.byte	0x5
 345 0068 29030000 		.4byte	.LASF8
 346 006c 02       		.uleb128 0x2
 347 006d 08       		.byte	0x8
 348 006e 07       		.byte	0x7
 349 006f F2010000 		.4byte	.LASF9
 350 0073 04       		.uleb128 0x4
 351 0074 04       		.byte	0x4
 352 0075 05       		.byte	0x5
 353 0076 696E7400 		.ascii	"int\000"
 354 007a 03       		.uleb128 0x3
 355 007b 19000000 		.4byte	.LASF10
 356 007f 03       		.byte	0x3
 357 0080 A9       		.byte	0xa9
 358 0081 85000000 		.4byte	0x85
 359 0085 02       		.uleb128 0x2
 360 0086 04       		.byte	0x4
 361 0087 07       		.byte	0x7
 362 0088 C3010000 		.4byte	.LASF11
 363 008c 03       		.uleb128 0x3
 364 008d 25000000 		.4byte	.LASF12
 365 0091 04       		.byte	0x4
 366 0092 2A       		.byte	0x2a
 367 0093 2C000000 		.4byte	0x2c
 368 0097 03       		.uleb128 0x3
 369 0098 97030000 		.4byte	.LASF13
 370 009c 04       		.byte	0x4
 371 009d 36       		.byte	0x36
 372 009e 45000000 		.4byte	0x45
 373 00a2 03       		.uleb128 0x3
 374 00a3 0A000000 		.4byte	.LASF14
 375 00a7 04       		.byte	0x4
 376 00a8 BF       		.byte	0xbf
 377 00a9 7A000000 		.4byte	0x7a
 378 00ad 02       		.uleb128 0x2
 379 00ae 04       		.byte	0x4
 380 00af 07       		.byte	0x7
 381 00b0 37030000 		.4byte	.LASF15
 382 00b4 05       		.uleb128 0x5
 383 00b5 04       		.byte	0x4
 384 00b6 02       		.uleb128 0x2
 385 00b7 01       		.byte	0x1
 386 00b8 08       		.byte	0x8
 387 00b9 40030000 		.4byte	.LASF16
 388 00bd 06       		.uleb128 0x6
 389 00be 02       		.byte	0x2
 390 00bf 05       		.byte	0x5
 391 00c0 F1       		.byte	0xf1
 392 00c1 DE000000 		.4byte	0xde
 393 00c5 07       		.uleb128 0x7
 394 00c6 23020000 		.4byte	.LASF17
 395 00ca 05       		.byte	0x5
 396 00cb F3       		.byte	0xf3
 397 00cc 8C000000 		.4byte	0x8c
 398 00d0 00       		.byte	0
 399 00d1 07       		.uleb128 0x7
ARM GAS  /tmp/ccVENZS4.s 			page 8


 400 00d2 14000000 		.4byte	.LASF18
 401 00d6 05       		.byte	0x5
 402 00d7 F4       		.byte	0xf4
 403 00d8 8C000000 		.4byte	0x8c
 404 00dc 01       		.byte	0x1
 405 00dd 00       		.byte	0
 406 00de 03       		.uleb128 0x3
 407 00df 7A000000 		.4byte	.LASF19
 408 00e3 05       		.byte	0x5
 409 00e4 F7       		.byte	0xf7
 410 00e5 BD000000 		.4byte	0xbd
 411 00e9 03       		.uleb128 0x3
 412 00ea 68010000 		.4byte	.LASF20
 413 00ee 02       		.byte	0x2
 414 00ef 6C       		.byte	0x6c
 415 00f0 F4000000 		.4byte	0xf4
 416 00f4 08       		.uleb128 0x8
 417 00f5 04       		.byte	0x4
 418 00f6 FA000000 		.4byte	0xfa
 419 00fa 09       		.uleb128 0x9
 420 00fb 8C000000 		.4byte	0x8c
 421 00ff 09010000 		.4byte	0x109
 422 0103 0A       		.uleb128 0xa
 423 0104 B4000000 		.4byte	0xb4
 424 0108 00       		.byte	0
 425 0109 0B       		.uleb128 0xb
 426 010a 48020000 		.4byte	.LASF24
 427 010e 01       		.byte	0x1
 428 010f 02       		.byte	0x2
 429 0110 82       		.byte	0x82
 430 0111 28010000 		.4byte	0x128
 431 0115 0C       		.uleb128 0xc
 432 0116 B5030000 		.4byte	.LASF21
 433 011a 00       		.sleb128 0
 434 011b 0C       		.uleb128 0xc
 435 011c 80030000 		.4byte	.LASF22
 436 0120 01       		.sleb128 1
 437 0121 0C       		.uleb128 0xc
 438 0122 B7000000 		.4byte	.LASF23
 439 0126 02       		.sleb128 2
 440 0127 00       		.byte	0
 441 0128 0B       		.uleb128 0xb
 442 0129 EF000000 		.4byte	.LASF25
 443 012d 01       		.byte	0x1
 444 012e 02       		.byte	0x2
 445 012f 8A       		.byte	0x8a
 446 0130 47010000 		.4byte	0x147
 447 0134 0C       		.uleb128 0xc
 448 0135 7E010000 		.4byte	.LASF26
 449 0139 00       		.sleb128 0
 450 013a 0C       		.uleb128 0xc
 451 013b 5E000000 		.4byte	.LASF27
 452 013f 01       		.sleb128 1
 453 0140 0C       		.uleb128 0xc
 454 0141 2D000000 		.4byte	.LASF28
 455 0145 02       		.sleb128 2
 456 0146 00       		.byte	0
ARM GAS  /tmp/ccVENZS4.s 			page 9


 457 0147 0D       		.uleb128 0xd
 458 0148 AD010000 		.4byte	.LASF43
 459 014c 02       		.byte	0x2
 460 014d 0801     		.2byte	0x108
 461 014f 03       		.byte	0x3
 462 0150 79010000 		.4byte	0x179
 463 0154 0E       		.uleb128 0xe
 464 0155 FC030000 		.4byte	.LASF29
 465 0159 02       		.byte	0x2
 466 015a 0801     		.2byte	0x108
 467 015c 79010000 		.4byte	0x179
 468 0160 0E       		.uleb128 0xe
 469 0161 CD030000 		.4byte	.LASF30
 470 0165 02       		.byte	0x2
 471 0166 0901     		.2byte	0x109
 472 0168 84010000 		.4byte	0x184
 473 016c 0F       		.uleb128 0xf
 474 016d 28020000 		.4byte	.LASF44
 475 0171 02       		.byte	0x2
 476 0172 0B01     		.2byte	0x10b
 477 0174 97000000 		.4byte	0x97
 478 0178 00       		.byte	0
 479 0179 10       		.uleb128 0x10
 480 017a 7E010000 		.4byte	0x17e
 481 017e 08       		.uleb128 0x8
 482 017f 04       		.byte	0x4
 483 0180 97000000 		.4byte	0x97
 484 0184 08       		.uleb128 0x8
 485 0185 04       		.byte	0x4
 486 0186 B4000000 		.4byte	0xb4
 487 018a 11       		.uleb128 0x11
 488 018b 10010000 		.4byte	.LASF31
 489 018f 01       		.byte	0x1
 490 0190 4E       		.byte	0x4e
 491 0191 00000000 		.4byte	.LFB10
 492 0195 2C000000 		.4byte	.LFE10-.LFB10
 493 0199 01       		.uleb128 0x1
 494 019a 9C       		.byte	0x9c
 495 019b FC010000 		.4byte	0x1fc
 496 019f 12       		.uleb128 0x12
 497 01a0 FC030000 		.4byte	.LASF29
 498 01a4 01       		.byte	0x1
 499 01a5 4E       		.byte	0x4e
 500 01a6 79010000 		.4byte	0x179
 501 01aa 01       		.uleb128 0x1
 502 01ab 50       		.byte	0x50
 503 01ac 12       		.uleb128 0x12
 504 01ad CD030000 		.4byte	.LASF30
 505 01b1 01       		.byte	0x1
 506 01b2 4F       		.byte	0x4f
 507 01b3 FC010000 		.4byte	0x1fc
 508 01b7 01       		.uleb128 0x1
 509 01b8 51       		.byte	0x51
 510 01b9 12       		.uleb128 0x12
 511 01ba 14000000 		.4byte	.LASF18
 512 01be 01       		.byte	0x1
 513 01bf 50       		.byte	0x50
ARM GAS  /tmp/ccVENZS4.s 			page 10


 514 01c0 01020000 		.4byte	0x201
 515 01c4 01       		.uleb128 0x1
 516 01c5 52       		.byte	0x52
 517 01c6 13       		.uleb128 0x13
 518 01c7 47010000 		.4byte	0x147
 519 01cb 04000000 		.4byte	.LBB9
 520 01cf 18000000 		.4byte	.LBE9-.LBB9
 521 01d3 01       		.byte	0x1
 522 01d4 54       		.byte	0x54
 523 01d5 14       		.uleb128 0x14
 524 01d6 60010000 		.4byte	0x160
 525 01da 00000000 		.4byte	.LLST0
 526 01de 14       		.uleb128 0x14
 527 01df 54010000 		.4byte	0x154
 528 01e3 13000000 		.4byte	.LLST1
 529 01e7 15       		.uleb128 0x15
 530 01e8 04000000 		.4byte	.LBB10
 531 01ec 18000000 		.4byte	.LBE10-.LBB10
 532 01f0 16       		.uleb128 0x16
 533 01f1 6C010000 		.4byte	0x16c
 534 01f5 26000000 		.4byte	.LLST2
 535 01f9 00       		.byte	0
 536 01fa 00       		.byte	0
 537 01fb 00       		.byte	0
 538 01fc 10       		.uleb128 0x10
 539 01fd 84010000 		.4byte	0x184
 540 0201 10       		.uleb128 0x10
 541 0202 8C000000 		.4byte	0x8c
 542 0206 11       		.uleb128 0x11
 543 0207 D0010000 		.4byte	.LASF32
 544 020b 01       		.byte	0x1
 545 020c 5B       		.byte	0x5b
 546 020d 00000000 		.4byte	.LFB11
 547 0211 36000000 		.4byte	.LFE11-.LFB11
 548 0215 01       		.uleb128 0x1
 549 0216 9C       		.byte	0x9c
 550 0217 87020000 		.4byte	0x287
 551 021b 12       		.uleb128 0x12
 552 021c FC030000 		.4byte	.LASF29
 553 0220 01       		.byte	0x1
 554 0221 5B       		.byte	0x5b
 555 0222 79010000 		.4byte	0x179
 556 0226 01       		.uleb128 0x1
 557 0227 50       		.byte	0x50
 558 0228 12       		.uleb128 0x12
 559 0229 CD030000 		.4byte	.LASF30
 560 022d 01       		.byte	0x1
 561 022e 5C       		.byte	0x5c
 562 022f FC010000 		.4byte	0x1fc
 563 0233 01       		.uleb128 0x1
 564 0234 51       		.byte	0x51
 565 0235 12       		.uleb128 0x12
 566 0236 14000000 		.4byte	.LASF18
 567 023a 01       		.byte	0x1
 568 023b 5D       		.byte	0x5d
 569 023c 01020000 		.4byte	0x201
 570 0240 01       		.uleb128 0x1
ARM GAS  /tmp/ccVENZS4.s 			page 11


 571 0241 52       		.byte	0x52
 572 0242 17       		.uleb128 0x17
 573 0243 92000000 		.4byte	.LASF33
 574 0247 01       		.byte	0x1
 575 0248 5E       		.byte	0x5e
 576 0249 01020000 		.4byte	0x201
 577 024d 39000000 		.4byte	.LLST3
 578 0251 13       		.uleb128 0x13
 579 0252 47010000 		.4byte	0x147
 580 0256 04000000 		.4byte	.LBB11
 581 025a 18000000 		.4byte	.LBE11-.LBB11
 582 025e 01       		.byte	0x1
 583 025f 62       		.byte	0x62
 584 0260 14       		.uleb128 0x14
 585 0261 60010000 		.4byte	0x160
 586 0265 73000000 		.4byte	.LLST4
 587 0269 14       		.uleb128 0x14
 588 026a 54010000 		.4byte	0x154
 589 026e 86000000 		.4byte	.LLST5
 590 0272 15       		.uleb128 0x15
 591 0273 04000000 		.4byte	.LBB12
 592 0277 18000000 		.4byte	.LBE12-.LBB12
 593 027b 16       		.uleb128 0x16
 594 027c 6C010000 		.4byte	0x16c
 595 0280 99000000 		.4byte	.LLST6
 596 0284 00       		.byte	0
 597 0285 00       		.byte	0
 598 0286 00       		.byte	0
 599 0287 11       		.uleb128 0x11
 600 0288 DB030000 		.4byte	.LASF34
 601 028c 01       		.byte	0x1
 602 028d 70       		.byte	0x70
 603 028e 00000000 		.4byte	.LFB12
 604 0292 20000000 		.4byte	.LFE12-.LFB12
 605 0296 01       		.uleb128 0x1
 606 0297 9C       		.byte	0x9c
 607 0298 0F030000 		.4byte	0x30f
 608 029c 17       		.uleb128 0x17
 609 029d FC030000 		.4byte	.LASF29
 610 02a1 01       		.byte	0x1
 611 02a2 70       		.byte	0x70
 612 02a3 79010000 		.4byte	0x179
 613 02a7 AC000000 		.4byte	.LLST7
 614 02ab 17       		.uleb128 0x17
 615 02ac CD030000 		.4byte	.LASF30
 616 02b0 01       		.byte	0x1
 617 02b1 71       		.byte	0x71
 618 02b2 FC010000 		.4byte	0x1fc
 619 02b6 D8000000 		.4byte	.LLST8
 620 02ba 17       		.uleb128 0x17
 621 02bb 14000000 		.4byte	.LASF18
 622 02bf 01       		.byte	0x1
 623 02c0 72       		.byte	0x72
 624 02c1 01020000 		.4byte	0x201
 625 02c5 04010000 		.4byte	.LLST9
 626 02c9 17       		.uleb128 0x17
 627 02ca E5000000 		.4byte	.LASF35
ARM GAS  /tmp/ccVENZS4.s 			page 12


 628 02ce 01       		.byte	0x1
 629 02cf 73       		.byte	0x73
 630 02d0 01020000 		.4byte	0x201
 631 02d4 25010000 		.4byte	.LLST10
 632 02d8 18       		.uleb128 0x18
 633 02d9 0E000000 		.4byte	.LVL14
 634 02dd 8A010000 		.4byte	0x18a
 635 02e1 F2020000 		.4byte	0x2f2
 636 02e5 19       		.uleb128 0x19
 637 02e6 01       		.uleb128 0x1
 638 02e7 51       		.byte	0x51
 639 02e8 02       		.uleb128 0x2
 640 02e9 75       		.byte	0x75
 641 02ea 00       		.sleb128 0
 642 02eb 19       		.uleb128 0x19
 643 02ec 01       		.uleb128 0x1
 644 02ed 50       		.byte	0x50
 645 02ee 02       		.uleb128 0x2
 646 02ef 74       		.byte	0x74
 647 02f0 00       		.sleb128 0
 648 02f1 00       		.byte	0
 649 02f2 1A       		.uleb128 0x1a
 650 02f3 1E000000 		.4byte	.LVL15
 651 02f7 8A010000 		.4byte	0x18a
 652 02fb 19       		.uleb128 0x19
 653 02fc 01       		.uleb128 0x1
 654 02fd 52       		.byte	0x52
 655 02fe 02       		.uleb128 0x2
 656 02ff 76       		.byte	0x76
 657 0300 00       		.sleb128 0
 658 0301 19       		.uleb128 0x19
 659 0302 01       		.uleb128 0x1
 660 0303 51       		.byte	0x51
 661 0304 02       		.uleb128 0x2
 662 0305 75       		.byte	0x75
 663 0306 00       		.sleb128 0
 664 0307 19       		.uleb128 0x19
 665 0308 01       		.uleb128 0x1
 666 0309 50       		.byte	0x50
 667 030a 02       		.uleb128 0x2
 668 030b 74       		.byte	0x74
 669 030c 00       		.sleb128 0
 670 030d 00       		.byte	0
 671 030e 00       		.byte	0
 672 030f 1B       		.uleb128 0x1b
 673 0310 09020000 		.4byte	.LASF45
 674 0314 01       		.byte	0x1
 675 0315 7B       		.byte	0x7b
 676 0316 8C000000 		.4byte	0x8c
 677 031a 00000000 		.4byte	.LFB13
 678 031e 4C000000 		.4byte	.LFE13-.LFB13
 679 0322 01       		.uleb128 0x1
 680 0323 9C       		.byte	0x9c
 681 0324 C2030000 		.4byte	0x3c2
 682 0328 17       		.uleb128 0x17
 683 0329 FC030000 		.4byte	.LASF29
 684 032d 01       		.byte	0x1
ARM GAS  /tmp/ccVENZS4.s 			page 13


 685 032e 7B       		.byte	0x7b
 686 032f 79010000 		.4byte	0x179
 687 0333 46010000 		.4byte	.LLST11
 688 0337 17       		.uleb128 0x17
 689 0338 CD030000 		.4byte	.LASF30
 690 033c 01       		.byte	0x1
 691 033d 7C       		.byte	0x7c
 692 033e FC010000 		.4byte	0x1fc
 693 0342 72010000 		.4byte	.LLST12
 694 0346 17       		.uleb128 0x17
 695 0347 9B010000 		.4byte	.LASF36
 696 034b 01       		.byte	0x1
 697 034c 7D       		.byte	0x7d
 698 034d C2030000 		.4byte	0x3c2
 699 0351 9E010000 		.4byte	.LLST13
 700 0355 1C       		.uleb128 0x1c
 701 0356 54000000 		.4byte	.LASF37
 702 035a 01       		.byte	0x1
 703 035b 7F       		.byte	0x7f
 704 035c 8C000000 		.4byte	0x8c
 705 0360 CA010000 		.4byte	.LLST14
 706 0364 15       		.uleb128 0x15
 707 0365 0E000000 		.4byte	.LBB13
 708 0369 2E000000 		.4byte	.LBE13-.LBB13
 709 036d 1C       		.uleb128 0x1c
 710 036e AB000000 		.4byte	.LASF38
 711 0372 01       		.byte	0x1
 712 0373 83       		.byte	0x83
 713 0374 C7030000 		.4byte	0x3c7
 714 0378 DD010000 		.4byte	.LLST15
 715 037c 1C       		.uleb128 0x1c
 716 037d 3B020000 		.4byte	.LASF39
 717 0381 01       		.byte	0x1
 718 0382 84       		.byte	0x84
 719 0383 97000000 		.4byte	0x97
 720 0387 F0010000 		.4byte	.LLST16
 721 038b 13       		.uleb128 0x13
 722 038c 47010000 		.4byte	0x147
 723 0390 10000000 		.4byte	.LBB14
 724 0394 16000000 		.4byte	.LBE14-.LBB14
 725 0398 01       		.byte	0x1
 726 0399 86       		.byte	0x86
 727 039a 14       		.uleb128 0x14
 728 039b 60010000 		.4byte	0x160
 729 039f 03020000 		.4byte	.LLST17
 730 03a3 14       		.uleb128 0x14
 731 03a4 54010000 		.4byte	0x154
 732 03a8 16020000 		.4byte	.LLST18
 733 03ac 15       		.uleb128 0x15
 734 03ad 10000000 		.4byte	.LBB15
 735 03b1 16000000 		.4byte	.LBE15-.LBB15
 736 03b5 16       		.uleb128 0x16
 737 03b6 6C010000 		.4byte	0x16c
 738 03ba 29020000 		.4byte	.LLST19
 739 03be 00       		.byte	0
 740 03bf 00       		.byte	0
 741 03c0 00       		.byte	0
ARM GAS  /tmp/ccVENZS4.s 			page 14


 742 03c1 00       		.byte	0
 743 03c2 10       		.uleb128 0x10
 744 03c3 E9000000 		.4byte	0xe9
 745 03c7 08       		.uleb128 0x8
 746 03c8 04       		.byte	0x4
 747 03c9 8C000000 		.4byte	0x8c
 748 03cd 00       		.byte	0
 749              		.section	.debug_abbrev,"",%progbits
 750              	.Ldebug_abbrev0:
 751 0000 01       		.uleb128 0x1
 752 0001 11       		.uleb128 0x11
 753 0002 01       		.byte	0x1
 754 0003 25       		.uleb128 0x25
 755 0004 0E       		.uleb128 0xe
 756 0005 13       		.uleb128 0x13
 757 0006 0B       		.uleb128 0xb
 758 0007 03       		.uleb128 0x3
 759 0008 0E       		.uleb128 0xe
 760 0009 1B       		.uleb128 0x1b
 761 000a 0E       		.uleb128 0xe
 762 000b 55       		.uleb128 0x55
 763 000c 17       		.uleb128 0x17
 764 000d 11       		.uleb128 0x11
 765 000e 01       		.uleb128 0x1
 766 000f 10       		.uleb128 0x10
 767 0010 17       		.uleb128 0x17
 768 0011 00       		.byte	0
 769 0012 00       		.byte	0
 770 0013 02       		.uleb128 0x2
 771 0014 24       		.uleb128 0x24
 772 0015 00       		.byte	0
 773 0016 0B       		.uleb128 0xb
 774 0017 0B       		.uleb128 0xb
 775 0018 3E       		.uleb128 0x3e
 776 0019 0B       		.uleb128 0xb
 777 001a 03       		.uleb128 0x3
 778 001b 0E       		.uleb128 0xe
 779 001c 00       		.byte	0
 780 001d 00       		.byte	0
 781 001e 03       		.uleb128 0x3
 782 001f 16       		.uleb128 0x16
 783 0020 00       		.byte	0
 784 0021 03       		.uleb128 0x3
 785 0022 0E       		.uleb128 0xe
 786 0023 3A       		.uleb128 0x3a
 787 0024 0B       		.uleb128 0xb
 788 0025 3B       		.uleb128 0x3b
 789 0026 0B       		.uleb128 0xb
 790 0027 49       		.uleb128 0x49
 791 0028 13       		.uleb128 0x13
 792 0029 00       		.byte	0
 793 002a 00       		.byte	0
 794 002b 04       		.uleb128 0x4
 795 002c 24       		.uleb128 0x24
 796 002d 00       		.byte	0
 797 002e 0B       		.uleb128 0xb
 798 002f 0B       		.uleb128 0xb
ARM GAS  /tmp/ccVENZS4.s 			page 15


 799 0030 3E       		.uleb128 0x3e
 800 0031 0B       		.uleb128 0xb
 801 0032 03       		.uleb128 0x3
 802 0033 08       		.uleb128 0x8
 803 0034 00       		.byte	0
 804 0035 00       		.byte	0
 805 0036 05       		.uleb128 0x5
 806 0037 0F       		.uleb128 0xf
 807 0038 00       		.byte	0
 808 0039 0B       		.uleb128 0xb
 809 003a 0B       		.uleb128 0xb
 810 003b 00       		.byte	0
 811 003c 00       		.byte	0
 812 003d 06       		.uleb128 0x6
 813 003e 13       		.uleb128 0x13
 814 003f 01       		.byte	0x1
 815 0040 0B       		.uleb128 0xb
 816 0041 0B       		.uleb128 0xb
 817 0042 3A       		.uleb128 0x3a
 818 0043 0B       		.uleb128 0xb
 819 0044 3B       		.uleb128 0x3b
 820 0045 0B       		.uleb128 0xb
 821 0046 01       		.uleb128 0x1
 822 0047 13       		.uleb128 0x13
 823 0048 00       		.byte	0
 824 0049 00       		.byte	0
 825 004a 07       		.uleb128 0x7
 826 004b 0D       		.uleb128 0xd
 827 004c 00       		.byte	0
 828 004d 03       		.uleb128 0x3
 829 004e 0E       		.uleb128 0xe
 830 004f 3A       		.uleb128 0x3a
 831 0050 0B       		.uleb128 0xb
 832 0051 3B       		.uleb128 0x3b
 833 0052 0B       		.uleb128 0xb
 834 0053 49       		.uleb128 0x49
 835 0054 13       		.uleb128 0x13
 836 0055 38       		.uleb128 0x38
 837 0056 0B       		.uleb128 0xb
 838 0057 00       		.byte	0
 839 0058 00       		.byte	0
 840 0059 08       		.uleb128 0x8
 841 005a 0F       		.uleb128 0xf
 842 005b 00       		.byte	0
 843 005c 0B       		.uleb128 0xb
 844 005d 0B       		.uleb128 0xb
 845 005e 49       		.uleb128 0x49
 846 005f 13       		.uleb128 0x13
 847 0060 00       		.byte	0
 848 0061 00       		.byte	0
 849 0062 09       		.uleb128 0x9
 850 0063 15       		.uleb128 0x15
 851 0064 01       		.byte	0x1
 852 0065 27       		.uleb128 0x27
 853 0066 19       		.uleb128 0x19
 854 0067 49       		.uleb128 0x49
 855 0068 13       		.uleb128 0x13
ARM GAS  /tmp/ccVENZS4.s 			page 16


 856 0069 01       		.uleb128 0x1
 857 006a 13       		.uleb128 0x13
 858 006b 00       		.byte	0
 859 006c 00       		.byte	0
 860 006d 0A       		.uleb128 0xa
 861 006e 05       		.uleb128 0x5
 862 006f 00       		.byte	0
 863 0070 49       		.uleb128 0x49
 864 0071 13       		.uleb128 0x13
 865 0072 00       		.byte	0
 866 0073 00       		.byte	0
 867 0074 0B       		.uleb128 0xb
 868 0075 04       		.uleb128 0x4
 869 0076 01       		.byte	0x1
 870 0077 03       		.uleb128 0x3
 871 0078 0E       		.uleb128 0xe
 872 0079 0B       		.uleb128 0xb
 873 007a 0B       		.uleb128 0xb
 874 007b 3A       		.uleb128 0x3a
 875 007c 0B       		.uleb128 0xb
 876 007d 3B       		.uleb128 0x3b
 877 007e 0B       		.uleb128 0xb
 878 007f 01       		.uleb128 0x1
 879 0080 13       		.uleb128 0x13
 880 0081 00       		.byte	0
 881 0082 00       		.byte	0
 882 0083 0C       		.uleb128 0xc
 883 0084 28       		.uleb128 0x28
 884 0085 00       		.byte	0
 885 0086 03       		.uleb128 0x3
 886 0087 0E       		.uleb128 0xe
 887 0088 1C       		.uleb128 0x1c
 888 0089 0D       		.uleb128 0xd
 889 008a 00       		.byte	0
 890 008b 00       		.byte	0
 891 008c 0D       		.uleb128 0xd
 892 008d 2E       		.uleb128 0x2e
 893 008e 01       		.byte	0x1
 894 008f 03       		.uleb128 0x3
 895 0090 0E       		.uleb128 0xe
 896 0091 3A       		.uleb128 0x3a
 897 0092 0B       		.uleb128 0xb
 898 0093 3B       		.uleb128 0x3b
 899 0094 05       		.uleb128 0x5
 900 0095 27       		.uleb128 0x27
 901 0096 19       		.uleb128 0x19
 902 0097 20       		.uleb128 0x20
 903 0098 0B       		.uleb128 0xb
 904 0099 01       		.uleb128 0x1
 905 009a 13       		.uleb128 0x13
 906 009b 00       		.byte	0
 907 009c 00       		.byte	0
 908 009d 0E       		.uleb128 0xe
 909 009e 05       		.uleb128 0x5
 910 009f 00       		.byte	0
 911 00a0 03       		.uleb128 0x3
 912 00a1 0E       		.uleb128 0xe
ARM GAS  /tmp/ccVENZS4.s 			page 17


 913 00a2 3A       		.uleb128 0x3a
 914 00a3 0B       		.uleb128 0xb
 915 00a4 3B       		.uleb128 0x3b
 916 00a5 05       		.uleb128 0x5
 917 00a6 49       		.uleb128 0x49
 918 00a7 13       		.uleb128 0x13
 919 00a8 00       		.byte	0
 920 00a9 00       		.byte	0
 921 00aa 0F       		.uleb128 0xf
 922 00ab 34       		.uleb128 0x34
 923 00ac 00       		.byte	0
 924 00ad 03       		.uleb128 0x3
 925 00ae 0E       		.uleb128 0xe
 926 00af 3A       		.uleb128 0x3a
 927 00b0 0B       		.uleb128 0xb
 928 00b1 3B       		.uleb128 0x3b
 929 00b2 05       		.uleb128 0x5
 930 00b3 49       		.uleb128 0x49
 931 00b4 13       		.uleb128 0x13
 932 00b5 00       		.byte	0
 933 00b6 00       		.byte	0
 934 00b7 10       		.uleb128 0x10
 935 00b8 26       		.uleb128 0x26
 936 00b9 00       		.byte	0
 937 00ba 49       		.uleb128 0x49
 938 00bb 13       		.uleb128 0x13
 939 00bc 00       		.byte	0
 940 00bd 00       		.byte	0
 941 00be 11       		.uleb128 0x11
 942 00bf 2E       		.uleb128 0x2e
 943 00c0 01       		.byte	0x1
 944 00c1 3F       		.uleb128 0x3f
 945 00c2 19       		.uleb128 0x19
 946 00c3 03       		.uleb128 0x3
 947 00c4 0E       		.uleb128 0xe
 948 00c5 3A       		.uleb128 0x3a
 949 00c6 0B       		.uleb128 0xb
 950 00c7 3B       		.uleb128 0x3b
 951 00c8 0B       		.uleb128 0xb
 952 00c9 27       		.uleb128 0x27
 953 00ca 19       		.uleb128 0x19
 954 00cb 11       		.uleb128 0x11
 955 00cc 01       		.uleb128 0x1
 956 00cd 12       		.uleb128 0x12
 957 00ce 06       		.uleb128 0x6
 958 00cf 40       		.uleb128 0x40
 959 00d0 18       		.uleb128 0x18
 960 00d1 9742     		.uleb128 0x2117
 961 00d3 19       		.uleb128 0x19
 962 00d4 01       		.uleb128 0x1
 963 00d5 13       		.uleb128 0x13
 964 00d6 00       		.byte	0
 965 00d7 00       		.byte	0
 966 00d8 12       		.uleb128 0x12
 967 00d9 05       		.uleb128 0x5
 968 00da 00       		.byte	0
 969 00db 03       		.uleb128 0x3
ARM GAS  /tmp/ccVENZS4.s 			page 18


 970 00dc 0E       		.uleb128 0xe
 971 00dd 3A       		.uleb128 0x3a
 972 00de 0B       		.uleb128 0xb
 973 00df 3B       		.uleb128 0x3b
 974 00e0 0B       		.uleb128 0xb
 975 00e1 49       		.uleb128 0x49
 976 00e2 13       		.uleb128 0x13
 977 00e3 02       		.uleb128 0x2
 978 00e4 18       		.uleb128 0x18
 979 00e5 00       		.byte	0
 980 00e6 00       		.byte	0
 981 00e7 13       		.uleb128 0x13
 982 00e8 1D       		.uleb128 0x1d
 983 00e9 01       		.byte	0x1
 984 00ea 31       		.uleb128 0x31
 985 00eb 13       		.uleb128 0x13
 986 00ec 11       		.uleb128 0x11
 987 00ed 01       		.uleb128 0x1
 988 00ee 12       		.uleb128 0x12
 989 00ef 06       		.uleb128 0x6
 990 00f0 58       		.uleb128 0x58
 991 00f1 0B       		.uleb128 0xb
 992 00f2 59       		.uleb128 0x59
 993 00f3 0B       		.uleb128 0xb
 994 00f4 00       		.byte	0
 995 00f5 00       		.byte	0
 996 00f6 14       		.uleb128 0x14
 997 00f7 05       		.uleb128 0x5
 998 00f8 00       		.byte	0
 999 00f9 31       		.uleb128 0x31
 1000 00fa 13       		.uleb128 0x13
 1001 00fb 02       		.uleb128 0x2
 1002 00fc 17       		.uleb128 0x17
 1003 00fd 00       		.byte	0
 1004 00fe 00       		.byte	0
 1005 00ff 15       		.uleb128 0x15
 1006 0100 0B       		.uleb128 0xb
 1007 0101 01       		.byte	0x1
 1008 0102 11       		.uleb128 0x11
 1009 0103 01       		.uleb128 0x1
 1010 0104 12       		.uleb128 0x12
 1011 0105 06       		.uleb128 0x6
 1012 0106 00       		.byte	0
 1013 0107 00       		.byte	0
 1014 0108 16       		.uleb128 0x16
 1015 0109 34       		.uleb128 0x34
 1016 010a 00       		.byte	0
 1017 010b 31       		.uleb128 0x31
 1018 010c 13       		.uleb128 0x13
 1019 010d 02       		.uleb128 0x2
 1020 010e 17       		.uleb128 0x17
 1021 010f 00       		.byte	0
 1022 0110 00       		.byte	0
 1023 0111 17       		.uleb128 0x17
 1024 0112 05       		.uleb128 0x5
 1025 0113 00       		.byte	0
 1026 0114 03       		.uleb128 0x3
ARM GAS  /tmp/ccVENZS4.s 			page 19


 1027 0115 0E       		.uleb128 0xe
 1028 0116 3A       		.uleb128 0x3a
 1029 0117 0B       		.uleb128 0xb
 1030 0118 3B       		.uleb128 0x3b
 1031 0119 0B       		.uleb128 0xb
 1032 011a 49       		.uleb128 0x49
 1033 011b 13       		.uleb128 0x13
 1034 011c 02       		.uleb128 0x2
 1035 011d 17       		.uleb128 0x17
 1036 011e 00       		.byte	0
 1037 011f 00       		.byte	0
 1038 0120 18       		.uleb128 0x18
 1039 0121 898201   		.uleb128 0x4109
 1040 0124 01       		.byte	0x1
 1041 0125 11       		.uleb128 0x11
 1042 0126 01       		.uleb128 0x1
 1043 0127 31       		.uleb128 0x31
 1044 0128 13       		.uleb128 0x13
 1045 0129 01       		.uleb128 0x1
 1046 012a 13       		.uleb128 0x13
 1047 012b 00       		.byte	0
 1048 012c 00       		.byte	0
 1049 012d 19       		.uleb128 0x19
 1050 012e 8A8201   		.uleb128 0x410a
 1051 0131 00       		.byte	0
 1052 0132 02       		.uleb128 0x2
 1053 0133 18       		.uleb128 0x18
 1054 0134 9142     		.uleb128 0x2111
 1055 0136 18       		.uleb128 0x18
 1056 0137 00       		.byte	0
 1057 0138 00       		.byte	0
 1058 0139 1A       		.uleb128 0x1a
 1059 013a 898201   		.uleb128 0x4109
 1060 013d 01       		.byte	0x1
 1061 013e 11       		.uleb128 0x11
 1062 013f 01       		.uleb128 0x1
 1063 0140 31       		.uleb128 0x31
 1064 0141 13       		.uleb128 0x13
 1065 0142 00       		.byte	0
 1066 0143 00       		.byte	0
 1067 0144 1B       		.uleb128 0x1b
 1068 0145 2E       		.uleb128 0x2e
 1069 0146 01       		.byte	0x1
 1070 0147 3F       		.uleb128 0x3f
 1071 0148 19       		.uleb128 0x19
 1072 0149 03       		.uleb128 0x3
 1073 014a 0E       		.uleb128 0xe
 1074 014b 3A       		.uleb128 0x3a
 1075 014c 0B       		.uleb128 0xb
 1076 014d 3B       		.uleb128 0x3b
 1077 014e 0B       		.uleb128 0xb
 1078 014f 27       		.uleb128 0x27
 1079 0150 19       		.uleb128 0x19
 1080 0151 49       		.uleb128 0x49
 1081 0152 13       		.uleb128 0x13
 1082 0153 11       		.uleb128 0x11
 1083 0154 01       		.uleb128 0x1
ARM GAS  /tmp/ccVENZS4.s 			page 20


 1084 0155 12       		.uleb128 0x12
 1085 0156 06       		.uleb128 0x6
 1086 0157 40       		.uleb128 0x40
 1087 0158 18       		.uleb128 0x18
 1088 0159 9642     		.uleb128 0x2116
 1089 015b 19       		.uleb128 0x19
 1090 015c 01       		.uleb128 0x1
 1091 015d 13       		.uleb128 0x13
 1092 015e 00       		.byte	0
 1093 015f 00       		.byte	0
 1094 0160 1C       		.uleb128 0x1c
 1095 0161 34       		.uleb128 0x34
 1096 0162 00       		.byte	0
 1097 0163 03       		.uleb128 0x3
 1098 0164 0E       		.uleb128 0xe
 1099 0165 3A       		.uleb128 0x3a
 1100 0166 0B       		.uleb128 0xb
 1101 0167 3B       		.uleb128 0x3b
 1102 0168 0B       		.uleb128 0xb
 1103 0169 49       		.uleb128 0x49
 1104 016a 13       		.uleb128 0x13
 1105 016b 02       		.uleb128 0x2
 1106 016c 17       		.uleb128 0x17
 1107 016d 00       		.byte	0
 1108 016e 00       		.byte	0
 1109 016f 00       		.byte	0
 1110              		.section	.debug_loc,"",%progbits
 1111              	.Ldebug_loc0:
 1112              	.LLST0:
 1113 0000 04000000 		.4byte	.LVL1
 1114 0004 24000000 		.4byte	.LVL4
 1115 0008 0100     		.2byte	0x1
 1116 000a 51       		.byte	0x51
 1117 000b 00000000 		.4byte	0
 1118 000f 00000000 		.4byte	0
 1119              	.LLST1:
 1120 0013 04000000 		.4byte	.LVL1
 1121 0017 24000000 		.4byte	.LVL4
 1122 001b 0100     		.2byte	0x1
 1123 001d 50       		.byte	0x50
 1124 001e 00000000 		.4byte	0
 1125 0022 00000000 		.4byte	0
 1126              	.LLST2:
 1127 0026 08000000 		.4byte	.LVL2
 1128 002a 12000000 		.4byte	.LVL3
 1129 002e 0100     		.2byte	0x1
 1130 0030 56       		.byte	0x56
 1131 0031 00000000 		.4byte	0
 1132 0035 00000000 		.4byte	0
 1133              	.LLST3:
 1134 0039 00000000 		.4byte	.LVL5
 1135 003d 2A000000 		.4byte	.LVL9
 1136 0041 0100     		.2byte	0x1
 1137 0043 53       		.byte	0x53
 1138 0044 2A000000 		.4byte	.LVL9
 1139 0048 2E000000 		.4byte	.LVL10
 1140 004c 0400     		.2byte	0x4
ARM GAS  /tmp/ccVENZS4.s 			page 21


 1141 004e F3       		.byte	0xf3
 1142 004f 01       		.uleb128 0x1
 1143 0050 53       		.byte	0x53
 1144 0051 9F       		.byte	0x9f
 1145 0052 2E000000 		.4byte	.LVL10
 1146 0056 34000000 		.4byte	.LVL11
 1147 005a 0100     		.2byte	0x1
 1148 005c 53       		.byte	0x53
 1149 005d 34000000 		.4byte	.LVL11
 1150 0061 36000000 		.4byte	.LFE11
 1151 0065 0400     		.2byte	0x4
 1152 0067 F3       		.byte	0xf3
 1153 0068 01       		.uleb128 0x1
 1154 0069 53       		.byte	0x53
 1155 006a 9F       		.byte	0x9f
 1156 006b 00000000 		.4byte	0
 1157 006f 00000000 		.4byte	0
 1158              	.LLST4:
 1159 0073 04000000 		.4byte	.LVL6
 1160 0077 2E000000 		.4byte	.LVL10
 1161 007b 0100     		.2byte	0x1
 1162 007d 51       		.byte	0x51
 1163 007e 00000000 		.4byte	0
 1164 0082 00000000 		.4byte	0
 1165              	.LLST5:
 1166 0086 04000000 		.4byte	.LVL6
 1167 008a 2E000000 		.4byte	.LVL10
 1168 008e 0100     		.2byte	0x1
 1169 0090 50       		.byte	0x50
 1170 0091 00000000 		.4byte	0
 1171 0095 00000000 		.4byte	0
 1172              	.LLST6:
 1173 0099 08000000 		.4byte	.LVL7
 1174 009d 12000000 		.4byte	.LVL8
 1175 00a1 0100     		.2byte	0x1
 1176 00a3 57       		.byte	0x57
 1177 00a4 00000000 		.4byte	0
 1178 00a8 00000000 		.4byte	0
 1179              	.LLST7:
 1180 00ac 00000000 		.4byte	.LVL12
 1181 00b0 0D000000 		.4byte	.LVL14-1
 1182 00b4 0100     		.2byte	0x1
 1183 00b6 50       		.byte	0x50
 1184 00b7 0D000000 		.4byte	.LVL14-1
 1185 00bb 1E000000 		.4byte	.LVL16
 1186 00bf 0100     		.2byte	0x1
 1187 00c1 54       		.byte	0x54
 1188 00c2 1E000000 		.4byte	.LVL16
 1189 00c6 20000000 		.4byte	.LFE12
 1190 00ca 0400     		.2byte	0x4
 1191 00cc F3       		.byte	0xf3
 1192 00cd 01       		.uleb128 0x1
 1193 00ce 50       		.byte	0x50
 1194 00cf 9F       		.byte	0x9f
 1195 00d0 00000000 		.4byte	0
 1196 00d4 00000000 		.4byte	0
 1197              	.LLST8:
ARM GAS  /tmp/ccVENZS4.s 			page 22


 1198 00d8 00000000 		.4byte	.LVL12
 1199 00dc 0D000000 		.4byte	.LVL14-1
 1200 00e0 0100     		.2byte	0x1
 1201 00e2 51       		.byte	0x51
 1202 00e3 0D000000 		.4byte	.LVL14-1
 1203 00e7 1E000000 		.4byte	.LVL17
 1204 00eb 0100     		.2byte	0x1
 1205 00ed 55       		.byte	0x55
 1206 00ee 1E000000 		.4byte	.LVL17
 1207 00f2 20000000 		.4byte	.LFE12
 1208 00f6 0400     		.2byte	0x4
 1209 00f8 F3       		.byte	0xf3
 1210 00f9 01       		.uleb128 0x1
 1211 00fa 51       		.byte	0x51
 1212 00fb 9F       		.byte	0x9f
 1213 00fc 00000000 		.4byte	0
 1214 0100 00000000 		.4byte	0
 1215              	.LLST9:
 1216 0104 00000000 		.4byte	.LVL12
 1217 0108 0A000000 		.4byte	.LVL13
 1218 010c 0100     		.2byte	0x1
 1219 010e 52       		.byte	0x52
 1220 010f 0A000000 		.4byte	.LVL13
 1221 0113 20000000 		.4byte	.LFE12
 1222 0117 0400     		.2byte	0x4
 1223 0119 F3       		.byte	0xf3
 1224 011a 01       		.uleb128 0x1
 1225 011b 52       		.byte	0x52
 1226 011c 9F       		.byte	0x9f
 1227 011d 00000000 		.4byte	0
 1228 0121 00000000 		.4byte	0
 1229              	.LLST10:
 1230 0125 00000000 		.4byte	.LVL12
 1231 0129 0D000000 		.4byte	.LVL14-1
 1232 012d 0100     		.2byte	0x1
 1233 012f 53       		.byte	0x53
 1234 0130 0D000000 		.4byte	.LVL14-1
 1235 0134 20000000 		.4byte	.LFE12
 1236 0138 0400     		.2byte	0x4
 1237 013a F3       		.byte	0xf3
 1238 013b 01       		.uleb128 0x1
 1239 013c 53       		.byte	0x53
 1240 013d 9F       		.byte	0x9f
 1241 013e 00000000 		.4byte	0
 1242 0142 00000000 		.4byte	0
 1243              	.LLST11:
 1244 0146 00000000 		.4byte	.LVL18
 1245 014a 0E000000 		.4byte	.LVL19
 1246 014e 0100     		.2byte	0x1
 1247 0150 50       		.byte	0x50
 1248 0151 0E000000 		.4byte	.LVL19
 1249 0155 46000000 		.4byte	.LVL25
 1250 0159 0100     		.2byte	0x1
 1251 015b 55       		.byte	0x55
 1252 015c 46000000 		.4byte	.LVL25
 1253 0160 4C000000 		.4byte	.LFE13
 1254 0164 0400     		.2byte	0x4
ARM GAS  /tmp/ccVENZS4.s 			page 23


 1255 0166 F3       		.byte	0xf3
 1256 0167 01       		.uleb128 0x1
 1257 0168 50       		.byte	0x50
 1258 0169 9F       		.byte	0x9f
 1259 016a 00000000 		.4byte	0
 1260 016e 00000000 		.4byte	0
 1261              	.LLST12:
 1262 0172 00000000 		.4byte	.LVL18
 1263 0176 0E000000 		.4byte	.LVL19
 1264 017a 0100     		.2byte	0x1
 1265 017c 51       		.byte	0x51
 1266 017d 0E000000 		.4byte	.LVL19
 1267 0181 46000000 		.4byte	.LVL26
 1268 0185 0100     		.2byte	0x1
 1269 0187 56       		.byte	0x56
 1270 0188 46000000 		.4byte	.LVL26
 1271 018c 4C000000 		.4byte	.LFE13
 1272 0190 0400     		.2byte	0x4
 1273 0192 F3       		.byte	0xf3
 1274 0193 01       		.uleb128 0x1
 1275 0194 51       		.byte	0x51
 1276 0195 9F       		.byte	0x9f
 1277 0196 00000000 		.4byte	0
 1278 019a 00000000 		.4byte	0
 1279              	.LLST13:
 1280 019e 00000000 		.4byte	.LVL18
 1281 01a2 0E000000 		.4byte	.LVL19
 1282 01a6 0100     		.2byte	0x1
 1283 01a8 52       		.byte	0x52
 1284 01a9 0E000000 		.4byte	.LVL19
 1285 01ad 46000000 		.4byte	.LVL27
 1286 01b1 0100     		.2byte	0x1
 1287 01b3 58       		.byte	0x58
 1288 01b4 46000000 		.4byte	.LVL27
 1289 01b8 4C000000 		.4byte	.LFE13
 1290 01bc 0400     		.2byte	0x4
 1291 01be F3       		.byte	0xf3
 1292 01bf 01       		.uleb128 0x1
 1293 01c0 52       		.byte	0x52
 1294 01c1 9F       		.byte	0x9f
 1295 01c2 00000000 		.4byte	0
 1296 01c6 00000000 		.4byte	0
 1297              	.LLST14:
 1298 01ca 2A000000 		.4byte	.LVL23
 1299 01ce 3C000000 		.4byte	.LVL24
 1300 01d2 0100     		.2byte	0x1
 1301 01d4 50       		.byte	0x50
 1302 01d5 00000000 		.4byte	0
 1303 01d9 00000000 		.4byte	0
 1304              	.LLST15:
 1305 01dd 10000000 		.4byte	.LVL20
 1306 01e1 3C000000 		.4byte	.LVL24
 1307 01e5 0100     		.2byte	0x1
 1308 01e7 57       		.byte	0x57
 1309 01e8 00000000 		.4byte	0
 1310 01ec 00000000 		.4byte	0
 1311              	.LLST16:
ARM GAS  /tmp/ccVENZS4.s 			page 24


 1312 01f0 10000000 		.4byte	.LVL20
 1313 01f4 3C000000 		.4byte	.LVL24
 1314 01f8 0100     		.2byte	0x1
 1315 01fa 54       		.byte	0x54
 1316 01fb 00000000 		.4byte	0
 1317 01ff 00000000 		.4byte	0
 1318              	.LLST17:
 1319 0203 10000000 		.4byte	.LVL20
 1320 0207 3C000000 		.4byte	.LVL24
 1321 020b 0100     		.2byte	0x1
 1322 020d 56       		.byte	0x56
 1323 020e 00000000 		.4byte	0
 1324 0212 00000000 		.4byte	0
 1325              	.LLST18:
 1326 0216 10000000 		.4byte	.LVL20
 1327 021a 3C000000 		.4byte	.LVL24
 1328 021e 0100     		.2byte	0x1
 1329 0220 55       		.byte	0x55
 1330 0221 00000000 		.4byte	0
 1331 0225 00000000 		.4byte	0
 1332              	.LLST19:
 1333 0229 12000000 		.4byte	.LVL21
 1334 022d 1C000000 		.4byte	.LVL22
 1335 0231 0100     		.2byte	0x1
 1336 0233 51       		.byte	0x51
 1337 0234 00000000 		.4byte	0
 1338 0238 00000000 		.4byte	0
 1339              		.section	.debug_aranges,"",%progbits
 1340 0000 34000000 		.4byte	0x34
 1341 0004 0200     		.2byte	0x2
 1342 0006 00000000 		.4byte	.Ldebug_info0
 1343 000a 04       		.byte	0x4
 1344 000b 00       		.byte	0
 1345 000c 0000     		.2byte	0
 1346 000e 0000     		.2byte	0
 1347 0010 00000000 		.4byte	.LFB10
 1348 0014 2C000000 		.4byte	.LFE10-.LFB10
 1349 0018 00000000 		.4byte	.LFB11
 1350 001c 36000000 		.4byte	.LFE11-.LFB11
 1351 0020 00000000 		.4byte	.LFB12
 1352 0024 20000000 		.4byte	.LFE12-.LFB12
 1353 0028 00000000 		.4byte	.LFB13
 1354 002c 4C000000 		.4byte	.LFE13-.LFB13
 1355 0030 00000000 		.4byte	0
 1356 0034 00000000 		.4byte	0
 1357              		.section	.debug_ranges,"",%progbits
 1358              	.Ldebug_ranges0:
 1359 0000 00000000 		.4byte	.LFB10
 1360 0004 2C000000 		.4byte	.LFE10
 1361 0008 00000000 		.4byte	.LFB11
 1362 000c 36000000 		.4byte	.LFE11
 1363 0010 00000000 		.4byte	.LFB12
 1364 0014 20000000 		.4byte	.LFE12
 1365 0018 00000000 		.4byte	.LFB13
 1366 001c 4C000000 		.4byte	.LFE13
 1367 0020 00000000 		.4byte	0
 1368 0024 00000000 		.4byte	0
ARM GAS  /tmp/ccVENZS4.s 			page 25


 1369              		.section	.debug_line,"",%progbits
 1370              	.Ldebug_line0:
 1371 0000 C1010000 		.section	.debug_str,"MS",%progbits,1
 1371      02002701 
 1371      00000201 
 1371      FB0E0D00 
 1371      01010101 
 1372              	.LASF3:
 1373 0000 5F5F7569 		.ascii	"__uint8_t\000"
 1373      6E74385F 
 1373      7400
 1374              	.LASF14:
 1375 000a 75696E74 		.ascii	"uintptr_t\000"
 1375      7074725F 
 1375      7400
 1376              	.LASF18:
 1377 0014 54797065 		.ascii	"Type\000"
 1377      00
 1378              	.LASF10:
 1379 0019 5F5F7569 		.ascii	"__uintptr_t\000"
 1379      6E747074 
 1379      725F7400 
 1380              	.LASF12:
 1381 0025 75696E74 		.ascii	"uint8_t\000"
 1381      385F7400 
 1382              	.LASF28:
 1383 002d 44455343 		.ascii	"DESCRIPTOR_SEARCH_COMP_EndOfDescriptor\000"
 1383      52495054 
 1383      4F525F53 
 1383      45415243 
 1383      485F434F 
 1384              	.LASF37:
 1385 0054 4572726F 		.ascii	"ErrorCode\000"
 1385      72436F64 
 1385      6500
 1386              	.LASF27:
 1387 005e 44455343 		.ascii	"DESCRIPTOR_SEARCH_COMP_Fail\000"
 1387      52495054 
 1387      4F525F53 
 1387      45415243 
 1387      485F434F 
 1388              	.LASF19:
 1389 007a 5553425F 		.ascii	"USB_Descriptor_Header_t\000"
 1389      44657363 
 1389      72697074 
 1389      6F725F48 
 1389      65616465 
 1390              	.LASF33:
 1391 0092 4265666F 		.ascii	"BeforeType\000"
 1391      72655479 
 1391      706500
 1392              	.LASF1:
 1393 009d 756E7369 		.ascii	"unsigned char\000"
 1393      676E6564 
 1393      20636861 
 1393      7200
 1394              	.LASF38:
ARM GAS  /tmp/ccVENZS4.s 			page 26


 1395 00ab 50726576 		.ascii	"PrevDescLoc\000"
 1395      44657363 
 1395      4C6F6300 
 1396              	.LASF23:
 1397 00b7 44455343 		.ascii	"DESCRIPTOR_SEARCH_NotFound\000"
 1397      52495054 
 1397      4F525F53 
 1397      45415243 
 1397      485F4E6F 
 1398              	.LASF5:
 1399 00d2 73686F72 		.ascii	"short unsigned int\000"
 1399      7420756E 
 1399      7369676E 
 1399      65642069 
 1399      6E7400
 1400              	.LASF35:
 1401 00e5 41667465 		.ascii	"AfterType\000"
 1401      72547970 
 1401      6500
 1402              	.LASF25:
 1403 00ef 44536561 		.ascii	"DSearch_Comp_Return_ErrorCodes_t\000"
 1403      7263685F 
 1403      436F6D70 
 1403      5F526574 
 1403      75726E5F 
 1404              	.LASF31:
 1405 0110 5553425F 		.ascii	"USB_GetNextDescriptorOfType\000"
 1405      4765744E 
 1405      65787444 
 1405      65736372 
 1405      6970746F 
 1406              	.LASF4:
 1407 012c 5F5F7569 		.ascii	"__uint16_t\000"
 1407      6E743136 
 1407      5F7400
 1408              	.LASF7:
 1409 0137 6C6F6E67 		.ascii	"long unsigned int\000"
 1409      20756E73 
 1409      69676E65 
 1409      6420696E 
 1409      7400
 1410              	.LASF42:
 1411 0149 2F484444 		.ascii	"/HDD/GIT/variometer/Altimeter/\000"
 1411      2F474954 
 1411      2F766172 
 1411      696F6D65 
 1411      7465722F 
 1412              	.LASF20:
 1413 0168 436F6E66 		.ascii	"ConfigComparatorPtr_t\000"
 1413      6967436F 
 1413      6D706172 
 1413      61746F72 
 1413      5074725F 
 1414              	.LASF26:
 1415 017e 44455343 		.ascii	"DESCRIPTOR_SEARCH_COMP_Found\000"
 1415      52495054 
 1415      4F525F53 
ARM GAS  /tmp/ccVENZS4.s 			page 27


 1415      45415243 
 1415      485F434F 
 1416              	.LASF36:
 1417 019b 436F6D70 		.ascii	"ComparatorRoutine\000"
 1417      61726174 
 1417      6F72526F 
 1417      7574696E 
 1417      6500
 1418              	.LASF43:
 1419 01ad 5553425F 		.ascii	"USB_GetNextDescriptor\000"
 1419      4765744E 
 1419      65787444 
 1419      65736372 
 1419      6970746F 
 1420              	.LASF11:
 1421 01c3 756E7369 		.ascii	"unsigned int\000"
 1421      676E6564 
 1421      20696E74 
 1421      00
 1422              	.LASF32:
 1423 01d0 5553425F 		.ascii	"USB_GetNextDescriptorOfTypeBefore\000"
 1423      4765744E 
 1423      65787444 
 1423      65736372 
 1423      6970746F 
 1424              	.LASF9:
 1425 01f2 6C6F6E67 		.ascii	"long long unsigned int\000"
 1425      206C6F6E 
 1425      6720756E 
 1425      7369676E 
 1425      65642069 
 1426              	.LASF45:
 1427 0209 5553425F 		.ascii	"USB_GetNextDescriptorComp\000"
 1427      4765744E 
 1427      65787444 
 1427      65736372 
 1427      6970746F 
 1428              	.LASF17:
 1429 0223 53697A65 		.ascii	"Size\000"
 1429      00
 1430              	.LASF44:
 1431 0228 43757272 		.ascii	"CurrDescriptorSize\000"
 1431      44657363 
 1431      72697074 
 1431      6F725369 
 1431      7A6500
 1432              	.LASF39:
 1433 023b 50726576 		.ascii	"PrevBytesRem\000"
 1433      42797465 
 1433      7352656D 
 1433      00
 1434              	.LASF24:
 1435 0248 44536561 		.ascii	"DSearch_Return_ErrorCodes_t\000"
 1435      7263685F 
 1435      52657475 
 1435      726E5F45 
 1435      72726F72 
ARM GAS  /tmp/ccVENZS4.s 			page 28


 1436              	.LASF40:
 1437 0264 474E5520 		.ascii	"GNU C 4.8.4 20140526 (release) [ARM/embedded-4_8-br"
 1437      4320342E 
 1437      382E3420 
 1437      32303134 
 1437      30353236 
 1438 0297 616E6368 		.ascii	"anch revision 211358] -mcpu=cortex-m0 -mno-thumb-in"
 1438      20726576 
 1438      6973696F 
 1438      6E203231 
 1438      31333538 
 1439 02ca 74657277 		.ascii	"terwork -mthumb -ggdb -O1 -fomit-frame-pointer -ffu"
 1439      6F726B20 
 1439      2D6D7468 
 1439      756D6220 
 1439      2D676764 
 1440 02fd 6E637469 		.ascii	"nction-sections -fdata-sections -fno-common\000"
 1440      6F6E2D73 
 1440      65637469 
 1440      6F6E7320 
 1440      2D666461 
 1441              	.LASF8:
 1442 0329 6C6F6E67 		.ascii	"long long int\000"
 1442      206C6F6E 
 1442      6720696E 
 1442      7400
 1443              	.LASF15:
 1444 0337 73697A65 		.ascii	"sizetype\000"
 1444      74797065 
 1444      00
 1445              	.LASF16:
 1446 0340 63686172 		.ascii	"char\000"
 1446      00
 1447              	.LASF41:
 1448 0345 5553426C 		.ascii	"USBlib_11U14/Drivers/USB/Core/ConfigDescriptor.c\000"
 1448      69625F31 
 1448      31553134 
 1448      2F447269 
 1448      76657273 
 1449              	.LASF2:
 1450 0376 73686F72 		.ascii	"short int\000"
 1450      7420696E 
 1450      7400
 1451              	.LASF22:
 1452 0380 44455343 		.ascii	"DESCRIPTOR_SEARCH_Fail\000"
 1452      52495054 
 1452      4F525F53 
 1452      45415243 
 1452      485F4661 
 1453              	.LASF13:
 1454 0397 75696E74 		.ascii	"uint16_t\000"
 1454      31365F74 
 1454      00
 1455              	.LASF6:
 1456 03a0 6C6F6E67 		.ascii	"long int\000"
 1456      20696E74 
 1456      00
ARM GAS  /tmp/ccVENZS4.s 			page 29


 1457              	.LASF0:
 1458 03a9 7369676E 		.ascii	"signed char\000"
 1458      65642063 
 1458      68617200 
 1459              	.LASF21:
 1460 03b5 44455343 		.ascii	"DESCRIPTOR_SEARCH_Found\000"
 1460      52495054 
 1460      4F525F53 
 1460      45415243 
 1460      485F466F 
 1461              	.LASF30:
 1462 03cd 43757272 		.ascii	"CurrConfigLoc\000"
 1462      436F6E66 
 1462      69674C6F 
 1462      6300
 1463              	.LASF34:
 1464 03db 5553425F 		.ascii	"USB_GetNextDescriptorOfTypeAfter\000"
 1464      4765744E 
 1464      65787444 
 1464      65736372 
 1464      6970746F 
 1465              	.LASF29:
 1466 03fc 42797465 		.ascii	"BytesRem\000"
 1466      7352656D 
 1466      00
 1467              		.ident	"GCC: (GNU Tools for ARM Embedded Processors) 4.8.4 20140526 (release) [ARM/embedded-4_8-br
ARM GAS  /tmp/ccVENZS4.s 			page 30


DEFINED SYMBOLS
                            *ABS*:00000000 ConfigDescriptor.c
     /tmp/ccVENZS4.s:18     .text.USB_GetNextDescriptorOfType:00000000 $t
     /tmp/ccVENZS4.s:23     .text.USB_GetNextDescriptorOfType:00000000 USB_GetNextDescriptorOfType
     /tmp/ccVENZS4.s:81     .text.USB_GetNextDescriptorOfTypeBefore:00000000 $t
     /tmp/ccVENZS4.s:86     .text.USB_GetNextDescriptorOfTypeBefore:00000000 USB_GetNextDescriptorOfTypeBefore
     /tmp/ccVENZS4.s:153    .text.USB_GetNextDescriptorOfTypeAfter:00000000 $t
     /tmp/ccVENZS4.s:158    .text.USB_GetNextDescriptorOfTypeAfter:00000000 USB_GetNextDescriptorOfTypeAfter
     /tmp/ccVENZS4.s:197    .text.USB_GetNextDescriptorComp:00000000 $t
     /tmp/ccVENZS4.s:202    .text.USB_GetNextDescriptorComp:00000000 USB_GetNextDescriptorComp
                     .debug_frame:00000010 $d

NO UNDEFINED SYMBOLS
