ARM GAS  /tmp/ccFzlVbi.s 			page 1


   1              		.cpu cortex-m0
   2              		.fpu softvfp
   3              		.eabi_attribute 20, 1
   4              		.eabi_attribute 21, 1
   5              		.eabi_attribute 23, 3
   6              		.eabi_attribute 24, 1
   7              		.eabi_attribute 25, 1
   8              		.eabi_attribute 26, 1
   9              		.eabi_attribute 30, 1
  10              		.eabi_attribute 34, 0
  11              		.eabi_attribute 18, 4
  12              		.code	16
  13              		.file	"Descriptors.c"
  14              		.text
  15              	.Ltext0:
  16              		.cfi_sections	.debug_frame
  17              		.section	.text.CALLBACK_USB_GetDescriptor,"ax",%progbits
  18              		.align	2
  19              		.global	CALLBACK_USB_GetDescriptor
  20              		.code	16
  21              		.thumb_func
  22              		.type	CALLBACK_USB_GetDescriptor, %function
  23              	CALLBACK_USB_GetDescriptor:
  24              	.LFB98:
  25              		.file 1 "src/Descriptors.c"
  26              		.loc 1 254 0
  27              		.cfi_startproc
  28              	.LVL0:
  29              		.loc 1 255 0
  30 0000 0A0A     		lsr	r2, r1, #8
  31              	.LVL1:
  32              		.loc 1 261 0
  33 0002 022A     		cmp	r2, #2
  34 0004 06D0     		beq	.L3
  35 0006 032A     		cmp	r2, #3
  36 0008 07D0     		beq	.L4
  37 000a 012A     		cmp	r2, #1
  38 000c 19D0     		beq	.L9
  39              		.loc 1 259 0
  40 000e 0020     		mov	r0, #0
  41              	.LVL2:
  42              		.loc 1 258 0
  43 0010 0022     		mov	r2, #0
  44 0012 1BE0     		b	.L5
  45              	.LVL3:
  46              	.L3:
  47              		.loc 1 269 0
  48 0014 0E4A     		ldr	r2, .L12
  49 0016 5088     		ldrh	r0, [r2, #2]
  50              	.LVL4:
  51              		.loc 1 270 0
  52 0018 18E0     		b	.L5
  53              	.LVL5:
  54              	.L4:
  55              		.loc 1 273 0
  56 001a CAB2     		uxtb	r2, r1
  57 001c 012A     		cmp	r2, #1
ARM GAS  /tmp/ccFzlVbi.s 			page 2


  58 001e 08D0     		beq	.L6
  59 0020 002A     		cmp	r2, #0
  60 0022 02D0     		beq	.L7
  61 0024 022A     		cmp	r2, #2
  62 0026 08D0     		beq	.L8
  63 0028 0EE0     		b	.L11
  64              	.L7:
  65              		.loc 1 275 0
  66 002a 0A4A     		ldr	r2, .L12+4
  67 002c 1268     		ldr	r2, [r2]
  68              	.LVL6:
  69              		.loc 1 276 0
  70 002e 1078     		ldrb	r0, [r2]
  71              	.LVL7:
  72              		.loc 1 277 0
  73 0030 0CE0     		b	.L5
  74              	.LVL8:
  75              	.L6:
  76              		.loc 1 280 0
  77 0032 094A     		ldr	r2, .L12+8
  78 0034 1268     		ldr	r2, [r2]
  79              	.LVL9:
  80              		.loc 1 281 0
  81 0036 1078     		ldrb	r0, [r2]
  82              	.LVL10:
  83              		.loc 1 282 0
  84 0038 08E0     		b	.L5
  85              	.LVL11:
  86              	.L8:
  87              		.loc 1 285 0
  88 003a 084A     		ldr	r2, .L12+12
  89 003c 1268     		ldr	r2, [r2]
  90              	.LVL12:
  91              		.loc 1 286 0
  92 003e 1078     		ldrb	r0, [r2]
  93              	.LVL13:
  94              		.loc 1 287 0
  95 0040 04E0     		b	.L5
  96              	.LVL14:
  97              	.L9:
  98              		.loc 1 264 0
  99 0042 1220     		mov	r0, #18
 100              	.LVL15:
 101              		.loc 1 263 0
 102 0044 064A     		ldr	r2, .L12+16
 103 0046 01E0     		b	.L5
 104              	.LVL16:
 105              	.L11:
 106              		.loc 1 259 0
 107 0048 0020     		mov	r0, #0
 108              	.LVL17:
 109              		.loc 1 258 0
 110 004a 0022     		mov	r2, #0
 111              	.LVL18:
 112              	.L5:
 113              		.loc 1 293 0
 114 004c 1A60     		str	r2, [r3]
ARM GAS  /tmp/ccFzlVbi.s 			page 3


 115              		.loc 1 295 0
 116              		@ sp needed
 117 004e 7047     		bx	lr
 118              	.L13:
 119              		.align	2
 120              	.L12:
 121 0050 00000000 		.word	.LANCHOR1
 122 0054 00000000 		.word	.LANCHOR2
 123 0058 00000000 		.word	.LANCHOR3
 124 005c 00000000 		.word	.LANCHOR4
 125 0060 00000000 		.word	.LANCHOR0
 126              		.cfi_endproc
 127              	.LFE98:
 128              		.size	CALLBACK_USB_GetDescriptor, .-CALLBACK_USB_GetDescriptor
 129              		.global	ProductStringPtr
 130              		.global	ProductString
 131              		.global	ManufacturerStringPtr
 132              		.global	ManufacturerString
 133              		.global	LanguageStringPtr
 134              		.global	LanguageString
 135              		.global	ConfigurationDescriptor
 136              		.global	DeviceDescriptor
 137              		.section	.data.DeviceDescriptor,"aw",%progbits
 138              		.align	2
 139              		.set	.LANCHOR0,. + 0
 140              		.type	DeviceDescriptor, %object
 141              		.size	DeviceDescriptor, 18
 142              	DeviceDescriptor:
 143 0000 12       		.byte	18
 144 0001 01       		.byte	1
 145 0002 1001     		.short	272
 146 0004 02       		.byte	2
 147 0005 00       		.byte	0
 148 0006 00       		.byte	0
 149 0007 40       		.byte	64
 150 0008 C91F     		.short	8137
 151 000a 4720     		.short	8263
 152 000c 0100     		.short	1
 153 000e 01       		.byte	1
 154 000f 02       		.byte	2
 155 0010 00       		.byte	0
 156 0011 01       		.byte	1
 157 0012 0000     		.section	.data.ProductString,"aw",%progbits
 158              		.align	2
 159              		.type	ProductString, %object
 160              		.size	ProductString, 38
 161              	ProductString:
 162 0000 26       		.byte	38
 163 0001 03       		.byte	3
 164 0002 41       		.byte	65
 165 0003 00       		.byte	0
 166 0004 6C       		.byte	108
 167 0005 00       		.byte	0
 168 0006 74       		.byte	116
 169 0007 00       		.byte	0
 170 0008 69       		.byte	105
 171 0009 00       		.byte	0
ARM GAS  /tmp/ccFzlVbi.s 			page 4


 172 000a 6D       		.byte	109
 173 000b 00       		.byte	0
 174 000c 65       		.byte	101
 175 000d 00       		.byte	0
 176 000e 74       		.byte	116
 177 000f 00       		.byte	0
 178 0010 65       		.byte	101
 179 0011 00       		.byte	0
 180 0012 72       		.byte	114
 181 0013 00       		.byte	0
 182 0014 20       		.byte	32
 183 0015 00       		.byte	0
 184 0016 43       		.byte	67
 185 0017 00       		.byte	0
 186 0018 44       		.byte	68
 187 0019 00       		.byte	0
 188 001a 43       		.byte	67
 189 001b 00       		.byte	0
 190 001c 20       		.byte	32
 191 001d 00       		.byte	0
 192 001e 43       		.byte	67
 193 001f 00       		.byte	0
 194 0020 6F       		.byte	111
 195 0021 00       		.byte	0
 196 0022 6E       		.byte	110
 197 0023 00       		.byte	0
 198 0024 6E       		.byte	110
 199 0025 00       		.byte	0
 200 0026 0000     		.section	.data.ProductStringPtr,"aw",%progbits
 201              		.align	2
 202              		.set	.LANCHOR4,. + 0
 203              		.type	ProductStringPtr, %object
 204              		.size	ProductStringPtr, 4
 205              	ProductStringPtr:
 206 0000 00000000 		.word	ProductString
 207              		.section	.data.LanguageString,"aw",%progbits
 208              		.align	2
 209              		.type	LanguageString, %object
 210              		.size	LanguageString, 4
 211              	LanguageString:
 212 0000 04       		.byte	4
 213 0001 03       		.byte	3
 214 0002 09       		.byte	9
 215 0003 04       		.byte	4
 216              		.section	.data.ManufacturerString,"aw",%progbits
 217              		.align	2
 218              		.type	ManufacturerString, %object
 219              		.size	ManufacturerString, 8
 220              	ManufacturerString:
 221 0000 08       		.byte	8
 222 0001 03       		.byte	3
 223 0002 4E       		.byte	78
 224 0003 00       		.byte	0
 225 0004 58       		.byte	88
 226 0005 00       		.byte	0
 227 0006 50       		.byte	80
 228 0007 00       		.byte	0
ARM GAS  /tmp/ccFzlVbi.s 			page 5


 229              		.section	.data.LanguageStringPtr,"aw",%progbits
 230              		.align	2
 231              		.set	.LANCHOR2,. + 0
 232              		.type	LanguageStringPtr, %object
 233              		.size	LanguageStringPtr, 4
 234              	LanguageStringPtr:
 235 0000 00000000 		.word	LanguageString
 236              		.section	.data.ConfigurationDescriptor,"aw",%progbits
 237              		.align	2
 238              		.set	.LANCHOR1,. + 0
 239              		.type	ConfigurationDescriptor, %object
 240              		.size	ConfigurationDescriptor, 63
 241              	ConfigurationDescriptor:
 242 0000 09       		.byte	9
 243 0001 02       		.byte	2
 244 0002 3E00     		.short	62
 245 0004 02       		.byte	2
 246 0005 01       		.byte	1
 247 0006 00       		.byte	0
 248 0007 C0       		.byte	-64
 249 0008 32       		.byte	50
 250 0009 09       		.byte	9
 251 000a 04       		.byte	4
 252 000b 00       		.byte	0
 253 000c 00       		.byte	0
 254 000d 01       		.byte	1
 255 000e 02       		.byte	2
 256 000f 02       		.byte	2
 257 0010 01       		.byte	1
 258 0011 00       		.byte	0
 259 0012 05       		.byte	5
 260 0013 24       		.byte	36
 261 0014 00       		.byte	0
 262 0015 1001     		.2byte	272
 263 0017 04       		.byte	4
 264 0018 24       		.byte	36
 265 0019 02       		.byte	2
 266 001a 06       		.byte	6
 267 001b 05       		.byte	5
 268 001c 24       		.byte	36
 269 001d 06       		.byte	6
 270 001e 00       		.byte	0
 271 001f 01       		.byte	1
 272 0020 07       		.byte	7
 273 0021 05       		.byte	5
 274 0022 81       		.byte	-127
 275 0023 03       		.byte	3
 276 0024 0800     		.short	8
 277 0026 FF       		.byte	-1
 278 0027 09       		.byte	9
 279 0028 04       		.byte	4
 280 0029 01       		.byte	1
 281 002a 00       		.byte	0
 282 002b 02       		.byte	2
 283 002c 0A       		.byte	10
 284 002d 00       		.byte	0
 285 002e 00       		.byte	0
ARM GAS  /tmp/ccFzlVbi.s 			page 6


 286 002f 00       		.byte	0
 287 0030 07       		.byte	7
 288 0031 05       		.byte	5
 289 0032 03       		.byte	3
 290 0033 02       		.byte	2
 291 0034 1000     		.short	16
 292 0036 01       		.byte	1
 293 0037 07       		.byte	7
 294 0038 05       		.byte	5
 295 0039 82       		.byte	-126
 296 003a 02       		.byte	2
 297 003b 1000     		.2byte	16
 298 003d 01       		.byte	1
 299 003e 00       		.byte	0
 300 003f 00       		.section	.data.ManufacturerStringPtr,"aw",%progbits
 301              		.align	2
 302              		.set	.LANCHOR3,. + 0
 303              		.type	ManufacturerStringPtr, %object
 304              		.size	ManufacturerStringPtr, 4
 305              	ManufacturerStringPtr:
 306 0000 00000000 		.word	ManufacturerString
 307              		.text
 308              	.Letext0:
 309              		.file 2 "/usr/local/lpcxpresso_7.3.0_186/lpcxpresso/tools/arm-none-eabi/include/machine/_default_t
 310              		.file 3 "/usr/local/lpcxpresso_7.3.0_186/lpcxpresso/tools/arm-none-eabi/include/stdint.h"
 311              		.file 4 "USBlib_11U14/Drivers/USB/Core/StdDescriptors.h"
 312              		.file 5 "USBlib_11U14/Drivers/USB/Core/DCD/LPC11UXX/../../HAL/LPC11UXX/HAL_LPC11Uxx.h"
 313              		.file 6 "USBlib_11U14/Drivers/USB/Class/Device/../Common/CDCClassCommon.h"
 314              		.file 7 "inc/Descriptors.h"
 315              		.file 8 "USBlib_11U14/Drivers/USB/Core/DCD/LPC11UXX/../EndpointCommon.h"
 316              		.file 9 "USBlib_11U14/Drivers/USB/Core/DCD/LPC11UXX/Endpoint_LPC11Uxx.h"
 317              		.section	.debug_info,"",%progbits
 318              	.Ldebug_info0:
 319 0000 75080000 		.4byte	0x875
 320 0004 0400     		.2byte	0x4
 321 0006 00000000 		.4byte	.Ldebug_abbrev0
 322 000a 04       		.byte	0x4
 323 000b 01       		.uleb128 0x1
 324 000c 82050000 		.4byte	.LASF150
 325 0010 01       		.byte	0x1
 326 0011 18030000 		.4byte	.LASF151
 327 0015 E9090000 		.4byte	.LASF152
 328 0019 00000000 		.4byte	.Ldebug_ranges0+0
 329 001d 00000000 		.4byte	0
 330 0021 00000000 		.4byte	.Ldebug_line0
 331 0025 02       		.uleb128 0x2
 332 0026 01       		.byte	0x1
 333 0027 06       		.byte	0x6
 334 0028 AE010000 		.4byte	.LASF0
 335 002c 03       		.uleb128 0x3
 336 002d B2000000 		.4byte	.LASF3
 337 0031 02       		.byte	0x2
 338 0032 1C       		.byte	0x1c
 339 0033 37000000 		.4byte	0x37
 340 0037 02       		.uleb128 0x2
 341 0038 01       		.byte	0x1
 342 0039 08       		.byte	0x8
ARM GAS  /tmp/ccFzlVbi.s 			page 7


 343 003a A6080000 		.4byte	.LASF1
 344 003e 02       		.uleb128 0x2
 345 003f 02       		.byte	0x2
 346 0040 05       		.byte	0x5
 347 0041 DC080000 		.4byte	.LASF2
 348 0045 03       		.uleb128 0x3
 349 0046 2D0A0000 		.4byte	.LASF4
 350 004a 02       		.byte	0x2
 351 004b 26       		.byte	0x26
 352 004c 50000000 		.4byte	0x50
 353 0050 02       		.uleb128 0x2
 354 0051 02       		.byte	0x2
 355 0052 07       		.byte	0x7
 356 0053 47050000 		.4byte	.LASF5
 357 0057 03       		.uleb128 0x3
 358 0058 630A0000 		.4byte	.LASF6
 359 005c 02       		.byte	0x2
 360 005d 37       		.byte	0x37
 361 005e 62000000 		.4byte	0x62
 362 0062 02       		.uleb128 0x2
 363 0063 04       		.byte	0x4
 364 0064 05       		.byte	0x5
 365 0065 D8000000 		.4byte	.LASF7
 366 0069 03       		.uleb128 0x3
 367 006a BF030000 		.4byte	.LASF8
 368 006e 02       		.byte	0x2
 369 006f 38       		.byte	0x38
 370 0070 74000000 		.4byte	0x74
 371 0074 02       		.uleb128 0x2
 372 0075 04       		.byte	0x4
 373 0076 07       		.byte	0x7
 374 0077 97040000 		.4byte	.LASF9
 375 007b 02       		.uleb128 0x2
 376 007c 08       		.byte	0x8
 377 007d 05       		.byte	0x5
 378 007e A0010000 		.4byte	.LASF10
 379 0082 02       		.uleb128 0x2
 380 0083 08       		.byte	0x8
 381 0084 07       		.byte	0x7
 382 0085 E1000000 		.4byte	.LASF11
 383 0089 04       		.uleb128 0x4
 384 008a 04       		.byte	0x4
 385 008b 05       		.byte	0x5
 386 008c 696E7400 		.ascii	"int\000"
 387 0090 02       		.uleb128 0x2
 388 0091 04       		.byte	0x4
 389 0092 07       		.byte	0x7
 390 0093 43040000 		.4byte	.LASF12
 391 0097 03       		.uleb128 0x3
 392 0098 730B0000 		.4byte	.LASF13
 393 009c 03       		.byte	0x3
 394 009d 2A       		.byte	0x2a
 395 009e 2C000000 		.4byte	0x2c
 396 00a2 03       		.uleb128 0x3
 397 00a3 42030000 		.4byte	.LASF14
 398 00a7 03       		.byte	0x3
 399 00a8 36       		.byte	0x36
ARM GAS  /tmp/ccFzlVbi.s 			page 8


 400 00a9 45000000 		.4byte	0x45
 401 00ad 03       		.uleb128 0x3
 402 00ae 9E080000 		.4byte	.LASF15
 403 00b2 03       		.byte	0x3
 404 00b3 41       		.byte	0x41
 405 00b4 57000000 		.4byte	0x57
 406 00b8 03       		.uleb128 0x3
 407 00b9 B3090000 		.4byte	.LASF16
 408 00bd 03       		.byte	0x3
 409 00be 42       		.byte	0x42
 410 00bf 69000000 		.4byte	0x69
 411 00c3 02       		.uleb128 0x2
 412 00c4 04       		.byte	0x4
 413 00c5 07       		.byte	0x7
 414 00c6 26070000 		.4byte	.LASF17
 415 00ca 02       		.uleb128 0x2
 416 00cb 01       		.byte	0x1
 417 00cc 08       		.byte	0x8
 418 00cd CD090000 		.4byte	.LASF18
 419 00d1 05       		.uleb128 0x5
 420 00d2 7B0B0000 		.4byte	.LASF74
 421 00d6 01       		.byte	0x1
 422 00d7 04       		.byte	0x4
 423 00d8 B8       		.byte	0xb8
 424 00d9 20010000 		.4byte	0x120
 425 00dd 06       		.uleb128 0x6
 426 00de F0020000 		.4byte	.LASF19
 427 00e2 01       		.sleb128 1
 428 00e3 06       		.uleb128 0x6
 429 00e4 A4070000 		.4byte	.LASF20
 430 00e8 02       		.sleb128 2
 431 00e9 06       		.uleb128 0x6
 432 00ea 7D0A0000 		.4byte	.LASF21
 433 00ee 03       		.sleb128 3
 434 00ef 06       		.uleb128 0x6
 435 00f0 6D0A0000 		.4byte	.LASF22
 436 00f4 04       		.sleb128 4
 437 00f5 06       		.uleb128 0x6
 438 00f6 D6020000 		.4byte	.LASF23
 439 00fa 05       		.sleb128 5
 440 00fb 06       		.uleb128 0x6
 441 00fc D6040000 		.4byte	.LASF24
 442 0100 06       		.sleb128 6
 443 0101 06       		.uleb128 0x6
 444 0102 09050000 		.4byte	.LASF25
 445 0106 07       		.sleb128 7
 446 0107 06       		.uleb128 0x6
 447 0108 970B0000 		.4byte	.LASF26
 448 010c 08       		.sleb128 8
 449 010d 06       		.uleb128 0x6
 450 010e C1060000 		.4byte	.LASF27
 451 0112 0B       		.sleb128 11
 452 0113 06       		.uleb128 0x6
 453 0114 05040000 		.4byte	.LASF28
 454 0118 24       		.sleb128 36
 455 0119 06       		.uleb128 0x6
 456 011a 9E020000 		.4byte	.LASF29
ARM GAS  /tmp/ccFzlVbi.s 			page 9


 457 011e 25       		.sleb128 37
 458 011f 00       		.byte	0
 459 0120 07       		.uleb128 0x7
 460 0121 02       		.byte	0x2
 461 0122 04       		.byte	0x4
 462 0123 F1       		.byte	0xf1
 463 0124 41010000 		.4byte	0x141
 464 0128 08       		.uleb128 0x8
 465 0129 03080000 		.4byte	.LASF30
 466 012d 04       		.byte	0x4
 467 012e F3       		.byte	0xf3
 468 012f 97000000 		.4byte	0x97
 469 0133 00       		.byte	0
 470 0134 08       		.uleb128 0x8
 471 0135 DB030000 		.4byte	.LASF31
 472 0139 04       		.byte	0x4
 473 013a F4       		.byte	0xf4
 474 013b 97000000 		.4byte	0x97
 475 013f 01       		.byte	0x1
 476 0140 00       		.byte	0
 477 0141 03       		.uleb128 0x3
 478 0142 940A0000 		.4byte	.LASF32
 479 0146 04       		.byte	0x4
 480 0147 F7       		.byte	0xf7
 481 0148 20010000 		.4byte	0x120
 482 014c 09       		.uleb128 0x9
 483 014d 12       		.byte	0x12
 484 014e 04       		.byte	0x4
 485 014f 1301     		.2byte	0x113
 486 0151 FF010000 		.4byte	0x1ff
 487 0155 0A       		.uleb128 0xa
 488 0156 D1000000 		.4byte	.LASF33
 489 015a 04       		.byte	0x4
 490 015b 1501     		.2byte	0x115
 491 015d 41010000 		.4byte	0x141
 492 0161 00       		.byte	0
 493 0162 0A       		.uleb128 0xa
 494 0163 15050000 		.4byte	.LASF34
 495 0167 04       		.byte	0x4
 496 0168 1701     		.2byte	0x117
 497 016a A2000000 		.4byte	0xa2
 498 016e 02       		.byte	0x2
 499 016f 0A       		.uleb128 0xa
 500 0170 FC060000 		.4byte	.LASF35
 501 0174 04       		.byte	0x4
 502 0175 1801     		.2byte	0x118
 503 0177 97000000 		.4byte	0x97
 504 017b 04       		.byte	0x4
 505 017c 0A       		.uleb128 0xa
 506 017d 66040000 		.4byte	.LASF36
 507 0181 04       		.byte	0x4
 508 0182 1901     		.2byte	0x119
 509 0184 97000000 		.4byte	0x97
 510 0188 05       		.byte	0x5
 511 0189 0A       		.uleb128 0xa
 512 018a 5A010000 		.4byte	.LASF37
 513 018e 04       		.byte	0x4
ARM GAS  /tmp/ccFzlVbi.s 			page 10


 514 018f 1A01     		.2byte	0x11a
 515 0191 97000000 		.4byte	0x97
 516 0195 06       		.byte	0x6
 517 0196 0A       		.uleb128 0xa
 518 0197 63010000 		.4byte	.LASF38
 519 019b 04       		.byte	0x4
 520 019c 1C01     		.2byte	0x11c
 521 019e 97000000 		.4byte	0x97
 522 01a2 07       		.byte	0x7
 523 01a3 0A       		.uleb128 0xa
 524 01a4 58080000 		.4byte	.LASF39
 525 01a8 04       		.byte	0x4
 526 01a9 1E01     		.2byte	0x11e
 527 01ab A2000000 		.4byte	0xa2
 528 01af 08       		.byte	0x8
 529 01b0 0A       		.uleb128 0xa
 530 01b1 8A0A0000 		.4byte	.LASF40
 531 01b5 04       		.byte	0x4
 532 01b6 1F01     		.2byte	0x11f
 533 01b8 A2000000 		.4byte	0xa2
 534 01bc 0A       		.byte	0xa
 535 01bd 0A       		.uleb128 0xa
 536 01be B1030000 		.4byte	.LASF41
 537 01c2 04       		.byte	0x4
 538 01c3 2001     		.2byte	0x120
 539 01c5 A2000000 		.4byte	0xa2
 540 01c9 0C       		.byte	0xc
 541 01ca 0A       		.uleb128 0xa
 542 01cb 3F070000 		.4byte	.LASF42
 543 01cf 04       		.byte	0x4
 544 01d0 2201     		.2byte	0x122
 545 01d2 97000000 		.4byte	0x97
 546 01d6 0E       		.byte	0xe
 547 01d7 0A       		.uleb128 0xa
 548 01d8 E3010000 		.4byte	.LASF43
 549 01dc 04       		.byte	0x4
 550 01dd 2801     		.2byte	0x128
 551 01df 97000000 		.4byte	0x97
 552 01e3 0F       		.byte	0xf
 553 01e4 0A       		.uleb128 0xa
 554 01e5 290C0000 		.4byte	.LASF44
 555 01e9 04       		.byte	0x4
 556 01ea 2C01     		.2byte	0x12c
 557 01ec 97000000 		.4byte	0x97
 558 01f0 10       		.byte	0x10
 559 01f1 0A       		.uleb128 0xa
 560 01f2 D2090000 		.4byte	.LASF45
 561 01f6 04       		.byte	0x4
 562 01f7 3801     		.2byte	0x138
 563 01f9 97000000 		.4byte	0x97
 564 01fd 11       		.byte	0x11
 565 01fe 00       		.byte	0
 566 01ff 0B       		.uleb128 0xb
 567 0200 42010000 		.4byte	.LASF46
 568 0204 04       		.byte	0x4
 569 0205 3B01     		.2byte	0x13b
 570 0207 4C010000 		.4byte	0x14c
ARM GAS  /tmp/ccFzlVbi.s 			page 11


 571 020b 09       		.uleb128 0x9
 572 020c 09       		.byte	0x9
 573 020d 04       		.byte	0x4
 574 020e A701     		.2byte	0x1a7
 575 0210 70020000 		.4byte	0x270
 576 0214 0A       		.uleb128 0xa
 577 0215 D1000000 		.4byte	.LASF33
 578 0219 04       		.byte	0x4
 579 021a A901     		.2byte	0x1a9
 580 021c 41010000 		.4byte	0x141
 581 0220 00       		.byte	0
 582 0221 0A       		.uleb128 0xa
 583 0222 4B030000 		.4byte	.LASF47
 584 0226 04       		.byte	0x4
 585 0227 AB01     		.2byte	0x1ab
 586 0229 A2000000 		.4byte	0xa2
 587 022d 02       		.byte	0x2
 588 022e 0A       		.uleb128 0xa
 589 022f 190C0000 		.4byte	.LASF48
 590 0233 04       		.byte	0x4
 591 0234 AE01     		.2byte	0x1ae
 592 0236 97000000 		.4byte	0x97
 593 023a 04       		.byte	0x4
 594 023b 0A       		.uleb128 0xa
 595 023c 30090000 		.4byte	.LASF49
 596 0240 04       		.byte	0x4
 597 0241 B001     		.2byte	0x1b0
 598 0243 97000000 		.4byte	0x97
 599 0247 05       		.byte	0x5
 600 0248 0A       		.uleb128 0xa
 601 0249 90000000 		.4byte	.LASF50
 602 024d 04       		.byte	0x4
 603 024e B101     		.2byte	0x1b1
 604 0250 97000000 		.4byte	0x97
 605 0254 06       		.byte	0x6
 606 0255 0A       		.uleb128 0xa
 607 0256 490C0000 		.4byte	.LASF51
 608 025a 04       		.byte	0x4
 609 025b B301     		.2byte	0x1b3
 610 025d 97000000 		.4byte	0x97
 611 0261 07       		.byte	0x7
 612 0262 0A       		.uleb128 0xa
 613 0263 44080000 		.4byte	.LASF52
 614 0267 04       		.byte	0x4
 615 0268 B701     		.2byte	0x1b7
 616 026a 97000000 		.4byte	0x97
 617 026e 08       		.byte	0x8
 618 026f 00       		.byte	0
 619 0270 0B       		.uleb128 0xb
 620 0271 63090000 		.4byte	.LASF53
 621 0275 04       		.byte	0x4
 622 0276 BB01     		.2byte	0x1bb
 623 0278 0B020000 		.4byte	0x20b
 624 027c 09       		.uleb128 0x9
 625 027d 09       		.byte	0x9
 626 027e 04       		.byte	0x4
 627 027f E401     		.2byte	0x1e4
ARM GAS  /tmp/ccFzlVbi.s 			page 12


 628 0281 EE020000 		.4byte	0x2ee
 629 0285 0A       		.uleb128 0xa
 630 0286 D1000000 		.4byte	.LASF33
 631 028a 04       		.byte	0x4
 632 028b E601     		.2byte	0x1e6
 633 028d 41010000 		.4byte	0x141
 634 0291 00       		.byte	0
 635 0292 0A       		.uleb128 0xa
 636 0293 A1030000 		.4byte	.LASF54
 637 0297 04       		.byte	0x4
 638 0298 E801     		.2byte	0x1e8
 639 029a 97000000 		.4byte	0x97
 640 029e 02       		.byte	0x2
 641 029f 0A       		.uleb128 0xa
 642 02a0 CA030000 		.4byte	.LASF55
 643 02a4 04       		.byte	0x4
 644 02a5 E901     		.2byte	0x1e9
 645 02a7 97000000 		.4byte	0x97
 646 02ab 03       		.byte	0x3
 647 02ac 0A       		.uleb128 0xa
 648 02ad 6F040000 		.4byte	.LASF56
 649 02b1 04       		.byte	0x4
 650 02b2 EE01     		.2byte	0x1ee
 651 02b4 97000000 		.4byte	0x97
 652 02b8 04       		.byte	0x4
 653 02b9 0A       		.uleb128 0xa
 654 02ba FC060000 		.4byte	.LASF35
 655 02be 04       		.byte	0x4
 656 02bf F001     		.2byte	0x1f0
 657 02c1 97000000 		.4byte	0x97
 658 02c5 05       		.byte	0x5
 659 02c6 0A       		.uleb128 0xa
 660 02c7 66040000 		.4byte	.LASF36
 661 02cb 04       		.byte	0x4
 662 02cc F101     		.2byte	0x1f1
 663 02ce 97000000 		.4byte	0x97
 664 02d2 06       		.byte	0x6
 665 02d3 0A       		.uleb128 0xa
 666 02d4 5A010000 		.4byte	.LASF37
 667 02d8 04       		.byte	0x4
 668 02d9 F201     		.2byte	0x1f2
 669 02db 97000000 		.4byte	0x97
 670 02df 07       		.byte	0x7
 671 02e0 0A       		.uleb128 0xa
 672 02e1 E30B0000 		.4byte	.LASF57
 673 02e5 04       		.byte	0x4
 674 02e6 F401     		.2byte	0x1f4
 675 02e8 97000000 		.4byte	0x97
 676 02ec 08       		.byte	0x8
 677 02ed 00       		.byte	0
 678 02ee 0B       		.uleb128 0xb
 679 02ef 120A0000 		.4byte	.LASF58
 680 02f3 04       		.byte	0x4
 681 02f4 F501     		.2byte	0x1f5
 682 02f6 7C020000 		.4byte	0x27c
 683 02fa 09       		.uleb128 0x9
 684 02fb 07       		.byte	0x7
ARM GAS  /tmp/ccFzlVbi.s 			page 13


 685 02fc 04       		.byte	0x4
 686 02fd 5D02     		.2byte	0x25d
 687 02ff 45030000 		.4byte	0x345
 688 0303 0A       		.uleb128 0xa
 689 0304 D1000000 		.4byte	.LASF33
 690 0308 04       		.byte	0x4
 691 0309 5F02     		.2byte	0x25f
 692 030b 41010000 		.4byte	0x141
 693 030f 00       		.byte	0
 694 0310 0A       		.uleb128 0xa
 695 0311 AC0A0000 		.4byte	.LASF59
 696 0315 04       		.byte	0x4
 697 0316 6102     		.2byte	0x261
 698 0318 97000000 		.4byte	0x97
 699 031c 02       		.byte	0x2
 700 031d 0A       		.uleb128 0xa
 701 031e E5020000 		.4byte	.LASF60
 702 0322 04       		.byte	0x4
 703 0323 6402     		.2byte	0x264
 704 0325 97000000 		.4byte	0x97
 705 0329 03       		.byte	0x3
 706 032a 0A       		.uleb128 0xa
 707 032b EF060000 		.4byte	.LASF61
 708 032f 04       		.byte	0x4
 709 0330 6702     		.2byte	0x267
 710 0332 A2000000 		.4byte	0xa2
 711 0336 04       		.byte	0x4
 712 0337 0A       		.uleb128 0xa
 713 0338 32080000 		.4byte	.LASF62
 714 033c 04       		.byte	0x4
 715 033d 6A02     		.2byte	0x26a
 716 033f 97000000 		.4byte	0x97
 717 0343 06       		.byte	0x6
 718 0344 00       		.byte	0
 719 0345 0B       		.uleb128 0xb
 720 0346 380A0000 		.4byte	.LASF63
 721 034a 04       		.byte	0x4
 722 034b 6D02     		.2byte	0x26d
 723 034d FA020000 		.4byte	0x2fa
 724 0351 09       		.uleb128 0x9
 725 0352 02       		.byte	0x2
 726 0353 04       		.byte	0x4
 727 0354 9C02     		.2byte	0x29c
 728 0356 75030000 		.4byte	0x375
 729 035a 0A       		.uleb128 0xa
 730 035b D1000000 		.4byte	.LASF33
 731 035f 04       		.byte	0x4
 732 0360 9E02     		.2byte	0x29e
 733 0362 41010000 		.4byte	0x141
 734 0366 00       		.byte	0
 735 0367 0A       		.uleb128 0xa
 736 0368 3B0C0000 		.4byte	.LASF64
 737 036c 04       		.byte	0x4
 738 036d A002     		.2byte	0x2a0
 739 036f 75030000 		.4byte	0x375
 740 0373 02       		.byte	0x2
 741 0374 00       		.byte	0
ARM GAS  /tmp/ccFzlVbi.s 			page 14


 742 0375 0C       		.uleb128 0xc
 743 0376 A2000000 		.4byte	0xa2
 744 037a 84030000 		.4byte	0x384
 745 037e 0D       		.uleb128 0xd
 746 037f C3000000 		.4byte	0xc3
 747 0383 00       		.byte	0
 748 0384 0B       		.uleb128 0xb
 749 0385 0F0B0000 		.4byte	.LASF65
 750 0389 04       		.byte	0x4
 751 038a AC02     		.2byte	0x2ac
 752 038c 51030000 		.4byte	0x351
 753 0390 07       		.uleb128 0x7
 754 0391 04       		.byte	0x4
 755 0392 05       		.byte	0x5
 756 0393 3B       		.byte	0x3b
 757 0394 0E040000 		.4byte	0x40e
 758 0398 08       		.uleb128 0x8
 759 0399 2A030000 		.4byte	.LASF66
 760 039d 05       		.byte	0x5
 761 039e 3C       		.byte	0x3c
 762 039f A2000000 		.4byte	0xa2
 763 03a3 00       		.byte	0
 764 03a4 0E       		.uleb128 0xe
 765 03a5 81070000 		.4byte	.LASF67
 766 03a9 05       		.byte	0x5
 767 03aa 3E       		.byte	0x3e
 768 03ab 0E040000 		.4byte	0x40e
 769 03af 02       		.byte	0x2
 770 03b0 0A       		.byte	0xa
 771 03b1 06       		.byte	0x6
 772 03b2 02       		.byte	0x2
 773 03b3 0E       		.uleb128 0xe
 774 03b4 DB030000 		.4byte	.LASF31
 775 03b8 05       		.byte	0x5
 776 03b9 3F       		.byte	0x3f
 777 03ba A2000000 		.4byte	0xa2
 778 03be 02       		.byte	0x2
 779 03bf 01       		.byte	0x1
 780 03c0 05       		.byte	0x5
 781 03c1 02       		.byte	0x2
 782 03c2 0E       		.uleb128 0xe
 783 03c3 B8070000 		.4byte	.LASF68
 784 03c7 05       		.byte	0x5
 785 03c8 40       		.byte	0x40
 786 03c9 A2000000 		.4byte	0xa2
 787 03cd 02       		.byte	0x2
 788 03ce 01       		.byte	0x1
 789 03cf 04       		.byte	0x4
 790 03d0 02       		.byte	0x2
 791 03d1 0E       		.uleb128 0xe
 792 03d2 A6000000 		.4byte	.LASF69
 793 03d6 05       		.byte	0x5
 794 03d7 41       		.byte	0x41
 795 03d8 A2000000 		.4byte	0xa2
 796 03dc 02       		.byte	0x2
 797 03dd 01       		.byte	0x1
 798 03de 03       		.byte	0x3
ARM GAS  /tmp/ccFzlVbi.s 			page 15


 799 03df 02       		.byte	0x2
 800 03e0 0E       		.uleb128 0xe
 801 03e1 910B0000 		.4byte	.LASF70
 802 03e5 05       		.byte	0x5
 803 03e6 42       		.byte	0x42
 804 03e7 0E040000 		.4byte	0x40e
 805 03eb 02       		.byte	0x2
 806 03ec 01       		.byte	0x1
 807 03ed 02       		.byte	0x2
 808 03ee 02       		.byte	0x2
 809 03ef 0E       		.uleb128 0xe
 810 03f0 BC0A0000 		.4byte	.LASF71
 811 03f4 05       		.byte	0x5
 812 03f5 43       		.byte	0x43
 813 03f6 A2000000 		.4byte	0xa2
 814 03fa 02       		.byte	0x2
 815 03fb 01       		.byte	0x1
 816 03fc 01       		.byte	0x1
 817 03fd 02       		.byte	0x2
 818 03fe 0E       		.uleb128 0xe
 819 03ff 9A030000 		.4byte	.LASF72
 820 0403 05       		.byte	0x5
 821 0404 44       		.byte	0x44
 822 0405 0E040000 		.4byte	0x40e
 823 0409 02       		.byte	0x2
 824 040a 01       		.byte	0x1
 825 040b 00       		.byte	0
 826 040c 02       		.byte	0x2
 827 040d 00       		.byte	0
 828 040e 0F       		.uleb128 0xf
 829 040f A2000000 		.4byte	0xa2
 830 0413 03       		.uleb128 0x3
 831 0414 74070000 		.4byte	.LASF73
 832 0418 05       		.byte	0x5
 833 0419 46       		.byte	0x46
 834 041a 90030000 		.4byte	0x390
 835 041e 05       		.uleb128 0x5
 836 041f AF020000 		.4byte	.LASF75
 837 0423 01       		.byte	0x1
 838 0424 06       		.byte	0x6
 839 0425 7F       		.byte	0x7f
 840 0426 62040000 		.4byte	0x462
 841 042a 06       		.uleb128 0x6
 842 042b 8E010000 		.4byte	.LASF76
 843 042f 02       		.sleb128 2
 844 0430 06       		.uleb128 0x6
 845 0431 F50B0000 		.4byte	.LASF77
 846 0435 00       		.sleb128 0
 847 0436 06       		.uleb128 0x6
 848 0437 65000000 		.4byte	.LASF78
 849 043b 02       		.sleb128 2
 850 043c 06       		.uleb128 0x6
 851 043d BB040000 		.4byte	.LASF79
 852 0441 01       		.sleb128 1
 853 0442 06       		.uleb128 0x6
 854 0443 88070000 		.4byte	.LASF80
 855 0447 00       		.sleb128 0
ARM GAS  /tmp/ccFzlVbi.s 			page 16


 856 0448 06       		.uleb128 0x6
 857 0449 7A030000 		.4byte	.LASF81
 858 044d FF01     		.sleb128 255
 859 044f 06       		.uleb128 0x6
 860 0450 50040000 		.4byte	.LASF82
 861 0454 0A       		.sleb128 10
 862 0455 06       		.uleb128 0x6
 863 0456 61080000 		.4byte	.LASF83
 864 045a 00       		.sleb128 0
 865 045b 06       		.uleb128 0x6
 866 045c 62030000 		.4byte	.LASF84
 867 0460 00       		.sleb128 0
 868 0461 00       		.byte	0
 869 0462 05       		.uleb128 0x5
 870 0463 F8080000 		.4byte	.LASF85
 871 0467 01       		.byte	0x1
 872 0468 06       		.byte	0x6
 873 0469 B4       		.byte	0xb4
 874 046a D5040000 		.4byte	0x4d5
 875 046e 06       		.uleb128 0x6
 876 046f 270B0000 		.4byte	.LASF86
 877 0473 00       		.sleb128 0
 878 0474 06       		.uleb128 0x6
 879 0475 B4080000 		.4byte	.LASF87
 880 0479 01       		.sleb128 1
 881 047a 06       		.uleb128 0x6
 882 047b 71010000 		.4byte	.LASF88
 883 047f 02       		.sleb128 2
 884 0480 06       		.uleb128 0x6
 885 0481 02070000 		.4byte	.LASF89
 886 0485 03       		.sleb128 3
 887 0486 06       		.uleb128 0x6
 888 0487 13000000 		.4byte	.LASF90
 889 048b 04       		.sleb128 4
 890 048c 06       		.uleb128 0x6
 891 048d 1B010000 		.4byte	.LASF91
 892 0491 05       		.sleb128 5
 893 0492 06       		.uleb128 0x6
 894 0493 79080000 		.4byte	.LASF92
 895 0497 06       		.sleb128 6
 896 0498 06       		.uleb128 0x6
 897 0499 89090000 		.4byte	.LASF93
 898 049d 07       		.sleb128 7
 899 049e 06       		.uleb128 0x6
 900 049f 08080000 		.4byte	.LASF94
 901 04a3 08       		.sleb128 8
 902 04a4 06       		.uleb128 0x6
 903 04a5 E0030000 		.4byte	.LASF95
 904 04a9 09       		.sleb128 9
 905 04aa 06       		.uleb128 0x6
 906 04ab 5A050000 		.4byte	.LASF96
 907 04af 0A       		.sleb128 10
 908 04b0 06       		.uleb128 0x6
 909 04b1 CC070000 		.4byte	.LASF97
 910 04b5 0B       		.sleb128 11
 911 04b6 06       		.uleb128 0x6
 912 04b7 9A060000 		.4byte	.LASF98
ARM GAS  /tmp/ccFzlVbi.s 			page 17


 913 04bb 0C       		.sleb128 12
 914 04bc 06       		.uleb128 0x6
 915 04bd 78020000 		.4byte	.LASF99
 916 04c1 0D       		.sleb128 13
 917 04c2 06       		.uleb128 0x6
 918 04c3 5A020000 		.4byte	.LASF100
 919 04c7 0E       		.sleb128 14
 920 04c8 06       		.uleb128 0x6
 921 04c9 AC0B0000 		.4byte	.LASF101
 922 04cd 0F       		.sleb128 15
 923 04ce 06       		.uleb128 0x6
 924 04cf EC040000 		.4byte	.LASF102
 925 04d3 10       		.sleb128 16
 926 04d4 00       		.byte	0
 927 04d5 07       		.uleb128 0x7
 928 04d6 05       		.byte	0x5
 929 04d7 06       		.byte	0x6
 930 04d8 E6       		.byte	0xe6
 931 04d9 02050000 		.4byte	0x502
 932 04dd 08       		.uleb128 0x8
 933 04de D1000000 		.4byte	.LASF33
 934 04e2 06       		.byte	0x6
 935 04e3 E8       		.byte	0xe8
 936 04e4 41010000 		.4byte	0x141
 937 04e8 00       		.byte	0
 938 04e9 08       		.uleb128 0x8
 939 04ea 3F050000 		.4byte	.LASF103
 940 04ee 06       		.byte	0x6
 941 04ef E9       		.byte	0xe9
 942 04f0 97000000 		.4byte	0x97
 943 04f4 02       		.byte	0x2
 944 04f5 08       		.uleb128 0x8
 945 04f6 BC090000 		.4byte	.LASF104
 946 04fa 06       		.byte	0x6
 947 04fb EC       		.byte	0xec
 948 04fc A2000000 		.4byte	0xa2
 949 0500 03       		.byte	0x3
 950 0501 00       		.byte	0
 951 0502 03       		.uleb128 0x3
 952 0503 5A0C0000 		.4byte	.LASF105
 953 0507 06       		.byte	0x6
 954 0508 EF       		.byte	0xef
 955 0509 D5040000 		.4byte	0x4d5
 956 050d 09       		.uleb128 0x9
 957 050e 04       		.byte	0x4
 958 050f 06       		.byte	0x6
 959 0510 1101     		.2byte	0x111
 960 0512 3E050000 		.4byte	0x53e
 961 0516 0A       		.uleb128 0xa
 962 0517 D1000000 		.4byte	.LASF33
 963 051b 06       		.byte	0x6
 964 051c 1301     		.2byte	0x113
 965 051e 41010000 		.4byte	0x141
 966 0522 00       		.byte	0
 967 0523 0A       		.uleb128 0xa
 968 0524 3F050000 		.4byte	.LASF103
 969 0528 06       		.byte	0x6
ARM GAS  /tmp/ccFzlVbi.s 			page 18


 970 0529 1401     		.2byte	0x114
 971 052b 97000000 		.4byte	0x97
 972 052f 02       		.byte	0x2
 973 0530 0A       		.uleb128 0xa
 974 0531 37020000 		.4byte	.LASF106
 975 0535 06       		.byte	0x6
 976 0536 1701     		.2byte	0x117
 977 0538 97000000 		.4byte	0x97
 978 053c 03       		.byte	0x3
 979 053d 00       		.byte	0
 980 053e 0B       		.uleb128 0xb
 981 053f F8000000 		.4byte	.LASF107
 982 0543 06       		.byte	0x6
 983 0544 1B01     		.2byte	0x11b
 984 0546 0D050000 		.4byte	0x50d
 985 054a 09       		.uleb128 0x9
 986 054b 05       		.byte	0x5
 987 054c 06       		.byte	0x6
 988 054d 3F01     		.2byte	0x13f
 989 054f 88050000 		.4byte	0x588
 990 0553 0A       		.uleb128 0xa
 991 0554 D1000000 		.4byte	.LASF33
 992 0558 06       		.byte	0x6
 993 0559 4101     		.2byte	0x141
 994 055b 41010000 		.4byte	0x141
 995 055f 00       		.byte	0
 996 0560 0A       		.uleb128 0xa
 997 0561 3F050000 		.4byte	.LASF103
 998 0565 06       		.byte	0x6
 999 0566 4201     		.2byte	0x142
 1000 0568 97000000 		.4byte	0x97
 1001 056c 02       		.byte	0x2
 1002 056d 0A       		.uleb128 0xa
 1003 056e 7A000000 		.4byte	.LASF108
 1004 0572 06       		.byte	0x6
 1005 0573 4501     		.2byte	0x145
 1006 0575 97000000 		.4byte	0x97
 1007 0579 03       		.byte	0x3
 1008 057a 0A       		.uleb128 0xa
 1009 057b 47060000 		.4byte	.LASF109
 1010 057f 06       		.byte	0x6
 1011 0580 4601     		.2byte	0x146
 1012 0582 97000000 		.4byte	0x97
 1013 0586 04       		.byte	0x4
 1014 0587 00       		.byte	0
 1015 0588 0B       		.uleb128 0xb
 1016 0589 64060000 		.4byte	.LASF110
 1017 058d 06       		.byte	0x6
 1018 058e 4701     		.2byte	0x147
 1019 0590 4A050000 		.4byte	0x54a
 1020 0594 02       		.uleb128 0x2
 1021 0595 01       		.byte	0x1
 1022 0596 02       		.byte	0x2
 1023 0597 98080000 		.4byte	.LASF111
 1024 059b 07       		.uleb128 0x7
 1025 059c 3F       		.byte	0x3f
 1026 059d 07       		.byte	0x7
ARM GAS  /tmp/ccFzlVbi.s 			page 19


 1027 059e 46       		.byte	0x46
 1028 059f 1C060000 		.4byte	0x61c
 1029 05a3 08       		.uleb128 0x8
 1030 05a4 5A0B0000 		.4byte	.LASF112
 1031 05a8 07       		.byte	0x7
 1032 05a9 47       		.byte	0x47
 1033 05aa 70020000 		.4byte	0x270
 1034 05ae 00       		.byte	0
 1035 05af 08       		.uleb128 0x8
 1036 05b0 31040000 		.4byte	.LASF113
 1037 05b4 07       		.byte	0x7
 1038 05b5 48       		.byte	0x48
 1039 05b6 EE020000 		.4byte	0x2ee
 1040 05ba 09       		.byte	0x9
 1041 05bb 08       		.uleb128 0x8
 1042 05bc 44020000 		.4byte	.LASF114
 1043 05c0 07       		.byte	0x7
 1044 05c1 49       		.byte	0x49
 1045 05c2 02050000 		.4byte	0x502
 1046 05c6 12       		.byte	0x12
 1047 05c7 08       		.uleb128 0x8
 1048 05c8 17040000 		.4byte	.LASF115
 1049 05cc 07       		.byte	0x7
 1050 05cd 4A       		.byte	0x4a
 1051 05ce 3E050000 		.4byte	0x53e
 1052 05d2 17       		.byte	0x17
 1053 05d3 08       		.uleb128 0x8
 1054 05d4 BC000000 		.4byte	.LASF116
 1055 05d8 07       		.byte	0x7
 1056 05d9 4B       		.byte	0x4b
 1057 05da 88050000 		.4byte	0x588
 1058 05de 1B       		.byte	0x1b
 1059 05df 08       		.uleb128 0x8
 1060 05e0 26050000 		.4byte	.LASF117
 1061 05e4 07       		.byte	0x7
 1062 05e5 4C       		.byte	0x4c
 1063 05e6 45030000 		.4byte	0x345
 1064 05ea 20       		.byte	0x20
 1065 05eb 08       		.uleb128 0x8
 1066 05ec 610B0000 		.4byte	.LASF118
 1067 05f0 07       		.byte	0x7
 1068 05f1 4D       		.byte	0x4d
 1069 05f2 EE020000 		.4byte	0x2ee
 1070 05f6 27       		.byte	0x27
 1071 05f7 08       		.uleb128 0x8
 1072 05f8 23020000 		.4byte	.LASF119
 1073 05fc 07       		.byte	0x7
 1074 05fd 4E       		.byte	0x4e
 1075 05fe 45030000 		.4byte	0x345
 1076 0602 30       		.byte	0x30
 1077 0603 08       		.uleb128 0x8
 1078 0604 BA010000 		.4byte	.LASF120
 1079 0608 07       		.byte	0x7
 1080 0609 4F       		.byte	0x4f
 1081 060a 45030000 		.4byte	0x345
 1082 060e 37       		.byte	0x37
 1083 060f 08       		.uleb128 0x8
ARM GAS  /tmp/ccFzlVbi.s 			page 20


 1084 0610 11090000 		.4byte	.LASF121
 1085 0614 07       		.byte	0x7
 1086 0615 50       		.byte	0x50
 1087 0616 37000000 		.4byte	0x37
 1088 061a 3E       		.byte	0x3e
 1089 061b 00       		.byte	0
 1090 061c 03       		.uleb128 0x3
 1091 061d 44090000 		.4byte	.LASF122
 1092 0621 07       		.byte	0x7
 1093 0622 51       		.byte	0x51
 1094 0623 9B050000 		.4byte	0x59b
 1095 0627 10       		.uleb128 0x10
 1096 0628 FD020000 		.4byte	.LASF153
 1097 062c 01       		.byte	0x1
 1098 062d FA       		.byte	0xfa
 1099 062e A2000000 		.4byte	0xa2
 1100 0632 00000000 		.4byte	.LFB98
 1101 0636 64000000 		.4byte	.LFE98-.LFB98
 1102 063a 01       		.uleb128 0x1
 1103 063b 9C       		.byte	0x9c
 1104 063c B8060000 		.4byte	0x6b8
 1105 0640 11       		.uleb128 0x11
 1106 0641 110C0000 		.4byte	.LASF123
 1107 0645 01       		.byte	0x1
 1108 0646 FA       		.byte	0xfa
 1109 0647 97000000 		.4byte	0x97
 1110 064b 00000000 		.4byte	.LLST0
 1111 064f 12       		.uleb128 0x12
 1112 0650 3B030000 		.4byte	.LASF124
 1113 0654 01       		.byte	0x1
 1114 0655 FB       		.byte	0xfb
 1115 0656 B8060000 		.4byte	0x6b8
 1116 065a 01       		.uleb128 0x1
 1117 065b 51       		.byte	0x51
 1118 065c 11       		.uleb128 0x11
 1119 065d 2A040000 		.4byte	.LASF125
 1120 0661 01       		.byte	0x1
 1121 0662 FC       		.byte	0xfc
 1122 0663 BD060000 		.4byte	0x6bd
 1123 0667 B7000000 		.4byte	.LLST1
 1124 066b 12       		.uleb128 0x12
 1125 066c E6080000 		.4byte	.LASF126
 1126 0670 01       		.byte	0x1
 1127 0671 FD       		.byte	0xfd
 1128 0672 C2060000 		.4byte	0x6c2
 1129 0676 01       		.uleb128 0x1
 1130 0677 53       		.byte	0x53
 1131 0678 13       		.uleb128 0x13
 1132 0679 21090000 		.4byte	.LASF127
 1133 067d 01       		.byte	0x1
 1134 067e FF       		.byte	0xff
 1135 067f BD060000 		.4byte	0x6bd
 1136 0683 05       		.uleb128 0x5
 1137 0684 71       		.byte	0x71
 1138 0685 00       		.sleb128 0
 1139 0686 38       		.byte	0x38
 1140 0687 25       		.byte	0x25
ARM GAS  /tmp/ccFzlVbi.s 			page 21


 1141 0688 9F       		.byte	0x9f
 1142 0689 14       		.uleb128 0x14
 1143 068a F2070000 		.4byte	.LASF128
 1144 068e 01       		.byte	0x1
 1145 068f 0001     		.2byte	0x100
 1146 0691 BD060000 		.4byte	0x6bd
 1147 0695 01       		.uleb128 0x1
 1148 0696 51       		.byte	0x51
 1149 0697 15       		.uleb128 0x15
 1150 0698 5C060000 		.4byte	.LASF129
 1151 069c 01       		.byte	0x1
 1152 069d 0201     		.2byte	0x102
 1153 069f CD060000 		.4byte	0x6cd
 1154 06a3 D8000000 		.4byte	.LLST2
 1155 06a7 15       		.uleb128 0x15
 1156 06a8 03080000 		.4byte	.LASF30
 1157 06ac 01       		.byte	0x1
 1158 06ad 0301     		.2byte	0x103
 1159 06af A2000000 		.4byte	0xa2
 1160 06b3 58010000 		.4byte	.LLST3
 1161 06b7 00       		.byte	0
 1162 06b8 16       		.uleb128 0x16
 1163 06b9 A2000000 		.4byte	0xa2
 1164 06bd 16       		.uleb128 0x16
 1165 06be 97000000 		.4byte	0x97
 1166 06c2 16       		.uleb128 0x16
 1167 06c3 C7060000 		.4byte	0x6c7
 1168 06c7 17       		.uleb128 0x17
 1169 06c8 04       		.byte	0x4
 1170 06c9 CD060000 		.4byte	0x6cd
 1171 06cd 17       		.uleb128 0x17
 1172 06ce 04       		.byte	0x4
 1173 06cf D3060000 		.4byte	0x6d3
 1174 06d3 18       		.uleb128 0x18
 1175 06d4 0C       		.uleb128 0xc
 1176 06d5 97000000 		.4byte	0x97
 1177 06d9 E6060000 		.4byte	0x6e6
 1178 06dd 19       		.uleb128 0x19
 1179 06de 1A       		.uleb128 0x1a
 1180 06df C3000000 		.4byte	0xc3
 1181 06e3 FF01     		.2byte	0x1ff
 1182 06e5 00       		.byte	0
 1183 06e6 1B       		.uleb128 0x1b
 1184 06e7 2F070000 		.4byte	.LASF130
 1185 06eb 08       		.byte	0x8
 1186 06ec 36       		.byte	0x36
 1187 06ed D4060000 		.4byte	0x6d4
 1188 06f1 1B       		.uleb128 0x1b
 1189 06f2 00000000 		.4byte	.LASF131
 1190 06f6 08       		.byte	0x8
 1191 06f7 38       		.byte	0x38
 1192 06f8 D4060000 		.4byte	0x6d4
 1193 06fc 1B       		.uleb128 0x1b
 1194 06fd FB0A0000 		.4byte	.LASF132
 1195 0701 08       		.byte	0x8
 1196 0702 3A       		.byte	0x3a
 1197 0703 D4060000 		.4byte	0x6d4
ARM GAS  /tmp/ccFzlVbi.s 			page 22


 1198 0707 0C       		.uleb128 0xc
 1199 0708 AD000000 		.4byte	0xad
 1200 070c 12070000 		.4byte	0x712
 1201 0710 19       		.uleb128 0x19
 1202 0711 00       		.byte	0
 1203 0712 1B       		.uleb128 0x1b
 1204 0713 CE0B0000 		.4byte	.LASF133
 1205 0717 08       		.byte	0x8
 1206 0718 3C       		.byte	0x3c
 1207 0719 1D070000 		.4byte	0x71d
 1208 071d 0F       		.uleb128 0xf
 1209 071e 07070000 		.4byte	0x707
 1210 0722 0C       		.uleb128 0xc
 1211 0723 B8000000 		.4byte	0xb8
 1212 0727 2D070000 		.4byte	0x72d
 1213 072b 19       		.uleb128 0x19
 1214 072c 00       		.byte	0
 1215 072d 1B       		.uleb128 0x1b
 1216 072e 7E040000 		.4byte	.LASF134
 1217 0732 08       		.byte	0x8
 1218 0733 3E       		.byte	0x3e
 1219 0734 38070000 		.4byte	0x738
 1220 0738 0F       		.uleb128 0xf
 1221 0739 22070000 		.4byte	0x722
 1222 073d 1B       		.uleb128 0x1b
 1223 073e CD010000 		.4byte	.LASF135
 1224 0742 08       		.byte	0x8
 1225 0743 43       		.byte	0x43
 1226 0744 48070000 		.4byte	0x748
 1227 0748 0F       		.uleb128 0xf
 1228 0749 22070000 		.4byte	0x722
 1229 074d 1B       		.uleb128 0x1b
 1230 074e C50A0000 		.4byte	.LASF136
 1231 0752 08       		.byte	0x8
 1232 0753 44       		.byte	0x44
 1233 0754 58070000 		.4byte	0x758
 1234 0758 0F       		.uleb128 0xf
 1235 0759 22070000 		.4byte	0x722
 1236 075d 1B       		.uleb128 0x1b
 1237 075e 09020000 		.4byte	.LASF137
 1238 0762 08       		.byte	0x8
 1239 0763 45       		.byte	0x45
 1240 0764 68070000 		.4byte	0x768
 1241 0768 0F       		.uleb128 0xf
 1242 0769 22070000 		.4byte	0x722
 1243 076d 0C       		.uleb128 0xc
 1244 076e 97000000 		.4byte	0x97
 1245 0772 78070000 		.4byte	0x778
 1246 0776 19       		.uleb128 0x19
 1247 0777 00       		.byte	0
 1248 0778 1B       		.uleb128 0x1b
 1249 0779 89060000 		.4byte	.LASF138
 1250 077d 08       		.byte	0x8
 1251 077e 49       		.byte	0x49
 1252 077f 6D070000 		.4byte	0x76d
 1253 0783 1B       		.uleb128 0x1b
 1254 0784 54070000 		.4byte	.LASF139
ARM GAS  /tmp/ccFzlVbi.s 			page 23


 1255 0788 08       		.byte	0x8
 1256 0789 4D       		.byte	0x4d
 1257 078a 6D070000 		.4byte	0x76d
 1258 078e 1B       		.uleb128 0x1b
 1259 078f 64070000 		.4byte	.LASF140
 1260 0793 08       		.byte	0x8
 1261 0794 4E       		.byte	0x4e
 1262 0795 6D070000 		.4byte	0x76d
 1263 0799 0C       		.uleb128 0xc
 1264 079a 13040000 		.4byte	0x413
 1265 079e AF070000 		.4byte	0x7af
 1266 07a2 1C       		.uleb128 0x1c
 1267 07a3 C3000000 		.4byte	0xc3
 1268 07a7 09       		.byte	0x9
 1269 07a8 1C       		.uleb128 0x1c
 1270 07a9 C3000000 		.4byte	0xc3
 1271 07ad 01       		.byte	0x1
 1272 07ae 00       		.byte	0
 1273 07af 1B       		.uleb128 0x1b
 1274 07b0 470B0000 		.4byte	.LASF141
 1275 07b4 09       		.byte	0x9
 1276 07b5 C9       		.byte	0xc9
 1277 07b6 99070000 		.4byte	0x799
 1278 07ba 1D       		.uleb128 0x1d
 1279 07bb 54000000 		.4byte	.LASF142
 1280 07bf 01       		.byte	0x1
 1281 07c0 3B       		.byte	0x3b
 1282 07c1 FF010000 		.4byte	0x1ff
 1283 07c5 05       		.uleb128 0x5
 1284 07c6 03       		.byte	0x3
 1285 07c7 00000000 		.4byte	DeviceDescriptor
 1286 07cb 1D       		.uleb128 0x1d
 1287 07cc 3C000000 		.4byte	.LASF143
 1288 07d0 01       		.byte	0x1
 1289 07d1 55       		.byte	0x55
 1290 07d2 1C060000 		.4byte	0x61c
 1291 07d6 05       		.uleb128 0x5
 1292 07d7 03       		.byte	0x3
 1293 07d8 00000000 		.4byte	ConfigurationDescriptor
 1294 07dc 0C       		.uleb128 0xc
 1295 07dd 97000000 		.4byte	0x97
 1296 07e1 EC070000 		.4byte	0x7ec
 1297 07e5 1C       		.uleb128 0x1c
 1298 07e6 C3000000 		.4byte	0xc3
 1299 07ea 03       		.byte	0x3
 1300 07eb 00       		.byte	0
 1301 07ec 1D       		.uleb128 0x1d
 1302 07ed EC0A0000 		.4byte	.LASF144
 1303 07f1 01       		.byte	0x1
 1304 07f2 BC       		.byte	0xbc
 1305 07f3 DC070000 		.4byte	0x7dc
 1306 07f7 05       		.uleb128 0x5
 1307 07f8 03       		.byte	0x3
 1308 07f9 00000000 		.4byte	LanguageString
 1309 07fd 1D       		.uleb128 0x1d
 1310 07fe A9040000 		.4byte	.LASF145
 1311 0802 01       		.byte	0x1
ARM GAS  /tmp/ccFzlVbi.s 			page 24


 1312 0803 C1       		.byte	0xc1
 1313 0804 0E080000 		.4byte	0x80e
 1314 0808 05       		.uleb128 0x5
 1315 0809 03       		.byte	0x3
 1316 080a 00000000 		.4byte	LanguageStringPtr
 1317 080e 17       		.uleb128 0x17
 1318 080f 04       		.byte	0x4
 1319 0810 84030000 		.4byte	0x384
 1320 0814 0C       		.uleb128 0xc
 1321 0815 97000000 		.4byte	0x97
 1322 0819 24080000 		.4byte	0x824
 1323 081d 1C       		.uleb128 0x1c
 1324 081e C3000000 		.4byte	0xc3
 1325 0822 07       		.byte	0x7
 1326 0823 00       		.byte	0
 1327 0824 1D       		.uleb128 0x1d
 1328 0825 DC060000 		.4byte	.LASF146
 1329 0829 01       		.byte	0x1
 1330 082a C7       		.byte	0xc7
 1331 082b 14080000 		.4byte	0x814
 1332 082f 05       		.uleb128 0x5
 1333 0830 03       		.byte	0x3
 1334 0831 00000000 		.4byte	ManufacturerString
 1335 0835 1D       		.uleb128 0x1d
 1336 0836 F3010000 		.4byte	.LASF147
 1337 083a 01       		.byte	0x1
 1338 083b CE       		.byte	0xce
 1339 083c 0E080000 		.4byte	0x80e
 1340 0840 05       		.uleb128 0x5
 1341 0841 03       		.byte	0x3
 1342 0842 00000000 		.4byte	ManufacturerStringPtr
 1343 0846 0C       		.uleb128 0xc
 1344 0847 97000000 		.4byte	0x97
 1345 084b 56080000 		.4byte	0x856
 1346 084f 1C       		.uleb128 0x1c
 1347 0850 C3000000 		.4byte	0xc3
 1348 0854 25       		.byte	0x25
 1349 0855 00       		.byte	0
 1350 0856 1D       		.uleb128 0x1d
 1351 0857 DE0A0000 		.4byte	.LASF148
 1352 085b 01       		.byte	0x1
 1353 085c D4       		.byte	0xd4
 1354 085d 46080000 		.4byte	0x846
 1355 0861 05       		.uleb128 0x5
 1356 0862 03       		.byte	0x3
 1357 0863 00000000 		.4byte	ProductString
 1358 0867 1D       		.uleb128 0x1d
 1359 0868 520A0000 		.4byte	.LASF149
 1360 086c 01       		.byte	0x1
 1361 086d EA       		.byte	0xea
 1362 086e 0E080000 		.4byte	0x80e
 1363 0872 05       		.uleb128 0x5
 1364 0873 03       		.byte	0x3
 1365 0874 00000000 		.4byte	ProductStringPtr
 1366 0878 00       		.byte	0
 1367              		.section	.debug_abbrev,"",%progbits
 1368              	.Ldebug_abbrev0:
ARM GAS  /tmp/ccFzlVbi.s 			page 25


 1369 0000 01       		.uleb128 0x1
 1370 0001 11       		.uleb128 0x11
 1371 0002 01       		.byte	0x1
 1372 0003 25       		.uleb128 0x25
 1373 0004 0E       		.uleb128 0xe
 1374 0005 13       		.uleb128 0x13
 1375 0006 0B       		.uleb128 0xb
 1376 0007 03       		.uleb128 0x3
 1377 0008 0E       		.uleb128 0xe
 1378 0009 1B       		.uleb128 0x1b
 1379 000a 0E       		.uleb128 0xe
 1380 000b 55       		.uleb128 0x55
 1381 000c 17       		.uleb128 0x17
 1382 000d 11       		.uleb128 0x11
 1383 000e 01       		.uleb128 0x1
 1384 000f 10       		.uleb128 0x10
 1385 0010 17       		.uleb128 0x17
 1386 0011 00       		.byte	0
 1387 0012 00       		.byte	0
 1388 0013 02       		.uleb128 0x2
 1389 0014 24       		.uleb128 0x24
 1390 0015 00       		.byte	0
 1391 0016 0B       		.uleb128 0xb
 1392 0017 0B       		.uleb128 0xb
 1393 0018 3E       		.uleb128 0x3e
 1394 0019 0B       		.uleb128 0xb
 1395 001a 03       		.uleb128 0x3
 1396 001b 0E       		.uleb128 0xe
 1397 001c 00       		.byte	0
 1398 001d 00       		.byte	0
 1399 001e 03       		.uleb128 0x3
 1400 001f 16       		.uleb128 0x16
 1401 0020 00       		.byte	0
 1402 0021 03       		.uleb128 0x3
 1403 0022 0E       		.uleb128 0xe
 1404 0023 3A       		.uleb128 0x3a
 1405 0024 0B       		.uleb128 0xb
 1406 0025 3B       		.uleb128 0x3b
 1407 0026 0B       		.uleb128 0xb
 1408 0027 49       		.uleb128 0x49
 1409 0028 13       		.uleb128 0x13
 1410 0029 00       		.byte	0
 1411 002a 00       		.byte	0
 1412 002b 04       		.uleb128 0x4
 1413 002c 24       		.uleb128 0x24
 1414 002d 00       		.byte	0
 1415 002e 0B       		.uleb128 0xb
 1416 002f 0B       		.uleb128 0xb
 1417 0030 3E       		.uleb128 0x3e
 1418 0031 0B       		.uleb128 0xb
 1419 0032 03       		.uleb128 0x3
 1420 0033 08       		.uleb128 0x8
 1421 0034 00       		.byte	0
 1422 0035 00       		.byte	0
 1423 0036 05       		.uleb128 0x5
 1424 0037 04       		.uleb128 0x4
 1425 0038 01       		.byte	0x1
ARM GAS  /tmp/ccFzlVbi.s 			page 26


 1426 0039 03       		.uleb128 0x3
 1427 003a 0E       		.uleb128 0xe
 1428 003b 0B       		.uleb128 0xb
 1429 003c 0B       		.uleb128 0xb
 1430 003d 3A       		.uleb128 0x3a
 1431 003e 0B       		.uleb128 0xb
 1432 003f 3B       		.uleb128 0x3b
 1433 0040 0B       		.uleb128 0xb
 1434 0041 01       		.uleb128 0x1
 1435 0042 13       		.uleb128 0x13
 1436 0043 00       		.byte	0
 1437 0044 00       		.byte	0
 1438 0045 06       		.uleb128 0x6
 1439 0046 28       		.uleb128 0x28
 1440 0047 00       		.byte	0
 1441 0048 03       		.uleb128 0x3
 1442 0049 0E       		.uleb128 0xe
 1443 004a 1C       		.uleb128 0x1c
 1444 004b 0D       		.uleb128 0xd
 1445 004c 00       		.byte	0
 1446 004d 00       		.byte	0
 1447 004e 07       		.uleb128 0x7
 1448 004f 13       		.uleb128 0x13
 1449 0050 01       		.byte	0x1
 1450 0051 0B       		.uleb128 0xb
 1451 0052 0B       		.uleb128 0xb
 1452 0053 3A       		.uleb128 0x3a
 1453 0054 0B       		.uleb128 0xb
 1454 0055 3B       		.uleb128 0x3b
 1455 0056 0B       		.uleb128 0xb
 1456 0057 01       		.uleb128 0x1
 1457 0058 13       		.uleb128 0x13
 1458 0059 00       		.byte	0
 1459 005a 00       		.byte	0
 1460 005b 08       		.uleb128 0x8
 1461 005c 0D       		.uleb128 0xd
 1462 005d 00       		.byte	0
 1463 005e 03       		.uleb128 0x3
 1464 005f 0E       		.uleb128 0xe
 1465 0060 3A       		.uleb128 0x3a
 1466 0061 0B       		.uleb128 0xb
 1467 0062 3B       		.uleb128 0x3b
 1468 0063 0B       		.uleb128 0xb
 1469 0064 49       		.uleb128 0x49
 1470 0065 13       		.uleb128 0x13
 1471 0066 38       		.uleb128 0x38
 1472 0067 0B       		.uleb128 0xb
 1473 0068 00       		.byte	0
 1474 0069 00       		.byte	0
 1475 006a 09       		.uleb128 0x9
 1476 006b 13       		.uleb128 0x13
 1477 006c 01       		.byte	0x1
 1478 006d 0B       		.uleb128 0xb
 1479 006e 0B       		.uleb128 0xb
 1480 006f 3A       		.uleb128 0x3a
 1481 0070 0B       		.uleb128 0xb
 1482 0071 3B       		.uleb128 0x3b
ARM GAS  /tmp/ccFzlVbi.s 			page 27


 1483 0072 05       		.uleb128 0x5
 1484 0073 01       		.uleb128 0x1
 1485 0074 13       		.uleb128 0x13
 1486 0075 00       		.byte	0
 1487 0076 00       		.byte	0
 1488 0077 0A       		.uleb128 0xa
 1489 0078 0D       		.uleb128 0xd
 1490 0079 00       		.byte	0
 1491 007a 03       		.uleb128 0x3
 1492 007b 0E       		.uleb128 0xe
 1493 007c 3A       		.uleb128 0x3a
 1494 007d 0B       		.uleb128 0xb
 1495 007e 3B       		.uleb128 0x3b
 1496 007f 05       		.uleb128 0x5
 1497 0080 49       		.uleb128 0x49
 1498 0081 13       		.uleb128 0x13
 1499 0082 38       		.uleb128 0x38
 1500 0083 0B       		.uleb128 0xb
 1501 0084 00       		.byte	0
 1502 0085 00       		.byte	0
 1503 0086 0B       		.uleb128 0xb
 1504 0087 16       		.uleb128 0x16
 1505 0088 00       		.byte	0
 1506 0089 03       		.uleb128 0x3
 1507 008a 0E       		.uleb128 0xe
 1508 008b 3A       		.uleb128 0x3a
 1509 008c 0B       		.uleb128 0xb
 1510 008d 3B       		.uleb128 0x3b
 1511 008e 05       		.uleb128 0x5
 1512 008f 49       		.uleb128 0x49
 1513 0090 13       		.uleb128 0x13
 1514 0091 00       		.byte	0
 1515 0092 00       		.byte	0
 1516 0093 0C       		.uleb128 0xc
 1517 0094 01       		.uleb128 0x1
 1518 0095 01       		.byte	0x1
 1519 0096 49       		.uleb128 0x49
 1520 0097 13       		.uleb128 0x13
 1521 0098 01       		.uleb128 0x1
 1522 0099 13       		.uleb128 0x13
 1523 009a 00       		.byte	0
 1524 009b 00       		.byte	0
 1525 009c 0D       		.uleb128 0xd
 1526 009d 21       		.uleb128 0x21
 1527 009e 00       		.byte	0
 1528 009f 49       		.uleb128 0x49
 1529 00a0 13       		.uleb128 0x13
 1530 00a1 00       		.byte	0
 1531 00a2 00       		.byte	0
 1532 00a3 0E       		.uleb128 0xe
 1533 00a4 0D       		.uleb128 0xd
 1534 00a5 00       		.byte	0
 1535 00a6 03       		.uleb128 0x3
 1536 00a7 0E       		.uleb128 0xe
 1537 00a8 3A       		.uleb128 0x3a
 1538 00a9 0B       		.uleb128 0xb
 1539 00aa 3B       		.uleb128 0x3b
ARM GAS  /tmp/ccFzlVbi.s 			page 28


 1540 00ab 0B       		.uleb128 0xb
 1541 00ac 49       		.uleb128 0x49
 1542 00ad 13       		.uleb128 0x13
 1543 00ae 0B       		.uleb128 0xb
 1544 00af 0B       		.uleb128 0xb
 1545 00b0 0D       		.uleb128 0xd
 1546 00b1 0B       		.uleb128 0xb
 1547 00b2 0C       		.uleb128 0xc
 1548 00b3 0B       		.uleb128 0xb
 1549 00b4 38       		.uleb128 0x38
 1550 00b5 0B       		.uleb128 0xb
 1551 00b6 00       		.byte	0
 1552 00b7 00       		.byte	0
 1553 00b8 0F       		.uleb128 0xf
 1554 00b9 35       		.uleb128 0x35
 1555 00ba 00       		.byte	0
 1556 00bb 49       		.uleb128 0x49
 1557 00bc 13       		.uleb128 0x13
 1558 00bd 00       		.byte	0
 1559 00be 00       		.byte	0
 1560 00bf 10       		.uleb128 0x10
 1561 00c0 2E       		.uleb128 0x2e
 1562 00c1 01       		.byte	0x1
 1563 00c2 3F       		.uleb128 0x3f
 1564 00c3 19       		.uleb128 0x19
 1565 00c4 03       		.uleb128 0x3
 1566 00c5 0E       		.uleb128 0xe
 1567 00c6 3A       		.uleb128 0x3a
 1568 00c7 0B       		.uleb128 0xb
 1569 00c8 3B       		.uleb128 0x3b
 1570 00c9 0B       		.uleb128 0xb
 1571 00ca 27       		.uleb128 0x27
 1572 00cb 19       		.uleb128 0x19
 1573 00cc 49       		.uleb128 0x49
 1574 00cd 13       		.uleb128 0x13
 1575 00ce 11       		.uleb128 0x11
 1576 00cf 01       		.uleb128 0x1
 1577 00d0 12       		.uleb128 0x12
 1578 00d1 06       		.uleb128 0x6
 1579 00d2 40       		.uleb128 0x40
 1580 00d3 18       		.uleb128 0x18
 1581 00d4 9742     		.uleb128 0x2117
 1582 00d6 19       		.uleb128 0x19
 1583 00d7 01       		.uleb128 0x1
 1584 00d8 13       		.uleb128 0x13
 1585 00d9 00       		.byte	0
 1586 00da 00       		.byte	0
 1587 00db 11       		.uleb128 0x11
 1588 00dc 05       		.uleb128 0x5
 1589 00dd 00       		.byte	0
 1590 00de 03       		.uleb128 0x3
 1591 00df 0E       		.uleb128 0xe
 1592 00e0 3A       		.uleb128 0x3a
 1593 00e1 0B       		.uleb128 0xb
 1594 00e2 3B       		.uleb128 0x3b
 1595 00e3 0B       		.uleb128 0xb
 1596 00e4 49       		.uleb128 0x49
ARM GAS  /tmp/ccFzlVbi.s 			page 29


 1597 00e5 13       		.uleb128 0x13
 1598 00e6 02       		.uleb128 0x2
 1599 00e7 17       		.uleb128 0x17
 1600 00e8 00       		.byte	0
 1601 00e9 00       		.byte	0
 1602 00ea 12       		.uleb128 0x12
 1603 00eb 05       		.uleb128 0x5
 1604 00ec 00       		.byte	0
 1605 00ed 03       		.uleb128 0x3
 1606 00ee 0E       		.uleb128 0xe
 1607 00ef 3A       		.uleb128 0x3a
 1608 00f0 0B       		.uleb128 0xb
 1609 00f1 3B       		.uleb128 0x3b
 1610 00f2 0B       		.uleb128 0xb
 1611 00f3 49       		.uleb128 0x49
 1612 00f4 13       		.uleb128 0x13
 1613 00f5 02       		.uleb128 0x2
 1614 00f6 18       		.uleb128 0x18
 1615 00f7 00       		.byte	0
 1616 00f8 00       		.byte	0
 1617 00f9 13       		.uleb128 0x13
 1618 00fa 34       		.uleb128 0x34
 1619 00fb 00       		.byte	0
 1620 00fc 03       		.uleb128 0x3
 1621 00fd 0E       		.uleb128 0xe
 1622 00fe 3A       		.uleb128 0x3a
 1623 00ff 0B       		.uleb128 0xb
 1624 0100 3B       		.uleb128 0x3b
 1625 0101 0B       		.uleb128 0xb
 1626 0102 49       		.uleb128 0x49
 1627 0103 13       		.uleb128 0x13
 1628 0104 02       		.uleb128 0x2
 1629 0105 18       		.uleb128 0x18
 1630 0106 00       		.byte	0
 1631 0107 00       		.byte	0
 1632 0108 14       		.uleb128 0x14
 1633 0109 34       		.uleb128 0x34
 1634 010a 00       		.byte	0
 1635 010b 03       		.uleb128 0x3
 1636 010c 0E       		.uleb128 0xe
 1637 010d 3A       		.uleb128 0x3a
 1638 010e 0B       		.uleb128 0xb
 1639 010f 3B       		.uleb128 0x3b
 1640 0110 05       		.uleb128 0x5
 1641 0111 49       		.uleb128 0x49
 1642 0112 13       		.uleb128 0x13
 1643 0113 02       		.uleb128 0x2
 1644 0114 18       		.uleb128 0x18
 1645 0115 00       		.byte	0
 1646 0116 00       		.byte	0
 1647 0117 15       		.uleb128 0x15
 1648 0118 34       		.uleb128 0x34
 1649 0119 00       		.byte	0
 1650 011a 03       		.uleb128 0x3
 1651 011b 0E       		.uleb128 0xe
 1652 011c 3A       		.uleb128 0x3a
 1653 011d 0B       		.uleb128 0xb
ARM GAS  /tmp/ccFzlVbi.s 			page 30


 1654 011e 3B       		.uleb128 0x3b
 1655 011f 05       		.uleb128 0x5
 1656 0120 49       		.uleb128 0x49
 1657 0121 13       		.uleb128 0x13
 1658 0122 02       		.uleb128 0x2
 1659 0123 17       		.uleb128 0x17
 1660 0124 00       		.byte	0
 1661 0125 00       		.byte	0
 1662 0126 16       		.uleb128 0x16
 1663 0127 26       		.uleb128 0x26
 1664 0128 00       		.byte	0
 1665 0129 49       		.uleb128 0x49
 1666 012a 13       		.uleb128 0x13
 1667 012b 00       		.byte	0
 1668 012c 00       		.byte	0
 1669 012d 17       		.uleb128 0x17
 1670 012e 0F       		.uleb128 0xf
 1671 012f 00       		.byte	0
 1672 0130 0B       		.uleb128 0xb
 1673 0131 0B       		.uleb128 0xb
 1674 0132 49       		.uleb128 0x49
 1675 0133 13       		.uleb128 0x13
 1676 0134 00       		.byte	0
 1677 0135 00       		.byte	0
 1678 0136 18       		.uleb128 0x18
 1679 0137 26       		.uleb128 0x26
 1680 0138 00       		.byte	0
 1681 0139 00       		.byte	0
 1682 013a 00       		.byte	0
 1683 013b 19       		.uleb128 0x19
 1684 013c 21       		.uleb128 0x21
 1685 013d 00       		.byte	0
 1686 013e 00       		.byte	0
 1687 013f 00       		.byte	0
 1688 0140 1A       		.uleb128 0x1a
 1689 0141 21       		.uleb128 0x21
 1690 0142 00       		.byte	0
 1691 0143 49       		.uleb128 0x49
 1692 0144 13       		.uleb128 0x13
 1693 0145 2F       		.uleb128 0x2f
 1694 0146 05       		.uleb128 0x5
 1695 0147 00       		.byte	0
 1696 0148 00       		.byte	0
 1697 0149 1B       		.uleb128 0x1b
 1698 014a 34       		.uleb128 0x34
 1699 014b 00       		.byte	0
 1700 014c 03       		.uleb128 0x3
 1701 014d 0E       		.uleb128 0xe
 1702 014e 3A       		.uleb128 0x3a
 1703 014f 0B       		.uleb128 0xb
 1704 0150 3B       		.uleb128 0x3b
 1705 0151 0B       		.uleb128 0xb
 1706 0152 49       		.uleb128 0x49
 1707 0153 13       		.uleb128 0x13
 1708 0154 3F       		.uleb128 0x3f
 1709 0155 19       		.uleb128 0x19
 1710 0156 3C       		.uleb128 0x3c
ARM GAS  /tmp/ccFzlVbi.s 			page 31


 1711 0157 19       		.uleb128 0x19
 1712 0158 00       		.byte	0
 1713 0159 00       		.byte	0
 1714 015a 1C       		.uleb128 0x1c
 1715 015b 21       		.uleb128 0x21
 1716 015c 00       		.byte	0
 1717 015d 49       		.uleb128 0x49
 1718 015e 13       		.uleb128 0x13
 1719 015f 2F       		.uleb128 0x2f
 1720 0160 0B       		.uleb128 0xb
 1721 0161 00       		.byte	0
 1722 0162 00       		.byte	0
 1723 0163 1D       		.uleb128 0x1d
 1724 0164 34       		.uleb128 0x34
 1725 0165 00       		.byte	0
 1726 0166 03       		.uleb128 0x3
 1727 0167 0E       		.uleb128 0xe
 1728 0168 3A       		.uleb128 0x3a
 1729 0169 0B       		.uleb128 0xb
 1730 016a 3B       		.uleb128 0x3b
 1731 016b 0B       		.uleb128 0xb
 1732 016c 49       		.uleb128 0x49
 1733 016d 13       		.uleb128 0x13
 1734 016e 3F       		.uleb128 0x3f
 1735 016f 19       		.uleb128 0x19
 1736 0170 02       		.uleb128 0x2
 1737 0171 18       		.uleb128 0x18
 1738 0172 00       		.byte	0
 1739 0173 00       		.byte	0
 1740 0174 00       		.byte	0
 1741              		.section	.debug_loc,"",%progbits
 1742              	.Ldebug_loc0:
 1743              	.LLST0:
 1744 0000 00000000 		.4byte	.LVL0
 1745 0004 10000000 		.4byte	.LVL2
 1746 0008 0100     		.2byte	0x1
 1747 000a 50       		.byte	0x50
 1748 000b 10000000 		.4byte	.LVL2
 1749 000f 14000000 		.4byte	.LVL3
 1750 0013 0400     		.2byte	0x4
 1751 0015 F3       		.byte	0xf3
 1752 0016 01       		.uleb128 0x1
 1753 0017 50       		.byte	0x50
 1754 0018 9F       		.byte	0x9f
 1755 0019 14000000 		.4byte	.LVL3
 1756 001d 18000000 		.4byte	.LVL4
 1757 0021 0100     		.2byte	0x1
 1758 0023 50       		.byte	0x50
 1759 0024 18000000 		.4byte	.LVL4
 1760 0028 1A000000 		.4byte	.LVL5
 1761 002c 0400     		.2byte	0x4
 1762 002e F3       		.byte	0xf3
 1763 002f 01       		.uleb128 0x1
 1764 0030 50       		.byte	0x50
 1765 0031 9F       		.byte	0x9f
 1766 0032 1A000000 		.4byte	.LVL5
 1767 0036 30000000 		.4byte	.LVL7
ARM GAS  /tmp/ccFzlVbi.s 			page 32


 1768 003a 0100     		.2byte	0x1
 1769 003c 50       		.byte	0x50
 1770 003d 30000000 		.4byte	.LVL7
 1771 0041 32000000 		.4byte	.LVL8
 1772 0045 0400     		.2byte	0x4
 1773 0047 F3       		.byte	0xf3
 1774 0048 01       		.uleb128 0x1
 1775 0049 50       		.byte	0x50
 1776 004a 9F       		.byte	0x9f
 1777 004b 32000000 		.4byte	.LVL8
 1778 004f 38000000 		.4byte	.LVL10
 1779 0053 0100     		.2byte	0x1
 1780 0055 50       		.byte	0x50
 1781 0056 38000000 		.4byte	.LVL10
 1782 005a 3A000000 		.4byte	.LVL11
 1783 005e 0400     		.2byte	0x4
 1784 0060 F3       		.byte	0xf3
 1785 0061 01       		.uleb128 0x1
 1786 0062 50       		.byte	0x50
 1787 0063 9F       		.byte	0x9f
 1788 0064 3A000000 		.4byte	.LVL11
 1789 0068 40000000 		.4byte	.LVL13
 1790 006c 0100     		.2byte	0x1
 1791 006e 50       		.byte	0x50
 1792 006f 40000000 		.4byte	.LVL13
 1793 0073 42000000 		.4byte	.LVL14
 1794 0077 0400     		.2byte	0x4
 1795 0079 F3       		.byte	0xf3
 1796 007a 01       		.uleb128 0x1
 1797 007b 50       		.byte	0x50
 1798 007c 9F       		.byte	0x9f
 1799 007d 42000000 		.4byte	.LVL14
 1800 0081 44000000 		.4byte	.LVL15
 1801 0085 0100     		.2byte	0x1
 1802 0087 50       		.byte	0x50
 1803 0088 44000000 		.4byte	.LVL15
 1804 008c 48000000 		.4byte	.LVL16
 1805 0090 0400     		.2byte	0x4
 1806 0092 F3       		.byte	0xf3
 1807 0093 01       		.uleb128 0x1
 1808 0094 50       		.byte	0x50
 1809 0095 9F       		.byte	0x9f
 1810 0096 48000000 		.4byte	.LVL16
 1811 009a 4A000000 		.4byte	.LVL17
 1812 009e 0100     		.2byte	0x1
 1813 00a0 50       		.byte	0x50
 1814 00a1 4A000000 		.4byte	.LVL17
 1815 00a5 64000000 		.4byte	.LFE98
 1816 00a9 0400     		.2byte	0x4
 1817 00ab F3       		.byte	0xf3
 1818 00ac 01       		.uleb128 0x1
 1819 00ad 50       		.byte	0x50
 1820 00ae 9F       		.byte	0x9f
 1821 00af 00000000 		.4byte	0
 1822 00b3 00000000 		.4byte	0
 1823              	.LLST1:
 1824 00b7 00000000 		.4byte	.LVL0
ARM GAS  /tmp/ccFzlVbi.s 			page 33


 1825 00bb 02000000 		.4byte	.LVL1
 1826 00bf 0100     		.2byte	0x1
 1827 00c1 52       		.byte	0x52
 1828 00c2 02000000 		.4byte	.LVL1
 1829 00c6 64000000 		.4byte	.LFE98
 1830 00ca 0400     		.2byte	0x4
 1831 00cc F3       		.byte	0xf3
 1832 00cd 01       		.uleb128 0x1
 1833 00ce 52       		.byte	0x52
 1834 00cf 9F       		.byte	0x9f
 1835 00d0 00000000 		.4byte	0
 1836 00d4 00000000 		.4byte	0
 1837              	.LLST2:
 1838 00d8 00000000 		.4byte	.LVL0
 1839 00dc 14000000 		.4byte	.LVL3
 1840 00e0 0200     		.2byte	0x2
 1841 00e2 30       		.byte	0x30
 1842 00e3 9F       		.byte	0x9f
 1843 00e4 14000000 		.4byte	.LVL3
 1844 00e8 1A000000 		.4byte	.LVL5
 1845 00ec 0600     		.2byte	0x6
 1846 00ee 03       		.byte	0x3
 1847 00ef 00000000 		.4byte	ConfigurationDescriptor
 1848 00f3 9F       		.byte	0x9f
 1849 00f4 1A000000 		.4byte	.LVL5
 1850 00f8 2E000000 		.4byte	.LVL6
 1851 00fc 0200     		.2byte	0x2
 1852 00fe 30       		.byte	0x30
 1853 00ff 9F       		.byte	0x9f
 1854 0100 2E000000 		.4byte	.LVL6
 1855 0104 32000000 		.4byte	.LVL8
 1856 0108 0100     		.2byte	0x1
 1857 010a 52       		.byte	0x52
 1858 010b 32000000 		.4byte	.LVL8
 1859 010f 36000000 		.4byte	.LVL9
 1860 0113 0200     		.2byte	0x2
 1861 0115 30       		.byte	0x30
 1862 0116 9F       		.byte	0x9f
 1863 0117 36000000 		.4byte	.LVL9
 1864 011b 3A000000 		.4byte	.LVL11
 1865 011f 0100     		.2byte	0x1
 1866 0121 52       		.byte	0x52
 1867 0122 3A000000 		.4byte	.LVL11
 1868 0126 3E000000 		.4byte	.LVL12
 1869 012a 0200     		.2byte	0x2
 1870 012c 30       		.byte	0x30
 1871 012d 9F       		.byte	0x9f
 1872 012e 3E000000 		.4byte	.LVL12
 1873 0132 42000000 		.4byte	.LVL14
 1874 0136 0100     		.2byte	0x1
 1875 0138 52       		.byte	0x52
 1876 0139 42000000 		.4byte	.LVL14
 1877 013d 4C000000 		.4byte	.LVL18
 1878 0141 0200     		.2byte	0x2
 1879 0143 30       		.byte	0x30
 1880 0144 9F       		.byte	0x9f
 1881 0145 4C000000 		.4byte	.LVL18
ARM GAS  /tmp/ccFzlVbi.s 			page 34


 1882 0149 64000000 		.4byte	.LFE98
 1883 014d 0100     		.2byte	0x1
 1884 014f 52       		.byte	0x52
 1885 0150 00000000 		.4byte	0
 1886 0154 00000000 		.4byte	0
 1887              	.LLST3:
 1888 0158 00000000 		.4byte	.LVL0
 1889 015c 18000000 		.4byte	.LVL4
 1890 0160 0200     		.2byte	0x2
 1891 0162 30       		.byte	0x30
 1892 0163 9F       		.byte	0x9f
 1893 0164 18000000 		.4byte	.LVL4
 1894 0168 1A000000 		.4byte	.LVL5
 1895 016c 0200     		.2byte	0x2
 1896 016e 72       		.byte	0x72
 1897 016f 02       		.sleb128 2
 1898 0170 1A000000 		.4byte	.LVL5
 1899 0174 30000000 		.4byte	.LVL7
 1900 0178 0200     		.2byte	0x2
 1901 017a 30       		.byte	0x30
 1902 017b 9F       		.byte	0x9f
 1903 017c 30000000 		.4byte	.LVL7
 1904 0180 32000000 		.4byte	.LVL8
 1905 0184 0100     		.2byte	0x1
 1906 0186 50       		.byte	0x50
 1907 0187 32000000 		.4byte	.LVL8
 1908 018b 38000000 		.4byte	.LVL10
 1909 018f 0200     		.2byte	0x2
 1910 0191 30       		.byte	0x30
 1911 0192 9F       		.byte	0x9f
 1912 0193 38000000 		.4byte	.LVL10
 1913 0197 3A000000 		.4byte	.LVL11
 1914 019b 0100     		.2byte	0x1
 1915 019d 50       		.byte	0x50
 1916 019e 3A000000 		.4byte	.LVL11
 1917 01a2 40000000 		.4byte	.LVL13
 1918 01a6 0200     		.2byte	0x2
 1919 01a8 30       		.byte	0x30
 1920 01a9 9F       		.byte	0x9f
 1921 01aa 40000000 		.4byte	.LVL13
 1922 01ae 42000000 		.4byte	.LVL14
 1923 01b2 0100     		.2byte	0x1
 1924 01b4 50       		.byte	0x50
 1925 01b5 42000000 		.4byte	.LVL14
 1926 01b9 4C000000 		.4byte	.LVL18
 1927 01bd 0200     		.2byte	0x2
 1928 01bf 30       		.byte	0x30
 1929 01c0 9F       		.byte	0x9f
 1930 01c1 4C000000 		.4byte	.LVL18
 1931 01c5 64000000 		.4byte	.LFE98
 1932 01c9 0100     		.2byte	0x1
 1933 01cb 50       		.byte	0x50
 1934 01cc 00000000 		.4byte	0
 1935 01d0 00000000 		.4byte	0
 1936              		.section	.debug_aranges,"",%progbits
 1937 0000 1C000000 		.4byte	0x1c
 1938 0004 0200     		.2byte	0x2
ARM GAS  /tmp/ccFzlVbi.s 			page 35


 1939 0006 00000000 		.4byte	.Ldebug_info0
 1940 000a 04       		.byte	0x4
 1941 000b 00       		.byte	0
 1942 000c 0000     		.2byte	0
 1943 000e 0000     		.2byte	0
 1944 0010 00000000 		.4byte	.LFB98
 1945 0014 64000000 		.4byte	.LFE98-.LFB98
 1946 0018 00000000 		.4byte	0
 1947 001c 00000000 		.4byte	0
 1948              		.section	.debug_ranges,"",%progbits
 1949              	.Ldebug_ranges0:
 1950 0000 00000000 		.4byte	.LFB98
 1951 0004 64000000 		.4byte	.LFE98
 1952 0008 00000000 		.4byte	0
 1953 000c 00000000 		.4byte	0
 1954              		.section	.debug_line,"",%progbits
 1955              	.Ldebug_line0:
 1956 0000 6F020000 		.section	.debug_str,"MS",%progbits,1
 1956      02003D02 
 1956      00000201 
 1956      FB0E0D00 
 1956      01010101 
 1957              	.LASF131:
 1958 0000 7573625F 		.ascii	"usb_data_buffer_IN\000"
 1958      64617461 
 1958      5F627566 
 1958      6665725F 
 1958      494E00
 1959              	.LASF90:
 1960 0013 4344435F 		.ascii	"CDC_DSUBTYPE_CSInterface_TelephoneRinger\000"
 1960      44535542 
 1960      54595045 
 1960      5F435349 
 1960      6E746572 
 1961              	.LASF143:
 1962 003c 436F6E66 		.ascii	"ConfigurationDescriptor\000"
 1962      69677572 
 1962      6174696F 
 1962      6E446573 
 1962      63726970 
 1963              	.LASF142:
 1964 0054 44657669 		.ascii	"DeviceDescriptor\000"
 1964      63654465 
 1964      73637269 
 1964      70746F72 
 1964      00
 1965              	.LASF78:
 1966 0065 4344435F 		.ascii	"CDC_CSCP_ACMSubclass\000"
 1966      43534350 
 1966      5F41434D 
 1966      53756263 
 1966      6C617373 
 1967              	.LASF108:
 1968 007a 4D617374 		.ascii	"MasterInterfaceNumber\000"
 1968      6572496E 
 1968      74657266 
 1968      6163654E 
ARM GAS  /tmp/ccFzlVbi.s 			page 36


 1968      756D6265 
 1969              	.LASF50:
 1970 0090 436F6E66 		.ascii	"ConfigurationStrIndex\000"
 1970      69677572 
 1970      6174696F 
 1970      6E537472 
 1970      496E6465 
 1971              	.LASF69:
 1972 00a6 546F6F67 		.ascii	"ToogleReset\000"
 1972      6C655265 
 1972      73657400 
 1973              	.LASF3:
 1974 00b2 5F5F7569 		.ascii	"__uint8_t\000"
 1974      6E74385F 
 1974      7400
 1975              	.LASF116:
 1976 00bc 4344435F 		.ascii	"CDC_Functional_Union\000"
 1976      46756E63 
 1976      74696F6E 
 1976      616C5F55 
 1976      6E696F6E 
 1977              	.LASF33:
 1978 00d1 48656164 		.ascii	"Header\000"
 1978      657200
 1979              	.LASF7:
 1980 00d8 6C6F6E67 		.ascii	"long int\000"
 1980      20696E74 
 1980      00
 1981              	.LASF11:
 1982 00e1 6C6F6E67 		.ascii	"long long unsigned int\000"
 1982      206C6F6E 
 1982      6720756E 
 1982      7369676E 
 1982      65642069 
 1983              	.LASF107:
 1984 00f8 5553425F 		.ascii	"USB_CDC_Descriptor_FunctionalACM_t\000"
 1984      4344435F 
 1984      44657363 
 1984      72697074 
 1984      6F725F46 
 1985              	.LASF91:
 1986 011b 4344435F 		.ascii	"CDC_DSUBTYPE_CSInterface_TelephoneCall\000"
 1986      44535542 
 1986      54595045 
 1986      5F435349 
 1986      6E746572 
 1987              	.LASF46:
 1988 0142 5553425F 		.ascii	"USB_Descriptor_Device_t\000"
 1988      44657363 
 1988      72697074 
 1988      6F725F44 
 1988      65766963 
 1989              	.LASF37:
 1990 015a 50726F74 		.ascii	"Protocol\000"
 1990      6F636F6C 
 1990      00
 1991              	.LASF38:
ARM GAS  /tmp/ccFzlVbi.s 			page 37


 1992 0163 456E6470 		.ascii	"Endpoint0Size\000"
 1992      6F696E74 
 1992      3053697A 
 1992      6500
 1993              	.LASF88:
 1994 0171 4344435F 		.ascii	"CDC_DSUBTYPE_CSInterface_ACM\000"
 1994      44535542 
 1994      54595045 
 1994      5F435349 
 1994      6E746572 
 1995              	.LASF76:
 1996 018e 4344435F 		.ascii	"CDC_CSCP_CDCClass\000"
 1996      43534350 
 1996      5F434443 
 1996      436C6173 
 1996      7300
 1997              	.LASF10:
 1998 01a0 6C6F6E67 		.ascii	"long long int\000"
 1998      206C6F6E 
 1998      6720696E 
 1998      7400
 1999              	.LASF0:
 2000 01ae 7369676E 		.ascii	"signed char\000"
 2000      65642063 
 2000      68617200 
 2001              	.LASF120:
 2002 01ba 4344435F 		.ascii	"CDC_DataInEndpoint\000"
 2002      44617461 
 2002      496E456E 
 2002      64706F69 
 2002      6E7400
 2003              	.LASF135:
 2004 01cd 7573625F 		.ascii	"usb_data_buffer_index\000"
 2004      64617461 
 2004      5F627566 
 2004      6665725F 
 2004      696E6465 
 2005              	.LASF43:
 2006 01e3 50726F64 		.ascii	"ProductStrIndex\000"
 2006      75637453 
 2006      7472496E 
 2006      64657800 
 2007              	.LASF147:
 2008 01f3 4D616E75 		.ascii	"ManufacturerStringPtr\000"
 2008      66616374 
 2008      75726572 
 2008      53747269 
 2008      6E675074 
 2009              	.LASF137:
 2010 0209 7573625F 		.ascii	"usb_data_buffer_OUT_index\000"
 2010      64617461 
 2010      5F627566 
 2010      6665725F 
 2010      4F55545F 
 2011              	.LASF119:
 2012 0223 4344435F 		.ascii	"CDC_DataOutEndpoint\000"
 2012      44617461 
ARM GAS  /tmp/ccFzlVbi.s 			page 38


 2012      4F757445 
 2012      6E64706F 
 2012      696E7400 
 2013              	.LASF106:
 2014 0237 43617061 		.ascii	"Capabilities\000"
 2014      62696C69 
 2014      74696573 
 2014      00
 2015              	.LASF114:
 2016 0244 4344435F 		.ascii	"CDC_Functional_Header\000"
 2016      46756E63 
 2016      74696F6E 
 2016      616C5F48 
 2016      65616465 
 2017              	.LASF100:
 2018 025a 4344435F 		.ascii	"CDC_DSUBTYPE_CSInterface_CAPI\000"
 2018      44535542 
 2018      54595045 
 2018      5F435349 
 2018      6E746572 
 2019              	.LASF99:
 2020 0278 4344435F 		.ascii	"CDC_DSUBTYPE_CSInterface_MultiChannel\000"
 2020      44535542 
 2020      54595045 
 2020      5F435349 
 2020      6E746572 
 2021              	.LASF29:
 2022 029e 44545950 		.ascii	"DTYPE_CSEndpoint\000"
 2022      455F4353 
 2022      456E6470 
 2022      6F696E74 
 2022      00
 2023              	.LASF75:
 2024 02af 4344435F 		.ascii	"CDC_Descriptor_ClassSubclassProtocol_t\000"
 2024      44657363 
 2024      72697074 
 2024      6F725F43 
 2024      6C617373 
 2025              	.LASF23:
 2026 02d6 44545950 		.ascii	"DTYPE_Endpoint\000"
 2026      455F456E 
 2026      64706F69 
 2026      6E7400
 2027              	.LASF60:
 2028 02e5 41747472 		.ascii	"Attributes\000"
 2028      69627574 
 2028      657300
 2029              	.LASF19:
 2030 02f0 44545950 		.ascii	"DTYPE_Device\000"
 2030      455F4465 
 2030      76696365 
 2030      00
 2031              	.LASF153:
 2032 02fd 43414C4C 		.ascii	"CALLBACK_USB_GetDescriptor\000"
 2032      4241434B 
 2032      5F555342 
 2032      5F476574 
ARM GAS  /tmp/ccFzlVbi.s 			page 39


 2032      44657363 
 2033              	.LASF151:
 2034 0318 7372632F 		.ascii	"src/Descriptors.c\000"
 2034      44657363 
 2034      72697074 
 2034      6F72732E 
 2034      6300
 2035              	.LASF66:
 2036 032a 42756666 		.ascii	"BufferAddrOffset\000"
 2036      65724164 
 2036      64724F66 
 2036      66736574 
 2036      00
 2037              	.LASF124:
 2038 033b 7756616C 		.ascii	"wValue\000"
 2038      756500
 2039              	.LASF14:
 2040 0342 75696E74 		.ascii	"uint16_t\000"
 2040      31365F74 
 2040      00
 2041              	.LASF47:
 2042 034b 546F7461 		.ascii	"TotalConfigurationSize\000"
 2042      6C436F6E 
 2042      66696775 
 2042      72617469 
 2042      6F6E5369 
 2043              	.LASF84:
 2044 0362 4344435F 		.ascii	"CDC_CSCP_NoDataProtocol\000"
 2044      43534350 
 2044      5F4E6F44 
 2044      61746150 
 2044      726F746F 
 2045              	.LASF81:
 2046 037a 4344435F 		.ascii	"CDC_CSCP_VendorSpecificProtocol\000"
 2046      43534350 
 2046      5F56656E 
 2046      646F7253 
 2046      70656369 
 2047              	.LASF72:
 2048 039a 41637469 		.ascii	"Active\000"
 2048      766500
 2049              	.LASF54:
 2050 03a1 496E7465 		.ascii	"InterfaceNumber\000"
 2050      72666163 
 2050      654E756D 
 2050      62657200 
 2051              	.LASF41:
 2052 03b1 52656C65 		.ascii	"ReleaseNumber\000"
 2052      6173654E 
 2052      756D6265 
 2052      7200
 2053              	.LASF8:
 2054 03bf 5F5F7569 		.ascii	"__uint32_t\000"
 2054      6E743332 
 2054      5F7400
 2055              	.LASF55:
 2056 03ca 416C7465 		.ascii	"AlternateSetting\000"
ARM GAS  /tmp/ccFzlVbi.s 			page 40


 2056      726E6174 
 2056      65536574 
 2056      74696E67 
 2056      00
 2057              	.LASF31:
 2058 03db 54797065 		.ascii	"Type\000"
 2058      00
 2059              	.LASF95:
 2060 03e0 4344435F 		.ascii	"CDC_DSUBTYPE_CSInterface_USBTerminal\000"
 2060      44535542 
 2060      54595045 
 2060      5F435349 
 2060      6E746572 
 2061              	.LASF28:
 2062 0405 44545950 		.ascii	"DTYPE_CSInterface\000"
 2062      455F4353 
 2062      496E7465 
 2062      72666163 
 2062      6500
 2063              	.LASF115:
 2064 0417 4344435F 		.ascii	"CDC_Functional_ACM\000"
 2064      46756E63 
 2064      74696F6E 
 2064      616C5F41 
 2064      434D00
 2065              	.LASF125:
 2066 042a 77496E64 		.ascii	"wIndex\000"
 2066      657800
 2067              	.LASF113:
 2068 0431 4344435F 		.ascii	"CDC_CCI_Interface\000"
 2068      4343495F 
 2068      496E7465 
 2068      72666163 
 2068      6500
 2069              	.LASF12:
 2070 0443 756E7369 		.ascii	"unsigned int\000"
 2070      676E6564 
 2070      20696E74 
 2070      00
 2071              	.LASF82:
 2072 0450 4344435F 		.ascii	"CDC_CSCP_CDCDataClass\000"
 2072      43534350 
 2072      5F434443 
 2072      44617461 
 2072      436C6173 
 2073              	.LASF36:
 2074 0466 53756243 		.ascii	"SubClass\000"
 2074      6C617373 
 2074      00
 2075              	.LASF56:
 2076 046f 546F7461 		.ascii	"TotalEndpoints\000"
 2076      6C456E64 
 2076      706F696E 
 2076      747300
 2077              	.LASF134:
 2078 047e 7573625F 		.ascii	"usb_data_buffer_OUT_size\000"
 2078      64617461 
ARM GAS  /tmp/ccFzlVbi.s 			page 41


 2078      5F627566 
 2078      6665725F 
 2078      4F55545F 
 2079              	.LASF9:
 2080 0497 6C6F6E67 		.ascii	"long unsigned int\000"
 2080      20756E73 
 2080      69676E65 
 2080      6420696E 
 2080      7400
 2081              	.LASF145:
 2082 04a9 4C616E67 		.ascii	"LanguageStringPtr\000"
 2082      75616765 
 2082      53747269 
 2082      6E675074 
 2082      7200
 2083              	.LASF79:
 2084 04bb 4344435F 		.ascii	"CDC_CSCP_ATCommandProtocol\000"
 2084      43534350 
 2084      5F415443 
 2084      6F6D6D61 
 2084      6E645072 
 2085              	.LASF24:
 2086 04d6 44545950 		.ascii	"DTYPE_DeviceQualifier\000"
 2086      455F4465 
 2086      76696365 
 2086      5175616C 
 2086      69666965 
 2087              	.LASF102:
 2088 04ec 4344435F 		.ascii	"CDC_DSUBTYPE_CSInterface_ATM\000"
 2088      44535542 
 2088      54595045 
 2088      5F435349 
 2088      6E746572 
 2089              	.LASF25:
 2090 0509 44545950 		.ascii	"DTYPE_Other\000"
 2090      455F4F74 
 2090      68657200 
 2091              	.LASF34:
 2092 0515 55534253 		.ascii	"USBSpecification\000"
 2092      70656369 
 2092      66696361 
 2092      74696F6E 
 2092      00
 2093              	.LASF117:
 2094 0526 4344435F 		.ascii	"CDC_NotificationEndpoint\000"
 2094      4E6F7469 
 2094      66696361 
 2094      74696F6E 
 2094      456E6470 
 2095              	.LASF103:
 2096 053f 53756274 		.ascii	"Subtype\000"
 2096      79706500 
 2097              	.LASF5:
 2098 0547 73686F72 		.ascii	"short unsigned int\000"
 2098      7420756E 
 2098      7369676E 
 2098      65642069 
ARM GAS  /tmp/ccFzlVbi.s 			page 42


 2098      6E7400
 2099              	.LASF96:
 2100 055a 4344435F 		.ascii	"CDC_DSUBTYPE_CSInterface_NetworkChannel\000"
 2100      44535542 
 2100      54595045 
 2100      5F435349 
 2100      6E746572 
 2101              	.LASF150:
 2102 0582 474E5520 		.ascii	"GNU C 4.8.4 20140526 (release) [ARM/embedded-4_8-br"
 2102      4320342E 
 2102      382E3420 
 2102      32303134 
 2102      30353236 
 2103 05b5 616E6368 		.ascii	"anch revision 211358] -mcpu=cortex-m0 -mno-thumb-in"
 2103      20726576 
 2103      6973696F 
 2103      6E203231 
 2103      31333538 
 2104 05e8 74657277 		.ascii	"terwork -mthumb -ggdb -O1 -fomit-frame-pointer -ffu"
 2104      6F726B20 
 2104      2D6D7468 
 2104      756D6220 
 2104      2D676764 
 2105 061b 6E637469 		.ascii	"nction-sections -fdata-sections -fno-common\000"
 2105      6F6E2D73 
 2105      65637469 
 2105      6F6E7320 
 2105      2D666461 
 2106              	.LASF109:
 2107 0647 536C6176 		.ascii	"SlaveInterfaceNumber\000"
 2107      65496E74 
 2107      65726661 
 2107      63654E75 
 2107      6D626572 
 2108              	.LASF129:
 2109 065c 41646472 		.ascii	"Address\000"
 2109      65737300 
 2110              	.LASF110:
 2111 0664 5553425F 		.ascii	"USB_CDC_Descriptor_FunctionalUnion_t\000"
 2111      4344435F 
 2111      44657363 
 2111      72697074 
 2111      6F725F46 
 2112              	.LASF138:
 2113 0689 656E6470 		.ascii	"endpointselected\000"
 2113      6F696E74 
 2113      73656C65 
 2113      63746564 
 2113      00
 2114              	.LASF98:
 2115 069a 4344435F 		.ascii	"CDC_DSUBTYPE_CSInterface_ExtensionUnit\000"
 2115      44535542 
 2115      54595045 
 2115      5F435349 
 2115      6E746572 
 2116              	.LASF27:
 2117 06c1 44545950 		.ascii	"DTYPE_InterfaceAssociation\000"
ARM GAS  /tmp/ccFzlVbi.s 			page 43


 2117      455F496E 
 2117      74657266 
 2117      61636541 
 2117      73736F63 
 2118              	.LASF146:
 2119 06dc 4D616E75 		.ascii	"ManufacturerString\000"
 2119      66616374 
 2119      75726572 
 2119      53747269 
 2119      6E6700
 2120              	.LASF61:
 2121 06ef 456E6470 		.ascii	"EndpointSize\000"
 2121      6F696E74 
 2121      53697A65 
 2121      00
 2122              	.LASF35:
 2123 06fc 436C6173 		.ascii	"Class\000"
 2123      7300
 2124              	.LASF89:
 2125 0702 4344435F 		.ascii	"CDC_DSUBTYPE_CSInterface_DirectLine\000"
 2125      44535542 
 2125      54595045 
 2125      5F435349 
 2125      6E746572 
 2126              	.LASF17:
 2127 0726 73697A65 		.ascii	"sizetype\000"
 2127      74797065 
 2127      00
 2128              	.LASF130:
 2129 072f 7573625F 		.ascii	"usb_data_buffer\000"
 2129      64617461 
 2129      5F627566 
 2129      66657200 
 2130              	.LASF42:
 2131 073f 4D616E75 		.ascii	"ManufacturerStrIndex\000"
 2131      66616374 
 2131      75726572 
 2131      53747249 
 2131      6E646578 
 2132              	.LASF139:
 2133 0754 656E6470 		.ascii	"endpointhandle0\000"
 2133      6F696E74 
 2133      68616E64 
 2133      6C653000 
 2134              	.LASF140:
 2135 0764 656E6470 		.ascii	"endpointhandle1\000"
 2135      6F696E74 
 2135      68616E64 
 2135      6C653100 
 2136              	.LASF73:
 2137 0774 5553425F 		.ascii	"USB_CMD_STAT\000"
 2137      434D445F 
 2137      53544154 
 2137      00
 2138              	.LASF67:
 2139 0781 4E427974 		.ascii	"NBytes\000"
 2139      657300
ARM GAS  /tmp/ccFzlVbi.s 			page 44


 2140              	.LASF80:
 2141 0788 4344435F 		.ascii	"CDC_CSCP_NoSpecificProtocol\000"
 2141      43534350 
 2141      5F4E6F53 
 2141      70656369 
 2141      66696350 
 2142              	.LASF20:
 2143 07a4 44545950 		.ascii	"DTYPE_Configuration\000"
 2143      455F436F 
 2143      6E666967 
 2143      75726174 
 2143      696F6E00 
 2144              	.LASF68:
 2145 07b8 52617465 		.ascii	"RateFeedback_Toogle\000"
 2145      46656564 
 2145      6261636B 
 2145      5F546F6F 
 2145      676C6500 
 2146              	.LASF97:
 2147 07cc 4344435F 		.ascii	"CDC_DSUBTYPE_CSInterface_ProtocolUnit\000"
 2147      44535542 
 2147      54595045 
 2147      5F435349 
 2147      6E746572 
 2148              	.LASF128:
 2149 07f2 44657363 		.ascii	"DescriptorNumber\000"
 2149      72697074 
 2149      6F724E75 
 2149      6D626572 
 2149      00
 2150              	.LASF30:
 2151 0803 53697A65 		.ascii	"Size\000"
 2151      00
 2152              	.LASF94:
 2153 0808 4344435F 		.ascii	"CDC_DSUBTYPE_CSInterface_TelephoneOpModes\000"
 2153      44535542 
 2153      54595045 
 2153      5F435349 
 2153      6E746572 
 2154              	.LASF62:
 2155 0832 506F6C6C 		.ascii	"PollingIntervalMS\000"
 2155      696E6749 
 2155      6E746572 
 2155      76616C4D 
 2155      5300
 2156              	.LASF52:
 2157 0844 4D617850 		.ascii	"MaxPowerConsumption\000"
 2157      6F776572 
 2157      436F6E73 
 2157      756D7074 
 2157      696F6E00 
 2158              	.LASF39:
 2159 0858 56656E64 		.ascii	"VendorID\000"
 2159      6F724944 
 2159      00
 2160              	.LASF83:
 2161 0861 4344435F 		.ascii	"CDC_CSCP_NoDataSubclass\000"
ARM GAS  /tmp/ccFzlVbi.s 			page 45


 2161      43534350 
 2161      5F4E6F44 
 2161      61746153 
 2161      7562636C 
 2162              	.LASF92:
 2163 0879 4344435F 		.ascii	"CDC_DSUBTYPE_CSInterface_Union\000"
 2163      44535542 
 2163      54595045 
 2163      5F435349 
 2163      6E746572 
 2164              	.LASF111:
 2165 0898 5F426F6F 		.ascii	"_Bool\000"
 2165      6C00
 2166              	.LASF15:
 2167 089e 696E7433 		.ascii	"int32_t\000"
 2167      325F7400 
 2168              	.LASF1:
 2169 08a6 756E7369 		.ascii	"unsigned char\000"
 2169      676E6564 
 2169      20636861 
 2169      7200
 2170              	.LASF87:
 2171 08b4 4344435F 		.ascii	"CDC_DSUBTYPE_CSInterface_CallManagement\000"
 2171      44535542 
 2171      54595045 
 2171      5F435349 
 2171      6E746572 
 2172              	.LASF2:
 2173 08dc 73686F72 		.ascii	"short int\000"
 2173      7420696E 
 2173      7400
 2174              	.LASF126:
 2175 08e6 44657363 		.ascii	"DescriptorAddress\000"
 2175      72697074 
 2175      6F724164 
 2175      64726573 
 2175      7300
 2176              	.LASF85:
 2177 08f8 4344435F 		.ascii	"CDC_DescriptorSubtypes_t\000"
 2177      44657363 
 2177      72697074 
 2177      6F725375 
 2177      62747970 
 2178              	.LASF121:
 2179 0911 4344435F 		.ascii	"CDC_Termination\000"
 2179      5465726D 
 2179      696E6174 
 2179      696F6E00 
 2180              	.LASF127:
 2181 0921 44657363 		.ascii	"DescriptorType\000"
 2181      72697074 
 2181      6F725479 
 2181      706500
 2182              	.LASF49:
 2183 0930 436F6E66 		.ascii	"ConfigurationNumber\000"
 2183      69677572 
 2183      6174696F 
ARM GAS  /tmp/ccFzlVbi.s 			page 46


 2183      6E4E756D 
 2183      62657200 
 2184              	.LASF122:
 2185 0944 5553425F 		.ascii	"USB_Descriptor_Configuration_t\000"
 2185      44657363 
 2185      72697074 
 2185      6F725F43 
 2185      6F6E6669 
 2186              	.LASF53:
 2187 0963 5553425F 		.ascii	"USB_Descriptor_Configuration_Header_t\000"
 2187      44657363 
 2187      72697074 
 2187      6F725F43 
 2187      6F6E6669 
 2188              	.LASF93:
 2189 0989 4344435F 		.ascii	"CDC_DSUBTYPE_CSInterface_CountrySelection\000"
 2189      44535542 
 2189      54595045 
 2189      5F435349 
 2189      6E746572 
 2190              	.LASF16:
 2191 09b3 75696E74 		.ascii	"uint32_t\000"
 2191      33325F74 
 2191      00
 2192              	.LASF104:
 2193 09bc 43444353 		.ascii	"CDCSpecification\000"
 2193      70656369 
 2193      66696361 
 2193      74696F6E 
 2193      00
 2194              	.LASF18:
 2195 09cd 63686172 		.ascii	"char\000"
 2195      00
 2196              	.LASF45:
 2197 09d2 4E756D62 		.ascii	"NumberOfConfigurations\000"
 2197      65724F66 
 2197      436F6E66 
 2197      69677572 
 2197      6174696F 
 2198              	.LASF152:
 2199 09e9 2F484444 		.ascii	"/HDD/Projects/workspace_test4/Altimeter/\000"
 2199      2F50726F 
 2199      6A656374 
 2199      732F776F 
 2199      726B7370 
 2200              	.LASF58:
 2201 0a12 5553425F 		.ascii	"USB_Descriptor_Interface_t\000"
 2201      44657363 
 2201      72697074 
 2201      6F725F49 
 2201      6E746572 
 2202              	.LASF4:
 2203 0a2d 5F5F7569 		.ascii	"__uint16_t\000"
 2203      6E743136 
 2203      5F7400
 2204              	.LASF63:
 2205 0a38 5553425F 		.ascii	"USB_Descriptor_Endpoint_t\000"
ARM GAS  /tmp/ccFzlVbi.s 			page 47


 2205      44657363 
 2205      72697074 
 2205      6F725F45 
 2205      6E64706F 
 2206              	.LASF149:
 2207 0a52 50726F64 		.ascii	"ProductStringPtr\000"
 2207      75637453 
 2207      7472696E 
 2207      67507472 
 2207      00
 2208              	.LASF6:
 2209 0a63 5F5F696E 		.ascii	"__int32_t\000"
 2209      7433325F 
 2209      7400
 2210              	.LASF22:
 2211 0a6d 44545950 		.ascii	"DTYPE_Interface\000"
 2211      455F496E 
 2211      74657266 
 2211      61636500 
 2212              	.LASF21:
 2213 0a7d 44545950 		.ascii	"DTYPE_String\000"
 2213      455F5374 
 2213      72696E67 
 2213      00
 2214              	.LASF40:
 2215 0a8a 50726F64 		.ascii	"ProductID\000"
 2215      75637449 
 2215      4400
 2216              	.LASF32:
 2217 0a94 5553425F 		.ascii	"USB_Descriptor_Header_t\000"
 2217      44657363 
 2217      72697074 
 2217      6F725F48 
 2217      65616465 
 2218              	.LASF59:
 2219 0aac 456E6470 		.ascii	"EndpointAddress\000"
 2219      6F696E74 
 2219      41646472 
 2219      65737300 
 2220              	.LASF71:
 2221 0abc 44697361 		.ascii	"Disabled\000"
 2221      626C6564 
 2221      00
 2222              	.LASF136:
 2223 0ac5 7573625F 		.ascii	"usb_data_buffer_IN_index\000"
 2223      64617461 
 2223      5F627566 
 2223      6665725F 
 2223      494E5F69 
 2224              	.LASF148:
 2225 0ade 50726F64 		.ascii	"ProductString\000"
 2225      75637453 
 2225      7472696E 
 2225      6700
 2226              	.LASF144:
 2227 0aec 4C616E67 		.ascii	"LanguageString\000"
 2227      75616765 
ARM GAS  /tmp/ccFzlVbi.s 			page 48


 2227      53747269 
 2227      6E6700
 2228              	.LASF132:
 2229 0afb 7573625F 		.ascii	"usb_data_buffer_OUT\000"
 2229      64617461 
 2229      5F627566 
 2229      6665725F 
 2229      4F555400 
 2230              	.LASF65:
 2231 0b0f 5553425F 		.ascii	"USB_Descriptor_String_t\000"
 2231      44657363 
 2231      72697074 
 2231      6F725F53 
 2231      7472696E 
 2232              	.LASF86:
 2233 0b27 4344435F 		.ascii	"CDC_DSUBTYPE_CSInterface_Header\000"
 2233      44535542 
 2233      54595045 
 2233      5F435349 
 2233      6E746572 
 2234              	.LASF141:
 2235 0b47 456E6450 		.ascii	"EndPointCmdStsList\000"
 2235      6F696E74 
 2235      436D6453 
 2235      74734C69 
 2235      737400
 2236              	.LASF112:
 2237 0b5a 436F6E66 		.ascii	"Config\000"
 2237      696700
 2238              	.LASF118:
 2239 0b61 4344435F 		.ascii	"CDC_DCI_Interface\000"
 2239      4443495F 
 2239      496E7465 
 2239      72666163 
 2239      6500
 2240              	.LASF13:
 2241 0b73 75696E74 		.ascii	"uint8_t\000"
 2241      385F7400 
 2242              	.LASF74:
 2243 0b7b 5553425F 		.ascii	"USB_DescriptorTypes_t\000"
 2243      44657363 
 2243      72697074 
 2243      6F725479 
 2243      7065735F 
 2244              	.LASF70:
 2245 0b91 5374616C 		.ascii	"Stall\000"
 2245      6C00
 2246              	.LASF26:
 2247 0b97 44545950 		.ascii	"DTYPE_InterfacePower\000"
 2247      455F496E 
 2247      74657266 
 2247      61636550 
 2247      6F776572 
 2248              	.LASF101:
 2249 0bac 4344435F 		.ascii	"CDC_DSUBTYPE_CSInterface_Ethernet\000"
 2249      44535542 
 2249      54595045 
ARM GAS  /tmp/ccFzlVbi.s 			page 49


 2249      5F435349 
 2249      6E746572 
 2250              	.LASF133:
 2251 0bce 7573625F 		.ascii	"usb_data_buffer_size\000"
 2251      64617461 
 2251      5F627566 
 2251      6665725F 
 2251      73697A65 
 2252              	.LASF57:
 2253 0be3 496E7465 		.ascii	"InterfaceStrIndex\000"
 2253      72666163 
 2253      65537472 
 2253      496E6465 
 2253      7800
 2254              	.LASF77:
 2255 0bf5 4344435F 		.ascii	"CDC_CSCP_NoSpecificSubclass\000"
 2255      43534350 
 2255      5F4E6F53 
 2255      70656369 
 2255      66696353 
 2256              	.LASF123:
 2257 0c11 636F7265 		.ascii	"corenum\000"
 2257      6E756D00 
 2258              	.LASF48:
 2259 0c19 546F7461 		.ascii	"TotalInterfaces\000"
 2259      6C496E74 
 2259      65726661 
 2259      63657300 
 2260              	.LASF44:
 2261 0c29 53657269 		.ascii	"SerialNumStrIndex\000"
 2261      616C4E75 
 2261      6D537472 
 2261      496E6465 
 2261      7800
 2262              	.LASF64:
 2263 0c3b 556E6963 		.ascii	"UnicodeString\000"
 2263      6F646553 
 2263      7472696E 
 2263      6700
 2264              	.LASF51:
 2265 0c49 436F6E66 		.ascii	"ConfigAttributes\000"
 2265      69674174 
 2265      74726962 
 2265      75746573 
 2265      00
 2266              	.LASF105:
 2267 0c5a 5553425F 		.ascii	"USB_CDC_Descriptor_FunctionalHeader_t\000"
 2267      4344435F 
 2267      44657363 
 2267      72697074 
 2267      6F725F46 
 2268              		.ident	"GCC: (GNU Tools for ARM Embedded Processors) 4.8.4 20140526 (release) [ARM/embedded-4_8-br
ARM GAS  /tmp/ccFzlVbi.s 			page 50


DEFINED SYMBOLS
                            *ABS*:00000000 Descriptors.c
     /tmp/ccFzlVbi.s:18     .text.CALLBACK_USB_GetDescriptor:00000000 $t
     /tmp/ccFzlVbi.s:23     .text.CALLBACK_USB_GetDescriptor:00000000 CALLBACK_USB_GetDescriptor
     /tmp/ccFzlVbi.s:121    .text.CALLBACK_USB_GetDescriptor:00000050 $d
     /tmp/ccFzlVbi.s:205    .data.ProductStringPtr:00000000 ProductStringPtr
     /tmp/ccFzlVbi.s:161    .data.ProductString:00000000 ProductString
     /tmp/ccFzlVbi.s:305    .data.ManufacturerStringPtr:00000000 ManufacturerStringPtr
     /tmp/ccFzlVbi.s:220    .data.ManufacturerString:00000000 ManufacturerString
     /tmp/ccFzlVbi.s:234    .data.LanguageStringPtr:00000000 LanguageStringPtr
     /tmp/ccFzlVbi.s:211    .data.LanguageString:00000000 LanguageString
     /tmp/ccFzlVbi.s:241    .data.ConfigurationDescriptor:00000000 ConfigurationDescriptor
     /tmp/ccFzlVbi.s:142    .data.DeviceDescriptor:00000000 DeviceDescriptor
     /tmp/ccFzlVbi.s:138    .data.DeviceDescriptor:00000000 $d
     /tmp/ccFzlVbi.s:158    .data.ProductString:00000000 $d
     /tmp/ccFzlVbi.s:201    .data.ProductStringPtr:00000000 $d
     /tmp/ccFzlVbi.s:208    .data.LanguageString:00000000 $d
     /tmp/ccFzlVbi.s:217    .data.ManufacturerString:00000000 $d
     /tmp/ccFzlVbi.s:230    .data.LanguageStringPtr:00000000 $d
     /tmp/ccFzlVbi.s:237    .data.ConfigurationDescriptor:00000000 $d
     /tmp/ccFzlVbi.s:301    .data.ManufacturerStringPtr:00000000 $d
                     .debug_frame:00000010 $d

NO UNDEFINED SYMBOLS
