ARM GAS  /tmp/cc30ujBa.s 			page 1


   1              		.cpu cortex-m0
   2              		.fpu softvfp
   3              		.eabi_attribute 20, 1
   4              		.eabi_attribute 21, 1
   5              		.eabi_attribute 23, 3
   6              		.eabi_attribute 24, 1
   7              		.eabi_attribute 25, 1
   8              		.eabi_attribute 26, 1
   9              		.eabi_attribute 30, 1
  10              		.eabi_attribute 34, 0
  11              		.eabi_attribute 18, 4
  12              		.code	16
  13              		.file	"DeviceStandardReq.c"
  14              		.text
  15              	.Ltext0:
  16              		.cfi_sections	.debug_frame
  17              		.section	.text.USB_Device_ProcessControlRequest,"ax",%progbits
  18              		.align	2
  19              		.global	USB_Device_ProcessControlRequest
  20              		.code	16
  21              		.thumb_func
  22              		.type	USB_Device_ProcessControlRequest, %function
  23              	USB_Device_ProcessControlRequest:
  24              	.LFB97:
  25              		.file 1 "USBlib_11U14/Drivers/USB/Core/DeviceStandardReq.c"
  26              		.loc 1 53 0
  27              		.cfi_startproc
  28              	.LVL0:
  29 0000 70B5     		push	{r4, r5, r6, lr}
  30              		.cfi_def_cfa_offset 16
  31              		.cfi_offset 4, -16
  32              		.cfi_offset 5, -12
  33              		.cfi_offset 6, -8
  34              		.cfi_offset 14, -4
  35 0002 82B0     		sub	sp, sp, #8
  36              		.cfi_def_cfa_offset 24
  37 0004 041C     		mov	r4, r0
  38              		.loc 1 60 0
  39 0006 C849     		ldr	r1, .L61
  40 0008 FFF7FEFF 		bl	Endpoint_GetSetupPackage
  41              	.LVL1:
  42              		.loc 1 62 0
  43 000c FFF7FEFF 		bl	EVENT_USB_Device_ControlRequest
  44              	.LVL2:
  45              	.LBB142:
  46              	.LBB143:
  47              		.file 2 "USBlib_11U14/Drivers/USB/Core/DCD/LPC11UXX/Endpoint_LPC11Uxx.h"
  48              		.loc 2 310 0
  49 0010 C64B     		ldr	r3, .L61+4
  50 0012 1B68     		ldr	r3, [r3]
  51              	.LBE143:
  52              	.LBE142:
  53              		.loc 1 64 0
  54 0014 DA05     		lsl	r2, r3, #23
  55 0016 00D4     		bmi	.LCB30
  56 0018 C9E1     		b	.L2	@long jump
  57              	.LCB30:
ARM GAS  /tmp/cc30ujBa.s 			page 2


  58              	.LBB144:
  59              		.loc 1 66 0
  60 001a C34B     		ldr	r3, .L61
  61 001c 1A78     		ldrb	r2, [r3]
  62              	.LVL3:
  63              		.loc 1 68 0
  64 001e 5B78     		ldrb	r3, [r3, #1]
  65              	.LVL4:
  66 0020 092B     		cmp	r3, #9
  67 0022 00D9     		bls	.LCB38
  68 0024 C3E1     		b	.L2	@long jump
  69              	.LCB38:
  70 0026 9900     		lsl	r1, r3, #2
  71 0028 C148     		ldr	r0, .L61+8
  72 002a 4158     		ldr	r1, [r0, r1]
  73 002c 8F46     		mov	pc, r1
  74              		.section	.rodata.USB_Device_ProcessControlRequest,"a",%progbits
  75              		.align	2
  76              	.L4:
  77 0000 2E000000 		.word	.L3
  78 0004 3C010000 		.word	.L5
  79 0008 AE030000 		.word	.L2
  80 000c 3C010000 		.word	.L5
  81 0010 AE030000 		.word	.L2
  82 0014 AC010000 		.word	.L6
  83 0018 10020000 		.word	.L7
  84 001c AE030000 		.word	.L2
  85 0020 8C020000 		.word	.L8
  86 0024 68030000 		.word	.L9
  87              		.section	.text.USB_Device_ProcessControlRequest
  88              	.L3:
  89              		.loc 1 71 0
  90 002e 802A     		cmp	r2, #128
  91 0030 03D0     		beq	.L10
  92              		.loc 1 71 0 is_stmt 0 discriminator 1
  93 0032 822A     		cmp	r2, #130
  94 0034 00D0     		beq	.LCB53
  95 0036 BAE1     		b	.L2	@long jump
  96              	.LCB53:
  97 0038 08E0     		b	.L11
  98              	.L10:
  99              	.LVL5:
 100              	.LBB145:
 101              	.LBB146:
 102              		.loc 1 295 0 is_stmt 1
 103 003a BE4B     		ldr	r3, .L61+12
 104              		.loc 1 288 0
 105 003c 1B78     		ldrb	r3, [r3]
 106              	.LVL6:
 107              		.loc 1 300 0
 108 003e BE4A     		ldr	r2, .L61+16
 109 0040 1278     		ldrb	r2, [r2]
 110 0042 002A     		cmp	r2, #0
 111 0044 15D0     		beq	.L12
 112              		.loc 1 301 0
 113 0046 0222     		mov	r2, #2
 114 0048 1343     		orr	r3, r2
ARM GAS  /tmp/cc30ujBa.s 			page 3


 115              	.LVL7:
 116 004a 12E0     		b	.L12
 117              	.LVL8:
 118              	.L11:
 119              		.loc 1 307 0
 120 004c B64B     		ldr	r3, .L61
 121              	.LVL9:
 122 004e 1A79     		ldrb	r2, [r3, #4]
 123 0050 0F23     		mov	r3, #15
 124              	.LVL10:
 125 0052 1340     		and	r3, r2
 126              	.LVL11:
 127              	.LBB147:
 128              	.LBB148:
 129              		.loc 2 375 0
 130 0054 002C     		cmp	r4, #0
 131 0056 01D0     		beq	.L53
 132 0058 B84A     		ldr	r2, .L61+20
 133 005a 00E0     		b	.L13
 134              	.L53:
 135 005c B84A     		ldr	r2, .L61+24
 136              	.L13:
 137 005e D35C     		ldrb	r3, [r2, r3]
 138              	.LVL12:
 139 0060 DB00     		lsl	r3, r3, #3
 140 0062 B84A     		ldr	r2, .L61+28
 141 0064 D318     		add	r3, r2, r3
 142 0066 5B88     		ldrh	r3, [r3, #2]
 143 0068 9B04     		lsl	r3, r3, #18
 144 006a DB0F     		lsr	r3, r3, #31
 145              	.LVL13:
 146              	.LBE148:
 147              	.LBE147:
 148              	.LBB149:
 149              	.LBB150:
 150              		.file 3 "USBlib_11U14/Drivers/USB/Core/Endpoint.h"
 151              		.loc 3 205 0
 152 006c 0021     		mov	r1, #0
 153 006e B64A     		ldr	r2, .L61+32
 154 0070 1155     		strb	r1, [r2, r4]
 155              	.LVL14:
 156              	.L12:
 157              	.LBE150:
 158              	.LBE149:
 159              	.LBB151:
 160              	.LBB152:
 161              		.loc 2 318 0
 162 0072 AE4A     		ldr	r2, .L61+4
 163 0074 1068     		ldr	r0, [r2]
 164 0076 8021     		mov	r1, #128
 165 0078 4900     		lsl	r1, r1, #1
 166 007a 0143     		orr	r1, r0
 167 007c 1160     		str	r1, [r2]
 168              	.LVL15:
 169              		.loc 2 319 0
 170 007e A200     		lsl	r2, r4, #2
 171 0080 0020     		mov	r0, #0
ARM GAS  /tmp/cc30ujBa.s 			page 4


 172 0082 B249     		ldr	r1, .L61+36
 173 0084 5050     		str	r0, [r2, r1]
 174              	.LBE152:
 175              	.LBE151:
 176              		.loc 1 321 0
 177 0086 191C     		mov	r1, r3
 178              	.LVL16:
 179              	.LBB153:
 180              	.LBB154:
 181              	.LBB155:
 182              	.LBB156:
 183              		.loc 3 284 0
 184 0088 AF4A     		ldr	r2, .L61+32
 185 008a 125D     		ldrb	r2, [r2, r4]
 186 008c 002A     		cmp	r2, #0
 187 008e 0AD1     		bne	.L14
 188              		.loc 3 285 0
 189 0090 AE4A     		ldr	r2, .L61+36
 190 0092 A000     		lsl	r0, r4, #2
 191 0094 8558     		ldr	r5, [r0, r2]
 192 0096 6602     		lsl	r6, r4, #9
 193 0098 7619     		add	r6, r6, r5
 194 009a AD4D     		ldr	r5, .L61+40
 195 009c 7355     		strb	r3, [r6, r5]
 196              		.loc 3 286 0
 197 009e 8358     		ldr	r3, [r0, r2]
 198              	.LVL17:
 199 00a0 0133     		add	r3, r3, #1
 200 00a2 8350     		str	r3, [r0, r2]
 201 00a4 09E0     		b	.L15
 202              	.L14:
 203              		.loc 3 289 0
 204 00a6 AB4A     		ldr	r2, .L61+44
 205 00a8 A000     		lsl	r0, r4, #2
 206 00aa 8558     		ldr	r5, [r0, r2]
 207 00ac 6602     		lsl	r6, r4, #9
 208 00ae 7619     		add	r6, r6, r5
 209 00b0 A94D     		ldr	r5, .L61+48
 210 00b2 7355     		strb	r3, [r6, r5]
 211              		.loc 3 290 0
 212 00b4 8358     		ldr	r3, [r0, r2]
 213 00b6 0133     		add	r3, r3, #1
 214 00b8 8350     		str	r3, [r0, r2]
 215              	.L15:
 216              	.LBE156:
 217              	.LBE155:
 218              		.loc 3 372 0
 219 00ba 090A     		lsr	r1, r1, #8
 220              	.LVL18:
 221 00bc C9B2     		uxtb	r1, r1
 222              	.LVL19:
 223              	.LBB157:
 224              	.LBB158:
 225              		.loc 3 284 0
 226 00be A24B     		ldr	r3, .L61+32
 227 00c0 1B5D     		ldrb	r3, [r3, r4]
 228 00c2 002B     		cmp	r3, #0
ARM GAS  /tmp/cc30ujBa.s 			page 5


 229 00c4 0AD1     		bne	.L16
 230              		.loc 3 285 0
 231 00c6 A14B     		ldr	r3, .L61+36
 232 00c8 A200     		lsl	r2, r4, #2
 233 00ca D058     		ldr	r0, [r2, r3]
 234 00cc 6502     		lsl	r5, r4, #9
 235 00ce 2D18     		add	r5, r5, r0
 236 00d0 9F48     		ldr	r0, .L61+40
 237 00d2 2954     		strb	r1, [r5, r0]
 238              		.loc 3 286 0
 239 00d4 D158     		ldr	r1, [r2, r3]
 240              	.LVL20:
 241 00d6 0131     		add	r1, r1, #1
 242 00d8 D150     		str	r1, [r2, r3]
 243 00da 09E0     		b	.L17
 244              	.LVL21:
 245              	.L16:
 246              		.loc 3 289 0
 247 00dc 9D4B     		ldr	r3, .L61+44
 248 00de A200     		lsl	r2, r4, #2
 249 00e0 D058     		ldr	r0, [r2, r3]
 250 00e2 6502     		lsl	r5, r4, #9
 251 00e4 2D18     		add	r5, r5, r0
 252 00e6 9C48     		ldr	r0, .L61+48
 253 00e8 2954     		strb	r1, [r5, r0]
 254              		.loc 3 290 0
 255 00ea D158     		ldr	r1, [r2, r3]
 256              	.LVL22:
 257 00ec 0131     		add	r1, r1, #1
 258 00ee D150     		str	r1, [r2, r3]
 259              	.L17:
 260              	.LVL23:
 261              	.LBE158:
 262              	.LBE157:
 263              	.LBE154:
 264              	.LBE153:
 265              	.LBB159:
 266              	.LBB160:
 267              		.loc 2 327 0
 268 00f0 954B     		ldr	r3, .L61+32
 269 00f2 1B5D     		ldrb	r3, [r3, r4]
 270 00f4 002B     		cmp	r3, #0
 271 00f6 07D0     		beq	.L18
 272 00f8 002C     		cmp	r4, #0
 273 00fa 01D0     		beq	.L54
 274 00fc 8F4A     		ldr	r2, .L61+20
 275 00fe 00E0     		b	.L19
 276              	.L54:
 277 0100 8F4A     		ldr	r2, .L61+24
 278              	.L19:
 279 0102 D05C     		ldrb	r0, [r2, r3]
 280              	.LVL24:
 281              		.loc 2 328 0
 282 0104 0128     		cmp	r0, #1
 283 0106 0BD1     		bne	.L20
 284              	.LVL25:
 285              	.L18:
ARM GAS  /tmp/cc30ujBa.s 			page 6


 286              		.loc 2 329 0
 287 0108 904D     		ldr	r5, .L61+36
 288 010a A600     		lsl	r6, r4, #2
 289 010c 7259     		ldr	r2, [r6, r5]
 290 010e 6302     		lsl	r3, r4, #9
 291 0110 8F49     		ldr	r1, .L61+40
 292 0112 5918     		add	r1, r3, r1
 293 0114 0120     		mov	r0, #1
 294 0116 FFF7FEFF 		bl	DcdDataTransfer
 295              	.LVL26:
 296              		.loc 2 330 0
 297 011a 0023     		mov	r3, #0
 298 011c 7351     		str	r3, [r6, r5]
 299 011e 09E0     		b	.L21
 300              	.LVL27:
 301              	.L20:
 302              		.loc 2 333 0
 303 0120 8C4D     		ldr	r5, .L61+44
 304 0122 A600     		lsl	r6, r4, #2
 305 0124 7259     		ldr	r2, [r6, r5]
 306              	.LVL28:
 307 0126 6302     		lsl	r3, r4, #9
 308 0128 8B49     		ldr	r1, .L61+48
 309 012a 5918     		add	r1, r3, r1
 310 012c FFF7FEFF 		bl	DcdDataTransfer
 311              	.LVL29:
 312              		.loc 2 334 0
 313 0130 0023     		mov	r3, #0
 314 0132 7351     		str	r3, [r6, r5]
 315              	.L21:
 316              	.LBE160:
 317              	.LBE159:
 318              		.loc 1 324 0
 319 0134 201C     		mov	r0, r4
 320 0136 FFF7FEFF 		bl	Endpoint_ClearStatusStage
 321              	.LVL30:
 322 013a 38E1     		b	.L2
 323              	.LVL31:
 324              	.L5:
 325              	.LBE146:
 326              	.LBE145:
 327              		.loc 1 80 0
 328 013c 002A     		cmp	r2, #0
 329 013e 00D1     		bne	.LCB348
 330 0140 5CE1     		b	.L22	@long jump
 331              	.LCB348:
 332              		.loc 1 80 0 is_stmt 0 discriminator 1
 333 0142 022A     		cmp	r2, #2
 334 0144 00D0     		beq	.LCB350
 335 0146 32E1     		b	.L2	@long jump
 336              	.LCB350:
 337 0148 5DE1     		b	.L23
 338              	.LVL32:
 339              	.L50:
 340              	.LBB161:
 341              	.LBB162:
 342              		.loc 1 334 0 is_stmt 1
ARM GAS  /tmp/cc30ujBa.s 			page 7


 343 014a 033B     		sub	r3, r3, #3
 344 014c 5A42     		neg	r2, r3
 345 014e 5341     		adc	r3, r3, r2
 346 0150 794A     		ldr	r2, .L61+16
 347 0152 1370     		strb	r3, [r2]
 348 0154 1AE0     		b	.L24
 349              	.L51:
 350              	.LBB163:
 351              		.loc 1 344 0
 352 0156 744A     		ldr	r2, .L61
 353              	.LVL33:
 354 0158 1179     		ldrb	r1, [r2, #4]
 355 015a 0F22     		mov	r2, #15
 356              	.LVL34:
 357 015c 0A40     		and	r2, r1
 358              	.LVL35:
 359              		.loc 1 346 0
 360 015e 00D1     		bne	.LCB382
 361 0160 25E1     		b	.L2	@long jump
 362              	.LCB382:
 363              	.LVL36:
 364              	.LBB164:
 365              	.LBB165:
 366              		.loc 3 205 0
 367 0162 7949     		ldr	r1, .L61+32
 368              	.LVL37:
 369 0164 0A55     		strb	r2, [r1, r4]
 370              	.LBE165:
 371              	.LBE164:
 372              		.loc 1 353 0
 373 0166 032B     		cmp	r3, #3
 374 0168 04D1     		bne	.L25
 375              	.LVL38:
 376              	.LBB166:
 377              	.LBB167:
 378              		.loc 2 356 0
 379 016a 002C     		cmp	r4, #0
 380 016c 00D0     		beq	.LCB399
 381 016e 50E1     		b	.L26	@long jump
 382              	.LCB399:
 383 0170 734B     		ldr	r3, .L61+24
 384 0172 4FE1     		b	.L27
 385              	.LVL39:
 386              	.L25:
 387              	.LBE167:
 388              	.LBE166:
 389              	.LBB169:
 390              	.LBB170:
 391              		.loc 2 367 0
 392 0174 002C     		cmp	r4, #0
 393 0176 00D0     		beq	.LCB412
 394 0178 56E1     		b	.L28	@long jump
 395              	.LCB412:
 396 017a 60E1     		b	.L60
 397              	.L52:
 398              	.LBE170:
 399              	.LBE169:
ARM GAS  /tmp/cc30ujBa.s 			page 8


 400              	.LBB172:
 401              	.LBB173:
 402              		.loc 2 383 0
 403 017c 5B5C     		ldrb	r3, [r3, r1]
 404 017e DB00     		lsl	r3, r3, #3
 405 0180 704A     		ldr	r2, .L61+28
 406 0182 D318     		add	r3, r2, r3
 407 0184 D978     		ldrb	r1, [r3, #3]
 408 0186 1022     		mov	r2, #16
 409 0188 0A43     		orr	r2, r1
 410 018a DA70     		strb	r2, [r3, #3]
 411              	.LVL40:
 412              	.L24:
 413              	.LBE173:
 414              	.LBE172:
 415              	.LBE163:
 416              	.LBB176:
 417              	.LBB177:
 418              		.loc 3 205 0
 419 018c 0023     		mov	r3, #0
 420 018e 6E4A     		ldr	r2, .L61+32
 421 0190 1355     		strb	r3, [r2, r4]
 422              	.LVL41:
 423              	.LBE177:
 424              	.LBE176:
 425              	.LBB178:
 426              	.LBB179:
 427              		.loc 2 318 0
 428 0192 664A     		ldr	r2, .L61+4
 429 0194 1068     		ldr	r0, [r2]
 430 0196 8021     		mov	r1, #128
 431 0198 4900     		lsl	r1, r1, #1
 432 019a 0143     		orr	r1, r0
 433 019c 1160     		str	r1, [r2]
 434              	.LVL42:
 435              		.loc 2 319 0
 436 019e A200     		lsl	r2, r4, #2
 437 01a0 6A49     		ldr	r1, .L61+36
 438 01a2 5350     		str	r3, [r2, r1]
 439              	.LBE179:
 440              	.LBE178:
 441              		.loc 1 376 0
 442 01a4 201C     		mov	r0, r4
 443 01a6 FFF7FEFF 		bl	Endpoint_ClearStatusStage
 444              	.LVL43:
 445 01aa 00E1     		b	.L2
 446              	.LVL44:
 447              	.L6:
 448              	.LBE162:
 449              	.LBE161:
 450              		.loc 1 88 0
 451 01ac 002A     		cmp	r2, #0
 452 01ae 00D0     		beq	.LCB479
 453 01b0 FDE0     		b	.L2	@long jump
 454              	.LCB479:
 455              	.LVL45:
 456              	.LBB182:
ARM GAS  /tmp/cc30ujBa.s 			page 9


 457              	.LBB183:
 458              		.loc 1 122 0
 459 01b2 5D4B     		ldr	r3, .L61
 460              	.LVL46:
 461 01b4 9D78     		ldrb	r5, [r3, #2]
 462 01b6 7F23     		mov	r3, #127
 463              	.LVL47:
 464 01b8 1D40     		and	r5, r3
 465              	.LVL48:
 466              	.LBB184:
 467              	.LBB185:
 468              		.loc 2 318 0
 469 01ba 5C4B     		ldr	r3, .L61+4
 470 01bc 1968     		ldr	r1, [r3]
 471 01be 8022     		mov	r2, #128
 472 01c0 5200     		lsl	r2, r2, #1
 473 01c2 0A43     		orr	r2, r1
 474 01c4 1A60     		str	r2, [r3]
 475              	.LVL49:
 476              		.loc 2 319 0
 477 01c6 A300     		lsl	r3, r4, #2
 478 01c8 0021     		mov	r1, #0
 479 01ca 604A     		ldr	r2, .L61+36
 480 01cc 9950     		str	r1, [r3, r2]
 481              	.LBE185:
 482              	.LBE184:
 483              		.loc 1 128 0
 484 01ce 201C     		mov	r0, r4
 485 01d0 FFF7FEFF 		bl	Endpoint_ClearStatusStage
 486              	.LVL50:
 487              	.LBB186:
 488              	.LBB187:
 489              		.loc 2 292 0
 490 01d4 5C4B     		ldr	r3, .L61+32
 491 01d6 1A5D     		ldrb	r2, [r3, r4]
 492 01d8 002C     		cmp	r4, #0
 493 01da 01D0     		beq	.L30
 494 01dc 574E     		ldr	r6, .L61+20
 495 01de 00E0     		b	.L31
 496              	.L30:
 497 01e0 574E     		ldr	r6, .L61+24
 498              	.L31:
 499 01e2 B618     		add	r6, r6, r2
 500              		.loc 2 291 0
 501 01e4 0120     		mov	r0, #1
 502              		.loc 2 293 0
 503 01e6 5749     		ldr	r1, .L61+28
 504              	.L34:
 505              	.LVL51:
 506              		.loc 2 291 0
 507 01e8 031C     		mov	r3, r0
 508 01ea 002A     		cmp	r2, #0
 509 01ec 00D0     		beq	.L32
 510 01ee 3378     		ldrb	r3, [r6]
 511              	.L32:
 512              	.LVL52:
 513              		.loc 2 293 0
ARM GAS  /tmp/cc30ujBa.s 			page 10


 514 01f0 DB00     		lsl	r3, r3, #3
 515              	.LVL53:
 516 01f2 CB18     		add	r3, r1, r3
 517 01f4 5B88     		ldrh	r3, [r3, #2]
 518 01f6 DB0B     		lsr	r3, r3, #15
 519              	.LBE187:
 520              	.LBE186:
 521              		.loc 1 130 0
 522 01f8 012B     		cmp	r3, #1
 523 01fa F5D0     		beq	.L34
 524              	.LVL54:
 525              	.LBB188:
 526              	.LBB189:
 527              		.file 4 "USBlib_11U14/Drivers/USB/Core/DCD/LPC11UXX/Device_LPC11Uxx.h"
 528              		.loc 4 143 0
 529 01fc 281C     		mov	r0, r5
 530 01fe FFF7FEFF 		bl	HAL_SetDeviceAddress
 531              	.LVL55:
 532              	.LBE189:
 533              	.LBE188:
 534              		.loc 1 133 0
 535 0202 6B42     		neg	r3, r5
 536 0204 6B41     		adc	r3, r3, r5
 537              	.LVL56:
 538 0206 0325     		mov	r5, #3
 539 0208 ED1A     		sub	r5, r5, r3
 540 020a 544B     		ldr	r3, .L61+52
 541 020c 1D55     		strb	r5, [r3, r4]
 542              	.LVL57:
 543 020e CEE0     		b	.L2
 544              	.LVL58:
 545              	.L7:
 546              	.LBE183:
 547              	.LBE182:
 548              		.loc 1 93 0
 549 0210 803A     		sub	r2, r2, #128
 550 0212 D2B2     		uxtb	r2, r2
 551 0214 012A     		cmp	r2, #1
 552 0216 00D9     		bls	.LCB587
 553 0218 C9E0     		b	.L2	@long jump
 554              	.LCB587:
 555              	.LVL59:
 556              	.LBB190:
 557              	.LBB191:
 558              		.loc 1 255 0
 559 021a 434B     		ldr	r3, .L61
 560              	.LVL60:
 561 021c 9A78     		ldrb	r2, [r3, #2]
 562 021e D978     		ldrb	r1, [r3, #3]
 563 0220 0902     		lsl	r1, r1, #8
 564 0222 1143     		orr	r1, r2
 565 0224 1A79     		ldrb	r2, [r3, #4]
 566 0226 201C     		mov	r0, r4
 567 0228 01AB     		add	r3, sp, #4
 568              	.LVL61:
 569 022a FFF7FEFF 		bl	CALLBACK_USB_GetDescriptor
 570              	.LVL62:
ARM GAS  /tmp/cc30ujBa.s 			page 11


 571 022e 021E     		sub	r2, r0, #0
 572              	.LVL63:
 573 0230 00D1     		bne	.LCB613
 574 0232 BCE0     		b	.L2	@long jump
 575              	.LCB613:
 576              	.LVL64:
 577              	.LBB192:
 578              	.LBB193:
 579              		.loc 2 318 0
 580 0234 3D4B     		ldr	r3, .L61+4
 581 0236 1868     		ldr	r0, [r3]
 582              	.LVL65:
 583 0238 8021     		mov	r1, #128
 584 023a 4900     		lsl	r1, r1, #1
 585 023c 0143     		orr	r1, r0
 586 023e 1960     		str	r1, [r3]
 587              		.loc 2 319 0
 588 0240 A300     		lsl	r3, r4, #2
 589 0242 0020     		mov	r0, #0
 590 0244 4149     		ldr	r1, .L61+36
 591 0246 5850     		str	r0, [r3, r1]
 592              	.LBE193:
 593              	.LBE192:
 594              		.loc 1 269 0
 595 0248 201C     		mov	r0, r4
 596 024a 0199     		ldr	r1, [sp, #4]
 597 024c FFF7FEFF 		bl	Endpoint_Write_Control_Stream_LE
 598              	.LVL66:
 599              	.LBB194:
 600              	.LBB195:
 601              		.loc 2 343 0
 602 0250 3D4B     		ldr	r3, .L61+32
 603 0252 1B5D     		ldrb	r3, [r3, r4]
 604 0254 002B     		cmp	r3, #0
 605 0256 04D1     		bne	.L37
 606              		.loc 2 344 0
 607 0258 A200     		lsl	r2, r4, #2
 608 025a 0020     		mov	r0, #0
 609 025c 3B49     		ldr	r1, .L61+36
 610 025e 5050     		str	r0, [r2, r1]
 611 0260 03E0     		b	.L38
 612              	.L37:
 613              		.loc 2 346 0
 614 0262 A200     		lsl	r2, r4, #2
 615 0264 0020     		mov	r0, #0
 616 0266 3E49     		ldr	r1, .L61+56
 617 0268 5050     		str	r0, [r2, r1]
 618              	.L38:
 619              		.loc 2 348 0
 620 026a 002C     		cmp	r4, #0
 621 026c 01D0     		beq	.L57
 622 026e 334A     		ldr	r2, .L61+20
 623 0270 00E0     		b	.L39
 624              	.L57:
 625 0272 334A     		ldr	r2, .L61+24
 626              	.L39:
 627 0274 D35C     		ldrb	r3, [r2, r3]
ARM GAS  /tmp/cc30ujBa.s 			page 12


 628 0276 DB00     		lsl	r3, r3, #3
 629 0278 324A     		ldr	r2, .L61+28
 630 027a D318     		add	r3, r2, r3
 631 027c 5988     		ldrh	r1, [r3, #2]
 632 027e 890A     		lsr	r1, r1, #10
 633 0280 8902     		lsl	r1, r1, #10
 634 0282 8022     		mov	r2, #128
 635 0284 9200     		lsl	r2, r2, #2
 636 0286 0A43     		orr	r2, r1
 637 0288 5A80     		strh	r2, [r3, #2]
 638 028a 90E0     		b	.L2
 639              	.LVL67:
 640              	.L8:
 641              	.LBE195:
 642              	.LBE194:
 643              	.LBE191:
 644              	.LBE190:
 645              		.loc 1 101 0
 646 028c 802A     		cmp	r2, #128
 647 028e 00D0     		beq	.LCB696
 648 0290 8DE0     		b	.L2	@long jump
 649              	.LCB696:
 650              	.LVL68:
 651              	.LBB196:
 652              	.LBB197:
 653              	.LBB198:
 654              	.LBB199:
 655              		.loc 2 318 0
 656 0292 264B     		ldr	r3, .L61+4
 657 0294 1968     		ldr	r1, [r3]
 658 0296 5200     		lsl	r2, r2, #1
 659 0298 0A43     		orr	r2, r1
 660 029a 1A60     		str	r2, [r3]
 661              	.LVL69:
 662              		.loc 2 319 0
 663 029c A300     		lsl	r3, r4, #2
 664 029e 0021     		mov	r1, #0
 665 02a0 2A4A     		ldr	r2, .L61+36
 666 02a2 9950     		str	r1, [r3, r2]
 667              	.LBE199:
 668              	.LBE198:
 669              		.loc 1 210 0
 670 02a4 2F4B     		ldr	r3, .L61+60
 671 02a6 1A78     		ldrb	r2, [r3]
 672              	.LVL70:
 673              	.LBB200:
 674              	.LBB201:
 675              		.loc 3 284 0
 676 02a8 274B     		ldr	r3, .L61+32
 677 02aa 1B5D     		ldrb	r3, [r3, r4]
 678 02ac 002B     		cmp	r3, #0
 679 02ae 0AD1     		bne	.L40
 680              		.loc 3 285 0
 681 02b0 264B     		ldr	r3, .L61+36
 682 02b2 A100     		lsl	r1, r4, #2
 683 02b4 C858     		ldr	r0, [r1, r3]
 684 02b6 6502     		lsl	r5, r4, #9
ARM GAS  /tmp/cc30ujBa.s 			page 13


 685 02b8 2D18     		add	r5, r5, r0
 686 02ba 2548     		ldr	r0, .L61+40
 687 02bc 2A54     		strb	r2, [r5, r0]
 688              		.loc 3 286 0
 689 02be CA58     		ldr	r2, [r1, r3]
 690 02c0 0132     		add	r2, r2, #1
 691 02c2 CA50     		str	r2, [r1, r3]
 692 02c4 09E0     		b	.L41
 693              	.L40:
 694              		.loc 3 289 0
 695 02c6 234B     		ldr	r3, .L61+44
 696 02c8 A100     		lsl	r1, r4, #2
 697 02ca C858     		ldr	r0, [r1, r3]
 698 02cc 6502     		lsl	r5, r4, #9
 699 02ce 2D18     		add	r5, r5, r0
 700 02d0 2148     		ldr	r0, .L61+48
 701 02d2 2A54     		strb	r2, [r5, r0]
 702              		.loc 3 290 0
 703 02d4 CA58     		ldr	r2, [r1, r3]
 704 02d6 0132     		add	r2, r2, #1
 705 02d8 CA50     		str	r2, [r1, r3]
 706              	.L41:
 707              	.LVL71:
 708              	.LBE201:
 709              	.LBE200:
 710              	.LBB202:
 711              	.LBB203:
 712              		.loc 2 327 0
 713 02da 1B4B     		ldr	r3, .L61+32
 714 02dc 1B5D     		ldrb	r3, [r3, r4]
 715 02de 002B     		cmp	r3, #0
 716 02e0 07D0     		beq	.L42
 717 02e2 002C     		cmp	r4, #0
 718 02e4 01D0     		beq	.L58
 719 02e6 154A     		ldr	r2, .L61+20
 720 02e8 00E0     		b	.L43
 721              	.L58:
 722 02ea 154A     		ldr	r2, .L61+24
 723              	.L43:
 724 02ec D05C     		ldrb	r0, [r2, r3]
 725              	.LVL72:
 726              		.loc 2 328 0
 727 02ee 0128     		cmp	r0, #1
 728 02f0 0BD1     		bne	.L44
 729              	.LVL73:
 730              	.L42:
 731              		.loc 2 329 0
 732 02f2 164D     		ldr	r5, .L61+36
 733 02f4 A600     		lsl	r6, r4, #2
 734 02f6 7259     		ldr	r2, [r6, r5]
 735 02f8 6302     		lsl	r3, r4, #9
 736 02fa 1549     		ldr	r1, .L61+40
 737 02fc 5918     		add	r1, r3, r1
 738 02fe 0120     		mov	r0, #1
 739 0300 FFF7FEFF 		bl	DcdDataTransfer
 740              	.LVL74:
 741              		.loc 2 330 0
ARM GAS  /tmp/cc30ujBa.s 			page 14


 742 0304 0023     		mov	r3, #0
 743 0306 7351     		str	r3, [r6, r5]
 744 0308 09E0     		b	.L45
 745              	.LVL75:
 746              	.L44:
 747              		.loc 2 333 0
 748 030a 124D     		ldr	r5, .L61+44
 749 030c A600     		lsl	r6, r4, #2
 750 030e 7259     		ldr	r2, [r6, r5]
 751              	.LVL76:
 752 0310 6302     		lsl	r3, r4, #9
 753 0312 1149     		ldr	r1, .L61+48
 754 0314 5918     		add	r1, r3, r1
 755 0316 FFF7FEFF 		bl	DcdDataTransfer
 756              	.LVL77:
 757              		.loc 2 334 0
 758 031a 0023     		mov	r3, #0
 759 031c 7351     		str	r3, [r6, r5]
 760              	.L45:
 761              	.LBE203:
 762              	.LBE202:
 763              		.loc 1 213 0
 764 031e 201C     		mov	r0, r4
 765 0320 FFF7FEFF 		bl	Endpoint_ClearStatusStage
 766              	.LVL78:
 767 0324 43E0     		b	.L2
 768              	.L62:
 769 0326 C046     		.align	2
 770              	.L61:
 771 0328 00000000 		.word	USB_ControlRequest
 772 032c 00000840 		.word	1074266112
 773 0330 00000000 		.word	.L4
 774 0334 00000000 		.word	.LANCHOR0
 775 0338 00000000 		.word	.LANCHOR1
 776 033c 00000000 		.word	endpointhandle1
 777 0340 00000000 		.word	endpointhandle0
 778 0344 00000000 		.word	EndPointCmdStsList
 779 0348 00000000 		.word	endpointselected
 780 034c 00000000 		.word	usb_data_buffer_index
 781 0350 00000000 		.word	usb_data_buffer
 782 0354 00000000 		.word	usb_data_buffer_IN_index
 783 0358 00000000 		.word	usb_data_buffer_IN
 784 035c 00000000 		.word	USB_DeviceState
 785 0360 00000000 		.word	usb_data_buffer_OUT_index
 786 0364 00000000 		.word	.LANCHOR2
 787              	.LVL79:
 788              	.L9:
 789              	.LBE197:
 790              	.LBE196:
 791              		.loc 1 106 0
 792 0368 002A     		cmp	r2, #0
 793 036a 20D1     		bne	.L2
 794              	.LVL80:
 795              	.LBB204:
 796              	.LBB205:
 797              		.loc 1 141 0
 798 036c 3A4B     		ldr	r3, .L63
ARM GAS  /tmp/cc30ujBa.s 			page 15


 799              	.LVL81:
 800 036e 9B78     		ldrb	r3, [r3, #2]
 801              	.LVL82:
 802 0370 012B     		cmp	r3, #1
 803 0372 1CD8     		bhi	.L2
 804              	.LVL83:
 805              	.LBB206:
 806              	.LBB207:
 807              		.loc 2 318 0
 808 0374 394B     		ldr	r3, .L63+4
 809 0376 1968     		ldr	r1, [r3]
 810 0378 8022     		mov	r2, #128
 811 037a 5200     		lsl	r2, r2, #1
 812 037c 0A43     		orr	r2, r1
 813 037e 1A60     		str	r2, [r3]
 814              	.LVL84:
 815              		.loc 2 319 0
 816 0380 A300     		lsl	r3, r4, #2
 817 0382 0021     		mov	r1, #0
 818 0384 364A     		ldr	r2, .L63+8
 819 0386 9950     		str	r1, [r3, r2]
 820              	.LBE207:
 821              	.LBE206:
 822              		.loc 1 192 0
 823 0388 364D     		ldr	r5, .L63+12
 824 038a 334B     		ldr	r3, .L63
 825 038c 9B78     		ldrb	r3, [r3, #2]
 826 038e 2B70     		strb	r3, [r5]
 827              		.loc 1 194 0
 828 0390 201C     		mov	r0, r4
 829 0392 FFF7FEFF 		bl	Endpoint_ClearStatusStage
 830              	.LVL85:
 831              		.loc 1 196 0
 832 0396 2B78     		ldrb	r3, [r5]
 833 0398 002B     		cmp	r3, #0
 834 039a 03D0     		beq	.L46
 835              		.loc 1 197 0
 836 039c 0422     		mov	r2, #4
 837 039e 324B     		ldr	r3, .L63+16
 838 03a0 1A55     		strb	r2, [r3, r4]
 839 03a2 02E0     		b	.L47
 840              	.L46:
 841              		.loc 1 200 0
 842 03a4 0422     		mov	r2, #4
 843 03a6 304B     		ldr	r3, .L63+16
 844 03a8 1A55     		strb	r2, [r3, r4]
 845              	.L47:
 846              		.loc 1 203 0
 847 03aa FFF7FEFF 		bl	EVENT_USB_Device_ConfigurationChanged
 848              	.LVL86:
 849              	.L2:
 850              	.LBE205:
 851              	.LBE204:
 852              	.LBE144:
 853              	.LBB209:
 854              	.LBB210:
 855              		.loc 2 310 0
ARM GAS  /tmp/cc30ujBa.s 			page 16


 856 03ae 2B4B     		ldr	r3, .L63+4
 857 03b0 1B68     		ldr	r3, [r3]
 858              	.LBE210:
 859              	.LBE209:
 860              		.loc 1 113 0
 861 03b2 DA05     		lsl	r2, r3, #23
 862 03b4 4ED5     		bpl	.L1
 863              	.LVL87:
 864              	.LBB211:
 865              	.LBB212:
 866              		.loc 2 318 0
 867 03b6 294B     		ldr	r3, .L63+4
 868 03b8 1968     		ldr	r1, [r3]
 869 03ba 8022     		mov	r2, #128
 870 03bc 5200     		lsl	r2, r2, #1
 871 03be 0A43     		orr	r2, r1
 872 03c0 1A60     		str	r2, [r3]
 873              		.loc 2 319 0
 874 03c2 A300     		lsl	r3, r4, #2
 875 03c4 0021     		mov	r1, #0
 876 03c6 264A     		ldr	r2, .L63+8
 877 03c8 9950     		str	r1, [r3, r2]
 878              	.LVL88:
 879              	.LBE212:
 880              	.LBE211:
 881              	.LBB213:
 882              	.LBB214:
 883              		.loc 2 356 0
 884 03ca 002C     		cmp	r4, #0
 885 03cc 01D0     		beq	.L59
 886 03ce 274A     		ldr	r2, .L63+20
 887 03d0 00E0     		b	.L49
 888              	.L59:
 889 03d2 274A     		ldr	r2, .L63+24
 890              	.L49:
 891 03d4 274B     		ldr	r3, .L63+28
 892 03d6 1B5D     		ldrb	r3, [r3, r4]
 893 03d8 D25C     		ldrb	r2, [r2, r3]
 894 03da D200     		lsl	r2, r2, #3
 895 03dc 2649     		ldr	r1, .L63+32
 896 03de 8A18     		add	r2, r1, r2
 897 03e0 5088     		ldrh	r0, [r2, #2]
 898 03e2 8021     		mov	r1, #128
 899 03e4 8901     		lsl	r1, r1, #6
 900 03e6 0143     		orr	r1, r0
 901 03e8 5180     		strh	r1, [r2, #2]
 902              		.loc 2 357 0
 903 03ea 002B     		cmp	r3, #0
 904 03ec 32D1     		bne	.L1
 905              		.loc 2 358 0
 906 03ee 224B     		ldr	r3, .L63+32
 907 03f0 5989     		ldrh	r1, [r3, #10]
 908 03f2 8022     		mov	r2, #128
 909 03f4 9201     		lsl	r2, r2, #6
 910 03f6 0A43     		orr	r2, r1
 911 03f8 5A81     		strh	r2, [r3, #10]
 912 03fa 2BE0     		b	.L1
ARM GAS  /tmp/cc30ujBa.s 			page 17


 913              	.LVL89:
 914              	.L22:
 915              	.LBE214:
 916              	.LBE213:
 917              	.LBB215:
 918              	.LBB208:
 919              	.LBB181:
 920              		.loc 1 333 0
 921 03fc 164A     		ldr	r2, .L63
 922              	.LVL90:
 923 03fe 9278     		ldrb	r2, [r2, #2]
 924              	.LVL91:
 925 0400 012A     		cmp	r2, #1
 926 0402 D4D1     		bne	.L2
 927 0404 A1E6     		b	.L50
 928              	.LVL92:
 929              	.L23:
 930              		.loc 1 342 0
 931 0406 144A     		ldr	r2, .L63
 932              	.LVL93:
 933 0408 9278     		ldrb	r2, [r2, #2]
 934              	.LVL94:
 935 040a 002A     		cmp	r2, #0
 936 040c 00D1     		bne	.LCB1033
 937 040e A2E6     		b	.L51	@long jump
 938              	.LCB1033:
 939 0410 BCE6     		b	.L24
 940              	.LVL95:
 941              	.L26:
 942              	.LBB180:
 943              	.LBB174:
 944              	.LBB168:
 945              		.loc 2 356 0
 946 0412 164B     		ldr	r3, .L63+20
 947              	.L27:
 948 0414 9B5C     		ldrb	r3, [r3, r2]
 949 0416 DB00     		lsl	r3, r3, #3
 950 0418 174A     		ldr	r2, .L63+32
 951 041a D318     		add	r3, r2, r3
 952 041c 5988     		ldrh	r1, [r3, #2]
 953 041e 8022     		mov	r2, #128
 954 0420 9201     		lsl	r2, r2, #6
 955 0422 0A43     		orr	r2, r1
 956 0424 5A80     		strh	r2, [r3, #2]
 957 0426 B1E6     		b	.L24
 958              	.LVL96:
 959              	.L28:
 960              	.LBE168:
 961              	.LBE174:
 962              	.LBB175:
 963              	.LBB171:
 964              		.loc 2 367 0
 965 0428 111C     		mov	r1, r2
 966 042a 104B     		ldr	r3, .L63+20
 967 042c 9A5C     		ldrb	r2, [r3, r2]
 968 042e D200     		lsl	r2, r2, #3
 969 0430 1148     		ldr	r0, .L63+32
ARM GAS  /tmp/cc30ujBa.s 			page 18


 970 0432 8218     		add	r2, r0, r2
 971 0434 5588     		ldrh	r5, [r2, #2]
 972 0436 1148     		ldr	r0, .L63+36
 973 0438 2840     		and	r0, r5
 974 043a 5080     		strh	r0, [r2, #2]
 975              	.LVL97:
 976 043c 9EE6     		b	.L52
 977              	.LVL98:
 978              	.L60:
 979 043e 111C     		mov	r1, r2
 980 0440 0B4B     		ldr	r3, .L63+24
 981 0442 9A5C     		ldrb	r2, [r3, r2]
 982 0444 D200     		lsl	r2, r2, #3
 983 0446 0C48     		ldr	r0, .L63+32
 984 0448 8218     		add	r2, r0, r2
 985 044a 5588     		ldrh	r5, [r2, #2]
 986 044c 0B48     		ldr	r0, .L63+36
 987 044e 2840     		and	r0, r5
 988 0450 5080     		strh	r0, [r2, #2]
 989              	.LVL99:
 990 0452 93E6     		b	.L52
 991              	.LVL100:
 992              	.L1:
 993              	.LBE171:
 994              	.LBE175:
 995              	.LBE180:
 996              	.LBE181:
 997              	.LBE208:
 998              	.LBE215:
 999              		.loc 1 118 0
 1000 0454 02B0     		add	sp, sp, #8
 1001              		@ sp needed
 1002              	.LVL101:
 1003 0456 70BD     		pop	{r4, r5, r6, pc}
 1004              	.L64:
 1005              		.align	2
 1006              	.L63:
 1007 0458 00000000 		.word	USB_ControlRequest
 1008 045c 00000840 		.word	1074266112
 1009 0460 00000000 		.word	usb_data_buffer_index
 1010 0464 00000000 		.word	.LANCHOR2
 1011 0468 00000000 		.word	USB_DeviceState
 1012 046c 00000000 		.word	endpointhandle1
 1013 0470 00000000 		.word	endpointhandle0
 1014 0474 00000000 		.word	endpointselected
 1015 0478 00000000 		.word	EndPointCmdStsList
 1016 047c FFDFFFFF 		.word	-8193
 1017              		.cfi_endproc
 1018              	.LFE97:
 1019              		.size	USB_Device_ProcessControlRequest, .-USB_Device_ProcessControlRequest
 1020              		.global	USB_Device_RemoteWakeupEnabled
 1021              		.global	USB_Device_CurrentlySelfPowered
 1022              		.global	USB_Device_ConfigurationNumber
 1023              		.section	.bss.USB_Device_CurrentlySelfPowered,"aw",%nobits
 1024              		.set	.LANCHOR0,. + 0
 1025              		.type	USB_Device_CurrentlySelfPowered, %object
 1026              		.size	USB_Device_CurrentlySelfPowered, 1
ARM GAS  /tmp/cc30ujBa.s 			page 19


 1027              	USB_Device_CurrentlySelfPowered:
 1028 0000 00       		.space	1
 1029              		.section	.bss.USB_Device_ConfigurationNumber,"aw",%nobits
 1030              		.set	.LANCHOR2,. + 0
 1031              		.type	USB_Device_ConfigurationNumber, %object
 1032              		.size	USB_Device_ConfigurationNumber, 1
 1033              	USB_Device_ConfigurationNumber:
 1034 0000 00       		.space	1
 1035              		.section	.bss.USB_Device_RemoteWakeupEnabled,"aw",%nobits
 1036              		.set	.LANCHOR1,. + 0
 1037              		.type	USB_Device_RemoteWakeupEnabled, %object
 1038              		.size	USB_Device_RemoteWakeupEnabled, 1
 1039              	USB_Device_RemoteWakeupEnabled:
 1040 0000 00       		.space	1
 1041              		.text
 1042              	.Letext0:
 1043              		.file 5 "/usr/local/lpcxpresso_7.3.0_186/lpcxpresso/tools/arm-none-eabi/include/machine/_default_t
 1044              		.file 6 "/usr/local/lpcxpresso_7.3.0_186/lpcxpresso/tools/arm-none-eabi/include/stdint.h"
 1045              		.file 7 "USBlib_11U14/Drivers/USB/Core/../../../Common/Common.h"
 1046              		.file 8 "USBlib_11U14/Drivers/USB/Core/StdRequestType.h"
 1047              		.file 9 "CMSIS_CORE_LPC11Uxx/inc/LPC11Uxx.h"
 1048              		.file 10 "USBlib_11U14/Drivers/USB/Core/DCD/LPC11UXX/../../HAL/LPC11UXX/HAL_LPC11Uxx.h"
 1049              		.file 11 "USBlib_11U14/Drivers/USB/Core/Device.h"
 1050              		.file 12 "USBlib_11U14/Drivers/USB/Core/DCD/LPC11UXX/../EndpointCommon.h"
 1051              		.file 13 "USBlib_11U14/Drivers/USB/Core/USBTask.h"
 1052              		.file 14 "USBlib_11U14/Drivers/USB/Core/EndpointStream.h"
 1053              		.file 15 "USBlib_11U14/Drivers/USB/Core/Events.h"