ARM GAS  /tmp/cc30ujBa.s 			page 1


   1              		.cpu cortex-m0
   2              		.fpu softvfp
   3              		.eabi_attribute 20, 1
   4              		.eabi_attribute 21, 1
   5              		.eabi_attribute 23, 3
   6              		.eabi_attribute 24, 1
   7              		.eabi_attribute 25, 1
   8              		.eabi_attribute 26, 1
   9              		.eabi_attribute 30, 1
  10              		.eabi_attribute 34, 0
  11              		.eabi_attribute 18, 4
  12              		.code	16
  13              		.file	"DeviceStandardReq.c"
  14              		.text
  15              	.Ltext0:
  16              		.cfi_sections	.debug_frame
  17              		.section	.text.USB_Device_ProcessControlRequest,"ax",%progbits
  18              		.align	2
  19              		.global	USB_Device_ProcessControlRequest
  20              		.code	16
  21              		.thumb_func
  22              		.type	USB_Device_ProcessControlRequest, %function
  23              	USB_Device_ProcessControlRequest:
  24              	.LFB97:
  25              		.file 1 "USBlib_11U14/Drivers/USB/Core/DeviceStandardReq.c"
  26              		.loc 1 53 0
  27              		.cfi_startproc
  28              	.LVL0:
  29 0000 70B5     		push	{r4, r5, r6, lr}
  30              		.cfi_def_cfa_offset 16
  31              		.cfi_offset 4, -16
  32              		.cfi_offset 5, -12
  33              		.cfi_offset 6, -8
  34              		.cfi_offset 14, -4
  35 0002 82B0     		sub	sp, sp, #8
  36              		.cfi_def_cfa_offset 24
  37 0004 041C     		mov	r4, r0
  38              		.loc 1 60 0
  39 0006 C849     		ldr	r1, .L61
  40 0008 FFF7FEFF 		bl	Endpoint_GetSetupPackage
  41              	.LVL1:
  42              		.loc 1 62 0
  43 000c FFF7FEFF 		bl	EVENT_USB_Device_ControlRequest
  44              	.LVL2:
  45              	.LBB142:
  46              	.LBB143:
  47              		.file 2 "USBlib_11U14/Drivers/USB/Core/DCD/LPC11UXX/Endpoint_LPC11Uxx.h"
  48              		.loc 2 310 0
  49 0010 C64B     		ldr	r3, .L61+4
  50 0012 1B68     		ldr	r3, [r3]
  51              	.LBE143:
  52              	.LBE142:
  53              		.loc 1 64 0
  54 0014 DA05     		lsl	r2, r3, #23
  55 0016 00D4     		bmi	.LCB30
  56 0018 C9E1     		b	.L2	@long jump
  57              	.LCB30:
ARM GAS  /tmp/cc30ujBa.s 			page 2


  58              	.LBB144:
  59              		.loc 1 66 0
  60 001a C34B     		ldr	r3, .L61
  61 001c 1A78     		ldrb	r2, [r3]
  62              	.LVL3:
  63              		.loc 1 68 0
  64 001e 5B78     		ldrb	r3, [r3, #1]
  65              	.LVL4:
  66 0020 092B     		cmp	r3, #9
  67 0022 00D9     		bls	.LCB38
  68 0024 C3E1     		b	.L2	@long jump
  69              	.LCB38:
  70 0026 9900     		lsl	r1, r3, #2
  71 0028 C148     		ldr	r0, .L61+8
  72 002a 4158     		ldr	r1, [r0, r1]
  73 002c 8F46     		mov	pc, r1
  74              		.section	.rodata.USB_Device_ProcessControlRequest,"a",%progbits
  75              		.align	2
  76              	.L4:
  77 0000 2E000000 		.word	.L3
  78 0004 3C010000 		.word	.L5
  79 0008 AE030000 		.word	.L2
  80 000c 3C010000 		.word	.L5
  81 0010 AE030000 		.word	.L2
  82 0014 AC010000 		.word	.L6
  83 0018 10020000 		.word	.L7
  84 001c AE030000 		.word	.L2
  85 0020 8C020000 		.word	.L8
  86 0024 68030000 		.word	.L9
  87              		.section	.text.USB_Device_ProcessControlRequest
  88              	.L3:
  89              		.loc 1 71 0
  90 002e 802A     		cmp	r2, #128
  91 0030 03D0     		beq	.L10
  92              		.loc 1 71 0 is_stmt 0 discriminator 1
  93 0032 822A     		cmp	r2, #130
  94 0034 00D0     		beq	.LCB53
  95 0036 BAE1     		b	.L2	@long jump
  96              	.LCB53:
  97 0038 08E0     		b	.L11
  98              	.L10:
  99              	.LVL5:
 100              	.LBB145:
 101              	.LBB146:
 102              		.loc 1 295 0 is_stmt 1
 103 003a BE4B     		ldr	r3, .L61+12
 104              		.loc 1 288 0
 105 003c 1B78     		ldrb	r3, [r3]
 106              	.LVL6:
 107              		.loc 1 300 0
 108 003e BE4A     		ldr	r2, .L61+16
 109 0040 1278     		ldrb	r2, [r2]
 110 0042 002A     		cmp	r2, #0
 111 0044 15D0     		beq	.L12
 112              		.loc 1 301 0
 113 0046 0222     		mov	r2, #2
 114 0048 1343     		orr	r3, r2
ARM GAS  /tmp/cc30ujBa.s 			page 3


 115              	.LVL7:
 116 004a 12E0     		b	.L12
 117              	.LVL8:
 118              	.L11:
 119              		.loc 1 307 0
 120 004c B64B     		ldr	r3, .L61
 121              	.LVL9:
 122 004e 1A79     		ldrb	r2, [r3, #4]
 123 0050 0F23     		mov	r3, #15
 124              	.LVL10:
 125 0052 1340     		and	r3, r2
 126              	.LVL11:
 127              	.LBB147:
 128              	.LBB148:
 129              		.loc 2 375 0
 130 0054 002C     		cmp	r4, #0
 131 0056 01D0     		beq	.L53
 132 0058 B84A     		ldr	r2, .L61+20
 133 005a 00E0     		b	.L13
 134              	.L53:
 135 005c B84A     		ldr	r2, .L61+24
 136              	.L13:
 137 005e D35C     		ldrb	r3, [r2, r3]
 138              	.LVL12:
 139 0060 DB00     		lsl	r3, r3, #3
 140 0062 B84A     		ldr	r2, .L61+28
 141 0064 D318     		add	r3, r2, r3
 142 0066 5B88     		ldrh	r3, [r3, #2]
 143 0068 9B04     		lsl	r3, r3, #18
 144 006a DB0F     		lsr	r3, r3, #31
 145              	.LVL13:
 146              	.LBE148:
 147              	.LBE147:
 148              	.LBB149:
 149              	.LBB150:
 150              		.file 3 "USBlib_11U14/Drivers/USB/Core/Endpoint.h"
 151              		.loc 3 205 0
 152 006c 0021     		mov	r1, #0
 153 006e B64A     		ldr	r2, .L61+32
 154 0070 1155     		strb	r1, [r2, r4]
 155              	.LVL14:
 156              	.L12:
 157              	.LBE150:
 158              	.LBE149:
 159              	.LBB151:
 160              	.LBB152:
 161              		.loc 2 318 0
 162 0072 AE4A     		ldr	r2, .L61+4
 163 0074 1068     		ldr	r0, [r2]
 164 0076 8021     		mov	r1, #128
 165 0078 4900     		lsl	r1, r1, #1
 166 007a 0143     		orr	r1, r0
 167 007c 1160     		str	r1, [r2]
 168              	.LVL15:
 169              		.loc 2 319 0
 170 007e A200     		lsl	r2, r4, #2
 171 0080 0020     		mov	r0, #0
ARM GAS  /tmp/cc30ujBa.s 			page 4


 172 0082 B249     		ldr	r1, .L61+36
 173 0084 5050     		str	r0, [r2, r1]
 174              	.LBE152:
 175              	.LBE151:
 176              		.loc 1 321 0
 177 0086 191C     		mov	r1, r3
 178              	.LVL16:
 179              	.LBB153:
 180              	.LBB154:
 181              	.LBB155:
 182              	.LBB156:
 183              		.loc 3 284 0
 184 0088 AF4A     		ldr	r2, .L61+32
 185 008a 125D     		ldrb	r2, [r2, r4]
 186 008c 002A     		cmp	r2, #0
 187 008e 0AD1     		bne	.L14
 188              		.loc 3 285 0
 189 0090 AE4A     		ldr	r2, .L61+36
 190 0092 A000     		lsl	r0, r4, #2
 191 0094 8558     		ldr	r5, [r0, r2]
 192 0096 6602     		lsl	r6, r4, #9
 193 0098 7619     		add	r6, r6, r5
 194 009a AD4D     		ldr	r5, .L61+40
 195 009c 7355     		strb	r3, [r6, r5]
 196              		.loc 3 286 0
 197 009e 8358     		ldr	r3, [r0, r2]
 198              	.LVL17:
 199 00a0 0133     		add	r3, r3, #1
 200 00a2 8350     		str	r3, [r0, r2]
 201 00a4 09E0     		b	.L15
 202              	.L14:
 203              		.loc 3 289 0
 204 00a6 AB4A     		ldr	r2, .L61+44
 205 00a8 A000     		lsl	r0, r4, #2
 206 00aa 8558     		ldr	r5, [r0, r2]
 207 00ac 6602     		lsl	r6, r4, #9
 208 00ae 7619     		add	r6, r6, r5
 209 00b0 A94D     		ldr	r5, .L61+48
 210 00b2 7355     		strb	r3, [r6, r5]
 211              		.loc 3 290 0
 212 00b4 8358     		ldr	r3, [r0, r2]
 213 00b6 0133     		add	r3, r3, #1
 214 00b8 8350     		str	r3, [r0, r2]
 215              	.L15:
 216              	.LBE156:
 217              	.LBE155:
 218              		.loc 3 372 0
 219 00ba 090A     		lsr	r1, r1, #8
 220              	.LVL18:
 221 00bc C9B2     		uxtb	r1, r1
 222              	.LVL19:
 223              	.LBB157:
 224              	.LBB158:
 225              		.loc 3 284 0
 226 00be A24B     		ldr	r3, .L61+32
 227 00c0 1B5D     		ldrb	r3, [r3, r4]
 228 00c2 002B     		cmp	r3, #0
ARM GAS  /tmp/cc30ujBa.s 			page 5


 229 00c4 0AD1     		bne	.L16
 230              		.loc 3 285 0
 231 00c6 A14B     		ldr	r3, .L61+36
 232 00c8 A200     		lsl	r2, r4, #2
 233 00ca D058     		ldr	r0, [r2, r3]
 234 00cc 6502     		lsl	r5, r4, #9
 235 00ce 2D18     		add	r5, r5, r0
 236 00d0 9F48     		ldr	r0, .L61+40
 237 00d2 2954     		strb	r1, [r5, r0]
 238              		.loc 3 286 0
 239 00d4 D158     		ldr	r1, [r2, r3]
 240              	.LVL20:
 241 00d6 0131     		add	r1, r1, #1
 242 00d8 D150     		str	r1, [r2, r3]
 243 00da 09E0     		b	.L17
 244              	.LVL21:
 245              	.L16:
 246              		.loc 3 289 0
 247 00dc 9D4B     		ldr	r3, .L61+44
 248 00de A200     		lsl	r2, r4, #2
 249 00e0 D058     		ldr	r0, [r2, r3]
 250 00e2 6502     		lsl	r5, r4, #9
 251 00e4 2D18     		add	r5, r5, r0
 252 00e6 9C48     		ldr	r0, .L61+48
 253 00e8 2954     		strb	r1, [r5, r0]
 254              		.loc 3 290 0
 255 00ea D158     		ldr	r1, [r2, r3]
 256              	.LVL22:
 257 00ec 0131     		add	r1, r1, #1
 258 00ee D150     		str	r1, [r2, r3]
 259              	.L17:
 260              	.LVL23:
 261              	.LBE158:
 262              	.LBE157:
 263              	.LBE154:
 264              	.LBE153:
 265              	.LBB159:
 266              	.LBB160:
 267              		.loc 2 327 0
 268 00f0 954B     		ldr	r3, .L61+32
 269 00f2 1B5D     		ldrb	r3, [r3, r4]
 270 00f4 002B     		cmp	r3, #0
 271 00f6 07D0     		beq	.L18
 272 00f8 002C     		cmp	r4, #0
 273 00fa 01D0     		beq	.L54
 274 00fc 8F4A     		ldr	r2, .L61+20
 275 00fe 00E0     		b	.L19
 276              	.L54:
 277 0100 8F4A     		ldr	r2, .L61+24
 278              	.L19:
 279 0102 D05C     		ldrb	r0, [r2, r3]
 280              	.LVL24:
 281              		.loc 2 328 0
 282 0104 0128     		cmp	r0, #1
 283 0106 0BD1     		bne	.L20
 284              	.LVL25:
 285              	.L18:
ARM GAS  /tmp/cc30ujBa.s 			page 6


 286              		.loc 2 329 0
 287 0108 904D     		ldr	r5, .L61+36
 288 010a A600     		lsl	r6, r4, #2
 289 010c 7259     		ldr	r2, [r6, r5]
 290 010e 6302     		lsl	r3, r4, #9
 291 0110 8F49     		ldr	r1, .L61+40
 292 0112 5918     		add	r1, r3, r1
 293 0114 0120     		mov	r0, #1
 294 0116 FFF7FEFF 		bl	DcdDataTransfer
 295              	.LVL26:
 296              		.loc 2 330 0
 297 011a 0023     		mov	r3, #0
 298 011c 7351     		str	r3, [r6, r5]
 299 011e 09E0     		b	.L21
 300              	.LVL27:
 301              	.L20:
 302              		.loc 2 333 0
 303 0120 8C4D     		ldr	r5, .L61+44
 304 0122 A600     		lsl	r6, r4, #2
 305 0124 7259     		ldr	r2, [r6, r5]
 306              	.LVL28:
 307 0126 6302     		lsl	r3, r4, #9
 308 0128 8B49     		ldr	r1, .L61+48
 309 012a 5918     		add	r1, r3, r1
 310 012c FFF7FEFF 		bl	DcdDataTransfer
 311              	.LVL29:
 312              		.loc 2 334 0
 313 0130 0023     		mov	r3, #0
 314 0132 7351     		str	r3, [r6, r5]
 315              	.L21:
 316              	.LBE160:
 317              	.LBE159:
 318              		.loc 1 324 0
 319 0134 201C     		mov	r0, r4
 320 0136 FFF7FEFF 		bl	Endpoint_ClearStatusStage
 321              	.LVL30:
 322 013a 38E1     		b	.L2
 323              	.LVL31:
 324              	.L5:
 325              	.LBE146:
 326              	.LBE145:
 327              		.loc 1 80 0
 328 013c 002A     		cmp	r2, #0
 329 013e 00D1     		bne	.LCB348
 330 0140 5CE1     		b	.L22	@long jump
 331              	.LCB348:
 332              		.loc 1 80 0 is_stmt 0 discriminator 1
 333 0142 022A     		cmp	r2, #2
 334 0144 00D0     		beq	.LCB350
 335 0146 32E1     		b	.L2	@long jump
 336              	.LCB350:
 337 0148 5DE1     		b	.L23
 338              	.LVL32:
 339              	.L50:
 340              	.LBB161:
 341              	.LBB162:
 342              		.loc 1 334 0 is_stmt 1
ARM GAS  /tmp/cc30ujBa.s 			page 7


 343 014a 033B     		sub	r3, r3, #3
 344 014c 5A42     		neg	r2, r3
 345 014e 5341     		adc	r3, r3, r2
 346 0150 794A     		ldr	r2, .L61+16
 347 0152 1370     		strb	r3, [r2]
 348 0154 1AE0     		b	.L24
 349              	.L51:
 350              	.LBB163:
 351              		.loc 1 344 0
 352 0156 744A     		ldr	r2, .L61
 353              	.LVL33:
 354 0158 1179     		ldrb	r1, [r2, #4]
 355 015a 0F22     		mov	r2, #15
 356              	.LVL34:
 357 015c 0A40     		and	r2, r1
 358              	.LVL35:
 359              		.loc 1 346 0
 360 015e 00D1     		bne	.LCB382
 361 0160 25E1     		b	.L2	@long jump
 362              	.LCB382:
 363              	.LVL36:
 364              	.LBB164:
 365              	.LBB165:
 366              		.loc 3 205 0
 367 0162 7949     		ldr	r1, .L61+32
 368              	.LVL37:
 369 0164 0A55     		strb	r2, [r1, r4]
 370              	.LBE165:
 371              	.LBE164:
 372              		.loc 1 353 0
 373 0166 032B     		cmp	r3, #3
 374 0168 04D1     		bne	.L25
 375              	.LVL38:
 376              	.LBB166:
 377              	.LBB167:
 378              		.loc 2 356 0
 379 016a 002C     		cmp	r4, #0
 380 016c 00D0     		beq	.LCB399
 381 016e 50E1     		b	.L26	@long jump
 382              	.LCB399:
 383 0170 734B     		ldr	r3, .L61+24
 384 0172 4FE1     		b	.L27
 385              	.LVL39:
 386              	.L25:
 387              	.LBE167:
 388              	.LBE166:
 389              	.LBB169:
 390              	.LBB170:
 391              		.loc 2 367 0
 392 0174 002C     		cmp	r4, #0
 393 0176 00D0     		beq	.LCB412
 394 0178 56E1     		b	.L28	@long jump
 395              	.LCB412:
 396 017a 60E1     		b	.L60
 397              	.L52:
 398              	.LBE170:
 399              	.LBE169:
ARM GAS  /tmp/cc30ujBa.s 			page 8


 400              	.LBB172:
 401              	.LBB173:
 402              		.loc 2 383 0
 403 017c 5B5C     		ldrb	r3, [r3, r1]
 404 017e DB00     		lsl	r3, r3, #3
 405 0180 704A     		ldr	r2, .L61+28
 406 0182 D318     		add	r3, r2, r3
 407 0184 D978     		ldrb	r1, [r3, #3]
 408 0186 1022     		mov	r2, #16
 409 0188 0A43     		orr	r2, r1
 410 018a DA70     		strb	r2, [r3, #3]
 411              	.LVL40:
 412              	.L24:
 413              	.LBE173:
 414              	.LBE172:
 415              	.LBE163:
 416              	.LBB176:
 417              	.LBB177:
 418              		.loc 3 205 0
 419 018c 0023     		mov	r3, #0
 420 018e 6E4A     		ldr	r2, .L61+32
 421 0190 1355     		strb	r3, [r2, r4]
 422              	.LVL41:
 423              	.LBE177:
 424              	.LBE176:
 425              	.LBB178:
 426              	.LBB179:
 427              		.loc 2 318 0
 428 0192 664A     		ldr	r2, .L61+4
 429 0194 1068     		ldr	r0, [r2]
 430 0196 8021     		mov	r1, #128
 431 0198 4900     		lsl	r1, r1, #1
 432 019a 0143     		orr	r1, r0
 433 019c 1160     		str	r1, [r2]
 434              	.LVL42:
 435              		.loc 2 319 0
 436 019e A200     		lsl	r2, r4, #2
 437 01a0 6A49     		ldr	r1, .L61+36
 438 01a2 5350     		str	r3, [r2, r1]
 439              	.LBE179:
 440              	.LBE178:
 441              		.loc 1 376 0
 442 01a4 201C     		mov	r0, r4
 443 01a6 FFF7FEFF 		bl	Endpoint_ClearStatusStage
 444              	.LVL43:
 445 01aa 00E1     		b	.L2
 446              	.LVL44:
 447              	.L6:
 448              	.LBE162:
 449              	.LBE161:
 450              		.loc 1 88 0
 451 01ac 002A     		cmp	r2, #0
 452 01ae 00D0     		beq	.LCB479
 453 01b0 FDE0     		b	.L2	@long jump
 454              	.LCB479:
 455              	.LVL45:
 456              	.LBB182:
ARM GAS  /tmp/cc30ujBa.s 			page 9


 457              	.LBB183:
 458              		.loc 1 122 0
 459 01b2 5D4B     		ldr	r3, .L61
 460              	.LVL46:
 461 01b4 9D78     		ldrb	r5, [r3, #2]
 462 01b6 7F23     		mov	r3, #127
 463              	.LVL47:
 464 01b8 1D40     		and	r5, r3
 465              	.LVL48:
 466              	.LBB184:
 467              	.LBB185:
 468              		.loc 2 318 0
 469 01ba 5C4B     		ldr	r3, .L61+4
 470 01bc 1968     		ldr	r1, [r3]
 471 01be 8022     		mov	r2, #128
 472 01c0 5200     		lsl	r2, r2, #1
 473 01c2 0A43     		orr	r2, r1
 474 01c4 1A60     		str	r2, [r3]
 475              	.LVL49:
 476              		.loc 2 319 0
 477 01c6 A300     		lsl	r3, r4, #2
 478 01c8 0021     		mov	r1, #0
 479 01ca 604A     		ldr	r2, .L61+36
 480 01cc 9950     		str	r1, [r3, r2]
 481              	.LBE185:
 482              	.LBE184:
 483              		.loc 1 128 0
 484 01ce 201C     		mov	r0, r4
 485 01d0 FFF7FEFF 		bl	Endpoint_ClearStatusStage
 486              	.LVL50:
 487              	.LBB186:
 488              	.LBB187:
 489              		.loc 2 292 0
 490 01d4 5C4B     		ldr	r3, .L61+32
 491 01d6 1A5D     		ldrb	r2, [r3, r4]
 492 01d8 002C     		cmp	r4, #0
 493 01da 01D0     		beq	.L30
 494 01dc 574E     		ldr	r6, .L61+20
 495 01de 00E0     		b	.L31
 496              	.L30:
 497 01e0 574E     		ldr	r6, .L61+24
 498              	.L31:
 499 01e2 B618     		add	r6, r6, r2
 500              		.loc 2 291 0
 501 01e4 0120     		mov	r0, #1
 502              		.loc 2 293 0
 503 01e6 5749     		ldr	r1, .L61+28
 504              	.L34:
 505              	.LVL51:
 506              		.loc 2 291 0
 507 01e8 031C     		mov	r3, r0
 508 01ea 002A     		cmp	r2, #0
 509 01ec 00D0     		beq	.L32
 510 01ee 3378     		ldrb	r3, [r6]
 511              	.L32:
 512              	.LVL52:
 513              		.loc 2 293 0
ARM GAS  /tmp/cc30ujBa.s 			page 10


 514 01f0 DB00     		lsl	r3, r3, #3
 515              	.LVL53:
 516 01f2 CB18     		add	r3, r1, r3
 517 01f4 5B88     		ldrh	r3, [r3, #2]
 518 01f6 DB0B     		lsr	r3, r3, #15
 519              	.LBE187:
 520              	.LBE186:
 521              		.loc 1 130 0
 522 01f8 012B     		cmp	r3, #1
 523 01fa F5D0     		beq	.L34
 524              	.LVL54:
 525              	.LBB188:
 526              	.LBB189:
 527              		.file 4 "USBlib_11U14/Drivers/USB/Core/DCD/LPC11UXX/Device_LPC11Uxx.h"
 528              		.loc 4 143 0
 529 01fc 281C     		mov	r0, r5
 530 01fe FFF7FEFF 		bl	HAL_SetDeviceAddress
 531              	.LVL55:
 532              	.LBE189:
 533              	.LBE188:
 534              		.loc 1 133 0
 535 0202 6B42     		neg	r3, r5
 536 0204 6B41     		adc	r3, r3, r5
 537              	.LVL56:
 538 0206 0325     		mov	r5, #3
 539 0208 ED1A     		sub	r5, r5, r3
 540 020a 544B     		ldr	r3, .L61+52
 541 020c 1D55     		strb	r5, [r3, r4]
 542              	.LVL57:
 543 020e CEE0     		b	.L2
 544              	.LVL58:
 545              	.L7:
 546              	.LBE183:
 547              	.LBE182:
 548              		.loc 1 93 0
 549 0210 803A     		sub	r2, r2, #128
 550 0212 D2B2     		uxtb	r2, r2
 551 0214 012A     		cmp	r2, #1
 552 0216 00D9     		bls	.LCB587
 553 0218 C9E0     		b	.L2	@long jump
 554              	.LCB587:
 555              	.LVL59:
 556              	.LBB190:
 557              	.LBB191:
 558              		.loc 1 255 0
 559 021a 434B     		ldr	r3, .L61
 560              	.LVL60:
 561 021c 9A78     		ldrb	r2, [r3, #2]
 562 021e D978     		ldrb	r1, [r3, #3]
 563 0220 0902     		lsl	r1, r1, #8
 564 0222 1143     		orr	r1, r2
 565 0224 1A79     		ldrb	r2, [r3, #4]
 566 0226 201C     		mov	r0, r4
 567 0228 01AB     		add	r3, sp, #4
 568              	.LVL61:
 569 022a FFF7FEFF 		bl	CALLBACK_USB_GetDescriptor
 570              	.LVL62:
ARM GAS  /tmp/cc30ujBa.s 			page 11


 571 022e 021E     		sub	r2, r0, #0
 572              	.LVL63:
 573 0230 00D1     		bne	.LCB613
 574 0232 BCE0     		b	.L2	@long jump
 575              	.LCB613:
 576              	.LVL64:
 577              	.LBB192:
 578              	.LBB193:
 579              		.loc 2 318 0
 580 0234 3D4B     		ldr	r3, .L61+4
 581 0236 1868     		ldr	r0, [r3]
 582              	.LVL65:
 583 0238 8021     		mov	r1, #128
 584 023a 4900     		lsl	r1, r1, #1
 585 023c 0143     		orr	r1, r0
 586 023e 1960     		str	r1, [r3]
 587              		.loc 2 319 0
 588 0240 A300     		lsl	r3, r4, #2
 589 0242 0020     		mov	r0, #0
 590 0244 4149     		ldr	r1, .L61+36
 591 0246 5850     		str	r0, [r3, r1]
 592              	.LBE193:
 593              	.LBE192:
 594              		.loc 1 269 0
 595 0248 201C     		mov	r0, r4
 596 024a 0199     		ldr	r1, [sp, #4]
 597 024c FFF7FEFF 		bl	Endpoint_Write_Control_Stream_LE
 598              	.LVL66:
 599              	.LBB194:
 600              	.LBB195:
 601              		.loc 2 343 0
 602 0250 3D4B     		ldr	r3, .L61+32
 603 0252 1B5D     		ldrb	r3, [r3, r4]
 604 0254 002B     		cmp	r3, #0
 605 0256 04D1     		bne	.L37
 606              		.loc 2 344 0
 607 0258 A200     		lsl	r2, r4, #2
 608 025a 0020     		mov	r0, #0
 609 025c 3B49     		ldr	r1, .L61+36
 610 025e 5050     		str	r0, [r2, r1]
 611 0260 03E0     		b	.L38
 612              	.L37:
 613              		.loc 2 346 0
 614 0262 A200     		lsl	r2, r4, #2
 615 0264 0020     		mov	r0, #0
 616 0266 3E49     		ldr	r1, .L61+56
 617 0268 5050     		str	r0, [r2, r1]
 618              	.L38:
 619              		.loc 2 348 0
 620 026a 002C     		cmp	r4, #0
 621 026c 01D0     		beq	.L57
 622 026e 334A     		ldr	r2, .L61+20
 623 0270 00E0     		b	.L39
 624              	.L57:
 625 0272 334A     		ldr	r2, .L61+24
 626              	.L39:
 627 0274 D35C     		ldrb	r3, [r2, r3]
ARM GAS  /tmp/cc30ujBa.s 			page 12


 628 0276 DB00     		lsl	r3, r3, #3
 629 0278 324A     		ldr	r2, .L61+28
 630 027a D318     		add	r3, r2, r3
 631 027c 5988     		ldrh	r1, [r3, #2]
 632 027e 890A     		lsr	r1, r1, #10
 633 0280 8902     		lsl	r1, r1, #10
 634 0282 8022     		mov	r2, #128
 635 0284 9200     		lsl	r2, r2, #2
 636 0286 0A43     		orr	r2, r1
 637 0288 5A80     		strh	r2, [r3, #2]
 638 028a 90E0     		b	.L2
 639              	.LVL67:
 640              	.L8:
 641              	.LBE195:
 642              	.LBE194:
 643              	.LBE191:
 644              	.LBE190:
 645              		.loc 1 101 0
 646 028c 802A     		cmp	r2, #128
 647 028e 00D0     		beq	.LCB696
 648 0290 8DE0     		b	.L2	@long jump
 649              	.LCB696:
 650              	.LVL68:
 651              	.LBB196:
 652              	.LBB197:
 653              	.LBB198:
 654              	.LBB199:
 655              		.loc 2 318 0
 656 0292 264B     		ldr	r3, .L61+4
 657 0294 1968     		ldr	r1, [r3]
 658 0296 5200     		lsl	r2, r2, #1
 659 0298 0A43     		orr	r2, r1
 660 029a 1A60     		str	r2, [r3]
 661              	.LVL69:
 662              		.loc 2 319 0
 663 029c A300     		lsl	r3, r4, #2
 664 029e 0021     		mov	r1, #0
 665 02a0 2A4A     		ldr	r2, .L61+36
 666 02a2 9950     		str	r1, [r3, r2]
 667              	.LBE199:
 668              	.LBE198:
 669              		.loc 1 210 0
 670 02a4 2F4B     		ldr	r3, .L61+60
 671 02a6 1A78     		ldrb	r2, [r3]
 672              	.LVL70:
 673              	.LBB200:
 674              	.LBB201:
 675              		.loc 3 284 0
 676 02a8 274B     		ldr	r3, .L61+32
 677 02aa 1B5D     		ldrb	r3, [r3, r4]
 678 02ac 002B     		cmp	r3, #0
 679 02ae 0AD1     		bne	.L40
 680              		.loc 3 285 0
 681 02b0 264B     		ldr	r3, .L61+36
 682 02b2 A100     		lsl	r1, r4, #2
 683 02b4 C858     		ldr	r0, [r1, r3]
 684 02b6 6502     		lsl	r5, r4, #9
ARM GAS  /tmp/cc30ujBa.s 			page 13


 685 02b8 2D18     		add	r5, r5, r0
 686 02ba 2548     		ldr	r0, .L61+40
 687 02bc 2A54     		strb	r2, [r5, r0]
 688              		.loc 3 286 0
 689 02be CA58     		ldr	r2, [r1, r3]
 690 02c0 0132     		add	r2, r2, #1
 691 02c2 CA50     		str	r2, [r1, r3]
 692 02c4 09E0     		b	.L41
 693              	.L40:
 694              		.loc 3 289 0
 695 02c6 234B     		ldr	r3, .L61+44
 696 02c8 A100     		lsl	r1, r4, #2
 697 02ca C858     		ldr	r0, [r1, r3]
 698 02cc 6502     		lsl	r5, r4, #9
 699 02ce 2D18     		add	r5, r5, r0
 700 02d0 2148     		ldr	r0, .L61+48
 701 02d2 2A54     		strb	r2, [r5, r0]
 702              		.loc 3 290 0
 703 02d4 CA58     		ldr	r2, [r1, r3]
 704 02d6 0132     		add	r2, r2, #1
 705 02d8 CA50     		str	r2, [r1, r3]
 706              	.L41:
 707              	.LVL71:
 708              	.LBE201:
 709              	.LBE200:
 710              	.LBB202:
 711              	.LBB203:
 712              		.loc 2 327 0
 713 02da 1B4B     		ldr	r3, .L61+32
 714 02dc 1B5D     		ldrb	r3, [r3, r4]
 715 02de 002B     		cmp	r3, #0
 716 02e0 07D0     		beq	.L42
 717 02e2 002C     		cmp	r4, #0
 718 02e4 01D0     		beq	.L58
 719 02e6 154A     		ldr	r2, .L61+20
 720 02e8 00E0     		b	.L43
 721              	.L58:
 722 02ea 154A     		ldr	r2, .L61+24
 723              	.L43:
 724 02ec D05C     		ldrb	r0, [r2, r3]
 725              	.LVL72:
 726              		.loc 2 328 0
 727 02ee 0128     		cmp	r0, #1
 728 02f0 0BD1     		bne	.L44
 729              	.LVL73:
 730              	.L42:
 731              		.loc 2 329 0
 732 02f2 164D     		ldr	r5, .L61+36
 733 02f4 A600     		lsl	r6, r4, #2
 734 02f6 7259     		ldr	r2, [r6, r5]
 735 02f8 6302     		lsl	r3, r4, #9
 736 02fa 1549     		ldr	r1, .L61+40
 737 02fc 5918     		add	r1, r3, r1
 738 02fe 0120     		mov	r0, #1
 739 0300 FFF7FEFF 		bl	DcdDataTransfer
 740              	.LVL74:
 741              		.loc 2 330 0
ARM GAS  /tmp/cc30ujBa.s 			page 14


 742 0304 0023     		mov	r3, #0
 743 0306 7351     		str	r3, [r6, r5]
 744 0308 09E0     		b	.L45
 745              	.LVL75:
 746              	.L44:
 747              		.loc 2 333 0
 748 030a 124D     		ldr	r5, .L61+44
 749 030c A600     		lsl	r6, r4, #2
 750 030e 7259     		ldr	r2, [r6, r5]
 751              	.LVL76:
 752 0310 6302     		lsl	r3, r4, #9
 753 0312 1149     		ldr	r1, .L61+48
 754 0314 5918     		add	r1, r3, r1
 755 0316 FFF7FEFF 		bl	DcdDataTransfer
 756              	.LVL77:
 757              		.loc 2 334 0
 758 031a 0023     		mov	r3, #0
 759 031c 7351     		str	r3, [r6, r5]
 760              	.L45:
 761              	.LBE203:
 762              	.LBE202:
 763              		.loc 1 213 0
 764 031e 201C     		mov	r0, r4
 765 0320 FFF7FEFF 		bl	Endpoint_ClearStatusStage
 766              	.LVL78:
 767 0324 43E0     		b	.L2
 768              	.L62:
 769 0326 C046     		.align	2
 770              	.L61:
 771 0328 00000000 		.word	USB_ControlRequest
 772 032c 00000840 		.word	1074266112
 773 0330 00000000 		.word	.L4
 774 0334 00000000 		.word	.LANCHOR0
 775 0338 00000000 		.word	.LANCHOR1
 776 033c 00000000 		.word	endpointhandle1
 777 0340 00000000 		.word	endpointhandle0
 778 0344 00000000 		.word	EndPointCmdStsList
 779 0348 00000000 		.word	endpointselected
 780 034c 00000000 		.word	usb_data_buffer_index
 781 0350 00000000 		.word	usb_data_buffer
 782 0354 00000000 		.word	usb_data_buffer_IN_index
 783 0358 00000000 		.word	usb_data_buffer_IN
 784 035c 00000000 		.word	USB_DeviceState
 785 0360 00000000 		.word	usb_data_buffer_OUT_index
 786 0364 00000000 		.word	.LANCHOR2
 787              	.LVL79:
 788              	.L9:
 789              	.LBE197:
 790              	.LBE196:
 791              		.loc 1 106 0
 792 0368 002A     		cmp	r2, #0
 793 036a 20D1     		bne	.L2
 794              	.LVL80:
 795              	.LBB204:
 796              	.LBB205:
 797              		.loc 1 141 0
 798 036c 3A4B     		ldr	r3, .L63
ARM GAS  /tmp/cc30ujBa.s 			page 15


 799              	.LVL81:
 800 036e 9B78     		ldrb	r3, [r3, #2]
 801              	.LVL82:
 802 0370 012B     		cmp	r3, #1
 803 0372 1CD8     		bhi	.L2
 804              	.LVL83:
 805              	.LBB206:
 806              	.LBB207:
 807              		.loc 2 318 0
 808 0374 394B     		ldr	r3, .L63+4
 809 0376 1968     		ldr	r1, [r3]
 810 0378 8022     		mov	r2, #128
 811 037a 5200     		lsl	r2, r2, #1
 812 037c 0A43     		orr	r2, r1
 813 037e 1A60     		str	r2, [r3]
 814              	.LVL84:
 815              		.loc 2 319 0
 816 0380 A300     		lsl	r3, r4, #2
 817 0382 0021     		mov	r1, #0
 818 0384 364A     		ldr	r2, .L63+8
 819 0386 9950     		str	r1, [r3, r2]
 820              	.LBE207:
 821              	.LBE206:
 822              		.loc 1 192 0
 823 0388 364D     		ldr	r5, .L63+12
 824 038a 334B     		ldr	r3, .L63
 825 038c 9B78     		ldrb	r3, [r3, #2]
 826 038e 2B70     		strb	r3, [r5]
 827              		.loc 1 194 0
 828 0390 201C     		mov	r0, r4
 829 0392 FFF7FEFF 		bl	Endpoint_ClearStatusStage
 830              	.LVL85:
 831              		.loc 1 196 0
 832 0396 2B78     		ldrb	r3, [r5]
 833 0398 002B     		cmp	r3, #0
 834 039a 03D0     		beq	.L46
 835              		.loc 1 197 0
 836 039c 0422     		mov	r2, #4
 837 039e 324B     		ldr	r3, .L63+16
 838 03a0 1A55     		strb	r2, [r3, r4]
 839 03a2 02E0     		b	.L47
 840              	.L46:
 841              		.loc 1 200 0
 842 03a4 0422     		mov	r2, #4
 843 03a6 304B     		ldr	r3, .L63+16
 844 03a8 1A55     		strb	r2, [r3, r4]
 845              	.L47:
 846              		.loc 1 203 0
 847 03aa FFF7FEFF 		bl	EVENT_USB_Device_ConfigurationChanged
 848              	.LVL86:
 849              	.L2:
 850              	.LBE205:
 851              	.LBE204:
 852              	.LBE144:
 853              	.LBB209:
 854              	.LBB210:
 855              		.loc 2 310 0
ARM GAS  /tmp/cc30ujBa.s 			page 16


 856 03ae 2B4B     		ldr	r3, .L63+4
 857 03b0 1B68     		ldr	r3, [r3]
 858              	.LBE210:
 859              	.LBE209:
 860              		.loc 1 113 0
 861 03b2 DA05     		lsl	r2, r3, #23
 862 03b4 4ED5     		bpl	.L1
 863              	.LVL87:
 864              	.LBB211:
 865              	.LBB212:
 866              		.loc 2 318 0
 867 03b6 294B     		ldr	r3, .L63+4
 868 03b8 1968     		ldr	r1, [r3]
 869 03ba 8022     		mov	r2, #128
 870 03bc 5200     		lsl	r2, r2, #1
 871 03be 0A43     		orr	r2, r1
 872 03c0 1A60     		str	r2, [r3]
 873              		.loc 2 319 0
 874 03c2 A300     		lsl	r3, r4, #2
 875 03c4 0021     		mov	r1, #0
 876 03c6 264A     		ldr	r2, .L63+8
 877 03c8 9950     		str	r1, [r3, r2]
 878              	.LVL88:
 879              	.LBE212:
 880              	.LBE211:
 881              	.LBB213:
 882              	.LBB214:
 883              		.loc 2 356 0
 884 03ca 002C     		cmp	r4, #0
 885 03cc 01D0     		beq	.L59
 886 03ce 274A     		ldr	r2, .L63+20
 887 03d0 00E0     		b	.L49
 888              	.L59:
 889 03d2 274A     		ldr	r2, .L63+24
 890              	.L49:
 891 03d4 274B     		ldr	r3, .L63+28
 892 03d6 1B5D     		ldrb	r3, [r3, r4]
 893 03d8 D25C     		ldrb	r2, [r2, r3]
 894 03da D200     		lsl	r2, r2, #3
 895 03dc 2649     		ldr	r1, .L63+32
 896 03de 8A18     		add	r2, r1, r2
 897 03e0 5088     		ldrh	r0, [r2, #2]
 898 03e2 8021     		mov	r1, #128
 899 03e4 8901     		lsl	r1, r1, #6
 900 03e6 0143     		orr	r1, r0
 901 03e8 5180     		strh	r1, [r2, #2]
 902              		.loc 2 357 0
 903 03ea 002B     		cmp	r3, #0
 904 03ec 32D1     		bne	.L1
 905              		.loc 2 358 0
 906 03ee 224B     		ldr	r3, .L63+32
 907 03f0 5989     		ldrh	r1, [r3, #10]
 908 03f2 8022     		mov	r2, #128
 909 03f4 9201     		lsl	r2, r2, #6
 910 03f6 0A43     		orr	r2, r1
 911 03f8 5A81     		strh	r2, [r3, #10]
 912 03fa 2BE0     		b	.L1
ARM GAS  /tmp/cc30ujBa.s 			page 17


 913              	.LVL89:
 914              	.L22:
 915              	.LBE214:
 916              	.LBE213:
 917              	.LBB215:
 918              	.LBB208:
 919              	.LBB181:
 920              		.loc 1 333 0
 921 03fc 164A     		ldr	r2, .L63
 922              	.LVL90:
 923 03fe 9278     		ldrb	r2, [r2, #2]
 924              	.LVL91:
 925 0400 012A     		cmp	r2, #1
 926 0402 D4D1     		bne	.L2
 927 0404 A1E6     		b	.L50
 928              	.LVL92:
 929              	.L23:
 930              		.loc 1 342 0
 931 0406 144A     		ldr	r2, .L63
 932              	.LVL93:
 933 0408 9278     		ldrb	r2, [r2, #2]
 934              	.LVL94:
 935 040a 002A     		cmp	r2, #0
 936 040c 00D1     		bne	.LCB1033
 937 040e A2E6     		b	.L51	@long jump
 938              	.LCB1033:
 939 0410 BCE6     		b	.L24
 940              	.LVL95:
 941              	.L26:
 942              	.LBB180:
 943              	.LBB174:
 944              	.LBB168:
 945              		.loc 2 356 0
 946 0412 164B     		ldr	r3, .L63+20
 947              	.L27:
 948 0414 9B5C     		ldrb	r3, [r3, r2]
 949 0416 DB00     		lsl	r3, r3, #3
 950 0418 174A     		ldr	r2, .L63+32
 951 041a D318     		add	r3, r2, r3
 952 041c 5988     		ldrh	r1, [r3, #2]
 953 041e 8022     		mov	r2, #128
 954 0420 9201     		lsl	r2, r2, #6
 955 0422 0A43     		orr	r2, r1
 956 0424 5A80     		strh	r2, [r3, #2]
 957 0426 B1E6     		b	.L24
 958              	.LVL96:
 959              	.L28:
 960              	.LBE168:
 961              	.LBE174:
 962              	.LBB175:
 963              	.LBB171:
 964              		.loc 2 367 0
 965 0428 111C     		mov	r1, r2
 966 042a 104B     		ldr	r3, .L63+20
 967 042c 9A5C     		ldrb	r2, [r3, r2]
 968 042e D200     		lsl	r2, r2, #3
 969 0430 1148     		ldr	r0, .L63+32
ARM GAS  /tmp/cc30ujBa.s 			page 18


 970 0432 8218     		add	r2, r0, r2
 971 0434 5588     		ldrh	r5, [r2, #2]
 972 0436 1148     		ldr	r0, .L63+36
 973 0438 2840     		and	r0, r5
 974 043a 5080     		strh	r0, [r2, #2]
 975              	.LVL97:
 976 043c 9EE6     		b	.L52
 977              	.LVL98:
 978              	.L60:
 979 043e 111C     		mov	r1, r2
 980 0440 0B4B     		ldr	r3, .L63+24
 981 0442 9A5C     		ldrb	r2, [r3, r2]
 982 0444 D200     		lsl	r2, r2, #3
 983 0446 0C48     		ldr	r0, .L63+32
 984 0448 8218     		add	r2, r0, r2
 985 044a 5588     		ldrh	r5, [r2, #2]
 986 044c 0B48     		ldr	r0, .L63+36
 987 044e 2840     		and	r0, r5
 988 0450 5080     		strh	r0, [r2, #2]
 989              	.LVL99:
 990 0452 93E6     		b	.L52
 991              	.LVL100:
 992              	.L1:
 993              	.LBE171:
 994              	.LBE175:
 995              	.LBE180:
 996              	.LBE181:
 997              	.LBE208:
 998              	.LBE215:
 999              		.loc 1 118 0
 1000 0454 02B0     		add	sp, sp, #8
 1001              		@ sp needed
 1002              	.LVL101:
 1003 0456 70BD     		pop	{r4, r5, r6, pc}
 1004              	.L64:
 1005              		.align	2
 1006              	.L63:
 1007 0458 00000000 		.word	USB_ControlRequest
 1008 045c 00000840 		.word	1074266112
 1009 0460 00000000 		.word	usb_data_buffer_index
 1010 0464 00000000 		.word	.LANCHOR2
 1011 0468 00000000 		.word	USB_DeviceState
 1012 046c 00000000 		.word	endpointhandle1
 1013 0470 00000000 		.word	endpointhandle0
 1014 0474 00000000 		.word	endpointselected
 1015 0478 00000000 		.word	EndPointCmdStsList
 1016 047c FFDFFFFF 		.word	-8193
 1017              		.cfi_endproc
 1018              	.LFE97:
 1019              		.size	USB_Device_ProcessControlRequest, .-USB_Device_ProcessControlRequest
 1020              		.global	USB_Device_RemoteWakeupEnabled
 1021              		.global	USB_Device_CurrentlySelfPowered
 1022              		.global	USB_Device_ConfigurationNumber
 1023              		.section	.bss.USB_Device_CurrentlySelfPowered,"aw",%nobits
 1024              		.set	.LANCHOR0,. + 0
 1025              		.type	USB_Device_CurrentlySelfPowered, %object
 1026              		.size	USB_Device_CurrentlySelfPowered, 1
ARM GAS  /tmp/cc30ujBa.s 			page 19


 1027              	USB_Device_CurrentlySelfPowered:
 1028 0000 00       		.space	1
 1029              		.section	.bss.USB_Device_ConfigurationNumber,"aw",%nobits
 1030              		.set	.LANCHOR2,. + 0
 1031              		.type	USB_Device_ConfigurationNumber, %object
 1032              		.size	USB_Device_ConfigurationNumber, 1
 1033              	USB_Device_ConfigurationNumber:
 1034 0000 00       		.space	1
 1035              		.section	.bss.USB_Device_RemoteWakeupEnabled,"aw",%nobits
 1036              		.set	.LANCHOR1,. + 0
 1037              		.type	USB_Device_RemoteWakeupEnabled, %object
 1038              		.size	USB_Device_RemoteWakeupEnabled, 1
 1039              	USB_Device_RemoteWakeupEnabled:
 1040 0000 00       		.space	1
 1041              		.text
 1042              	.Letext0:
 1043              		.file 5 "/usr/local/lpcxpresso_7.3.0_186/lpcxpresso/tools/arm-none-eabi/include/machine/_default_t
 1044              		.file 6 "/usr/local/lpcxpresso_7.3.0_186/lpcxpresso/tools/arm-none-eabi/include/stdint.h"
 1045              		.file 7 "USBlib_11U14/Drivers/USB/Core/../../../Common/Common.h"
 1046              		.file 8 "USBlib_11U14/Drivers/USB/Core/StdRequestType.h"
 1047              		.file 9 "CMSIS_CORE_LPC11Uxx/inc/LPC11Uxx.h"
 1048              		.file 10 "USBlib_11U14/Drivers/USB/Core/DCD/LPC11UXX/../../HAL/LPC11UXX/HAL_LPC11Uxx.h"
 1049              		.file 11 "USBlib_11U14/Drivers/USB/Core/Device.h"
 1050              		.file 12 "USBlib_11U14/Drivers/USB/Core/DCD/LPC11UXX/../EndpointCommon.h"
 1051              		.file 13 "USBlib_11U14/Drivers/USB/Core/USBTask.h"
 1052              		.file 14 "USBlib_11U14/Drivers/USB/Core/EndpointStream.h"
 1053              		.file 15 "USBlib_11U14/Drivers/USB/Core/Events.h"
 1054              		.section	.debug_info,"",%progbits
 1055              	.Ldebug_info0:
 1056 0000 F30D0000 		.4byte	0xdf3
 1057 0004 0400     		.2byte	0x4
 1058 0006 00000000 		.4byte	.Ldebug_abbrev0
 1059 000a 04       		.byte	0x4
 1060 000b 01       		.uleb128 0x1
 1061 000c 56040000 		.4byte	.LASF134
 1062 0010 01       		.byte	0x1
 1063 0011 E0060000 		.4byte	.LASF135
 1064 0015 08090000 		.4byte	.LASF136
 1065 0019 78000000 		.4byte	.Ldebug_ranges0+0x78
 1066 001d 00000000 		.4byte	0
 1067 0021 00000000 		.4byte	.Ldebug_line0
 1068 0025 02       		.uleb128 0x2
 1069 0026 01       		.byte	0x1
 1070 0027 06       		.byte	0x6
 1071 0028 67000000 		.4byte	.LASF0
 1072 002c 03       		.uleb128 0x3
 1073 002d 73000000 		.4byte	.LASF3
 1074 0031 05       		.byte	0x5
 1075 0032 1C       		.byte	0x1c
 1076 0033 37000000 		.4byte	0x37
 1077 0037 02       		.uleb128 0x2
 1078 0038 01       		.byte	0x1
 1079 0039 08       		.byte	0x8
 1080 003a 5B070000 		.4byte	.LASF1
 1081 003e 02       		.uleb128 0x2
 1082 003f 02       		.byte	0x2
 1083 0040 05       		.byte	0x5
ARM GAS  /tmp/cc30ujBa.s 			page 20


 1084 0041 A2070000 		.4byte	.LASF2
 1085 0045 03       		.uleb128 0x3
 1086 0046 3C080000 		.4byte	.LASF4
 1087 004a 05       		.byte	0x5
 1088 004b 26       		.byte	0x26
 1089 004c 50000000 		.4byte	0x50
 1090 0050 02       		.uleb128 0x2
 1091 0051 02       		.byte	0x2
 1092 0052 07       		.byte	0x7
 1093 0053 DE030000 		.4byte	.LASF5
 1094 0057 03       		.uleb128 0x3
 1095 0058 63080000 		.4byte	.LASF6
 1096 005c 05       		.byte	0x5
 1097 005d 37       		.byte	0x37
 1098 005e 62000000 		.4byte	0x62
 1099 0062 02       		.uleb128 0x2
 1100 0063 04       		.byte	0x4
 1101 0064 05       		.byte	0x5
 1102 0065 0E020000 		.4byte	.LASF7
 1103 0069 03       		.uleb128 0x3
 1104 006a AE020000 		.4byte	.LASF8
 1105 006e 05       		.byte	0x5
 1106 006f 38       		.byte	0x38
 1107 0070 74000000 		.4byte	0x74
 1108 0074 02       		.uleb128 0x2
 1109 0075 04       		.byte	0x4
 1110 0076 07       		.byte	0x7
 1111 0077 78030000 		.4byte	.LASF9
 1112 007b 02       		.uleb128 0x2
 1113 007c 08       		.byte	0x8
 1114 007d 05       		.byte	0x5
 1115 007e 64010000 		.4byte	.LASF10
 1116 0082 02       		.uleb128 0x2
 1117 0083 08       		.byte	0x8
 1118 0084 07       		.byte	0x7
 1119 0085 B2000000 		.4byte	.LASF11
 1120 0089 04       		.uleb128 0x4
 1121 008a 04       		.byte	0x4
 1122 008b 05       		.byte	0x5
 1123 008c 696E7400 		.ascii	"int\000"
 1124 0090 02       		.uleb128 0x2
 1125 0091 04       		.byte	0x4
 1126 0092 07       		.byte	0x7
 1127 0093 0F030000 		.4byte	.LASF12
 1128 0097 03       		.uleb128 0x3
 1129 0098 95090000 		.4byte	.LASF13
 1130 009c 06       		.byte	0x6
 1131 009d 2A       		.byte	0x2a
 1132 009e 2C000000 		.4byte	0x2c
 1133 00a2 03       		.uleb128 0x3
 1134 00a3 64020000 		.4byte	.LASF14
 1135 00a7 06       		.byte	0x6
 1136 00a8 36       		.byte	0x36
 1137 00a9 45000000 		.4byte	0x45
 1138 00ad 03       		.uleb128 0x3
 1139 00ae 53070000 		.4byte	.LASF15
 1140 00b2 06       		.byte	0x6
ARM GAS  /tmp/cc30ujBa.s 			page 21


 1141 00b3 41       		.byte	0x41
 1142 00b4 57000000 		.4byte	0x57
 1143 00b8 03       		.uleb128 0x3
 1144 00b9 F8070000 		.4byte	.LASF16
 1145 00bd 06       		.byte	0x6
 1146 00be 42       		.byte	0x42
 1147 00bf 69000000 		.4byte	0x69
 1148 00c3 02       		.uleb128 0x2
 1149 00c4 04       		.byte	0x4
 1150 00c5 07       		.byte	0x7
 1151 00c6 BD050000 		.4byte	.LASF17
 1152 00ca 02       		.uleb128 0x2
 1153 00cb 01       		.byte	0x1
 1154 00cc 08       		.byte	0x8
 1155 00cd 37080000 		.4byte	.LASF18
 1156 00d1 03       		.uleb128 0x3
 1157 00d2 8A030000 		.4byte	.LASF19
 1158 00d6 07       		.byte	0x7
 1159 00d7 56       		.byte	0x56
 1160 00d8 B8000000 		.4byte	0xb8
 1161 00dc 05       		.uleb128 0x5
 1162 00dd 08       		.byte	0x8
 1163 00de 08       		.byte	0x8
 1164 00df 9E       		.byte	0x9e
 1165 00e0 21010000 		.4byte	0x121
 1166 00e4 06       		.uleb128 0x6
 1167 00e5 D0020000 		.4byte	.LASF20
 1168 00e9 08       		.byte	0x8
 1169 00ea A0       		.byte	0xa0
 1170 00eb 97000000 		.4byte	0x97
 1171 00ef 00       		.byte	0
 1172 00f0 06       		.uleb128 0x6
 1173 00f1 B7070000 		.4byte	.LASF21
 1174 00f5 08       		.byte	0x8
 1175 00f6 A1       		.byte	0xa1
 1176 00f7 97000000 		.4byte	0x97
 1177 00fb 01       		.byte	0x1
 1178 00fc 06       		.uleb128 0x6
 1179 00fd 4C020000 		.4byte	.LASF22
 1180 0101 08       		.byte	0x8
 1181 0102 A2       		.byte	0xa2
 1182 0103 A2000000 		.4byte	0xa2
 1183 0107 02       		.byte	0x2
 1184 0108 06       		.uleb128 0x6
 1185 0109 F5020000 		.4byte	.LASF23
 1186 010d 08       		.byte	0x8
 1187 010e A3       		.byte	0xa3
 1188 010f A2000000 		.4byte	0xa2
 1189 0113 04       		.byte	0x4
 1190 0114 06       		.uleb128 0x6
 1191 0115 D8090000 		.4byte	.LASF24
 1192 0119 08       		.byte	0x8
 1193 011a A4       		.byte	0xa4
 1194 011b A2000000 		.4byte	0xa2
 1195 011f 06       		.byte	0x6
 1196 0120 00       		.byte	0
 1197 0121 03       		.uleb128 0x3
ARM GAS  /tmp/cc30ujBa.s 			page 22


 1198 0122 26020000 		.4byte	.LASF25
 1199 0126 08       		.byte	0x8
 1200 0127 A5       		.byte	0xa5
 1201 0128 DC000000 		.4byte	0xdc
 1202 012c 07       		.uleb128 0x7
 1203 012d F1030000 		.4byte	.LASF37
 1204 0131 01       		.byte	0x1
 1205 0132 08       		.byte	0x8
 1206 0133 AE       		.byte	0xae
 1207 0134 7B010000 		.4byte	0x17b
 1208 0138 08       		.uleb128 0x8
 1209 0139 8C000000 		.4byte	.LASF26
 1210 013d 00       		.sleb128 0
 1211 013e 08       		.uleb128 0x8
 1212 013f FB090000 		.4byte	.LASF27
 1213 0143 01       		.sleb128 1
 1214 0144 08       		.uleb128 0x8
 1215 0145 7D000000 		.4byte	.LASF28
 1216 0149 03       		.sleb128 3
 1217 014a 08       		.uleb128 0x8
 1218 014b 17020000 		.4byte	.LASF29
 1219 014f 05       		.sleb128 5
 1220 0150 08       		.uleb128 0x8
 1221 0151 1C030000 		.4byte	.LASF30
 1222 0155 06       		.sleb128 6
 1223 0156 08       		.uleb128 0x8
 1224 0157 D6050000 		.4byte	.LASF31
 1225 015b 07       		.sleb128 7
 1226 015c 08       		.uleb128 0x8
 1227 015d 95030000 		.4byte	.LASF32
 1228 0161 08       		.sleb128 8
 1229 0162 08       		.uleb128 0x8
 1230 0163 AA030000 		.4byte	.LASF33
 1231 0167 09       		.sleb128 9
 1232 0168 08       		.uleb128 0x8
 1233 0169 37050000 		.4byte	.LASF34
 1234 016d 0A       		.sleb128 10
 1235 016e 08       		.uleb128 0x8
 1236 016f 53020000 		.4byte	.LASF35
 1237 0173 0B       		.sleb128 11
 1238 0174 08       		.uleb128 0x8
 1239 0175 86070000 		.4byte	.LASF36
 1240 0179 0C       		.sleb128 12
 1241 017a 00       		.byte	0
 1242 017b 07       		.uleb128 0x7
 1243 017c 75060000 		.4byte	.LASF38
 1244 0180 01       		.byte	0x1
 1245 0181 08       		.byte	0x8
 1246 0182 DD       		.byte	0xdd
 1247 0183 9A010000 		.4byte	0x19a
 1248 0187 08       		.uleb128 0x8
 1249 0188 D9070000 		.4byte	.LASF39
 1250 018c 00       		.sleb128 0
 1251 018d 08       		.uleb128 0x8
 1252 018e EE000000 		.4byte	.LASF40
 1253 0192 01       		.sleb128 1
 1254 0193 08       		.uleb128 0x8
ARM GAS  /tmp/cc30ujBa.s 			page 23


 1255 0194 4E090000 		.4byte	.LASF41
 1256 0198 02       		.sleb128 2
 1257 0199 00       		.byte	0
 1258 019a 09       		.uleb128 0x9
 1259 019b B8000000 		.4byte	0xb8
 1260 019f AA010000 		.4byte	0x1aa
 1261 01a3 0A       		.uleb128 0xa
 1262 01a4 C3000000 		.4byte	0xc3
 1263 01a8 00       		.byte	0
 1264 01a9 00       		.byte	0
 1265 01aa 0B       		.uleb128 0xb
 1266 01ab AF010000 		.4byte	0x1af
 1267 01af 0C       		.uleb128 0xc
 1268 01b0 B8000000 		.4byte	0xb8
 1269 01b4 0D       		.uleb128 0xd
 1270 01b5 38       		.byte	0x38
 1271 01b6 09       		.byte	0x9
 1272 01b7 2202     		.2byte	0x222
 1273 01b9 74020000 		.4byte	0x274
 1274 01bd 0E       		.uleb128 0xe
 1275 01be 24050000 		.4byte	.LASF42
 1276 01c2 09       		.byte	0x9
 1277 01c3 2302     		.2byte	0x223
 1278 01c5 AF010000 		.4byte	0x1af
 1279 01c9 00       		.byte	0
 1280 01ca 0E       		.uleb128 0xe
 1281 01cb E9000000 		.4byte	.LASF43
 1282 01cf 09       		.byte	0x9
 1283 01d0 2402     		.2byte	0x224
 1284 01d2 AF010000 		.4byte	0x1af
 1285 01d6 04       		.byte	0x4
 1286 01d7 0E       		.uleb128 0xe
 1287 01d8 70050000 		.4byte	.LASF44
 1288 01dc 09       		.byte	0x9
 1289 01dd 2502     		.2byte	0x225
 1290 01df AF010000 		.4byte	0x1af
 1291 01e3 08       		.byte	0x8
 1292 01e4 0E       		.uleb128 0xe
 1293 01e5 69070000 		.4byte	.LASF45
 1294 01e9 09       		.byte	0x9
 1295 01ea 2602     		.2byte	0x226
 1296 01ec AF010000 		.4byte	0x1af
 1297 01f0 0C       		.byte	0xc
 1298 01f1 0F       		.uleb128 0xf
 1299 01f2 4C504D00 		.ascii	"LPM\000"
 1300 01f6 09       		.byte	0x9
 1301 01f7 2702     		.2byte	0x227
 1302 01f9 AF010000 		.4byte	0x1af
 1303 01fd 10       		.byte	0x10
 1304 01fe 0E       		.uleb128 0xe
 1305 01ff B6050000 		.4byte	.LASF46
 1306 0203 09       		.byte	0x9
 1307 0204 2802     		.2byte	0x228
 1308 0206 AF010000 		.4byte	0x1af
 1309 020a 14       		.byte	0x14
 1310 020b 0E       		.uleb128 0xe
 1311 020c D5080000 		.4byte	.LASF47
ARM GAS  /tmp/cc30ujBa.s 			page 24


 1312 0210 09       		.byte	0x9
 1313 0211 2902     		.2byte	0x229
 1314 0213 AF010000 		.4byte	0x1af
 1315 0217 18       		.byte	0x18
 1316 0218 0E       		.uleb128 0xe
 1317 0219 1B050000 		.4byte	.LASF48
 1318 021d 09       		.byte	0x9
 1319 021e 2A02     		.2byte	0x22a
 1320 0220 AF010000 		.4byte	0x1af
 1321 0224 1C       		.byte	0x1c
 1322 0225 0E       		.uleb128 0xe
 1323 0226 3A090000 		.4byte	.LASF49
 1324 022a 09       		.byte	0x9
 1325 022b 2B02     		.2byte	0x22b
 1326 022d AF010000 		.4byte	0x1af
 1327 0231 20       		.byte	0x20
 1328 0232 0E       		.uleb128 0xe
 1329 0233 47080000 		.4byte	.LASF50
 1330 0237 09       		.byte	0x9
 1331 0238 2C02     		.2byte	0x22c
 1332 023a AF010000 		.4byte	0x1af
 1333 023e 24       		.byte	0x24
 1334 023f 0E       		.uleb128 0xe
 1335 0240 AC070000 		.4byte	.LASF51
 1336 0244 09       		.byte	0x9
 1337 0245 2D02     		.2byte	0x22d
 1338 0247 AF010000 		.4byte	0x1af
 1339 024b 28       		.byte	0x28
 1340 024c 0E       		.uleb128 0xe
 1341 024d 97050000 		.4byte	.LASF52
 1342 0251 09       		.byte	0x9
 1343 0252 2E02     		.2byte	0x22e
 1344 0254 AF010000 		.4byte	0x1af
 1345 0258 2C       		.byte	0x2c
 1346 0259 0E       		.uleb128 0xe
 1347 025a 12070000 		.4byte	.LASF53
 1348 025e 09       		.byte	0x9
 1349 025f 2F02     		.2byte	0x22f
 1350 0261 74020000 		.4byte	0x274
 1351 0265 30       		.byte	0x30
 1352 0266 0E       		.uleb128 0xe
 1353 0267 E8050000 		.4byte	.LASF54
 1354 026b 09       		.byte	0x9
 1355 026c 3002     		.2byte	0x230
 1356 026e AA010000 		.4byte	0x1aa
 1357 0272 34       		.byte	0x34
 1358 0273 00       		.byte	0
 1359 0274 0B       		.uleb128 0xb
 1360 0275 79020000 		.4byte	0x279
 1361 0279 0C       		.uleb128 0xc
 1362 027a 9A010000 		.4byte	0x19a
 1363 027e 10       		.uleb128 0x10
 1364 027f 95070000 		.4byte	.LASF55
 1365 0283 09       		.byte	0x9
 1366 0284 3102     		.2byte	0x231
 1367 0286 B4010000 		.4byte	0x1b4
 1368 028a 05       		.uleb128 0x5
ARM GAS  /tmp/cc30ujBa.s 			page 25


 1369 028b 04       		.byte	0x4
 1370 028c 0A       		.byte	0xa
 1371 028d 3B       		.byte	0x3b
 1372 028e 08030000 		.4byte	0x308
 1373 0292 06       		.uleb128 0x6
 1374 0293 3B020000 		.4byte	.LASF56
 1375 0297 0A       		.byte	0xa
 1376 0298 3C       		.byte	0x3c
 1377 0299 A2000000 		.4byte	0xa2
 1378 029d 00       		.byte	0
 1379 029e 11       		.uleb128 0x11
 1380 029f 33060000 		.4byte	.LASF57
 1381 02a3 0A       		.byte	0xa
 1382 02a4 3E       		.byte	0x3e
 1383 02a5 08030000 		.4byte	0x308
 1384 02a9 02       		.byte	0x2
 1385 02aa 0A       		.byte	0xa
 1386 02ab 06       		.byte	0x6
 1387 02ac 02       		.byte	0x2
 1388 02ad 11       		.uleb128 0x11
 1389 02ae CB020000 		.4byte	.LASF58
 1390 02b2 0A       		.byte	0xa
 1391 02b3 3F       		.byte	0x3f
 1392 02b4 A2000000 		.4byte	0xa2
 1393 02b8 02       		.byte	0x2
 1394 02b9 01       		.byte	0x1
 1395 02ba 05       		.byte	0x5
 1396 02bb 02       		.byte	0x2
 1397 02bc 11       		.uleb128 0x11
 1398 02bd A2050000 		.4byte	.LASF59
 1399 02c1 0A       		.byte	0xa
 1400 02c2 40       		.byte	0x40
 1401 02c3 A2000000 		.4byte	0xa2
 1402 02c7 02       		.byte	0x2
 1403 02c8 01       		.byte	0x1
 1404 02c9 04       		.byte	0x4
 1405 02ca 02       		.byte	0x2
 1406 02cb 11       		.uleb128 0x11
 1407 02cc 42090000 		.4byte	.LASF60
 1408 02d0 0A       		.byte	0xa
 1409 02d1 41       		.byte	0x41
 1410 02d2 A2000000 		.4byte	0xa2
 1411 02d6 02       		.byte	0x2
 1412 02d7 01       		.byte	0x1
 1413 02d8 03       		.byte	0x3
 1414 02d9 02       		.byte	0x2
 1415 02da 11       		.uleb128 0x11
 1416 02db F2070000 		.4byte	.LASF61
 1417 02df 0A       		.byte	0xa
 1418 02e0 42       		.byte	0x42
 1419 02e1 08030000 		.4byte	0x308
 1420 02e5 02       		.byte	0x2
 1421 02e6 01       		.byte	0x1
 1422 02e7 02       		.byte	0x2
 1423 02e8 02       		.byte	0x2
 1424 02e9 11       		.uleb128 0x11
 1425 02ea 86080000 		.4byte	.LASF62
ARM GAS  /tmp/cc30ujBa.s 			page 26


 1426 02ee 0A       		.byte	0xa
 1427 02ef 43       		.byte	0x43
 1428 02f0 A2000000 		.4byte	0xa2
 1429 02f4 02       		.byte	0x2
 1430 02f5 01       		.byte	0x1
 1431 02f6 01       		.byte	0x1
 1432 02f7 02       		.byte	0x2
 1433 02f8 11       		.uleb128 0x11
 1434 02f9 A7020000 		.4byte	.LASF63
 1435 02fd 0A       		.byte	0xa
 1436 02fe 44       		.byte	0x44
 1437 02ff 08030000 		.4byte	0x308
 1438 0303 02       		.byte	0x2
 1439 0304 01       		.byte	0x1
 1440 0305 00       		.byte	0
 1441 0306 02       		.byte	0x2
 1442 0307 00       		.byte	0
 1443 0308 0C       		.uleb128 0xc
 1444 0309 A2000000 		.4byte	0xa2
 1445 030d 03       		.uleb128 0x3
 1446 030e 26060000 		.4byte	.LASF64
 1447 0312 0A       		.byte	0xa
 1448 0313 46       		.byte	0x46
 1449 0314 8A020000 		.4byte	0x28a
 1450 0318 07       		.uleb128 0x7
 1451 0319 6D020000 		.4byte	.LASF65
 1452 031d 01       		.byte	0x1
 1453 031e 0B       		.byte	0xb
 1454 031f 48       		.byte	0x48
 1455 0320 49030000 		.4byte	0x349
 1456 0324 08       		.uleb128 0x8
 1457 0325 0D010000 		.4byte	.LASF66
 1458 0329 00       		.sleb128 0
 1459 032a 08       		.uleb128 0x8
 1460 032b 51060000 		.4byte	.LASF67
 1461 032f 01       		.sleb128 1
 1462 0330 08       		.uleb128 0x8
 1463 0331 25010000 		.4byte	.LASF68
 1464 0335 02       		.sleb128 2
 1465 0336 08       		.uleb128 0x8
 1466 0337 3A060000 		.4byte	.LASF69
 1467 033b 03       		.sleb128 3
 1468 033c 08       		.uleb128 0x8
 1469 033d 07040000 		.4byte	.LASF70
 1470 0341 04       		.sleb128 4
 1471 0342 08       		.uleb128 0x8
 1472 0343 59050000 		.4byte	.LASF71
 1473 0347 05       		.sleb128 5
 1474 0348 00       		.byte	0
 1475 0349 12       		.uleb128 0x12
 1476 034a 8D060000 		.4byte	.LASF74
 1477 034e 03       		.byte	0x3
 1478 034f 1A01     		.2byte	0x11a
 1479 0351 03       		.byte	0x3
 1480 0352 6F030000 		.4byte	0x36f
 1481 0356 13       		.uleb128 0x13
 1482 0357 210A0000 		.4byte	.LASF72
ARM GAS  /tmp/cc30ujBa.s 			page 27


 1483 035b 03       		.byte	0x3
 1484 035c 1A01     		.2byte	0x11a
 1485 035e 97000000 		.4byte	0x97
 1486 0362 13       		.uleb128 0x13
 1487 0363 9D090000 		.4byte	.LASF73
 1488 0367 03       		.byte	0x3
 1489 0368 1A01     		.2byte	0x11a
 1490 036a 6F030000 		.4byte	0x36f
 1491 036e 00       		.byte	0
 1492 036f 0B       		.uleb128 0xb
 1493 0370 97000000 		.4byte	0x97
 1494 0374 14       		.uleb128 0x14
 1495 0375 9A000000 		.4byte	.LASF75
 1496 0379 03       		.byte	0x3
 1497 037a CB       		.byte	0xcb
 1498 037b 03       		.byte	0x3
 1499 037c 97030000 		.4byte	0x397
 1500 0380 15       		.uleb128 0x15
 1501 0381 210A0000 		.4byte	.LASF72
 1502 0385 03       		.byte	0x3
 1503 0386 CB       		.byte	0xcb
 1504 0387 97000000 		.4byte	0x97
 1505 038b 15       		.uleb128 0x15
 1506 038c 66060000 		.4byte	.LASF76
 1507 0390 03       		.byte	0x3
 1508 0391 CB       		.byte	0xcb
 1509 0392 6F030000 		.4byte	0x36f
 1510 0396 00       		.byte	0
 1511 0397 16       		.uleb128 0x16
 1512 0398 FC020000 		.4byte	.LASF87
 1513 039c 02       		.byte	0x2
 1514 039d 7501     		.2byte	0x175
 1515 039f B5030000 		.4byte	0x3b5
 1516 03a3 03       		.byte	0x3
 1517 03a4 B5030000 		.4byte	0x3b5
 1518 03a8 13       		.uleb128 0x13
 1519 03a9 210A0000 		.4byte	.LASF72
 1520 03ad 02       		.byte	0x2
 1521 03ae 7501     		.2byte	0x175
 1522 03b0 97000000 		.4byte	0x97
 1523 03b4 00       		.byte	0
 1524 03b5 02       		.uleb128 0x2
 1525 03b6 01       		.byte	0x1
 1526 03b7 02       		.byte	0x2
 1527 03b8 4D070000 		.4byte	.LASF77
 1528 03bc 12       		.uleb128 0x12
 1529 03bd 93020000 		.4byte	.LASF78
 1530 03c1 02       		.byte	0x2
 1531 03c2 3C01     		.2byte	0x13c
 1532 03c4 03       		.byte	0x3
 1533 03c5 D6030000 		.4byte	0x3d6
 1534 03c9 13       		.uleb128 0x13
 1535 03ca 210A0000 		.4byte	.LASF72
 1536 03ce 02       		.byte	0x2
 1537 03cf 3C01     		.2byte	0x13c
 1538 03d1 97000000 		.4byte	0x97
 1539 03d5 00       		.byte	0
ARM GAS  /tmp/cc30ujBa.s 			page 28


 1540 03d6 12       		.uleb128 0x12
 1541 03d7 A2090000 		.4byte	.LASF79
 1542 03db 03       		.byte	0x3
 1543 03dc 7101     		.2byte	0x171
 1544 03de 03       		.byte	0x3
 1545 03df FC030000 		.4byte	0x3fc
 1546 03e3 13       		.uleb128 0x13
 1547 03e4 210A0000 		.4byte	.LASF72
 1548 03e8 03       		.byte	0x3
 1549 03e9 7101     		.2byte	0x171
 1550 03eb 97000000 		.4byte	0x97
 1551 03ef 13       		.uleb128 0x13
 1552 03f0 9D090000 		.4byte	.LASF73
 1553 03f4 03       		.byte	0x3
 1554 03f5 7101     		.2byte	0x171
 1555 03f7 FC030000 		.4byte	0x3fc
 1556 03fb 00       		.byte	0
 1557 03fc 0B       		.uleb128 0xb
 1558 03fd A2000000 		.4byte	0xa2
 1559 0401 12       		.uleb128 0x12
 1560 0402 2B000000 		.4byte	.LASF80
 1561 0406 02       		.byte	0x2
 1562 0407 4501     		.2byte	0x145
 1563 0409 03       		.byte	0x3
 1564 040a 27040000 		.4byte	0x427
 1565 040e 13       		.uleb128 0x13
 1566 040f 210A0000 		.4byte	.LASF72
 1567 0413 02       		.byte	0x2
 1568 0414 4501     		.2byte	0x145
 1569 0416 97000000 		.4byte	0x97
 1570 041a 17       		.uleb128 0x17
 1571 041b 47070000 		.4byte	.LASF89
 1572 041f 02       		.byte	0x2
 1573 0420 4701     		.2byte	0x147
 1574 0422 97000000 		.4byte	0x97
 1575 0426 00       		.byte	0
 1576 0427 18       		.uleb128 0x18
 1577 0428 63090000 		.4byte	.LASF85
 1578 042c 02       		.byte	0x2
 1579 042d E7       		.byte	0xe7
 1580 042e B5030000 		.4byte	0x3b5
 1581 0432 03       		.byte	0x3
 1582 0433 12       		.uleb128 0x12
 1583 0434 85010000 		.4byte	.LASF81
 1584 0438 02       		.byte	0x2
 1585 0439 6201     		.2byte	0x162
 1586 043b 03       		.byte	0x3
 1587 043c 4D040000 		.4byte	0x44d
 1588 0440 13       		.uleb128 0x13
 1589 0441 210A0000 		.4byte	.LASF72
 1590 0445 02       		.byte	0x2
 1591 0446 6201     		.2byte	0x162
 1592 0448 97000000 		.4byte	0x97
 1593 044c 00       		.byte	0
 1594 044d 12       		.uleb128 0x12
 1595 044e 8F080000 		.4byte	.LASF82
 1596 0452 02       		.byte	0x2
ARM GAS  /tmp/cc30ujBa.s 			page 29


 1597 0453 6D01     		.2byte	0x16d
 1598 0455 03       		.byte	0x3
 1599 0456 67040000 		.4byte	0x467
 1600 045a 13       		.uleb128 0x13
 1601 045b 210A0000 		.4byte	.LASF72
 1602 045f 02       		.byte	0x2
 1603 0460 6D01     		.2byte	0x16d
 1604 0462 97000000 		.4byte	0x97
 1605 0466 00       		.byte	0
 1606 0467 14       		.uleb128 0x14
 1607 0468 1F040000 		.4byte	.LASF83
 1608 046c 02       		.byte	0x2
 1609 046d D5       		.byte	0xd5
 1610 046e 03       		.byte	0x3
 1611 046f 7F040000 		.4byte	0x47f
 1612 0473 15       		.uleb128 0x15
 1613 0474 66060000 		.4byte	.LASF76
 1614 0478 02       		.byte	0x2
 1615 0479 D5       		.byte	0xd5
 1616 047a 6F030000 		.4byte	0x36f
 1617 047e 00       		.byte	0
 1618 047f 12       		.uleb128 0x12
 1619 0480 6D080000 		.4byte	.LASF84
 1620 0484 02       		.byte	0x2
 1621 0485 7D01     		.2byte	0x17d
 1622 0487 03       		.byte	0x3
 1623 0488 99040000 		.4byte	0x499
 1624 048c 13       		.uleb128 0x13
 1625 048d 210A0000 		.4byte	.LASF72
 1626 0491 02       		.byte	0x2
 1627 0492 7D01     		.2byte	0x17d
 1628 0494 97000000 		.4byte	0x97
 1629 0498 00       		.byte	0
 1630 0499 18       		.uleb128 0x18
 1631 049a DE020000 		.4byte	.LASF86
 1632 049e 07       		.byte	0x7
 1633 049f CD       		.byte	0xcd
 1634 04a0 D1000000 		.4byte	0xd1
 1635 04a4 03       		.byte	0x3
 1636 04a5 19       		.uleb128 0x19
 1637 04a6 DD080000 		.4byte	.LASF137
 1638 04aa 07       		.byte	0x7
 1639 04ab F9       		.byte	0xf9
 1640 04ac 03       		.byte	0x3
 1641 04ad 16       		.uleb128 0x16
 1642 04ae B5010000 		.4byte	.LASF88
 1643 04b2 02       		.byte	0x2
 1644 04b3 2101     		.2byte	0x121
 1645 04b5 B5030000 		.4byte	0x3b5
 1646 04b9 03       		.byte	0x3
 1647 04ba D7040000 		.4byte	0x4d7
 1648 04be 13       		.uleb128 0x13
 1649 04bf 210A0000 		.4byte	.LASF72
 1650 04c3 02       		.byte	0x2
 1651 04c4 2101     		.2byte	0x121
 1652 04c6 97000000 		.4byte	0x97
 1653 04ca 17       		.uleb128 0x17
ARM GAS  /tmp/cc30ujBa.s 			page 30


 1654 04cb 47070000 		.4byte	.LASF89
 1655 04cf 02       		.byte	0x2
 1656 04d0 2301     		.2byte	0x123
 1657 04d2 B8000000 		.4byte	0xb8
 1658 04d6 00       		.byte	0
 1659 04d7 14       		.uleb128 0x14
 1660 04d8 2B070000 		.4byte	.LASF90
 1661 04dc 04       		.byte	0x4
 1662 04dd 8D       		.byte	0x8d
 1663 04de 03       		.byte	0x3
 1664 04df FA040000 		.4byte	0x4fa
 1665 04e3 15       		.uleb128 0x15
 1666 04e4 210A0000 		.4byte	.LASF72
 1667 04e8 04       		.byte	0x4
 1668 04e9 8D       		.byte	0x8d
 1669 04ea 97000000 		.4byte	0x97
 1670 04ee 15       		.uleb128 0x15
 1671 04ef 2F050000 		.4byte	.LASF91
 1672 04f3 04       		.byte	0x4
 1673 04f4 8D       		.byte	0x8d
 1674 04f5 6F030000 		.4byte	0x36f
 1675 04f9 00       		.byte	0
 1676 04fa 14       		.uleb128 0x14
 1677 04fb C8010000 		.4byte	.LASF92
 1678 04ff 07       		.byte	0x7
 1679 0500 DF       		.byte	0xdf
 1680 0501 03       		.byte	0x3
 1681 0502 12050000 		.4byte	0x512
 1682 0506 15       		.uleb128 0x15
 1683 0507 1C070000 		.4byte	.LASF93
 1684 050b 07       		.byte	0x7
 1685 050c DF       		.byte	0xdf
 1686 050d 12050000 		.4byte	0x512
 1687 0511 00       		.byte	0
 1688 0512 0B       		.uleb128 0xb
 1689 0513 D1000000 		.4byte	0xd1
 1690 0517 12       		.uleb128 0x12
 1691 0518 81020000 		.4byte	.LASF94
 1692 051c 02       		.byte	0x2
 1693 051d 5501     		.2byte	0x155
 1694 051f 03       		.byte	0x3
 1695 0520 31050000 		.4byte	0x531
 1696 0524 13       		.uleb128 0x13
 1697 0525 210A0000 		.4byte	.LASF72
 1698 0529 02       		.byte	0x2
 1699 052a 5501     		.2byte	0x155
 1700 052c 97000000 		.4byte	0x97
 1701 0530 00       		.byte	0
 1702 0531 18       		.uleb128 0x18
 1703 0532 13000000 		.4byte	.LASF95
 1704 0536 04       		.byte	0x4
 1705 0537 95       		.byte	0x95
 1706 0538 B5030000 		.4byte	0x3b5
 1707 053c 03       		.byte	0x3
 1708 053d 16       		.uleb128 0x16
 1709 053e 4B010000 		.4byte	.LASF96
 1710 0542 02       		.byte	0x2
ARM GAS  /tmp/cc30ujBa.s 			page 31


 1711 0543 3401     		.2byte	0x134
 1712 0545 B5030000 		.4byte	0x3b5
 1713 0549 03       		.byte	0x3
 1714 054a 5B050000 		.4byte	0x55b
 1715 054e 13       		.uleb128 0x13
 1716 054f 210A0000 		.4byte	.LASF72
 1717 0553 02       		.byte	0x2
 1718 0554 3401     		.2byte	0x134
 1719 0556 97000000 		.4byte	0x97
 1720 055a 00       		.byte	0
 1721 055b 12       		.uleb128 0x12
 1722 055c F1050000 		.4byte	.LASF97
 1723 0560 01       		.byte	0x1
 1724 0561 1E01     		.2byte	0x11e
 1725 0563 01       		.byte	0x1
 1726 0564 81050000 		.4byte	0x581
 1727 0568 13       		.uleb128 0x13
 1728 0569 210A0000 		.4byte	.LASF72
 1729 056d 01       		.byte	0x1
 1730 056e 1E01     		.2byte	0x11e
 1731 0570 97000000 		.4byte	0x97
 1732 0574 17       		.uleb128 0x17
 1733 0575 290A0000 		.4byte	.LASF98
 1734 0579 01       		.byte	0x1
 1735 057a 2001     		.2byte	0x120
 1736 057c 97000000 		.4byte	0x97
 1737 0580 00       		.byte	0
 1738 0581 12       		.uleb128 0x12
 1739 0582 7C050000 		.4byte	.LASF99
 1740 0586 01       		.byte	0x1
 1741 0587 4701     		.2byte	0x147
 1742 0589 01       		.byte	0x1
 1743 058a A9050000 		.4byte	0x5a9
 1744 058e 13       		.uleb128 0x13
 1745 058f 210A0000 		.4byte	.LASF72
 1746 0593 01       		.byte	0x1
 1747 0594 4701     		.2byte	0x147
 1748 0596 97000000 		.4byte	0x97
 1749 059a 1A       		.uleb128 0x1a
 1750 059b 17       		.uleb128 0x17
 1751 059c 59000000 		.4byte	.LASF100
 1752 05a0 01       		.byte	0x1
 1753 05a1 5801     		.2byte	0x158
 1754 05a3 97000000 		.4byte	0x97
 1755 05a7 00       		.byte	0
 1756 05a8 00       		.byte	0
 1757 05a9 14       		.uleb128 0x14
 1758 05aa 4D080000 		.4byte	.LASF101
 1759 05ae 01       		.byte	0x1
 1760 05af 78       		.byte	0x78
 1761 05b0 01       		.byte	0x1
 1762 05b1 D7050000 		.4byte	0x5d7
 1763 05b5 15       		.uleb128 0x15
 1764 05b6 210A0000 		.4byte	.LASF72
 1765 05ba 01       		.byte	0x1
 1766 05bb 78       		.byte	0x78
 1767 05bc 97000000 		.4byte	0x97
ARM GAS  /tmp/cc30ujBa.s 			page 32


 1768 05c0 1B       		.uleb128 0x1b
 1769 05c1 4B000000 		.4byte	.LASF102
 1770 05c5 01       		.byte	0x1
 1771 05c6 7A       		.byte	0x7a
 1772 05c7 97000000 		.4byte	0x97
 1773 05cb 1B       		.uleb128 0x1b
 1774 05cc 3A010000 		.4byte	.LASF103
 1775 05d0 01       		.byte	0x1
 1776 05d1 7B       		.byte	0x7b
 1777 05d2 D1000000 		.4byte	0xd1
 1778 05d6 00       		.byte	0
 1779 05d7 14       		.uleb128 0x14
 1780 05d8 C0070000 		.4byte	.LASF104
 1781 05dc 01       		.byte	0x1
 1782 05dd ED       		.byte	0xed
 1783 05de 01       		.byte	0x1
 1784 05df 05060000 		.4byte	0x605
 1785 05e3 15       		.uleb128 0x15
 1786 05e4 210A0000 		.4byte	.LASF72
 1787 05e8 01       		.byte	0x1
 1788 05e9 ED       		.byte	0xed
 1789 05ea 97000000 		.4byte	0x97
 1790 05ee 1B       		.uleb128 0x1b
 1791 05ef B9020000 		.4byte	.LASF105
 1792 05f3 01       		.byte	0x1
 1793 05f4 EF       		.byte	0xef
 1794 05f5 05060000 		.4byte	0x605
 1795 05f9 1B       		.uleb128 0x1b
 1796 05fa 3C000000 		.4byte	.LASF106
 1797 05fe 01       		.byte	0x1
 1798 05ff F0       		.byte	0xf0
 1799 0600 A2000000 		.4byte	0xa2
 1800 0604 00       		.byte	0
 1801 0605 1C       		.uleb128 0x1c
 1802 0606 04       		.byte	0x4
 1803 0607 0B060000 		.4byte	0x60b
 1804 060b 1D       		.uleb128 0x1d
 1805 060c 14       		.uleb128 0x14
 1806 060d 9E060000 		.4byte	.LASF107
 1807 0611 01       		.byte	0x1
 1808 0612 CE       		.byte	0xce
 1809 0613 01       		.byte	0x1
 1810 0614 24060000 		.4byte	0x624
 1811 0618 15       		.uleb128 0x15
 1812 0619 210A0000 		.4byte	.LASF72
 1813 061d 01       		.byte	0x1
 1814 061e CE       		.byte	0xce
 1815 061f 97000000 		.4byte	0x97
 1816 0623 00       		.byte	0
 1817 0624 14       		.uleb128 0x14
 1818 0625 1B080000 		.4byte	.LASF108
 1819 0629 01       		.byte	0x1
 1820 062a 8A       		.byte	0x8a
 1821 062b 01       		.byte	0x1
 1822 062c 3C060000 		.4byte	0x63c
 1823 0630 15       		.uleb128 0x15
 1824 0631 210A0000 		.4byte	.LASF72
ARM GAS  /tmp/cc30ujBa.s 			page 33


 1825 0635 01       		.byte	0x1
 1826 0636 8A       		.byte	0x8a
 1827 0637 97000000 		.4byte	0x97
 1828 063b 00       		.byte	0
 1829 063c 1E       		.uleb128 0x1e
 1830 063d B7090000 		.4byte	.LASF138
 1831 0641 01       		.byte	0x1
 1832 0642 34       		.byte	0x34
 1833 0643 00000000 		.4byte	.LFB97
 1834 0647 80040000 		.4byte	.LFE97-.LFB97
 1835 064b 01       		.uleb128 0x1
 1836 064c 9C       		.byte	0x9c
 1837 064d 050C0000 		.4byte	0xc05
 1838 0651 1F       		.uleb128 0x1f
 1839 0652 210A0000 		.4byte	.LASF72
 1840 0656 01       		.byte	0x1
 1841 0657 34       		.byte	0x34
 1842 0658 97000000 		.4byte	0x97
 1843 065c 00000000 		.4byte	.LLST0
 1844 0660 20       		.uleb128 0x20
 1845 0661 3D050000 		.4byte	0x53d
 1846 0665 10000000 		.4byte	.LBB142
 1847 0669 04000000 		.4byte	.LBE142-.LBB142
 1848 066d 01       		.byte	0x1
 1849 066e 40       		.byte	0x40
 1850 066f 7D060000 		.4byte	0x67d
 1851 0673 21       		.uleb128 0x21
 1852 0674 4E050000 		.4byte	0x54e
 1853 0678 21000000 		.4byte	.LLST1
 1854 067c 00       		.byte	0
 1855 067d 22       		.uleb128 0x22
 1856 067e 00000000 		.4byte	.Ldebug_ranges0+0
 1857 0682 900B0000 		.4byte	0xb90
 1858 0686 23       		.uleb128 0x23
 1859 0687 D0020000 		.4byte	.LASF20
 1860 068b 01       		.byte	0x1
 1861 068c 42       		.byte	0x42
 1862 068d 97000000 		.4byte	0x97
 1863 0691 34000000 		.4byte	.LLST2
 1864 0695 20       		.uleb128 0x20
 1865 0696 5B050000 		.4byte	0x55b
 1866 069a 3A000000 		.4byte	.LBB145
 1867 069e 02010000 		.4byte	.LBE145-.LBB145
 1868 06a2 01       		.byte	0x1
 1869 06a3 4A       		.byte	0x4a
 1870 06a4 07080000 		.4byte	0x807
 1871 06a8 21       		.uleb128 0x21
 1872 06a9 68050000 		.4byte	0x568
 1873 06ad 9C000000 		.4byte	.LLST3
 1874 06b1 24       		.uleb128 0x24
 1875 06b2 3A000000 		.4byte	.LBB146
 1876 06b6 02010000 		.4byte	.LBE146-.LBB146
 1877 06ba 25       		.uleb128 0x25
 1878 06bb 74050000 		.4byte	0x574
 1879 06bf AF000000 		.4byte	.LLST4
 1880 06c3 26       		.uleb128 0x26
 1881 06c4 97030000 		.4byte	0x397
ARM GAS  /tmp/cc30ujBa.s 			page 34


 1882 06c8 54000000 		.4byte	.LBB147
 1883 06cc 18000000 		.4byte	.LBE147-.LBB147
 1884 06d0 01       		.byte	0x1
 1885 06d1 3501     		.2byte	0x135
 1886 06d3 E1060000 		.4byte	0x6e1
 1887 06d7 21       		.uleb128 0x21
 1888 06d8 A8030000 		.4byte	0x3a8
 1889 06dc FF000000 		.4byte	.LLST5
 1890 06e0 00       		.byte	0
 1891 06e1 26       		.uleb128 0x26
 1892 06e2 74030000 		.4byte	0x374
 1893 06e6 6C000000 		.4byte	.LBB149
 1894 06ea 06000000 		.4byte	.LBE149-.LBB149
 1895 06ee 01       		.byte	0x1
 1896 06ef 3701     		.2byte	0x137
 1897 06f1 08070000 		.4byte	0x708
 1898 06f5 21       		.uleb128 0x21
 1899 06f6 8B030000 		.4byte	0x38b
 1900 06fa 12010000 		.4byte	.LLST6
 1901 06fe 21       		.uleb128 0x21
 1902 06ff 80030000 		.4byte	0x380
 1903 0703 26010000 		.4byte	.LLST7
 1904 0707 00       		.byte	0
 1905 0708 26       		.uleb128 0x26
 1906 0709 BC030000 		.4byte	0x3bc
 1907 070d 72000000 		.4byte	.LBB151
 1908 0711 14000000 		.4byte	.LBE151-.LBB151
 1909 0715 01       		.byte	0x1
 1910 0716 3F01     		.2byte	0x13f
 1911 0718 26070000 		.4byte	0x726
 1912 071c 21       		.uleb128 0x21
 1913 071d C9030000 		.4byte	0x3c9
 1914 0721 39010000 		.4byte	.LLST8
 1915 0725 00       		.byte	0
 1916 0726 26       		.uleb128 0x26
 1917 0727 D6030000 		.4byte	0x3d6
 1918 072b 88000000 		.4byte	.LBB153
 1919 072f 68000000 		.4byte	.LBE153-.LBB153
 1920 0733 01       		.byte	0x1
 1921 0734 4101     		.2byte	0x141
 1922 0736 97070000 		.4byte	0x797
 1923 073a 21       		.uleb128 0x21
 1924 073b EF030000 		.4byte	0x3ef
 1925 073f 4C010000 		.4byte	.LLST9
 1926 0743 21       		.uleb128 0x21
 1927 0744 E3030000 		.4byte	0x3e3
 1928 0748 6A010000 		.4byte	.LLST10
 1929 074c 26       		.uleb128 0x26
 1930 074d 49030000 		.4byte	0x349
 1931 0751 88000000 		.4byte	.LBB155
 1932 0755 32000000 		.4byte	.LBE155-.LBB155
 1933 0759 03       		.byte	0x3
 1934 075a 7301     		.2byte	0x173
 1935 075c 73070000 		.4byte	0x773
 1936 0760 21       		.uleb128 0x21
 1937 0761 62030000 		.4byte	0x362
 1938 0765 4C010000 		.4byte	.LLST9
ARM GAS  /tmp/cc30ujBa.s 			page 35


 1939 0769 21       		.uleb128 0x21
 1940 076a 56030000 		.4byte	0x356
 1941 076e 6A010000 		.4byte	.LLST10
 1942 0772 00       		.byte	0
 1943 0773 27       		.uleb128 0x27
 1944 0774 49030000 		.4byte	0x349
 1945 0778 BE000000 		.4byte	.LBB157
 1946 077c 32000000 		.4byte	.LBE157-.LBB157
 1947 0780 03       		.byte	0x3
 1948 0781 7401     		.2byte	0x174
 1949 0783 21       		.uleb128 0x21
 1950 0784 62030000 		.4byte	0x362
 1951 0788 7D010000 		.4byte	.LLST13
 1952 078c 21       		.uleb128 0x21
 1953 078d 56030000 		.4byte	0x356
 1954 0791 9B010000 		.4byte	.LLST14
 1955 0795 00       		.byte	0
 1956 0796 00       		.byte	0
 1957 0797 26       		.uleb128 0x26
 1958 0798 01040000 		.4byte	0x401
 1959 079c F0000000 		.4byte	.LBB159
 1960 07a0 44000000 		.4byte	.LBE159-.LBB159
 1961 07a4 01       		.byte	0x1
 1962 07a5 4201     		.2byte	0x142
 1963 07a7 F5070000 		.4byte	0x7f5
 1964 07ab 21       		.uleb128 0x21
 1965 07ac 0E040000 		.4byte	0x40e
 1966 07b0 AE010000 		.4byte	.LLST15
 1967 07b4 24       		.uleb128 0x24
 1968 07b5 F0000000 		.4byte	.LBB160
 1969 07b9 44000000 		.4byte	.LBE160-.LBB160
 1970 07bd 25       		.uleb128 0x25
 1971 07be 1A040000 		.4byte	0x41a
 1972 07c2 C1010000 		.4byte	.LLST16
 1973 07c6 28       		.uleb128 0x28
 1974 07c7 1A010000 		.4byte	.LVL26
 1975 07cb 390D0000 		.4byte	0xd39
 1976 07cf E1070000 		.4byte	0x7e1
 1977 07d3 29       		.uleb128 0x29
 1978 07d4 01       		.uleb128 0x1
 1979 07d5 51       		.byte	0x51
 1980 07d6 04       		.uleb128 0x4
 1981 07d7 74       		.byte	0x74
 1982 07d8 00       		.sleb128 0
 1983 07d9 39       		.byte	0x39
 1984 07da 24       		.byte	0x24
 1985 07db 29       		.uleb128 0x29
 1986 07dc 01       		.uleb128 0x1
 1987 07dd 50       		.byte	0x50
 1988 07de 01       		.uleb128 0x1
 1989 07df 31       		.byte	0x31
 1990 07e0 00       		.byte	0
 1991 07e1 2A       		.uleb128 0x2a
 1992 07e2 30010000 		.4byte	.LVL29
 1993 07e6 390D0000 		.4byte	0xd39
 1994 07ea 29       		.uleb128 0x29
 1995 07eb 01       		.uleb128 0x1
ARM GAS  /tmp/cc30ujBa.s 			page 36


 1996 07ec 51       		.byte	0x51
 1997 07ed 04       		.uleb128 0x4
 1998 07ee 74       		.byte	0x74
 1999 07ef 00       		.sleb128 0
 2000 07f0 39       		.byte	0x39
 2001 07f1 24       		.byte	0x24
 2002 07f2 00       		.byte	0
 2003 07f3 00       		.byte	0
 2004 07f4 00       		.byte	0
 2005 07f5 2A       		.uleb128 0x2a
 2006 07f6 3A010000 		.4byte	.LVL30
 2007 07fa 5A0D0000 		.4byte	0xd5a
 2008 07fe 29       		.uleb128 0x29
 2009 07ff 01       		.uleb128 0x1
 2010 0800 50       		.byte	0x50
 2011 0801 02       		.uleb128 0x2
 2012 0802 74       		.byte	0x74
 2013 0803 00       		.sleb128 0
 2014 0804 00       		.byte	0
 2015 0805 00       		.byte	0
 2016 0806 00       		.byte	0
 2017 0807 2B       		.uleb128 0x2b
 2018 0808 81050000 		.4byte	0x581
 2019 080c 4A010000 		.4byte	.LBB161
 2020 0810 18000000 		.4byte	.Ldebug_ranges0+0x18
 2021 0814 01       		.byte	0x1
 2022 0815 53       		.byte	0x53
 2023 0816 09090000 		.4byte	0x909
 2024 081a 21       		.uleb128 0x21
 2025 081b 8E050000 		.4byte	0x58e
 2026 081f F2010000 		.4byte	.LLST17
 2027 0823 22       		.uleb128 0x22
 2028 0824 30000000 		.4byte	.Ldebug_ranges0+0x30
 2029 0828 B3080000 		.4byte	0x8b3
 2030 082c 25       		.uleb128 0x25
 2031 082d 9B050000 		.4byte	0x59b
 2032 0831 10020000 		.4byte	.LLST18
 2033 0835 26       		.uleb128 0x26
 2034 0836 74030000 		.4byte	0x374
 2035 083a 62010000 		.4byte	.LBB164
 2036 083e 04000000 		.4byte	.LBE164-.LBB164
 2037 0842 01       		.byte	0x1
 2038 0843 5D01     		.2byte	0x15d
 2039 0845 5C080000 		.4byte	0x85c
 2040 0849 21       		.uleb128 0x21
 2041 084a 8B030000 		.4byte	0x38b
 2042 084e 27020000 		.4byte	.LLST19
 2043 0852 21       		.uleb128 0x21
 2044 0853 80030000 		.4byte	0x380
 2045 0857 3E020000 		.4byte	.LLST20
 2046 085b 00       		.byte	0
 2047 085c 2C       		.uleb128 0x2c
 2048 085d 33040000 		.4byte	0x433
 2049 0861 6A010000 		.4byte	.LBB166
 2050 0865 48000000 		.4byte	.Ldebug_ranges0+0x48
 2051 0869 01       		.byte	0x1
 2052 086a 6301     		.2byte	0x163
ARM GAS  /tmp/cc30ujBa.s 			page 37


 2053 086c 7A080000 		.4byte	0x87a
 2054 0870 21       		.uleb128 0x21
 2055 0871 40040000 		.4byte	0x440
 2056 0875 5C020000 		.4byte	.LLST21
 2057 0879 00       		.byte	0
 2058 087a 2C       		.uleb128 0x2c
 2059 087b 4D040000 		.4byte	0x44d
 2060 087f 74010000 		.4byte	.LBB169
 2061 0883 60000000 		.4byte	.Ldebug_ranges0+0x60
 2062 0887 01       		.byte	0x1
 2063 0888 6701     		.2byte	0x167
 2064 088a 98080000 		.4byte	0x898
 2065 088e 21       		.uleb128 0x21
 2066 088f 5A040000 		.4byte	0x45a
 2067 0893 7A020000 		.4byte	.LLST22
 2068 0897 00       		.byte	0
 2069 0898 27       		.uleb128 0x27
 2070 0899 7F040000 		.4byte	0x47f
 2071 089d 7C010000 		.4byte	.LBB172
 2072 08a1 10000000 		.4byte	.LBE172-.LBB172
 2073 08a5 01       		.byte	0x1
 2074 08a6 6901     		.2byte	0x169
 2075 08a8 21       		.uleb128 0x21
 2076 08a9 8C040000 		.4byte	0x48c
 2077 08ad 98020000 		.4byte	.LLST23
 2078 08b1 00       		.byte	0
 2079 08b2 00       		.byte	0
 2080 08b3 26       		.uleb128 0x26
 2081 08b4 74030000 		.4byte	0x374
 2082 08b8 8C010000 		.4byte	.LBB176
 2083 08bc 06000000 		.4byte	.LBE176-.LBB176
 2084 08c0 01       		.byte	0x1
 2085 08c1 7401     		.2byte	0x174
 2086 08c3 DA080000 		.4byte	0x8da
 2087 08c7 21       		.uleb128 0x21
 2088 08c8 8B030000 		.4byte	0x38b
 2089 08cc B7020000 		.4byte	.LLST24
 2090 08d0 21       		.uleb128 0x21
 2091 08d1 80030000 		.4byte	0x380
 2092 08d5 CB020000 		.4byte	.LLST25
 2093 08d9 00       		.byte	0
 2094 08da 26       		.uleb128 0x26
 2095 08db BC030000 		.4byte	0x3bc
 2096 08df 92010000 		.4byte	.LBB178
 2097 08e3 12000000 		.4byte	.LBE178-.LBB178
 2098 08e7 01       		.byte	0x1
 2099 08e8 7601     		.2byte	0x176
 2100 08ea F8080000 		.4byte	0x8f8
 2101 08ee 21       		.uleb128 0x21
 2102 08ef C9030000 		.4byte	0x3c9
 2103 08f3 DE020000 		.4byte	.LLST26
 2104 08f7 00       		.byte	0
 2105 08f8 2A       		.uleb128 0x2a
 2106 08f9 AA010000 		.4byte	.LVL43
 2107 08fd 5A0D0000 		.4byte	0xd5a
 2108 0901 29       		.uleb128 0x29
 2109 0902 01       		.uleb128 0x1
ARM GAS  /tmp/cc30ujBa.s 			page 38


 2110 0903 50       		.byte	0x50
 2111 0904 02       		.uleb128 0x2
 2112 0905 74       		.byte	0x74
 2113 0906 00       		.sleb128 0
 2114 0907 00       		.byte	0
 2115 0908 00       		.byte	0
 2116 0909 20       		.uleb128 0x20
 2117 090a A9050000 		.4byte	0x5a9
 2118 090e B2010000 		.4byte	.LBB182
 2119 0912 5E000000 		.4byte	.LBE182-.LBB182
 2120 0916 01       		.byte	0x1
 2121 0917 59       		.byte	0x59
 2122 0918 D1090000 		.4byte	0x9d1
 2123 091c 21       		.uleb128 0x21
 2124 091d B5050000 		.4byte	0x5b5
 2125 0921 F1020000 		.4byte	.LLST27
 2126 0925 24       		.uleb128 0x24
 2127 0926 B2010000 		.4byte	.LBB183
 2128 092a 5E000000 		.4byte	.LBE183-.LBB183
 2129 092e 25       		.uleb128 0x25
 2130 092f C0050000 		.4byte	0x5c0
 2131 0933 04030000 		.4byte	.LLST28
 2132 0937 2D       		.uleb128 0x2d
 2133 0938 CB050000 		.4byte	0x5cb
 2134 093c 20       		.uleb128 0x20
 2135 093d BC030000 		.4byte	0x3bc
 2136 0941 BA010000 		.4byte	.LBB184
 2137 0945 14000000 		.4byte	.LBE184-.LBB184
 2138 0949 01       		.byte	0x1
 2139 094a 7E       		.byte	0x7e
 2140 094b 59090000 		.4byte	0x959
 2141 094f 21       		.uleb128 0x21
 2142 0950 C9030000 		.4byte	0x3c9
 2143 0954 17030000 		.4byte	.LLST29
 2144 0958 00       		.byte	0
 2145 0959 20       		.uleb128 0x20
 2146 095a AD040000 		.4byte	0x4ad
 2147 095e D4010000 		.4byte	.LBB186
 2148 0962 24000000 		.4byte	.LBE186-.LBB186
 2149 0966 01       		.byte	0x1
 2150 0967 82       		.byte	0x82
 2151 0968 89090000 		.4byte	0x989
 2152 096c 21       		.uleb128 0x21
 2153 096d BE040000 		.4byte	0x4be
 2154 0971 2A030000 		.4byte	.LLST30
 2155 0975 24       		.uleb128 0x24
 2156 0976 D4010000 		.4byte	.LBB187
 2157 097a 24000000 		.4byte	.LBE187-.LBB187
 2158 097e 25       		.uleb128 0x25
 2159 097f CA040000 		.4byte	0x4ca
 2160 0983 3D030000 		.4byte	.LLST31
 2161 0987 00       		.byte	0
 2162 0988 00       		.byte	0
 2163 0989 20       		.uleb128 0x20
 2164 098a D7040000 		.4byte	0x4d7
 2165 098e FC010000 		.4byte	.LBB188
 2166 0992 06000000 		.4byte	.LBE188-.LBB188
ARM GAS  /tmp/cc30ujBa.s 			page 39


 2167 0996 01       		.byte	0x1
 2168 0997 84       		.byte	0x84
 2169 0998 BF090000 		.4byte	0x9bf
 2170 099c 21       		.uleb128 0x21
 2171 099d EE040000 		.4byte	0x4ee
 2172 09a1 50030000 		.4byte	.LLST32
 2173 09a5 21       		.uleb128 0x21
 2174 09a6 E3040000 		.4byte	0x4e3
 2175 09aa 63030000 		.4byte	.LLST33
 2176 09ae 2A       		.uleb128 0x2a
 2177 09af 02020000 		.4byte	.LVL55
 2178 09b3 6C0D0000 		.4byte	0xd6c
 2179 09b7 29       		.uleb128 0x29
 2180 09b8 01       		.uleb128 0x1
 2181 09b9 50       		.byte	0x50
 2182 09ba 02       		.uleb128 0x2
 2183 09bb 75       		.byte	0x75
 2184 09bc 00       		.sleb128 0
 2185 09bd 00       		.byte	0
 2186 09be 00       		.byte	0
 2187 09bf 2A       		.uleb128 0x2a
 2188 09c0 D4010000 		.4byte	.LVL50
 2189 09c4 5A0D0000 		.4byte	0xd5a
 2190 09c8 29       		.uleb128 0x29
 2191 09c9 01       		.uleb128 0x1
 2192 09ca 50       		.byte	0x50
 2193 09cb 02       		.uleb128 0x2
 2194 09cc 74       		.byte	0x74
 2195 09cd 00       		.sleb128 0
 2196 09ce 00       		.byte	0
 2197 09cf 00       		.byte	0
 2198 09d0 00       		.byte	0
 2199 09d1 20       		.uleb128 0x20
 2200 09d2 D7050000 		.4byte	0x5d7
 2201 09d6 1A020000 		.4byte	.LBB190
 2202 09da 72000000 		.4byte	.LBE190-.LBB190
 2203 09de 01       		.byte	0x1
 2204 09df 60       		.byte	0x60
 2205 09e0 6F0A0000 		.4byte	0xa6f
 2206 09e4 21       		.uleb128 0x21
 2207 09e5 E3050000 		.4byte	0x5e3
 2208 09e9 76030000 		.4byte	.LLST34
 2209 09ed 24       		.uleb128 0x24
 2210 09ee 1A020000 		.4byte	.LBB191
 2211 09f2 72000000 		.4byte	.LBE191-.LBB191
 2212 09f6 2E       		.uleb128 0x2e
 2213 09f7 EE050000 		.4byte	0x5ee
 2214 09fb 02       		.uleb128 0x2
 2215 09fc 91       		.byte	0x91
 2216 09fd 6C       		.sleb128 -20
 2217 09fe 25       		.uleb128 0x25
 2218 09ff F9050000 		.4byte	0x5f9
 2219 0a03 89030000 		.4byte	.LLST35
 2220 0a07 26       		.uleb128 0x26
 2221 0a08 BC030000 		.4byte	0x3bc
 2222 0a0c 34020000 		.4byte	.LBB192
 2223 0a10 14000000 		.4byte	.LBE192-.LBB192
ARM GAS  /tmp/cc30ujBa.s 			page 40


 2224 0a14 01       		.byte	0x1
 2225 0a15 0A01     		.2byte	0x10a
 2226 0a17 250A0000 		.4byte	0xa25
 2227 0a1b 21       		.uleb128 0x21
 2228 0a1c C9030000 		.4byte	0x3c9
 2229 0a20 A7030000 		.4byte	.LLST36
 2230 0a24 00       		.byte	0
 2231 0a25 26       		.uleb128 0x26
 2232 0a26 17050000 		.4byte	0x517
 2233 0a2a 50020000 		.4byte	.LBB194
 2234 0a2e 3C000000 		.4byte	.LBE194-.LBB194
 2235 0a32 01       		.byte	0x1
 2236 0a33 1B01     		.2byte	0x11b
 2237 0a35 430A0000 		.4byte	0xa43
 2238 0a39 21       		.uleb128 0x21
 2239 0a3a 24050000 		.4byte	0x524
 2240 0a3e BA030000 		.4byte	.LLST37
 2241 0a42 00       		.byte	0
 2242 0a43 28       		.uleb128 0x28
 2243 0a44 2E020000 		.4byte	.LVL62
 2244 0a48 7D0D0000 		.4byte	0xd7d
 2245 0a4c 5D0A0000 		.4byte	0xa5d
 2246 0a50 29       		.uleb128 0x29
 2247 0a51 01       		.uleb128 0x1
 2248 0a52 53       		.byte	0x53
 2249 0a53 02       		.uleb128 0x2
 2250 0a54 91       		.byte	0x91
 2251 0a55 6C       		.sleb128 -20
 2252 0a56 29       		.uleb128 0x29
 2253 0a57 01       		.uleb128 0x1
 2254 0a58 50       		.byte	0x50
 2255 0a59 02       		.uleb128 0x2
 2256 0a5a 74       		.byte	0x74
 2257 0a5b 00       		.sleb128 0
 2258 0a5c 00       		.byte	0
 2259 0a5d 2A       		.uleb128 0x2a
 2260 0a5e 50020000 		.4byte	.LVL66
 2261 0a62 AC0D0000 		.4byte	0xdac
 2262 0a66 29       		.uleb128 0x29
 2263 0a67 01       		.uleb128 0x1
 2264 0a68 50       		.byte	0x50
 2265 0a69 02       		.uleb128 0x2
 2266 0a6a 74       		.byte	0x74
 2267 0a6b 00       		.sleb128 0
 2268 0a6c 00       		.byte	0
 2269 0a6d 00       		.byte	0
 2270 0a6e 00       		.byte	0
 2271 0a6f 20       		.uleb128 0x20
 2272 0a70 0C060000 		.4byte	0x60c
 2273 0a74 92020000 		.4byte	.LBB196
 2274 0a78 D6000000 		.4byte	.LBE196-.LBB196
 2275 0a7c 01       		.byte	0x1
 2276 0a7d 66       		.byte	0x66
 2277 0a7e 3C0B0000 		.4byte	0xb3c
 2278 0a82 21       		.uleb128 0x21
 2279 0a83 18060000 		.4byte	0x618
 2280 0a87 CD030000 		.4byte	.LLST38
ARM GAS  /tmp/cc30ujBa.s 			page 41


 2281 0a8b 20       		.uleb128 0x20
 2282 0a8c BC030000 		.4byte	0x3bc
 2283 0a90 92020000 		.4byte	.LBB198
 2284 0a94 12000000 		.4byte	.LBE198-.LBB198
 2285 0a98 01       		.byte	0x1
 2286 0a99 D0       		.byte	0xd0
 2287 0a9a A80A0000 		.4byte	0xaa8
 2288 0a9e 21       		.uleb128 0x21
 2289 0a9f C9030000 		.4byte	0x3c9
 2290 0aa3 CD030000 		.4byte	.LLST38
 2291 0aa7 00       		.byte	0
 2292 0aa8 20       		.uleb128 0x20
 2293 0aa9 49030000 		.4byte	0x349
 2294 0aad A8020000 		.4byte	.LBB200
 2295 0ab1 32000000 		.4byte	.LBE200-.LBB200
 2296 0ab5 01       		.byte	0x1
 2297 0ab6 D2       		.byte	0xd2
 2298 0ab7 CE0A0000 		.4byte	0xace
 2299 0abb 21       		.uleb128 0x21
 2300 0abc 62030000 		.4byte	0x362
 2301 0ac0 E0030000 		.4byte	.LLST40
 2302 0ac4 21       		.uleb128 0x21
 2303 0ac5 56030000 		.4byte	0x356
 2304 0ac9 06040000 		.4byte	.LLST41
 2305 0acd 00       		.byte	0
 2306 0ace 20       		.uleb128 0x20
 2307 0acf 01040000 		.4byte	0x401
 2308 0ad3 DA020000 		.4byte	.LBB202
 2309 0ad7 44000000 		.4byte	.LBE202-.LBB202
 2310 0adb 01       		.byte	0x1
 2311 0adc D3       		.byte	0xd3
 2312 0add 2B0B0000 		.4byte	0xb2b
 2313 0ae1 21       		.uleb128 0x21
 2314 0ae2 0E040000 		.4byte	0x40e
 2315 0ae6 19040000 		.4byte	.LLST42
 2316 0aea 24       		.uleb128 0x24
 2317 0aeb DA020000 		.4byte	.LBB203
 2318 0aef 44000000 		.4byte	.LBE203-.LBB203
 2319 0af3 25       		.uleb128 0x25
 2320 0af4 1A040000 		.4byte	0x41a
 2321 0af8 2C040000 		.4byte	.LLST43
 2322 0afc 28       		.uleb128 0x28
 2323 0afd 04030000 		.4byte	.LVL74
 2324 0b01 390D0000 		.4byte	0xd39
 2325 0b05 170B0000 		.4byte	0xb17
 2326 0b09 29       		.uleb128 0x29
 2327 0b0a 01       		.uleb128 0x1
 2328 0b0b 51       		.byte	0x51
 2329 0b0c 04       		.uleb128 0x4
 2330 0b0d 74       		.byte	0x74
 2331 0b0e 00       		.sleb128 0
 2332 0b0f 39       		.byte	0x39
 2333 0b10 24       		.byte	0x24
 2334 0b11 29       		.uleb128 0x29
 2335 0b12 01       		.uleb128 0x1
 2336 0b13 50       		.byte	0x50
 2337 0b14 01       		.uleb128 0x1
ARM GAS  /tmp/cc30ujBa.s 			page 42


 2338 0b15 31       		.byte	0x31
 2339 0b16 00       		.byte	0
 2340 0b17 2A       		.uleb128 0x2a
 2341 0b18 1A030000 		.4byte	.LVL77
 2342 0b1c 390D0000 		.4byte	0xd39
 2343 0b20 29       		.uleb128 0x29
 2344 0b21 01       		.uleb128 0x1
 2345 0b22 51       		.byte	0x51
 2346 0b23 04       		.uleb128 0x4
 2347 0b24 74       		.byte	0x74
 2348 0b25 00       		.sleb128 0
 2349 0b26 39       		.byte	0x39
 2350 0b27 24       		.byte	0x24
 2351 0b28 00       		.byte	0
 2352 0b29 00       		.byte	0
 2353 0b2a 00       		.byte	0
 2354 0b2b 2A       		.uleb128 0x2a
 2355 0b2c 24030000 		.4byte	.LVL78
 2356 0b30 5A0D0000 		.4byte	0xd5a
 2357 0b34 29       		.uleb128 0x29
 2358 0b35 01       		.uleb128 0x1
 2359 0b36 50       		.byte	0x50
 2360 0b37 02       		.uleb128 0x2
 2361 0b38 74       		.byte	0x74
 2362 0b39 00       		.sleb128 0
 2363 0b3a 00       		.byte	0
 2364 0b3b 00       		.byte	0
 2365 0b3c 2F       		.uleb128 0x2f
 2366 0b3d 24060000 		.4byte	0x624
 2367 0b41 6C030000 		.4byte	.LBB204
 2368 0b45 42000000 		.4byte	.LBE204-.LBB204
 2369 0b49 01       		.byte	0x1
 2370 0b4a 6B       		.byte	0x6b
 2371 0b4b 21       		.uleb128 0x21
 2372 0b4c 30060000 		.4byte	0x630
 2373 0b50 5D040000 		.4byte	.LLST44
 2374 0b54 20       		.uleb128 0x20
 2375 0b55 BC030000 		.4byte	0x3bc
 2376 0b59 74030000 		.4byte	.LBB206
 2377 0b5d 14000000 		.4byte	.LBE206-.LBB206
 2378 0b61 01       		.byte	0x1
 2379 0b62 BE       		.byte	0xbe
 2380 0b63 710B0000 		.4byte	0xb71
 2381 0b67 21       		.uleb128 0x21
 2382 0b68 C9030000 		.4byte	0x3c9
 2383 0b6c 70040000 		.4byte	.LLST45
 2384 0b70 00       		.byte	0
 2385 0b71 28       		.uleb128 0x28
 2386 0b72 96030000 		.4byte	.LVL85
 2387 0b76 5A0D0000 		.4byte	0xd5a
 2388 0b7a 850B0000 		.4byte	0xb85
 2389 0b7e 29       		.uleb128 0x29
 2390 0b7f 01       		.uleb128 0x1
 2391 0b80 50       		.byte	0x50
 2392 0b81 02       		.uleb128 0x2
 2393 0b82 74       		.byte	0x74
 2394 0b83 00       		.sleb128 0
ARM GAS  /tmp/cc30ujBa.s 			page 43


 2395 0b84 00       		.byte	0
 2396 0b85 30       		.uleb128 0x30
 2397 0b86 AE030000 		.4byte	.LVL86
 2398 0b8a D10D0000 		.4byte	0xdd1
 2399 0b8e 00       		.byte	0
 2400 0b8f 00       		.byte	0
 2401 0b90 20       		.uleb128 0x20
 2402 0b91 3D050000 		.4byte	0x53d
 2403 0b95 AE030000 		.4byte	.LBB209
 2404 0b99 04000000 		.4byte	.LBE209-.LBB209
 2405 0b9d 01       		.byte	0x1
 2406 0b9e 71       		.byte	0x71
 2407 0b9f AD0B0000 		.4byte	0xbad
 2408 0ba3 21       		.uleb128 0x21
 2409 0ba4 4E050000 		.4byte	0x54e
 2410 0ba8 83040000 		.4byte	.LLST46
 2411 0bac 00       		.byte	0
 2412 0bad 20       		.uleb128 0x20
 2413 0bae BC030000 		.4byte	0x3bc
 2414 0bb2 B6030000 		.4byte	.LBB211
 2415 0bb6 14000000 		.4byte	.LBE211-.LBB211
 2416 0bba 01       		.byte	0x1
 2417 0bbb 73       		.byte	0x73
 2418 0bbc CA0B0000 		.4byte	0xbca
 2419 0bc0 21       		.uleb128 0x21
 2420 0bc1 C9030000 		.4byte	0x3c9
 2421 0bc5 A1040000 		.4byte	.LLST47
 2422 0bc9 00       		.byte	0
 2423 0bca 20       		.uleb128 0x20
 2424 0bcb 33040000 		.4byte	0x433
 2425 0bcf CA030000 		.4byte	.LBB213
 2426 0bd3 32000000 		.4byte	.LBE213-.LBB213
 2427 0bd7 01       		.byte	0x1
 2428 0bd8 74       		.byte	0x74
 2429 0bd9 E70B0000 		.4byte	0xbe7
 2430 0bdd 21       		.uleb128 0x21
 2431 0bde 40040000 		.4byte	0x440
 2432 0be2 B4040000 		.4byte	.LLST48
 2433 0be6 00       		.byte	0
 2434 0be7 28       		.uleb128 0x28
 2435 0be8 0C000000 		.4byte	.LVL1
 2436 0bec D80D0000 		.4byte	0xdd8
 2437 0bf0 FB0B0000 		.4byte	0xbfb
 2438 0bf4 29       		.uleb128 0x29
 2439 0bf5 01       		.uleb128 0x1
 2440 0bf6 50       		.byte	0x50
 2441 0bf7 02       		.uleb128 0x2
 2442 0bf8 74       		.byte	0x74
 2443 0bf9 00       		.sleb128 0
 2444 0bfa 00       		.byte	0
 2445 0bfb 30       		.uleb128 0x30
 2446 0bfc 10000000 		.4byte	.LVL2
 2447 0c00 EF0D0000 		.4byte	0xdef
 2448 0c04 00       		.byte	0
 2449 0c05 09       		.uleb128 0x9
 2450 0c06 97000000 		.4byte	0x97
 2451 0c0a 170C0000 		.4byte	0xc17
ARM GAS  /tmp/cc30ujBa.s 			page 44


 2452 0c0e 31       		.uleb128 0x31
 2453 0c0f 32       		.uleb128 0x32
 2454 0c10 C3000000 		.4byte	0xc3
 2455 0c14 FF01     		.2byte	0x1ff
 2456 0c16 00       		.byte	0
 2457 0c17 33       		.uleb128 0x33
 2458 0c18 C6050000 		.4byte	.LASF109
 2459 0c1c 0C       		.byte	0xc
 2460 0c1d 36       		.byte	0x36
 2461 0c1e 050C0000 		.4byte	0xc05
 2462 0c22 33       		.uleb128 0x33
 2463 0c23 00000000 		.4byte	.LASF110
 2464 0c27 0C       		.byte	0xc
 2465 0c28 38       		.byte	0x38
 2466 0c29 050C0000 		.4byte	0xc05
 2467 0c2d 33       		.uleb128 0x33
 2468 0c2e F4080000 		.4byte	.LASF111
 2469 0c32 0C       		.byte	0xc
 2470 0c33 3A       		.byte	0x3a
 2471 0c34 050C0000 		.4byte	0xc05
 2472 0c38 09       		.uleb128 0x9
 2473 0c39 AD000000 		.4byte	0xad
 2474 0c3d 430C0000 		.4byte	0xc43
 2475 0c41 31       		.uleb128 0x31
 2476 0c42 00       		.byte	0
 2477 0c43 33       		.uleb128 0x33
 2478 0c44 0C0A0000 		.4byte	.LASF112
 2479 0c48 0C       		.byte	0xc
 2480 0c49 3C       		.byte	0x3c
 2481 0c4a 4E0C0000 		.4byte	0xc4e
 2482 0c4e 0C       		.uleb128 0xc
 2483 0c4f 380C0000 		.4byte	0xc38
 2484 0c53 09       		.uleb128 0x9
 2485 0c54 B8000000 		.4byte	0xb8
 2486 0c58 5E0C0000 		.4byte	0xc5e
 2487 0c5c 31       		.uleb128 0x31
 2488 0c5d 00       		.byte	0
 2489 0c5e 33       		.uleb128 0x33
 2490 0c5f 5F030000 		.4byte	.LASF113
 2491 0c63 0C       		.byte	0xc
 2492 0c64 3E       		.byte	0x3e
 2493 0c65 690C0000 		.4byte	0xc69
 2494 0c69 0C       		.uleb128 0xc
 2495 0c6a 530C0000 		.4byte	0xc53
 2496 0c6e 33       		.uleb128 0x33
 2497 0c6f 9F010000 		.4byte	.LASF114
 2498 0c73 0C       		.byte	0xc
 2499 0c74 43       		.byte	0x43
 2500 0c75 790C0000 		.4byte	0xc79
 2501 0c79 0C       		.uleb128 0xc
 2502 0c7a 530C0000 		.4byte	0xc53
 2503 0c7e 33       		.uleb128 0x33
 2504 0c7f A3080000 		.4byte	.LASF115
 2505 0c83 0C       		.byte	0xc
 2506 0c84 44       		.byte	0x44
 2507 0c85 890C0000 		.4byte	0xc89
 2508 0c89 0C       		.uleb128 0xc
ARM GAS  /tmp/cc30ujBa.s 			page 45


 2509 0c8a 530C0000 		.4byte	0xc53
 2510 0c8e 33       		.uleb128 0x33
 2511 0c8f DF010000 		.4byte	.LASF116
 2512 0c93 0C       		.byte	0xc
 2513 0c94 45       		.byte	0x45
 2514 0c95 990C0000 		.4byte	0xc99
 2515 0c99 0C       		.uleb128 0xc
 2516 0c9a 530C0000 		.4byte	0xc53
 2517 0c9e 09       		.uleb128 0x9
 2518 0c9f 97000000 		.4byte	0x97
 2519 0ca3 A90C0000 		.4byte	0xca9
 2520 0ca7 31       		.uleb128 0x31
 2521 0ca8 00       		.byte	0
 2522 0ca9 33       		.uleb128 0x33
 2523 0caa 48050000 		.4byte	.LASF117
 2524 0cae 0C       		.byte	0xc
 2525 0caf 49       		.byte	0x49
 2526 0cb0 9E0C0000 		.4byte	0xc9e
 2527 0cb4 33       		.uleb128 0x33
 2528 0cb5 06060000 		.4byte	.LASF118
 2529 0cb9 0C       		.byte	0xc
 2530 0cba 4D       		.byte	0x4d
 2531 0cbb 9E0C0000 		.4byte	0xc9e
 2532 0cbf 33       		.uleb128 0x33
 2533 0cc0 16060000 		.4byte	.LASF119
 2534 0cc4 0C       		.byte	0xc
 2535 0cc5 4E       		.byte	0x4e
 2536 0cc6 9E0C0000 		.4byte	0xc9e
 2537 0cca 09       		.uleb128 0x9
 2538 0ccb 0D030000 		.4byte	0x30d
 2539 0ccf E00C0000 		.4byte	0xce0
 2540 0cd3 0A       		.uleb128 0xa
 2541 0cd4 C3000000 		.4byte	0xc3
 2542 0cd8 09       		.byte	0x9
 2543 0cd9 0A       		.uleb128 0xa
 2544 0cda C3000000 		.4byte	0xc3
 2545 0cde 01       		.byte	0x1
 2546 0cdf 00       		.byte	0
 2547 0ce0 33       		.uleb128 0x33
 2548 0ce1 27090000 		.4byte	.LASF120
 2549 0ce5 02       		.byte	0x2
 2550 0ce6 C9       		.byte	0xc9
 2551 0ce7 CA0C0000 		.4byte	0xcca
 2552 0ceb 33       		.uleb128 0x33
 2553 0cec 72010000 		.4byte	.LASF121
 2554 0cf0 0D       		.byte	0xd
 2555 0cf1 54       		.byte	0x54
 2556 0cf2 21010000 		.4byte	0x121
 2557 0cf6 33       		.uleb128 0x33
 2558 0cf7 2E030000 		.4byte	.LASF122
 2559 0cfb 0D       		.byte	0xd
 2560 0cfc 8B       		.byte	0x8b
 2561 0cfd 010D0000 		.4byte	0xd01
 2562 0d01 0C       		.uleb128 0xc
 2563 0d02 9E0C0000 		.4byte	0xc9e
 2564 0d06 34       		.uleb128 0x34
 2565 0d07 BF030000 		.4byte	.LASF123
ARM GAS  /tmp/cc30ujBa.s 			page 46


 2566 0d0b 01       		.byte	0x1
 2567 0d0c 2A       		.byte	0x2a
 2568 0d0d 97000000 		.4byte	0x97
 2569 0d11 05       		.uleb128 0x5
 2570 0d12 03       		.byte	0x3
 2571 0d13 00000000 		.4byte	USB_Device_ConfigurationNumber
 2572 0d17 34       		.uleb128 0x34
 2573 0d18 76090000 		.4byte	.LASF124
 2574 0d1c 01       		.byte	0x1
 2575 0d1d 31       		.byte	0x31
 2576 0d1e B5030000 		.4byte	0x3b5
 2577 0d22 05       		.uleb128 0x5
 2578 0d23 03       		.byte	0x3
 2579 0d24 00000000 		.4byte	USB_Device_RemoteWakeupEnabled
 2580 0d28 34       		.uleb128 0x34
 2581 0d29 36040000 		.4byte	.LASF125
 2582 0d2d 01       		.byte	0x1
 2583 0d2e 2D       		.byte	0x2d
 2584 0d2f B5030000 		.4byte	0x3b5
 2585 0d33 05       		.uleb128 0x5
 2586 0d34 03       		.byte	0x3
 2587 0d35 00000000 		.4byte	USB_Device_CurrentlySelfPowered
 2588 0d39 35       		.uleb128 0x35
 2589 0d3a 76070000 		.4byte	.LASF126
 2590 0d3e 02       		.byte	0x2
 2591 0d3f C4       		.byte	0xc4
 2592 0d40 540D0000 		.4byte	0xd54
 2593 0d44 36       		.uleb128 0x36
 2594 0d45 97000000 		.4byte	0x97
 2595 0d49 36       		.uleb128 0x36
 2596 0d4a 540D0000 		.4byte	0xd54
 2597 0d4e 36       		.uleb128 0x36
 2598 0d4f B8000000 		.4byte	0xb8
 2599 0d53 00       		.byte	0
 2600 0d54 1C       		.uleb128 0x1c
 2601 0d55 04       		.byte	0x4
 2602 0d56 97000000 		.4byte	0x97
 2603 0d5a 37       		.uleb128 0x37
 2604 0d5b 01080000 		.4byte	.LASF127
 2605 0d5f 02       		.byte	0x2
 2606 0d60 8801     		.2byte	0x188
 2607 0d62 6C0D0000 		.4byte	0xd6c
 2608 0d66 36       		.uleb128 0x36
 2609 0d67 97000000 		.4byte	0x97
 2610 0d6b 00       		.byte	0
 2611 0d6c 35       		.uleb128 0x35
 2612 0d6d F9010000 		.4byte	.LASF128
 2613 0d71 0A       		.byte	0xa
 2614 0d72 4A       		.byte	0x4a
 2615 0d73 7D0D0000 		.4byte	0xd7d
 2616 0d77 36       		.uleb128 0x36
 2617 0d78 97000000 		.4byte	0x97
 2618 0d7c 00       		.byte	0
 2619 0d7d 38       		.uleb128 0x38
 2620 0d7e E0090000 		.4byte	.LASF129
 2621 0d82 0B       		.byte	0xb
 2622 0d83 7F       		.byte	0x7f
ARM GAS  /tmp/cc30ujBa.s 			page 47


 2623 0d84 A2000000 		.4byte	0xa2
 2624 0d88 A10D0000 		.4byte	0xda1
 2625 0d8c 36       		.uleb128 0x36
 2626 0d8d 97000000 		.4byte	0x97
 2627 0d91 36       		.uleb128 0x36
 2628 0d92 FC030000 		.4byte	0x3fc
 2629 0d96 36       		.uleb128 0x36
 2630 0d97 6F030000 		.4byte	0x36f
 2631 0d9b 36       		.uleb128 0x36
 2632 0d9c A10D0000 		.4byte	0xda1
 2633 0da0 00       		.byte	0
 2634 0da1 0B       		.uleb128 0xb
 2635 0da2 A60D0000 		.4byte	0xda6
 2636 0da6 1C       		.uleb128 0x1c
 2637 0da7 04       		.byte	0x4
 2638 0da8 05060000 		.4byte	0x605
 2639 0dac 39       		.uleb128 0x39
 2640 0dad 3E030000 		.4byte	.LASF130
 2641 0db1 0E       		.byte	0xe
 2642 0db2 A301     		.2byte	0x1a3
 2643 0db4 97000000 		.4byte	0x97
 2644 0db8 CC0D0000 		.4byte	0xdcc
 2645 0dbc 36       		.uleb128 0x36
 2646 0dbd 97000000 		.4byte	0x97
 2647 0dc1 36       		.uleb128 0x36
 2648 0dc2 CC0D0000 		.4byte	0xdcc
 2649 0dc6 36       		.uleb128 0x36
 2650 0dc7 A2000000 		.4byte	0xa2
 2651 0dcb 00       		.byte	0
 2652 0dcc 0B       		.uleb128 0xb
 2653 0dcd 05060000 		.4byte	0x605
 2654 0dd1 3A       		.uleb128 0x3a
 2655 0dd2 BA060000 		.4byte	.LASF132
 2656 0dd6 0F       		.byte	0xf
 2657 0dd7 FF       		.byte	0xff
 2658 0dd8 37       		.uleb128 0x37
 2659 0dd9 BC080000 		.4byte	.LASF131
 2660 0ddd 03       		.byte	0x3
 2661 0dde 0C02     		.2byte	0x20c
 2662 0de0 EF0D0000 		.4byte	0xdef
 2663 0de4 36       		.uleb128 0x36
 2664 0de5 97000000 		.4byte	0x97
 2665 0de9 36       		.uleb128 0x36
 2666 0dea 540D0000 		.4byte	0xd54
 2667 0dee 00       		.byte	0
 2668 0def 3A       		.uleb128 0x3a
 2669 0df0 C9000000 		.4byte	.LASF133
 2670 0df4 0F       		.byte	0xf
 2671 0df5 F1       		.byte	0xf1
 2672 0df6 00       		.byte	0
 2673              		.section	.debug_abbrev,"",%progbits
 2674              	.Ldebug_abbrev0:
 2675 0000 01       		.uleb128 0x1
 2676 0001 11       		.uleb128 0x11
 2677 0002 01       		.byte	0x1
 2678 0003 25       		.uleb128 0x25
 2679 0004 0E       		.uleb128 0xe
ARM GAS  /tmp/cc30ujBa.s 			page 48


 2680 0005 13       		.uleb128 0x13
 2681 0006 0B       		.uleb128 0xb
 2682 0007 03       		.uleb128 0x3
 2683 0008 0E       		.uleb128 0xe
 2684 0009 1B       		.uleb128 0x1b
 2685 000a 0E       		.uleb128 0xe
 2686 000b 55       		.uleb128 0x55
 2687 000c 17       		.uleb128 0x17
 2688 000d 11       		.uleb128 0x11
 2689 000e 01       		.uleb128 0x1
 2690 000f 10       		.uleb128 0x10
 2691 0010 17       		.uleb128 0x17
 2692 0011 00       		.byte	0
 2693 0012 00       		.byte	0
 2694 0013 02       		.uleb128 0x2
 2695 0014 24       		.uleb128 0x24
 2696 0015 00       		.byte	0
 2697 0016 0B       		.uleb128 0xb
 2698 0017 0B       		.uleb128 0xb
 2699 0018 3E       		.uleb128 0x3e
 2700 0019 0B       		.uleb128 0xb
 2701 001a 03       		.uleb128 0x3
 2702 001b 0E       		.uleb128 0xe
 2703 001c 00       		.byte	0
 2704 001d 00       		.byte	0
 2705 001e 03       		.uleb128 0x3
 2706 001f 16       		.uleb128 0x16
 2707 0020 00       		.byte	0
 2708 0021 03       		.uleb128 0x3
 2709 0022 0E       		.uleb128 0xe
 2710 0023 3A       		.uleb128 0x3a
 2711 0024 0B       		.uleb128 0xb
 2712 0025 3B       		.uleb128 0x3b
 2713 0026 0B       		.uleb128 0xb
 2714 0027 49       		.uleb128 0x49
 2715 0028 13       		.uleb128 0x13
 2716 0029 00       		.byte	0
 2717 002a 00       		.byte	0
 2718 002b 04       		.uleb128 0x4
 2719 002c 24       		.uleb128 0x24
 2720 002d 00       		.byte	0
 2721 002e 0B       		.uleb128 0xb
 2722 002f 0B       		.uleb128 0xb
 2723 0030 3E       		.uleb128 0x3e
 2724 0031 0B       		.uleb128 0xb
 2725 0032 03       		.uleb128 0x3
 2726 0033 08       		.uleb128 0x8
 2727 0034 00       		.byte	0
 2728 0035 00       		.byte	0
 2729 0036 05       		.uleb128 0x5
 2730 0037 13       		.uleb128 0x13
 2731 0038 01       		.byte	0x1
 2732 0039 0B       		.uleb128 0xb
 2733 003a 0B       		.uleb128 0xb
 2734 003b 3A       		.uleb128 0x3a
 2735 003c 0B       		.uleb128 0xb
 2736 003d 3B       		.uleb128 0x3b
ARM GAS  /tmp/cc30ujBa.s 			page 49


 2737 003e 0B       		.uleb128 0xb
 2738 003f 01       		.uleb128 0x1
 2739 0040 13       		.uleb128 0x13
 2740 0041 00       		.byte	0
 2741 0042 00       		.byte	0
 2742 0043 06       		.uleb128 0x6
 2743 0044 0D       		.uleb128 0xd
 2744 0045 00       		.byte	0
 2745 0046 03       		.uleb128 0x3
 2746 0047 0E       		.uleb128 0xe
 2747 0048 3A       		.uleb128 0x3a
 2748 0049 0B       		.uleb128 0xb
 2749 004a 3B       		.uleb128 0x3b
 2750 004b 0B       		.uleb128 0xb
 2751 004c 49       		.uleb128 0x49
 2752 004d 13       		.uleb128 0x13
 2753 004e 38       		.uleb128 0x38
 2754 004f 0B       		.uleb128 0xb
 2755 0050 00       		.byte	0
 2756 0051 00       		.byte	0
 2757 0052 07       		.uleb128 0x7
 2758 0053 04       		.uleb128 0x4
 2759 0054 01       		.byte	0x1
 2760 0055 03       		.uleb128 0x3
 2761 0056 0E       		.uleb128 0xe
 2762 0057 0B       		.uleb128 0xb
 2763 0058 0B       		.uleb128 0xb
 2764 0059 3A       		.uleb128 0x3a
 2765 005a 0B       		.uleb128 0xb
 2766 005b 3B       		.uleb128 0x3b
 2767 005c 0B       		.uleb128 0xb
 2768 005d 01       		.uleb128 0x1
 2769 005e 13       		.uleb128 0x13
 2770 005f 00       		.byte	0
 2771 0060 00       		.byte	0
 2772 0061 08       		.uleb128 0x8
 2773 0062 28       		.uleb128 0x28
 2774 0063 00       		.byte	0
 2775 0064 03       		.uleb128 0x3
 2776 0065 0E       		.uleb128 0xe
 2777 0066 1C       		.uleb128 0x1c
 2778 0067 0D       		.uleb128 0xd
 2779 0068 00       		.byte	0
 2780 0069 00       		.byte	0
 2781 006a 09       		.uleb128 0x9
 2782 006b 01       		.uleb128 0x1
 2783 006c 01       		.byte	0x1
 2784 006d 49       		.uleb128 0x49
 2785 006e 13       		.uleb128 0x13
 2786 006f 01       		.uleb128 0x1
 2787 0070 13       		.uleb128 0x13
 2788 0071 00       		.byte	0
 2789 0072 00       		.byte	0
 2790 0073 0A       		.uleb128 0xa
 2791 0074 21       		.uleb128 0x21
 2792 0075 00       		.byte	0
 2793 0076 49       		.uleb128 0x49
ARM GAS  /tmp/cc30ujBa.s 			page 50


 2794 0077 13       		.uleb128 0x13
 2795 0078 2F       		.uleb128 0x2f
 2796 0079 0B       		.uleb128 0xb
 2797 007a 00       		.byte	0
 2798 007b 00       		.byte	0
 2799 007c 0B       		.uleb128 0xb
 2800 007d 26       		.uleb128 0x26
 2801 007e 00       		.byte	0
 2802 007f 49       		.uleb128 0x49
 2803 0080 13       		.uleb128 0x13
 2804 0081 00       		.byte	0
 2805 0082 00       		.byte	0
 2806 0083 0C       		.uleb128 0xc
 2807 0084 35       		.uleb128 0x35
 2808 0085 00       		.byte	0
 2809 0086 49       		.uleb128 0x49
 2810 0087 13       		.uleb128 0x13
 2811 0088 00       		.byte	0
 2812 0089 00       		.byte	0
 2813 008a 0D       		.uleb128 0xd
 2814 008b 13       		.uleb128 0x13
 2815 008c 01       		.byte	0x1
 2816 008d 0B       		.uleb128 0xb
 2817 008e 0B       		.uleb128 0xb
 2818 008f 3A       		.uleb128 0x3a
 2819 0090 0B       		.uleb128 0xb
 2820 0091 3B       		.uleb128 0x3b
 2821 0092 05       		.uleb128 0x5
 2822 0093 01       		.uleb128 0x1
 2823 0094 13       		.uleb128 0x13
 2824 0095 00       		.byte	0
 2825 0096 00       		.byte	0
 2826 0097 0E       		.uleb128 0xe
 2827 0098 0D       		.uleb128 0xd
 2828 0099 00       		.byte	0
 2829 009a 03       		.uleb128 0x3
 2830 009b 0E       		.uleb128 0xe
 2831 009c 3A       		.uleb128 0x3a
 2832 009d 0B       		.uleb128 0xb
 2833 009e 3B       		.uleb128 0x3b
 2834 009f 05       		.uleb128 0x5
 2835 00a0 49       		.uleb128 0x49
 2836 00a1 13       		.uleb128 0x13
 2837 00a2 38       		.uleb128 0x38
 2838 00a3 0B       		.uleb128 0xb
 2839 00a4 00       		.byte	0
 2840 00a5 00       		.byte	0
 2841 00a6 0F       		.uleb128 0xf
 2842 00a7 0D       		.uleb128 0xd
 2843 00a8 00       		.byte	0
 2844 00a9 03       		.uleb128 0x3
 2845 00aa 08       		.uleb128 0x8
 2846 00ab 3A       		.uleb128 0x3a
 2847 00ac 0B       		.uleb128 0xb
 2848 00ad 3B       		.uleb128 0x3b
 2849 00ae 05       		.uleb128 0x5
 2850 00af 49       		.uleb128 0x49
ARM GAS  /tmp/cc30ujBa.s 			page 51


 2851 00b0 13       		.uleb128 0x13
 2852 00b1 38       		.uleb128 0x38
 2853 00b2 0B       		.uleb128 0xb
 2854 00b3 00       		.byte	0
 2855 00b4 00       		.byte	0
 2856 00b5 10       		.uleb128 0x10
 2857 00b6 16       		.uleb128 0x16
 2858 00b7 00       		.byte	0
 2859 00b8 03       		.uleb128 0x3
 2860 00b9 0E       		.uleb128 0xe
 2861 00ba 3A       		.uleb128 0x3a
 2862 00bb 0B       		.uleb128 0xb
 2863 00bc 3B       		.uleb128 0x3b
 2864 00bd 05       		.uleb128 0x5
 2865 00be 49       		.uleb128 0x49
 2866 00bf 13       		.uleb128 0x13
 2867 00c0 00       		.byte	0
 2868 00c1 00       		.byte	0
 2869 00c2 11       		.uleb128 0x11
 2870 00c3 0D       		.uleb128 0xd
 2871 00c4 00       		.byte	0
 2872 00c5 03       		.uleb128 0x3
 2873 00c6 0E       		.uleb128 0xe
 2874 00c7 3A       		.uleb128 0x3a
 2875 00c8 0B       		.uleb128 0xb
 2876 00c9 3B       		.uleb128 0x3b
 2877 00ca 0B       		.uleb128 0xb
 2878 00cb 49       		.uleb128 0x49
 2879 00cc 13       		.uleb128 0x13
 2880 00cd 0B       		.uleb128 0xb
 2881 00ce 0B       		.uleb128 0xb
 2882 00cf 0D       		.uleb128 0xd
 2883 00d0 0B       		.uleb128 0xb
 2884 00d1 0C       		.uleb128 0xc
 2885 00d2 0B       		.uleb128 0xb
 2886 00d3 38       		.uleb128 0x38
 2887 00d4 0B       		.uleb128 0xb
 2888 00d5 00       		.byte	0
 2889 00d6 00       		.byte	0
 2890 00d7 12       		.uleb128 0x12
 2891 00d8 2E       		.uleb128 0x2e
 2892 00d9 01       		.byte	0x1
 2893 00da 03       		.uleb128 0x3
 2894 00db 0E       		.uleb128 0xe
 2895 00dc 3A       		.uleb128 0x3a
 2896 00dd 0B       		.uleb128 0xb
 2897 00de 3B       		.uleb128 0x3b
 2898 00df 05       		.uleb128 0x5
 2899 00e0 27       		.uleb128 0x27
 2900 00e1 19       		.uleb128 0x19
 2901 00e2 20       		.uleb128 0x20
 2902 00e3 0B       		.uleb128 0xb
 2903 00e4 01       		.uleb128 0x1
 2904 00e5 13       		.uleb128 0x13
 2905 00e6 00       		.byte	0
 2906 00e7 00       		.byte	0
 2907 00e8 13       		.uleb128 0x13
ARM GAS  /tmp/cc30ujBa.s 			page 52


 2908 00e9 05       		.uleb128 0x5
 2909 00ea 00       		.byte	0
 2910 00eb 03       		.uleb128 0x3
 2911 00ec 0E       		.uleb128 0xe
 2912 00ed 3A       		.uleb128 0x3a
 2913 00ee 0B       		.uleb128 0xb
 2914 00ef 3B       		.uleb128 0x3b
 2915 00f0 05       		.uleb128 0x5
 2916 00f1 49       		.uleb128 0x49
 2917 00f2 13       		.uleb128 0x13
 2918 00f3 00       		.byte	0
 2919 00f4 00       		.byte	0
 2920 00f5 14       		.uleb128 0x14
 2921 00f6 2E       		.uleb128 0x2e
 2922 00f7 01       		.byte	0x1
 2923 00f8 03       		.uleb128 0x3
 2924 00f9 0E       		.uleb128 0xe
 2925 00fa 3A       		.uleb128 0x3a
 2926 00fb 0B       		.uleb128 0xb
 2927 00fc 3B       		.uleb128 0x3b
 2928 00fd 0B       		.uleb128 0xb
 2929 00fe 27       		.uleb128 0x27
 2930 00ff 19       		.uleb128 0x19
 2931 0100 20       		.uleb128 0x20
 2932 0101 0B       		.uleb128 0xb
 2933 0102 01       		.uleb128 0x1
 2934 0103 13       		.uleb128 0x13
 2935 0104 00       		.byte	0
 2936 0105 00       		.byte	0
 2937 0106 15       		.uleb128 0x15
 2938 0107 05       		.uleb128 0x5
 2939 0108 00       		.byte	0
 2940 0109 03       		.uleb128 0x3
 2941 010a 0E       		.uleb128 0xe
 2942 010b 3A       		.uleb128 0x3a
 2943 010c 0B       		.uleb128 0xb
 2944 010d 3B       		.uleb128 0x3b
 2945 010e 0B       		.uleb128 0xb
 2946 010f 49       		.uleb128 0x49
 2947 0110 13       		.uleb128 0x13
 2948 0111 00       		.byte	0
 2949 0112 00       		.byte	0
 2950 0113 16       		.uleb128 0x16
 2951 0114 2E       		.uleb128 0x2e
 2952 0115 01       		.byte	0x1
 2953 0116 03       		.uleb128 0x3
 2954 0117 0E       		.uleb128 0xe
 2955 0118 3A       		.uleb128 0x3a
 2956 0119 0B       		.uleb128 0xb
 2957 011a 3B       		.uleb128 0x3b
 2958 011b 05       		.uleb128 0x5
 2959 011c 27       		.uleb128 0x27
 2960 011d 19       		.uleb128 0x19
 2961 011e 49       		.uleb128 0x49
 2962 011f 13       		.uleb128 0x13
 2963 0120 20       		.uleb128 0x20
 2964 0121 0B       		.uleb128 0xb
ARM GAS  /tmp/cc30ujBa.s 			page 53


 2965 0122 01       		.uleb128 0x1
 2966 0123 13       		.uleb128 0x13
 2967 0124 00       		.byte	0
 2968 0125 00       		.byte	0
 2969 0126 17       		.uleb128 0x17
 2970 0127 34       		.uleb128 0x34
 2971 0128 00       		.byte	0
 2972 0129 03       		.uleb128 0x3
 2973 012a 0E       		.uleb128 0xe
 2974 012b 3A       		.uleb128 0x3a
 2975 012c 0B       		.uleb128 0xb
 2976 012d 3B       		.uleb128 0x3b
 2977 012e 05       		.uleb128 0x5
 2978 012f 49       		.uleb128 0x49
 2979 0130 13       		.uleb128 0x13
 2980 0131 00       		.byte	0
 2981 0132 00       		.byte	0
 2982 0133 18       		.uleb128 0x18
 2983 0134 2E       		.uleb128 0x2e
 2984 0135 00       		.byte	0
 2985 0136 03       		.uleb128 0x3
 2986 0137 0E       		.uleb128 0xe
 2987 0138 3A       		.uleb128 0x3a
 2988 0139 0B       		.uleb128 0xb
 2989 013a 3B       		.uleb128 0x3b
 2990 013b 0B       		.uleb128 0xb
 2991 013c 27       		.uleb128 0x27
 2992 013d 19       		.uleb128 0x19
 2993 013e 49       		.uleb128 0x49
 2994 013f 13       		.uleb128 0x13
 2995 0140 20       		.uleb128 0x20
 2996 0141 0B       		.uleb128 0xb
 2997 0142 00       		.byte	0
 2998 0143 00       		.byte	0
 2999 0144 19       		.uleb128 0x19
 3000 0145 2E       		.uleb128 0x2e
 3001 0146 00       		.byte	0
 3002 0147 03       		.uleb128 0x3
 3003 0148 0E       		.uleb128 0xe
 3004 0149 3A       		.uleb128 0x3a
 3005 014a 0B       		.uleb128 0xb
 3006 014b 3B       		.uleb128 0x3b
 3007 014c 0B       		.uleb128 0xb
 3008 014d 27       		.uleb128 0x27
 3009 014e 19       		.uleb128 0x19
 3010 014f 20       		.uleb128 0x20
 3011 0150 0B       		.uleb128 0xb
 3012 0151 00       		.byte	0
 3013 0152 00       		.byte	0
 3014 0153 1A       		.uleb128 0x1a
 3015 0154 0B       		.uleb128 0xb
 3016 0155 01       		.byte	0x1
 3017 0156 00       		.byte	0
 3018 0157 00       		.byte	0
 3019 0158 1B       		.uleb128 0x1b
 3020 0159 34       		.uleb128 0x34
 3021 015a 00       		.byte	0
ARM GAS  /tmp/cc30ujBa.s 			page 54


 3022 015b 03       		.uleb128 0x3
 3023 015c 0E       		.uleb128 0xe
 3024 015d 3A       		.uleb128 0x3a
 3025 015e 0B       		.uleb128 0xb
 3026 015f 3B       		.uleb128 0x3b
 3027 0160 0B       		.uleb128 0xb
 3028 0161 49       		.uleb128 0x49
 3029 0162 13       		.uleb128 0x13
 3030 0163 00       		.byte	0
 3031 0164 00       		.byte	0
 3032 0165 1C       		.uleb128 0x1c
 3033 0166 0F       		.uleb128 0xf
 3034 0167 00       		.byte	0
 3035 0168 0B       		.uleb128 0xb
 3036 0169 0B       		.uleb128 0xb
 3037 016a 49       		.uleb128 0x49
 3038 016b 13       		.uleb128 0x13
 3039 016c 00       		.byte	0
 3040 016d 00       		.byte	0
 3041 016e 1D       		.uleb128 0x1d
 3042 016f 26       		.uleb128 0x26
 3043 0170 00       		.byte	0
 3044 0171 00       		.byte	0
 3045 0172 00       		.byte	0
 3046 0173 1E       		.uleb128 0x1e
 3047 0174 2E       		.uleb128 0x2e
 3048 0175 01       		.byte	0x1
 3049 0176 3F       		.uleb128 0x3f
 3050 0177 19       		.uleb128 0x19
 3051 0178 03       		.uleb128 0x3
 3052 0179 0E       		.uleb128 0xe
 3053 017a 3A       		.uleb128 0x3a
 3054 017b 0B       		.uleb128 0xb
 3055 017c 3B       		.uleb128 0x3b
 3056 017d 0B       		.uleb128 0xb
 3057 017e 27       		.uleb128 0x27
 3058 017f 19       		.uleb128 0x19
 3059 0180 11       		.uleb128 0x11
 3060 0181 01       		.uleb128 0x1
 3061 0182 12       		.uleb128 0x12
 3062 0183 06       		.uleb128 0x6
 3063 0184 40       		.uleb128 0x40
 3064 0185 18       		.uleb128 0x18
 3065 0186 9742     		.uleb128 0x2117
 3066 0188 19       		.uleb128 0x19
 3067 0189 01       		.uleb128 0x1
 3068 018a 13       		.uleb128 0x13
 3069 018b 00       		.byte	0
 3070 018c 00       		.byte	0
 3071 018d 1F       		.uleb128 0x1f
 3072 018e 05       		.uleb128 0x5
 3073 018f 00       		.byte	0
 3074 0190 03       		.uleb128 0x3
 3075 0191 0E       		.uleb128 0xe
 3076 0192 3A       		.uleb128 0x3a
 3077 0193 0B       		.uleb128 0xb
 3078 0194 3B       		.uleb128 0x3b
ARM GAS  /tmp/cc30ujBa.s 			page 55


 3079 0195 0B       		.uleb128 0xb
 3080 0196 49       		.uleb128 0x49
 3081 0197 13       		.uleb128 0x13
 3082 0198 02       		.uleb128 0x2
 3083 0199 17       		.uleb128 0x17
 3084 019a 00       		.byte	0
 3085 019b 00       		.byte	0
 3086 019c 20       		.uleb128 0x20
 3087 019d 1D       		.uleb128 0x1d
 3088 019e 01       		.byte	0x1
 3089 019f 31       		.uleb128 0x31
 3090 01a0 13       		.uleb128 0x13
 3091 01a1 11       		.uleb128 0x11
 3092 01a2 01       		.uleb128 0x1
 3093 01a3 12       		.uleb128 0x12
 3094 01a4 06       		.uleb128 0x6
 3095 01a5 58       		.uleb128 0x58
 3096 01a6 0B       		.uleb128 0xb
 3097 01a7 59       		.uleb128 0x59
 3098 01a8 0B       		.uleb128 0xb
 3099 01a9 01       		.uleb128 0x1
 3100 01aa 13       		.uleb128 0x13
 3101 01ab 00       		.byte	0
 3102 01ac 00       		.byte	0
 3103 01ad 21       		.uleb128 0x21
 3104 01ae 05       		.uleb128 0x5
 3105 01af 00       		.byte	0
 3106 01b0 31       		.uleb128 0x31
 3107 01b1 13       		.uleb128 0x13
 3108 01b2 02       		.uleb128 0x2
 3109 01b3 17       		.uleb128 0x17
 3110 01b4 00       		.byte	0
 3111 01b5 00       		.byte	0
 3112 01b6 22       		.uleb128 0x22
 3113 01b7 0B       		.uleb128 0xb
 3114 01b8 01       		.byte	0x1
 3115 01b9 55       		.uleb128 0x55
 3116 01ba 17       		.uleb128 0x17
 3117 01bb 01       		.uleb128 0x1
 3118 01bc 13       		.uleb128 0x13
 3119 01bd 00       		.byte	0
 3120 01be 00       		.byte	0
 3121 01bf 23       		.uleb128 0x23
 3122 01c0 34       		.uleb128 0x34
 3123 01c1 00       		.byte	0
 3124 01c2 03       		.uleb128 0x3
 3125 01c3 0E       		.uleb128 0xe
 3126 01c4 3A       		.uleb128 0x3a
 3127 01c5 0B       		.uleb128 0xb
 3128 01c6 3B       		.uleb128 0x3b
 3129 01c7 0B       		.uleb128 0xb
 3130 01c8 49       		.uleb128 0x49
 3131 01c9 13       		.uleb128 0x13
 3132 01ca 02       		.uleb128 0x2
 3133 01cb 17       		.uleb128 0x17
 3134 01cc 00       		.byte	0
 3135 01cd 00       		.byte	0
ARM GAS  /tmp/cc30ujBa.s 			page 56


 3136 01ce 24       		.uleb128 0x24
 3137 01cf 0B       		.uleb128 0xb
 3138 01d0 01       		.byte	0x1
 3139 01d1 11       		.uleb128 0x11
 3140 01d2 01       		.uleb128 0x1
 3141 01d3 12       		.uleb128 0x12
 3142 01d4 06       		.uleb128 0x6
 3143 01d5 00       		.byte	0
 3144 01d6 00       		.byte	0
 3145 01d7 25       		.uleb128 0x25
 3146 01d8 34       		.uleb128 0x34
 3147 01d9 00       		.byte	0
 3148 01da 31       		.uleb128 0x31
 3149 01db 13       		.uleb128 0x13
 3150 01dc 02       		.uleb128 0x2
 3151 01dd 17       		.uleb128 0x17
 3152 01de 00       		.byte	0
 3153 01df 00       		.byte	0
 3154 01e0 26       		.uleb128 0x26
 3155 01e1 1D       		.uleb128 0x1d
 3156 01e2 01       		.byte	0x1
 3157 01e3 31       		.uleb128 0x31
 3158 01e4 13       		.uleb128 0x13
 3159 01e5 11       		.uleb128 0x11
 3160 01e6 01       		.uleb128 0x1
 3161 01e7 12       		.uleb128 0x12
 3162 01e8 06       		.uleb128 0x6
 3163 01e9 58       		.uleb128 0x58
 3164 01ea 0B       		.uleb128 0xb
 3165 01eb 59       		.uleb128 0x59
 3166 01ec 05       		.uleb128 0x5
 3167 01ed 01       		.uleb128 0x1
 3168 01ee 13       		.uleb128 0x13
 3169 01ef 00       		.byte	0
 3170 01f0 00       		.byte	0
 3171 01f1 27       		.uleb128 0x27
 3172 01f2 1D       		.uleb128 0x1d
 3173 01f3 01       		.byte	0x1
 3174 01f4 31       		.uleb128 0x31
 3175 01f5 13       		.uleb128 0x13
 3176 01f6 11       		.uleb128 0x11
 3177 01f7 01       		.uleb128 0x1
 3178 01f8 12       		.uleb128 0x12
 3179 01f9 06       		.uleb128 0x6
 3180 01fa 58       		.uleb128 0x58
 3181 01fb 0B       		.uleb128 0xb
 3182 01fc 59       		.uleb128 0x59
 3183 01fd 05       		.uleb128 0x5
 3184 01fe 00       		.byte	0
 3185 01ff 00       		.byte	0
 3186 0200 28       		.uleb128 0x28
 3187 0201 898201   		.uleb128 0x4109
 3188 0204 01       		.byte	0x1
 3189 0205 11       		.uleb128 0x11
 3190 0206 01       		.uleb128 0x1
 3191 0207 31       		.uleb128 0x31
 3192 0208 13       		.uleb128 0x13
ARM GAS  /tmp/cc30ujBa.s 			page 57


 3193 0209 01       		.uleb128 0x1
 3194 020a 13       		.uleb128 0x13
 3195 020b 00       		.byte	0
 3196 020c 00       		.byte	0
 3197 020d 29       		.uleb128 0x29
 3198 020e 8A8201   		.uleb128 0x410a
 3199 0211 00       		.byte	0
 3200 0212 02       		.uleb128 0x2
 3201 0213 18       		.uleb128 0x18
 3202 0214 9142     		.uleb128 0x2111
 3203 0216 18       		.uleb128 0x18
 3204 0217 00       		.byte	0
 3205 0218 00       		.byte	0
 3206 0219 2A       		.uleb128 0x2a
 3207 021a 898201   		.uleb128 0x4109
 3208 021d 01       		.byte	0x1
 3209 021e 11       		.uleb128 0x11
 3210 021f 01       		.uleb128 0x1
 3211 0220 31       		.uleb128 0x31
 3212 0221 13       		.uleb128 0x13
 3213 0222 00       		.byte	0
 3214 0223 00       		.byte	0
 3215 0224 2B       		.uleb128 0x2b
 3216 0225 1D       		.uleb128 0x1d
 3217 0226 01       		.byte	0x1
 3218 0227 31       		.uleb128 0x31
 3219 0228 13       		.uleb128 0x13
 3220 0229 52       		.uleb128 0x52
 3221 022a 01       		.uleb128 0x1
 3222 022b 55       		.uleb128 0x55
 3223 022c 17       		.uleb128 0x17
 3224 022d 58       		.uleb128 0x58
 3225 022e 0B       		.uleb128 0xb
 3226 022f 59       		.uleb128 0x59
 3227 0230 0B       		.uleb128 0xb
 3228 0231 01       		.uleb128 0x1
 3229 0232 13       		.uleb128 0x13
 3230 0233 00       		.byte	0
 3231 0234 00       		.byte	0
 3232 0235 2C       		.uleb128 0x2c
 3233 0236 1D       		.uleb128 0x1d
 3234 0237 01       		.byte	0x1
 3235 0238 31       		.uleb128 0x31
 3236 0239 13       		.uleb128 0x13
 3237 023a 52       		.uleb128 0x52
 3238 023b 01       		.uleb128 0x1
 3239 023c 55       		.uleb128 0x55
 3240 023d 17       		.uleb128 0x17
 3241 023e 58       		.uleb128 0x58
 3242 023f 0B       		.uleb128 0xb
 3243 0240 59       		.uleb128 0x59
 3244 0241 05       		.uleb128 0x5
 3245 0242 01       		.uleb128 0x1
 3246 0243 13       		.uleb128 0x13
 3247 0244 00       		.byte	0
 3248 0245 00       		.byte	0
 3249 0246 2D       		.uleb128 0x2d
ARM GAS  /tmp/cc30ujBa.s 			page 58


 3250 0247 34       		.uleb128 0x34
 3251 0248 00       		.byte	0
 3252 0249 31       		.uleb128 0x31
 3253 024a 13       		.uleb128 0x13
 3254 024b 00       		.byte	0
 3255 024c 00       		.byte	0
 3256 024d 2E       		.uleb128 0x2e
 3257 024e 34       		.uleb128 0x34
 3258 024f 00       		.byte	0
 3259 0250 31       		.uleb128 0x31
 3260 0251 13       		.uleb128 0x13
 3261 0252 02       		.uleb128 0x2
 3262 0253 18       		.uleb128 0x18
 3263 0254 00       		.byte	0
 3264 0255 00       		.byte	0
 3265 0256 2F       		.uleb128 0x2f
 3266 0257 1D       		.uleb128 0x1d
 3267 0258 01       		.byte	0x1
 3268 0259 31       		.uleb128 0x31
 3269 025a 13       		.uleb128 0x13
 3270 025b 11       		.uleb128 0x11
 3271 025c 01       		.uleb128 0x1
 3272 025d 12       		.uleb128 0x12
 3273 025e 06       		.uleb128 0x6
 3274 025f 58       		.uleb128 0x58
 3275 0260 0B       		.uleb128 0xb
 3276 0261 59       		.uleb128 0x59
 3277 0262 0B       		.uleb128 0xb
 3278 0263 00       		.byte	0
 3279 0264 00       		.byte	0
 3280 0265 30       		.uleb128 0x30
 3281 0266 898201   		.uleb128 0x4109
 3282 0269 00       		.byte	0
 3283 026a 11       		.uleb128 0x11
 3284 026b 01       		.uleb128 0x1
 3285 026c 31       		.uleb128 0x31
 3286 026d 13       		.uleb128 0x13
 3287 026e 00       		.byte	0
 3288 026f 00       		.byte	0
 3289 0270 31       		.uleb128 0x31
 3290 0271 21       		.uleb128 0x21
 3291 0272 00       		.byte	0
 3292 0273 00       		.byte	0
 3293 0274 00       		.byte	0
 3294 0275 32       		.uleb128 0x32
 3295 0276 21       		.uleb128 0x21
 3296 0277 00       		.byte	0
 3297 0278 49       		.uleb128 0x49
 3298 0279 13       		.uleb128 0x13
 3299 027a 2F       		.uleb128 0x2f
 3300 027b 05       		.uleb128 0x5
 3301 027c 00       		.byte	0
 3302 027d 00       		.byte	0
 3303 027e 33       		.uleb128 0x33
 3304 027f 34       		.uleb128 0x34
 3305 0280 00       		.byte	0
 3306 0281 03       		.uleb128 0x3
ARM GAS  /tmp/cc30ujBa.s 			page 59


 3307 0282 0E       		.uleb128 0xe
 3308 0283 3A       		.uleb128 0x3a
 3309 0284 0B       		.uleb128 0xb
 3310 0285 3B       		.uleb128 0x3b
 3311 0286 0B       		.uleb128 0xb
 3312 0287 49       		.uleb128 0x49
 3313 0288 13       		.uleb128 0x13
 3314 0289 3F       		.uleb128 0x3f
 3315 028a 19       		.uleb128 0x19
 3316 028b 3C       		.uleb128 0x3c
 3317 028c 19       		.uleb128 0x19
 3318 028d 00       		.byte	0
 3319 028e 00       		.byte	0
 3320 028f 34       		.uleb128 0x34
 3321 0290 34       		.uleb128 0x34
 3322 0291 00       		.byte	0
 3323 0292 03       		.uleb128 0x3
 3324 0293 0E       		.uleb128 0xe
 3325 0294 3A       		.uleb128 0x3a
 3326 0295 0B       		.uleb128 0xb
 3327 0296 3B       		.uleb128 0x3b
 3328 0297 0B       		.uleb128 0xb
 3329 0298 49       		.uleb128 0x49
 3330 0299 13       		.uleb128 0x13
 3331 029a 3F       		.uleb128 0x3f
 3332 029b 19       		.uleb128 0x19
 3333 029c 02       		.uleb128 0x2
 3334 029d 18       		.uleb128 0x18
 3335 029e 00       		.byte	0
 3336 029f 00       		.byte	0
 3337 02a0 35       		.uleb128 0x35
 3338 02a1 2E       		.uleb128 0x2e
 3339 02a2 01       		.byte	0x1
 3340 02a3 3F       		.uleb128 0x3f
 3341 02a4 19       		.uleb128 0x19
 3342 02a5 03       		.uleb128 0x3
 3343 02a6 0E       		.uleb128 0xe
 3344 02a7 3A       		.uleb128 0x3a
 3345 02a8 0B       		.uleb128 0xb
 3346 02a9 3B       		.uleb128 0x3b
 3347 02aa 0B       		.uleb128 0xb
 3348 02ab 27       		.uleb128 0x27
 3349 02ac 19       		.uleb128 0x19
 3350 02ad 3C       		.uleb128 0x3c
 3351 02ae 19       		.uleb128 0x19
 3352 02af 01       		.uleb128 0x1
 3353 02b0 13       		.uleb128 0x13
 3354 02b1 00       		.byte	0
 3355 02b2 00       		.byte	0
 3356 02b3 36       		.uleb128 0x36
 3357 02b4 05       		.uleb128 0x5
 3358 02b5 00       		.byte	0
 3359 02b6 49       		.uleb128 0x49
 3360 02b7 13       		.uleb128 0x13
 3361 02b8 00       		.byte	0
 3362 02b9 00       		.byte	0
 3363 02ba 37       		.uleb128 0x37
ARM GAS  /tmp/cc30ujBa.s 			page 60


 3364 02bb 2E       		.uleb128 0x2e
 3365 02bc 01       		.byte	0x1
 3366 02bd 3F       		.uleb128 0x3f
 3367 02be 19       		.uleb128 0x19
 3368 02bf 03       		.uleb128 0x3
 3369 02c0 0E       		.uleb128 0xe
 3370 02c1 3A       		.uleb128 0x3a
 3371 02c2 0B       		.uleb128 0xb
 3372 02c3 3B       		.uleb128 0x3b
 3373 02c4 05       		.uleb128 0x5
 3374 02c5 27       		.uleb128 0x27
 3375 02c6 19       		.uleb128 0x19
 3376 02c7 3C       		.uleb128 0x3c
 3377 02c8 19       		.uleb128 0x19
 3378 02c9 01       		.uleb128 0x1
 3379 02ca 13       		.uleb128 0x13
 3380 02cb 00       		.byte	0
 3381 02cc 00       		.byte	0
 3382 02cd 38       		.uleb128 0x38
 3383 02ce 2E       		.uleb128 0x2e
 3384 02cf 01       		.byte	0x1
 3385 02d0 3F       		.uleb128 0x3f
 3386 02d1 19       		.uleb128 0x19
 3387 02d2 03       		.uleb128 0x3
 3388 02d3 0E       		.uleb128 0xe
 3389 02d4 3A       		.uleb128 0x3a
 3390 02d5 0B       		.uleb128 0xb
 3391 02d6 3B       		.uleb128 0x3b
 3392 02d7 0B       		.uleb128 0xb
 3393 02d8 27       		.uleb128 0x27
 3394 02d9 19       		.uleb128 0x19
 3395 02da 49       		.uleb128 0x49
 3396 02db 13       		.uleb128 0x13
 3397 02dc 3C       		.uleb128 0x3c
 3398 02dd 19       		.uleb128 0x19
 3399 02de 01       		.uleb128 0x1
 3400 02df 13       		.uleb128 0x13
 3401 02e0 00       		.byte	0
 3402 02e1 00       		.byte	0
 3403 02e2 39       		.uleb128 0x39
 3404 02e3 2E       		.uleb128 0x2e
 3405 02e4 01       		.byte	0x1
 3406 02e5 3F       		.uleb128 0x3f
 3407 02e6 19       		.uleb128 0x19
 3408 02e7 03       		.uleb128 0x3
 3409 02e8 0E       		.uleb128 0xe
 3410 02e9 3A       		.uleb128 0x3a
 3411 02ea 0B       		.uleb128 0xb
 3412 02eb 3B       		.uleb128 0x3b
 3413 02ec 05       		.uleb128 0x5
 3414 02ed 27       		.uleb128 0x27
 3415 02ee 19       		.uleb128 0x19
 3416 02ef 49       		.uleb128 0x49
 3417 02f0 13       		.uleb128 0x13
 3418 02f1 3C       		.uleb128 0x3c
 3419 02f2 19       		.uleb128 0x19
 3420 02f3 01       		.uleb128 0x1
ARM GAS  /tmp/cc30ujBa.s 			page 61


 3421 02f4 13       		.uleb128 0x13
 3422 02f5 00       		.byte	0
 3423 02f6 00       		.byte	0
 3424 02f7 3A       		.uleb128 0x3a
 3425 02f8 2E       		.uleb128 0x2e
 3426 02f9 00       		.byte	0
 3427 02fa 3F       		.uleb128 0x3f
 3428 02fb 19       		.uleb128 0x19
 3429 02fc 03       		.uleb128 0x3
 3430 02fd 0E       		.uleb128 0xe
 3431 02fe 3A       		.uleb128 0x3a
 3432 02ff 0B       		.uleb128 0xb
 3433 0300 3B       		.uleb128 0x3b
 3434 0301 0B       		.uleb128 0xb
 3435 0302 27       		.uleb128 0x27
 3436 0303 19       		.uleb128 0x19
 3437 0304 3C       		.uleb128 0x3c
 3438 0305 19       		.uleb128 0x19
 3439 0306 00       		.byte	0
 3440 0307 00       		.byte	0
 3441 0308 00       		.byte	0
 3442              		.section	.debug_loc,"",%progbits
 3443              	.Ldebug_loc0:
 3444              	.LLST0:
 3445 0000 00000000 		.4byte	.LVL0
 3446 0004 0B000000 		.4byte	.LVL1-1
 3447 0008 0100     		.2byte	0x1
 3448 000a 50       		.byte	0x50
 3449 000b 0B000000 		.4byte	.LVL1-1
 3450 000f 80040000 		.4byte	.LFE97
 3451 0013 0400     		.2byte	0x4
 3452 0015 F3       		.byte	0xf3
 3453 0016 01       		.uleb128 0x1
 3454 0017 50       		.byte	0x50
 3455 0018 9F       		.byte	0x9f
 3456 0019 00000000 		.4byte	0
 3457 001d 00000000 		.4byte	0
 3458              	.LLST1:
 3459 0021 10000000 		.4byte	.LVL2
 3460 0025 56040000 		.4byte	.LVL101
 3461 0029 0100     		.2byte	0x1
 3462 002b 54       		.byte	0x54
 3463 002c 00000000 		.4byte	0
 3464 0030 00000000 		.4byte	0
 3465              	.LLST2:
 3466 0034 1E000000 		.4byte	.LVL3
 3467 0038 20000000 		.4byte	.LVL4
 3468 003c 0200     		.2byte	0x2
 3469 003e 73       		.byte	0x73
 3470 003f 00       		.sleb128 0
 3471 0040 4E000000 		.4byte	.LVL9
 3472 0044 52000000 		.4byte	.LVL10
 3473 0048 0200     		.2byte	0x2
 3474 004a 73       		.byte	0x73
 3475 004b 00       		.sleb128 0
 3476 004c 58010000 		.4byte	.LVL33
 3477 0050 5C010000 		.4byte	.LVL34
ARM GAS  /tmp/cc30ujBa.s 			page 62


 3478 0054 0200     		.2byte	0x2
 3479 0056 72       		.byte	0x72
 3480 0057 00       		.sleb128 0
 3481 0058 B4010000 		.4byte	.LVL46
 3482 005c B8010000 		.4byte	.LVL47
 3483 0060 0200     		.2byte	0x2
 3484 0062 73       		.byte	0x73
 3485 0063 00       		.sleb128 0
 3486 0064 1C020000 		.4byte	.LVL60
 3487 0068 2A020000 		.4byte	.LVL61
 3488 006c 0200     		.2byte	0x2
 3489 006e 73       		.byte	0x73
 3490 006f 00       		.sleb128 0
 3491 0070 6E030000 		.4byte	.LVL81
 3492 0074 70030000 		.4byte	.LVL82
 3493 0078 0200     		.2byte	0x2
 3494 007a 73       		.byte	0x73
 3495 007b 00       		.sleb128 0
 3496 007c FE030000 		.4byte	.LVL90
 3497 0080 00040000 		.4byte	.LVL91
 3498 0084 0200     		.2byte	0x2
 3499 0086 72       		.byte	0x72
 3500 0087 00       		.sleb128 0
 3501 0088 08040000 		.4byte	.LVL93
 3502 008c 0A040000 		.4byte	.LVL94
 3503 0090 0200     		.2byte	0x2
 3504 0092 72       		.byte	0x72
 3505 0093 00       		.sleb128 0
 3506 0094 00000000 		.4byte	0
 3507 0098 00000000 		.4byte	0
 3508              	.LLST3:
 3509 009c 3A000000 		.4byte	.LVL5
 3510 00a0 72000000 		.4byte	.LVL14
 3511 00a4 0100     		.2byte	0x1
 3512 00a6 54       		.byte	0x54
 3513 00a7 00000000 		.4byte	0
 3514 00ab 00000000 		.4byte	0
 3515              	.LLST4:
 3516 00af 3A000000 		.4byte	.LVL5
 3517 00b3 3E000000 		.4byte	.LVL6
 3518 00b7 0200     		.2byte	0x2
 3519 00b9 30       		.byte	0x30
 3520 00ba 9F       		.byte	0x9f
 3521 00bb 3E000000 		.4byte	.LVL6
 3522 00bf 4A000000 		.4byte	.LVL7
 3523 00c3 0500     		.2byte	0x5
 3524 00c5 03       		.byte	0x3
 3525 00c6 00000000 		.4byte	USB_Device_CurrentlySelfPowered
 3526 00ca 4A000000 		.4byte	.LVL7
 3527 00ce 4C000000 		.4byte	.LVL8
 3528 00d2 0100     		.2byte	0x1
 3529 00d4 53       		.byte	0x53
 3530 00d5 4C000000 		.4byte	.LVL8
 3531 00d9 6C000000 		.4byte	.LVL13
 3532 00dd 0200     		.2byte	0x2
 3533 00df 30       		.byte	0x30
 3534 00e0 9F       		.byte	0x9f
ARM GAS  /tmp/cc30ujBa.s 			page 63


 3535 00e1 6C000000 		.4byte	.LVL13
 3536 00e5 A0000000 		.4byte	.LVL17
 3537 00e9 0100     		.2byte	0x1
 3538 00eb 53       		.byte	0x53
 3539 00ec A0000000 		.4byte	.LVL17
 3540 00f0 BC000000 		.4byte	.LVL18
 3541 00f4 0100     		.2byte	0x1
 3542 00f6 51       		.byte	0x51
 3543 00f7 00000000 		.4byte	0
 3544 00fb 00000000 		.4byte	0
 3545              	.LLST5:
 3546 00ff 54000000 		.4byte	.LVL11
 3547 0103 72000000 		.4byte	.LVL14
 3548 0107 0100     		.2byte	0x1
 3549 0109 54       		.byte	0x54
 3550 010a 00000000 		.4byte	0
 3551 010e 00000000 		.4byte	0
 3552              	.LLST6:
 3553 0112 6C000000 		.4byte	.LVL13
 3554 0116 72000000 		.4byte	.LVL14
 3555 011a 0200     		.2byte	0x2
 3556 011c 30       		.byte	0x30
 3557 011d 9F       		.byte	0x9f
 3558 011e 00000000 		.4byte	0
 3559 0122 00000000 		.4byte	0
 3560              	.LLST7:
 3561 0126 6C000000 		.4byte	.LVL13
 3562 012a 72000000 		.4byte	.LVL14
 3563 012e 0100     		.2byte	0x1
 3564 0130 54       		.byte	0x54
 3565 0131 00000000 		.4byte	0
 3566 0135 00000000 		.4byte	0
 3567              	.LLST8:
 3568 0139 72000000 		.4byte	.LVL14
 3569 013d 3C010000 		.4byte	.LVL31
 3570 0141 0100     		.2byte	0x1
 3571 0143 54       		.byte	0x54
 3572 0144 00000000 		.4byte	0
 3573 0148 00000000 		.4byte	0
 3574              	.LLST9:
 3575 014c 88000000 		.4byte	.LVL16
 3576 0150 A0000000 		.4byte	.LVL17
 3577 0154 0100     		.2byte	0x1
 3578 0156 53       		.byte	0x53
 3579 0157 A0000000 		.4byte	.LVL17
 3580 015b BC000000 		.4byte	.LVL18
 3581 015f 0100     		.2byte	0x1
 3582 0161 51       		.byte	0x51
 3583 0162 00000000 		.4byte	0
 3584 0166 00000000 		.4byte	0
 3585              	.LLST10:
 3586 016a 88000000 		.4byte	.LVL16
 3587 016e 3C010000 		.4byte	.LVL31
 3588 0172 0100     		.2byte	0x1
 3589 0174 54       		.byte	0x54
 3590 0175 00000000 		.4byte	0
 3591 0179 00000000 		.4byte	0
ARM GAS  /tmp/cc30ujBa.s 			page 64


 3592              	.LLST13:
 3593 017d BE000000 		.4byte	.LVL19
 3594 0181 D6000000 		.4byte	.LVL20
 3595 0185 0100     		.2byte	0x1
 3596 0187 51       		.byte	0x51
 3597 0188 DC000000 		.4byte	.LVL21
 3598 018c EC000000 		.4byte	.LVL22
 3599 0190 0100     		.2byte	0x1
 3600 0192 51       		.byte	0x51
 3601 0193 00000000 		.4byte	0
 3602 0197 00000000 		.4byte	0
 3603              	.LLST14:
 3604 019b BE000000 		.4byte	.LVL19
 3605 019f 3C010000 		.4byte	.LVL31
 3606 01a3 0100     		.2byte	0x1
 3607 01a5 54       		.byte	0x54
 3608 01a6 00000000 		.4byte	0
 3609 01aa 00000000 		.4byte	0
 3610              	.LLST15:
 3611 01ae F0000000 		.4byte	.LVL23
 3612 01b2 3C010000 		.4byte	.LVL31
 3613 01b6 0100     		.2byte	0x1
 3614 01b8 54       		.byte	0x54
 3615 01b9 00000000 		.4byte	0
 3616 01bd 00000000 		.4byte	0
 3617              	.LLST16:
 3618 01c1 04010000 		.4byte	.LVL24
 3619 01c5 08010000 		.4byte	.LVL25
 3620 01c9 0500     		.2byte	0x5
 3621 01cb 72       		.byte	0x72
 3622 01cc 00       		.sleb128 0
 3623 01cd 73       		.byte	0x73
 3624 01ce 00       		.sleb128 0
 3625 01cf 22       		.byte	0x22
 3626 01d0 20010000 		.4byte	.LVL27
 3627 01d4 26010000 		.4byte	.LVL28
 3628 01d8 0500     		.2byte	0x5
 3629 01da 72       		.byte	0x72
 3630 01db 00       		.sleb128 0
 3631 01dc 73       		.byte	0x73
 3632 01dd 00       		.sleb128 0
 3633 01de 22       		.byte	0x22
 3634 01df 26010000 		.4byte	.LVL28
 3635 01e3 2F010000 		.4byte	.LVL29-1
 3636 01e7 0100     		.2byte	0x1
 3637 01e9 50       		.byte	0x50
 3638 01ea 00000000 		.4byte	0
 3639 01ee 00000000 		.4byte	0
 3640              	.LLST17:
 3641 01f2 4A010000 		.4byte	.LVL32
 3642 01f6 8C010000 		.4byte	.LVL40
 3643 01fa 0100     		.2byte	0x1
 3644 01fc 54       		.byte	0x54
 3645 01fd FC030000 		.4byte	.LVL89
 3646 0201 54040000 		.4byte	.LVL100
 3647 0205 0100     		.2byte	0x1
 3648 0207 54       		.byte	0x54
ARM GAS  /tmp/cc30ujBa.s 			page 65


 3649 0208 00000000 		.4byte	0
 3650 020c 00000000 		.4byte	0
 3651              	.LLST18:
 3652 0210 5E010000 		.4byte	.LVL35
 3653 0214 64010000 		.4byte	.LVL37
 3654 0218 0500     		.2byte	0x5
 3655 021a 71       		.byte	0x71
 3656 021b 00       		.sleb128 0
 3657 021c 3F       		.byte	0x3f
 3658 021d 1A       		.byte	0x1a
 3659 021e 9F       		.byte	0x9f
 3660 021f 00000000 		.4byte	0
 3661 0223 00000000 		.4byte	0
 3662              	.LLST19:
 3663 0227 62010000 		.4byte	.LVL36
 3664 022b 64010000 		.4byte	.LVL37
 3665 022f 0500     		.2byte	0x5
 3666 0231 71       		.byte	0x71
 3667 0232 00       		.sleb128 0
 3668 0233 3F       		.byte	0x3f
 3669 0234 1A       		.byte	0x1a
 3670 0235 9F       		.byte	0x9f
 3671 0236 00000000 		.4byte	0
 3672 023a 00000000 		.4byte	0
 3673              	.LLST20:
 3674 023e 62010000 		.4byte	.LVL36
 3675 0242 8C010000 		.4byte	.LVL40
 3676 0246 0100     		.2byte	0x1
 3677 0248 54       		.byte	0x54
 3678 0249 12040000 		.4byte	.LVL95
 3679 024d 54040000 		.4byte	.LVL100
 3680 0251 0100     		.2byte	0x1
 3681 0253 54       		.byte	0x54
 3682 0254 00000000 		.4byte	0
 3683 0258 00000000 		.4byte	0
 3684              	.LLST21:
 3685 025c 6A010000 		.4byte	.LVL38
 3686 0260 74010000 		.4byte	.LVL39
 3687 0264 0100     		.2byte	0x1
 3688 0266 54       		.byte	0x54
 3689 0267 12040000 		.4byte	.LVL95
 3690 026b 28040000 		.4byte	.LVL96
 3691 026f 0100     		.2byte	0x1
 3692 0271 54       		.byte	0x54
 3693 0272 00000000 		.4byte	0
 3694 0276 00000000 		.4byte	0
 3695              	.LLST22:
 3696 027a 74010000 		.4byte	.LVL39
 3697 027e 8C010000 		.4byte	.LVL40
 3698 0282 0100     		.2byte	0x1
 3699 0284 54       		.byte	0x54
 3700 0285 28040000 		.4byte	.LVL96
 3701 0289 54040000 		.4byte	.LVL100
 3702 028d 0100     		.2byte	0x1
 3703 028f 54       		.byte	0x54
 3704 0290 00000000 		.4byte	0
 3705 0294 00000000 		.4byte	0
ARM GAS  /tmp/cc30ujBa.s 			page 66


 3706              	.LLST23:
 3707 0298 3C040000 		.4byte	.LVL97
 3708 029c 3E040000 		.4byte	.LVL98
 3709 02a0 0100     		.2byte	0x1
 3710 02a2 54       		.byte	0x54
 3711 02a3 52040000 		.4byte	.LVL99
 3712 02a7 54040000 		.4byte	.LVL100
 3713 02ab 0200     		.2byte	0x2
 3714 02ad 30       		.byte	0x30
 3715 02ae 9F       		.byte	0x9f
 3716 02af 00000000 		.4byte	0
 3717 02b3 00000000 		.4byte	0
 3718              	.LLST24:
 3719 02b7 8C010000 		.4byte	.LVL40
 3720 02bb AC010000 		.4byte	.LVL44
 3721 02bf 0200     		.2byte	0x2
 3722 02c1 30       		.byte	0x30
 3723 02c2 9F       		.byte	0x9f
 3724 02c3 00000000 		.4byte	0
 3725 02c7 00000000 		.4byte	0
 3726              	.LLST25:
 3727 02cb 8C010000 		.4byte	.LVL40
 3728 02cf AC010000 		.4byte	.LVL44
 3729 02d3 0100     		.2byte	0x1
 3730 02d5 54       		.byte	0x54
 3731 02d6 00000000 		.4byte	0
 3732 02da 00000000 		.4byte	0
 3733              	.LLST26:
 3734 02de 92010000 		.4byte	.LVL41
 3735 02e2 AC010000 		.4byte	.LVL44
 3736 02e6 0100     		.2byte	0x1
 3737 02e8 54       		.byte	0x54
 3738 02e9 00000000 		.4byte	0
 3739 02ed 00000000 		.4byte	0
 3740              	.LLST27:
 3741 02f1 B2010000 		.4byte	.LVL45
 3742 02f5 10020000 		.4byte	.LVL58
 3743 02f9 0100     		.2byte	0x1
 3744 02fb 54       		.byte	0x54
 3745 02fc 00000000 		.4byte	0
 3746 0300 00000000 		.4byte	0
 3747              	.LLST28:
 3748 0304 BA010000 		.4byte	.LVL48
 3749 0308 06020000 		.4byte	.LVL56
 3750 030c 0100     		.2byte	0x1
 3751 030e 55       		.byte	0x55
 3752 030f 00000000 		.4byte	0
 3753 0313 00000000 		.4byte	0
 3754              	.LLST29:
 3755 0317 BA010000 		.4byte	.LVL48
 3756 031b 10020000 		.4byte	.LVL58
 3757 031f 0100     		.2byte	0x1
 3758 0321 54       		.byte	0x54
 3759 0322 00000000 		.4byte	0
 3760 0326 00000000 		.4byte	0
 3761              	.LLST30:
 3762 032a E8010000 		.4byte	.LVL51
ARM GAS  /tmp/cc30ujBa.s 			page 67


 3763 032e 10020000 		.4byte	.LVL58
 3764 0332 0100     		.2byte	0x1
 3765 0334 54       		.byte	0x54
 3766 0335 00000000 		.4byte	0
 3767 0339 00000000 		.4byte	0
 3768              	.LLST31:
 3769 033d F0010000 		.4byte	.LVL52
 3770 0341 F2010000 		.4byte	.LVL53
 3771 0345 0100     		.2byte	0x1
 3772 0347 53       		.byte	0x53
 3773 0348 00000000 		.4byte	0
 3774 034c 00000000 		.4byte	0
 3775              	.LLST32:
 3776 0350 FC010000 		.4byte	.LVL54
 3777 0354 06020000 		.4byte	.LVL56
 3778 0358 0100     		.2byte	0x1
 3779 035a 55       		.byte	0x55
 3780 035b 00000000 		.4byte	0
 3781 035f 00000000 		.4byte	0
 3782              	.LLST33:
 3783 0363 FC010000 		.4byte	.LVL54
 3784 0367 10020000 		.4byte	.LVL58
 3785 036b 0100     		.2byte	0x1
 3786 036d 54       		.byte	0x54
 3787 036e 00000000 		.4byte	0
 3788 0372 00000000 		.4byte	0
 3789              	.LLST34:
 3790 0376 1A020000 		.4byte	.LVL59
 3791 037a 8C020000 		.4byte	.LVL67
 3792 037e 0100     		.2byte	0x1
 3793 0380 54       		.byte	0x54
 3794 0381 00000000 		.4byte	0
 3795 0385 00000000 		.4byte	0
 3796              	.LLST35:
 3797 0389 30020000 		.4byte	.LVL63
 3798 038d 38020000 		.4byte	.LVL65
 3799 0391 0100     		.2byte	0x1
 3800 0393 50       		.byte	0x50
 3801 0394 38020000 		.4byte	.LVL65
 3802 0398 4F020000 		.4byte	.LVL66-1
 3803 039c 0100     		.2byte	0x1
 3804 039e 52       		.byte	0x52
 3805 039f 00000000 		.4byte	0
 3806 03a3 00000000 		.4byte	0
 3807              	.LLST36:
 3808 03a7 34020000 		.4byte	.LVL64
 3809 03ab 8C020000 		.4byte	.LVL67
 3810 03af 0100     		.2byte	0x1
 3811 03b1 54       		.byte	0x54
 3812 03b2 00000000 		.4byte	0
 3813 03b6 00000000 		.4byte	0
 3814              	.LLST37:
 3815 03ba 50020000 		.4byte	.LVL66
 3816 03be 8C020000 		.4byte	.LVL67
 3817 03c2 0100     		.2byte	0x1
 3818 03c4 54       		.byte	0x54
 3819 03c5 00000000 		.4byte	0
ARM GAS  /tmp/cc30ujBa.s 			page 68


 3820 03c9 00000000 		.4byte	0
 3821              	.LLST38:
 3822 03cd 92020000 		.4byte	.LVL68
 3823 03d1 68030000 		.4byte	.LVL79
 3824 03d5 0100     		.2byte	0x1
 3825 03d7 54       		.byte	0x54
 3826 03d8 00000000 		.4byte	0
 3827 03dc 00000000 		.4byte	0
 3828              	.LLST40:
 3829 03e0 A8020000 		.4byte	.LVL70
 3830 03e4 03030000 		.4byte	.LVL74-1
 3831 03e8 0500     		.2byte	0x5
 3832 03ea 03       		.byte	0x3
 3833 03eb 00000000 		.4byte	USB_Device_ConfigurationNumber
 3834 03ef 0A030000 		.4byte	.LVL75
 3835 03f3 19030000 		.4byte	.LVL77-1
 3836 03f7 0500     		.2byte	0x5
 3837 03f9 03       		.byte	0x3
 3838 03fa 00000000 		.4byte	USB_Device_ConfigurationNumber
 3839 03fe 00000000 		.4byte	0
 3840 0402 00000000 		.4byte	0
 3841              	.LLST41:
 3842 0406 A8020000 		.4byte	.LVL70
 3843 040a 68030000 		.4byte	.LVL79
 3844 040e 0100     		.2byte	0x1
 3845 0410 54       		.byte	0x54
 3846 0411 00000000 		.4byte	0
 3847 0415 00000000 		.4byte	0
 3848              	.LLST42:
 3849 0419 DA020000 		.4byte	.LVL71
 3850 041d 68030000 		.4byte	.LVL79
 3851 0421 0100     		.2byte	0x1
 3852 0423 54       		.byte	0x54
 3853 0424 00000000 		.4byte	0
 3854 0428 00000000 		.4byte	0
 3855              	.LLST43:
 3856 042c EE020000 		.4byte	.LVL72
 3857 0430 F2020000 		.4byte	.LVL73
 3858 0434 0500     		.2byte	0x5
 3859 0436 72       		.byte	0x72
 3860 0437 00       		.sleb128 0
 3861 0438 73       		.byte	0x73
 3862 0439 00       		.sleb128 0
 3863 043a 22       		.byte	0x22
 3864 043b 0A030000 		.4byte	.LVL75
 3865 043f 10030000 		.4byte	.LVL76
 3866 0443 0500     		.2byte	0x5
 3867 0445 72       		.byte	0x72
 3868 0446 00       		.sleb128 0
 3869 0447 73       		.byte	0x73
 3870 0448 00       		.sleb128 0
 3871 0449 22       		.byte	0x22
 3872 044a 10030000 		.4byte	.LVL76
 3873 044e 19030000 		.4byte	.LVL77-1
 3874 0452 0100     		.2byte	0x1
 3875 0454 50       		.byte	0x50
 3876 0455 00000000 		.4byte	0
ARM GAS  /tmp/cc30ujBa.s 			page 69


 3877 0459 00000000 		.4byte	0
 3878              	.LLST44:
 3879 045d 6C030000 		.4byte	.LVL80
 3880 0461 AE030000 		.4byte	.LVL86
 3881 0465 0100     		.2byte	0x1
 3882 0467 54       		.byte	0x54
 3883 0468 00000000 		.4byte	0
 3884 046c 00000000 		.4byte	0
 3885              	.LLST45:
 3886 0470 74030000 		.4byte	.LVL83
 3887 0474 AE030000 		.4byte	.LVL86
 3888 0478 0100     		.2byte	0x1
 3889 047a 54       		.byte	0x54
 3890 047b 00000000 		.4byte	0
 3891 047f 00000000 		.4byte	0
 3892              	.LLST46:
 3893 0483 AE030000 		.4byte	.LVL86
 3894 0487 FC030000 		.4byte	.LVL89
 3895 048b 0100     		.2byte	0x1
 3896 048d 54       		.byte	0x54
 3897 048e 54040000 		.4byte	.LVL100
 3898 0492 56040000 		.4byte	.LVL101
 3899 0496 0100     		.2byte	0x1
 3900 0498 54       		.byte	0x54
 3901 0499 00000000 		.4byte	0
 3902 049d 00000000 		.4byte	0
 3903              	.LLST47:
 3904 04a1 B6030000 		.4byte	.LVL87
 3905 04a5 FC030000 		.4byte	.LVL89
 3906 04a9 0100     		.2byte	0x1
 3907 04ab 54       		.byte	0x54
 3908 04ac 00000000 		.4byte	0
 3909 04b0 00000000 		.4byte	0
 3910              	.LLST48:
 3911 04b4 CA030000 		.4byte	.LVL88
 3912 04b8 FC030000 		.4byte	.LVL89
 3913 04bc 0100     		.2byte	0x1
 3914 04be 54       		.byte	0x54
 3915 04bf 00000000 		.4byte	0
 3916 04c3 00000000 		.4byte	0
 3917              		.section	.debug_aranges,"",%progbits
 3918 0000 1C000000 		.4byte	0x1c
 3919 0004 0200     		.2byte	0x2
 3920 0006 00000000 		.4byte	.Ldebug_info0
 3921 000a 04       		.byte	0x4
 3922 000b 00       		.byte	0
 3923 000c 0000     		.2byte	0
 3924 000e 0000     		.2byte	0
 3925 0010 00000000 		.4byte	.LFB97
 3926 0014 80040000 		.4byte	.LFE97-.LFB97
 3927 0018 00000000 		.4byte	0
 3928 001c 00000000 		.4byte	0
 3929              		.section	.debug_ranges,"",%progbits
 3930              	.Ldebug_ranges0:
 3931 0000 1A000000 		.4byte	.LBB144
 3932 0004 AE030000 		.4byte	.LBE144
 3933 0008 FC030000 		.4byte	.LBB215
ARM GAS  /tmp/cc30ujBa.s 			page 70


 3934 000c 54040000 		.4byte	.LBE215
 3935 0010 00000000 		.4byte	0
 3936 0014 00000000 		.4byte	0
 3937 0018 4A010000 		.4byte	.LBB161
 3938 001c AC010000 		.4byte	.LBE161
 3939 0020 FC030000 		.4byte	.LBB208
 3940 0024 54040000 		.4byte	.LBE208
 3941 0028 00000000 		.4byte	0
 3942 002c 00000000 		.4byte	0
 3943 0030 56010000 		.4byte	.LBB163
 3944 0034 8C010000 		.4byte	.LBE163
 3945 0038 12040000 		.4byte	.LBB180
 3946 003c 54040000 		.4byte	.LBE180
 3947 0040 00000000 		.4byte	0
 3948 0044 00000000 		.4byte	0
 3949 0048 6A010000 		.4byte	.LBB166
 3950 004c 74010000 		.4byte	.LBE166
 3951 0050 12040000 		.4byte	.LBB174
 3952 0054 28040000 		.4byte	.LBE174
 3953 0058 00000000 		.4byte	0
 3954 005c 00000000 		.4byte	0
 3955 0060 74010000 		.4byte	.LBB169
 3956 0064 7C010000 		.4byte	.LBE169
 3957 0068 28040000 		.4byte	.LBB175
 3958 006c 54040000 		.4byte	.LBE175
 3959 0070 00000000 		.4byte	0
 3960 0074 00000000 		.4byte	0
 3961 0078 00000000 		.4byte	.LFB97
 3962 007c 80040000 		.4byte	.LFE97
 3963 0080 00000000 		.4byte	0
 3964 0084 00000000 		.4byte	0
 3965              		.section	.debug_line,"",%progbits
 3966              	.Ldebug_line0:
 3967 0000 10040000 		.section	.debug_str,"MS",%progbits,1
 3967      0200A202 
 3967      00000201 
 3967      FB0E0D00 
 3967      01010101 
 3968              	.LASF110:
 3969 0000 7573625F 		.ascii	"usb_data_buffer_IN\000"
 3969      64617461 
 3969      5F627566 
 3969      6665725F 
 3969      494E00
 3970              	.LASF95:
 3971 0013 5553425F 		.ascii	"USB_Device_IsAddressSet\000"
 3971      44657669 
 3971      63655F49 
 3971      73416464 
 3971      72657373 
 3972              	.LASF80:
 3973 002b 456E6470 		.ascii	"Endpoint_ClearIN\000"
 3973      6F696E74 
 3973      5F436C65 
 3973      6172494E 
 3973      00
 3974              	.LASF106:
ARM GAS  /tmp/cc30ujBa.s 			page 71


 3975 003c 44657363 		.ascii	"DescriptorSize\000"
 3975      72697074 
 3975      6F725369 
 3975      7A6500
 3976              	.LASF102:
 3977 004b 44657669 		.ascii	"DeviceAddress\000"
 3977      63654164 
 3977      64726573 
 3977      7300
 3978              	.LASF100:
 3979 0059 456E6470 		.ascii	"EndpointIndex\000"
 3979      6F696E74 
 3979      496E6465 
 3979      7800
 3980              	.LASF0:
 3981 0067 7369676E 		.ascii	"signed char\000"
 3981      65642063 
 3981      68617200 
 3982              	.LASF3:
 3983 0073 5F5F7569 		.ascii	"__uint8_t\000"
 3983      6E74385F 
 3983      7400
 3984              	.LASF28:
 3985 007d 5245515F 		.ascii	"REQ_SetFeature\000"
 3985      53657446 
 3985      65617475 
 3985      726500
 3986              	.LASF26:
 3987 008c 5245515F 		.ascii	"REQ_GetStatus\000"
 3987      47657453 
 3987      74617475 
 3987      7300
 3988              	.LASF75:
 3989 009a 456E6470 		.ascii	"Endpoint_SelectEndpoint\000"
 3989      6F696E74 
 3989      5F53656C 
 3989      65637445 
 3989      6E64706F 
 3990              	.LASF11:
 3991 00b2 6C6F6E67 		.ascii	"long long unsigned int\000"
 3991      206C6F6E 
 3991      6720756E 
 3991      7369676E 
 3991      65642069 
 3992              	.LASF133:
 3993 00c9 4556454E 		.ascii	"EVENT_USB_Device_ControlRequest\000"
 3993      545F5553 
 3993      425F4465 
 3993      76696365 
 3993      5F436F6E 
 3994              	.LASF43:
 3995 00e9 494E464F 		.ascii	"INFO\000"
 3995      00
 3996              	.LASF40:
 3997 00ee 46454154 		.ascii	"FEATURE_SEL_DeviceRemoteWakeup\000"
 3997      5552455F 
 3997      53454C5F 
ARM GAS  /tmp/cc30ujBa.s 			page 72


 3997      44657669 
 3997      63655265 
 3998              	.LASF66:
 3999 010d 44455649 		.ascii	"DEVICE_STATE_Unattached\000"
 3999      43455F53 
 3999      54415445 
 3999      5F556E61 
 3999      74746163 
 4000              	.LASF68:
 4001 0125 44455649 		.ascii	"DEVICE_STATE_Default\000"
 4001      43455F53 
 4001      54415445 
 4001      5F446566 
 4001      61756C74 
 4002              	.LASF103:
 4003 013a 43757272 		.ascii	"CurrentGlobalInt\000"
 4003      656E7447 
 4003      6C6F6261 
 4003      6C496E74 
 4003      00
 4004              	.LASF96:
 4005 014b 456E6470 		.ascii	"Endpoint_IsSETUPReceived\000"
 4005      6F696E74 
 4005      5F497353 
 4005      45545550 
 4005      52656365 
 4006              	.LASF10:
 4007 0164 6C6F6E67 		.ascii	"long long int\000"
 4007      206C6F6E 
 4007      6720696E 
 4007      7400
 4008              	.LASF121:
 4009 0172 5553425F 		.ascii	"USB_ControlRequest\000"
 4009      436F6E74 
 4009      726F6C52 
 4009      65717565 
 4009      737400
 4010              	.LASF81:
 4011 0185 456E6470 		.ascii	"Endpoint_StallTransaction\000"
 4011      6F696E74 
 4011      5F537461 
 4011      6C6C5472 
 4011      616E7361 
 4012              	.LASF114:
 4013 019f 7573625F 		.ascii	"usb_data_buffer_index\000"
 4013      64617461 
 4013      5F627566 
 4013      6665725F 
 4013      696E6465 
 4014              	.LASF88:
 4015 01b5 456E6470 		.ascii	"Endpoint_IsINReady\000"
 4015      6F696E74 
 4015      5F497349 
 4015      4E526561 
 4015      647900
 4016              	.LASF92:
 4017 01c8 53657447 		.ascii	"SetGlobalInterruptMask\000"
ARM GAS  /tmp/cc30ujBa.s 			page 73


 4017      6C6F6261 
 4017      6C496E74 
 4017      65727275 
 4017      70744D61 
 4018              	.LASF116:
 4019 01df 7573625F 		.ascii	"usb_data_buffer_OUT_index\000"
 4019      64617461 
 4019      5F627566 
 4019      6665725F 
 4019      4F55545F 
 4020              	.LASF128:
 4021 01f9 48414C5F 		.ascii	"HAL_SetDeviceAddress\000"
 4021      53657444 
 4021      65766963 
 4021      65416464 
 4021      72657373 
 4022              	.LASF7:
 4023 020e 6C6F6E67 		.ascii	"long int\000"
 4023      20696E74 
 4023      00
 4024              	.LASF29:
 4025 0217 5245515F 		.ascii	"REQ_SetAddress\000"
 4025      53657441 
 4025      64647265 
 4025      737300
 4026              	.LASF25:
 4027 0226 5553425F 		.ascii	"USB_Request_Header_t\000"
 4027      52657175 
 4027      6573745F 
 4027      48656164 
 4027      65725F74 
 4028              	.LASF56:
 4029 023b 42756666 		.ascii	"BufferAddrOffset\000"
 4029      65724164 
 4029      64724F66 
 4029      66736574 
 4029      00
 4030              	.LASF22:
 4031 024c 7756616C 		.ascii	"wValue\000"
 4031      756500
 4032              	.LASF35:
 4033 0253 5245515F 		.ascii	"REQ_SetInterface\000"
 4033      53657449 
 4033      6E746572 
 4033      66616365 
 4033      00
 4034              	.LASF14:
 4035 0264 75696E74 		.ascii	"uint16_t\000"
 4035      31365F74 
 4035      00
 4036              	.LASF65:
 4037 026d 5553425F 		.ascii	"USB_Device_States_t\000"
 4037      44657669 
 4037      63655F53 
 4037      74617465 
 4037      735F7400 
 4038              	.LASF94:
ARM GAS  /tmp/cc30ujBa.s 			page 74


 4039 0281 456E6470 		.ascii	"Endpoint_ClearOUT\000"
 4039      6F696E74 
 4039      5F436C65 
 4039      61724F55 
 4039      5400
 4040              	.LASF78:
 4041 0293 456E6470 		.ascii	"Endpoint_ClearSETUP\000"
 4041      6F696E74 
 4041      5F436C65 
 4041      61725345 
 4041      54555000 
 4042              	.LASF63:
 4043 02a7 41637469 		.ascii	"Active\000"
 4043      766500
 4044              	.LASF8:
 4045 02ae 5F5F7569 		.ascii	"__uint32_t\000"
 4045      6E743332 
 4045      5F7400
 4046              	.LASF105:
 4047 02b9 44657363 		.ascii	"DescriptorPointer\000"
 4047      72697074 
 4047      6F72506F 
 4047      696E7465 
 4047      7200
 4048              	.LASF58:
 4049 02cb 54797065 		.ascii	"Type\000"
 4049      00
 4050              	.LASF20:
 4051 02d0 626D5265 		.ascii	"bmRequestType\000"
 4051      71756573 
 4051      74547970 
 4051      6500
 4052              	.LASF86:
 4053 02de 47657447 		.ascii	"GetGlobalInterruptMask\000"
 4053      6C6F6261 
 4053      6C496E74 
 4053      65727275 
 4053      70744D61 
 4054              	.LASF23:
 4055 02f5 77496E64 		.ascii	"wIndex\000"
 4055      657800
 4056              	.LASF87:
 4057 02fc 456E6470 		.ascii	"Endpoint_IsStalled\000"
 4057      6F696E74 
 4057      5F497353 
 4057      74616C6C 
 4057      656400
 4058              	.LASF12:
 4059 030f 756E7369 		.ascii	"unsigned int\000"
 4059      676E6564 
 4059      20696E74 
 4059      00
 4060              	.LASF30:
 4061 031c 5245515F 		.ascii	"REQ_GetDescriptor\000"
 4061      47657444 
 4061      65736372 
 4061      6970746F 
ARM GAS  /tmp/cc30ujBa.s 			page 75


 4061      7200
 4062              	.LASF122:
 4063 032e 5553425F 		.ascii	"USB_DeviceState\000"
 4063      44657669 
 4063      63655374 
 4063      61746500 
 4064              	.LASF130:
 4065 033e 456E6470 		.ascii	"Endpoint_Write_Control_Stream_LE\000"
 4065      6F696E74 
 4065      5F577269 
 4065      74655F43 
 4065      6F6E7472 
 4066              	.LASF113:
 4067 035f 7573625F 		.ascii	"usb_data_buffer_OUT_size\000"
 4067      64617461 
 4067      5F627566 
 4067      6665725F 
 4067      4F55545F 
 4068              	.LASF9:
 4069 0378 6C6F6E67 		.ascii	"long unsigned int\000"
 4069      20756E73 
 4069      69676E65 
 4069      6420696E 
 4069      7400
 4070              	.LASF19:
 4071 038a 75696E74 		.ascii	"uint_reg_t\000"
 4071      5F726567 
 4071      5F7400
 4072              	.LASF32:
 4073 0395 5245515F 		.ascii	"REQ_GetConfiguration\000"
 4073      47657443 
 4073      6F6E6669 
 4073      67757261 
 4073      74696F6E 
 4074              	.LASF33:
 4075 03aa 5245515F 		.ascii	"REQ_SetConfiguration\000"
 4075      53657443 
 4075      6F6E6669 
 4075      67757261 
 4075      74696F6E 
 4076              	.LASF123:
 4077 03bf 5553425F 		.ascii	"USB_Device_ConfigurationNumber\000"
 4077      44657669 
 4077      63655F43 
 4077      6F6E6669 
 4077      67757261 
 4078              	.LASF5:
 4079 03de 73686F72 		.ascii	"short unsigned int\000"
 4079      7420756E 
 4079      7369676E 
 4079      65642069 
 4079      6E7400
 4080              	.LASF37:
 4081 03f1 5553425F 		.ascii	"USB_Control_Request_t\000"
 4081      436F6E74 
 4081      726F6C5F 
 4081      52657175 
ARM GAS  /tmp/cc30ujBa.s 			page 76


 4081      6573745F 
 4082              	.LASF70:
 4083 0407 44455649 		.ascii	"DEVICE_STATE_Configured\000"
 4083      43455F53 
 4083      54415445 
 4083      5F436F6E 
 4083      66696775 
 4084              	.LASF83:
 4085 041f 456E6470 		.ascii	"Endpoint_ResetEndpoint\000"
 4085      6F696E74 
 4085      5F526573 
 4085      6574456E 
 4085      64706F69 
 4086              	.LASF125:
 4087 0436 5553425F 		.ascii	"USB_Device_CurrentlySelfPowered\000"
 4087      44657669 
 4087      63655F43 
 4087      75727265 
 4087      6E746C79 
 4088              	.LASF134:
 4089 0456 474E5520 		.ascii	"GNU C 4.8.4 20140526 (release) [ARM/embedded-4_8-br"
 4089      4320342E 
 4089      382E3420 
 4089      32303134 
 4089      30353236 
 4090 0489 616E6368 		.ascii	"anch revision 211358] -mcpu=cortex-m0 -mno-thumb-in"
 4090      20726576 
 4090      6973696F 
 4090      6E203231 
 4090      31333538 
 4091 04bc 74657277 		.ascii	"terwork -mthumb -ggdb -O1 -fomit-frame-pointer -ffu"
 4091      6F726B20 
 4091      2D6D7468 
 4091      756D6220 
 4091      2D676764 
 4092 04ef 6E637469 		.ascii	"nction-sections -fdata-sections -fno-common\000"
 4092      6F6E2D73 
 4092      65637469 
 4092      6F6E7320 
 4092      2D666461 
 4093              	.LASF48:
 4094 051b 45504255 		.ascii	"EPBUFCFG\000"
 4094      46434647 
 4094      00
 4095              	.LASF42:
 4096 0524 44455643 		.ascii	"DEVCMDSTAT\000"
 4096      4D445354 
 4096      415400
 4097              	.LASF91:
 4098 052f 41646472 		.ascii	"Address\000"
 4098      65737300 
 4099              	.LASF34:
 4100 0537 5245515F 		.ascii	"REQ_GetInterface\000"
 4100      47657449 
 4100      6E746572 
 4100      66616365 
 4100      00
ARM GAS  /tmp/cc30ujBa.s 			page 77


 4101              	.LASF117:
 4102 0548 656E6470 		.ascii	"endpointselected\000"
 4102      6F696E74 
 4102      73656C65 
 4102      63746564 
 4102      00
 4103              	.LASF71:
 4104 0559 44455649 		.ascii	"DEVICE_STATE_Suspended\000"
 4104      43455F53 
 4104      54415445 
 4104      5F537573 
 4104      70656E64 
 4105              	.LASF44:
 4106 0570 45504C49 		.ascii	"EPLISTSTART\000"
 4106      53545354 
 4106      41525400 
 4107              	.LASF99:
 4108 057c 5553425F 		.ascii	"USB_Device_ClearSetFeature\000"
 4108      44657669 
 4108      63655F43 
 4108      6C656172 
 4108      53657446 
 4109              	.LASF52:
 4110 0597 494E5452 		.ascii	"INTROUTING\000"
 4110      4F555449 
 4110      4E4700
 4111              	.LASF59:
 4112 05a2 52617465 		.ascii	"RateFeedback_Toogle\000"
 4112      46656564 
 4112      6261636B 
 4112      5F546F6F 
 4112      676C6500 
 4113              	.LASF46:
 4114 05b6 4550534B 		.ascii	"EPSKIP\000"
 4114      495000
 4115              	.LASF17:
 4116 05bd 73697A65 		.ascii	"sizetype\000"
 4116      74797065 
 4116      00
 4117              	.LASF109:
 4118 05c6 7573625F 		.ascii	"usb_data_buffer\000"
 4118      64617461 
 4118      5F627566 
 4118      66657200 
 4119              	.LASF31:
 4120 05d6 5245515F 		.ascii	"REQ_SetDescriptor\000"
 4120      53657444 
 4120      65736372 
 4120      6970746F 
 4120      7200
 4121              	.LASF54:
 4122 05e8 4550544F 		.ascii	"EPTOGGLE\000"
 4122      47474C45 
 4122      00
 4123              	.LASF97:
 4124 05f1 5553425F 		.ascii	"USB_Device_GetStatus\000"
 4124      44657669 
ARM GAS  /tmp/cc30ujBa.s 			page 78


 4124      63655F47 
 4124      65745374 
 4124      61747573 
 4125              	.LASF118:
 4126 0606 656E6470 		.ascii	"endpointhandle0\000"
 4126      6F696E74 
 4126      68616E64 
 4126      6C653000 
 4127              	.LASF119:
 4128 0616 656E6470 		.ascii	"endpointhandle1\000"
 4128      6F696E74 
 4128      68616E64 
 4128      6C653100 
 4129              	.LASF64:
 4130 0626 5553425F 		.ascii	"USB_CMD_STAT\000"
 4130      434D445F 
 4130      53544154 
 4130      00
 4131              	.LASF57:
 4132 0633 4E427974 		.ascii	"NBytes\000"
 4132      657300
 4133              	.LASF69:
 4134 063a 44455649 		.ascii	"DEVICE_STATE_Addressed\000"
 4134      43455F53 
 4134      54415445 
 4134      5F416464 
 4134      72657373 
 4135              	.LASF67:
 4136 0651 44455649 		.ascii	"DEVICE_STATE_Powered\000"
 4136      43455F53 
 4136      54415445 
 4136      5F506F77 
 4136      65726564 
 4137              	.LASF76:
 4138 0666 456E6470 		.ascii	"EndpointNumber\000"
 4138      6F696E74 
 4138      4E756D62 
 4138      657200
 4139              	.LASF38:
 4140 0675 5553425F 		.ascii	"USB_Feature_Selectors_t\000"
 4140      46656174 
 4140      7572655F 
 4140      53656C65 
 4140      63746F72 
 4141              	.LASF74:
 4142 068d 456E6470 		.ascii	"Endpoint_Write_8\000"
 4142      6F696E74 
 4142      5F577269 
 4142      74655F38 
 4142      00
 4143              	.LASF107:
 4144 069e 5553425F 		.ascii	"USB_Device_GetConfiguration\000"
 4144      44657669 
 4144      63655F47 
 4144      6574436F 
 4144      6E666967 
 4145              	.LASF132:
ARM GAS  /tmp/cc30ujBa.s 			page 79


 4146 06ba 4556454E 		.ascii	"EVENT_USB_Device_ConfigurationChanged\000"
 4146      545F5553 
 4146      425F4465 
 4146      76696365 
 4146      5F436F6E 
 4147              	.LASF135:
 4148 06e0 5553426C 		.ascii	"USBlib_11U14/Drivers/USB/Core/DeviceStandardReq.c\000"
 4148      69625F31 
 4148      31553134 
 4148      2F447269 
 4148      76657273 
 4149              	.LASF53:
 4150 0712 52455345 		.ascii	"RESERVED0\000"
 4150      52564544 
 4150      3000
 4151              	.LASF93:
 4152 071c 476C6F62 		.ascii	"GlobalIntState\000"
 4152      616C496E 
 4152      74537461 
 4152      746500
 4153              	.LASF90:
 4154 072b 5553425F 		.ascii	"USB_Device_SetDeviceAddress\000"
 4154      44657669 
 4154      63655F53 
 4154      65744465 
 4154      76696365 
 4155              	.LASF89:
 4156 0747 50687945 		.ascii	"PhyEP\000"
 4156      5000
 4157              	.LASF77:
 4158 074d 5F426F6F 		.ascii	"_Bool\000"
 4158      6C00
 4159              	.LASF15:
 4160 0753 696E7433 		.ascii	"int32_t\000"
 4160      325F7400 
 4161              	.LASF1:
 4162 075b 756E7369 		.ascii	"unsigned char\000"
 4162      676E6564 
 4162      20636861 
 4162      7200
 4163              	.LASF45:
 4164 0769 44415441 		.ascii	"DATABUFSTART\000"
 4164      42554653 
 4164      54415254 
 4164      00
 4165              	.LASF126:
 4166 0776 44636444 		.ascii	"DcdDataTransfer\000"
 4166      61746154 
 4166      72616E73 
 4166      66657200 
 4167              	.LASF36:
 4168 0786 5245515F 		.ascii	"REQ_SynchFrame\000"
 4168      53796E63 
 4168      68467261 
 4168      6D6500
 4169              	.LASF55:
 4170 0795 4C50435F 		.ascii	"LPC_USB_Type\000"
ARM GAS  /tmp/cc30ujBa.s 			page 80


 4170      5553425F 
 4170      54797065 
 4170      00
 4171              	.LASF2:
 4172 07a2 73686F72 		.ascii	"short int\000"
 4172      7420696E 
 4172      7400
 4173              	.LASF51:
 4174 07ac 494E5453 		.ascii	"INTSETSTAT\000"
 4174      45545354 
 4174      415400
 4175              	.LASF21:
 4176 07b7 62526571 		.ascii	"bRequest\000"
 4176      75657374 
 4176      00
 4177              	.LASF104:
 4178 07c0 5553425F 		.ascii	"USB_Device_GetDescriptor\000"
 4178      44657669 
 4178      63655F47 
 4178      65744465 
 4178      73637269 
 4179              	.LASF39:
 4180 07d9 46454154 		.ascii	"FEATURE_SEL_EndpointHalt\000"
 4180      5552455F 
 4180      53454C5F 
 4180      456E6470 
 4180      6F696E74 
 4181              	.LASF61:
 4182 07f2 5374616C 		.ascii	"Stall\000"
 4182      6C00
 4183              	.LASF16:
 4184 07f8 75696E74 		.ascii	"uint32_t\000"
 4184      33325F74 
 4184      00
 4185              	.LASF127:
 4186 0801 456E6470 		.ascii	"Endpoint_ClearStatusStage\000"
 4186      6F696E74 
 4186      5F436C65 
 4186      61725374 
 4186      61747573 
 4187              	.LASF108:
 4188 081b 5553425F 		.ascii	"USB_Device_SetConfiguration\000"
 4188      44657669 
 4188      63655F53 
 4188      6574436F 
 4188      6E666967 
 4189              	.LASF18:
 4190 0837 63686172 		.ascii	"char\000"
 4190      00
 4191              	.LASF4:
 4192 083c 5F5F7569 		.ascii	"__uint16_t\000"
 4192      6E743136 
 4192      5F7400
 4193              	.LASF50:
 4194 0847 494E5445 		.ascii	"INTEN\000"
 4194      4E00
 4195              	.LASF101:
ARM GAS  /tmp/cc30ujBa.s 			page 81


 4196 084d 5553425F 		.ascii	"USB_Device_SetAddress\000"
 4196      44657669 
 4196      63655F53 
 4196      65744164 
 4196      64726573 
 4197              	.LASF6:
 4198 0863 5F5F696E 		.ascii	"__int32_t\000"
 4198      7433325F 
 4198      7400
 4199              	.LASF84:
 4200 086d 456E6470 		.ascii	"Endpoint_ResetDataToggle\000"
 4200      6F696E74 
 4200      5F526573 
 4200      65744461 
 4200      7461546F 
 4201              	.LASF62:
 4202 0886 44697361 		.ascii	"Disabled\000"
 4202      626C6564 
 4202      00
 4203              	.LASF82:
 4204 088f 456E6470 		.ascii	"Endpoint_ClearStall\000"
 4204      6F696E74 
 4204      5F436C65 
 4204      61725374 
 4204      616C6C00 
 4205              	.LASF115:
 4206 08a3 7573625F 		.ascii	"usb_data_buffer_IN_index\000"
 4206      64617461 
 4206      5F627566 
 4206      6665725F 
 4206      494E5F69 
 4207              	.LASF131:
 4208 08bc 456E6470 		.ascii	"Endpoint_GetSetupPackage\000"
 4208      6F696E74 
 4208      5F476574 
 4208      53657475 
 4208      70506163 
 4209              	.LASF47:
 4210 08d5 4550494E 		.ascii	"EPINUSE\000"
 4210      55534500 
 4211              	.LASF137:
 4212 08dd 476C6F62 		.ascii	"GlobalInterruptDisable\000"
 4212      616C496E 
 4212      74657272 
 4212      75707444 
 4212      69736162 
 4213              	.LASF111:
 4214 08f4 7573625F 		.ascii	"usb_data_buffer_OUT\000"
 4214      64617461 
 4214      5F627566 
 4214      6665725F 
 4214      4F555400 
 4215              	.LASF136:
 4216 0908 2F484444 		.ascii	"/HDD/GIT/variometer/Altimeter/\000"
 4216      2F474954 
 4216      2F766172 
 4216      696F6D65 
ARM GAS  /tmp/cc30ujBa.s 			page 82


 4216      7465722F 
 4217              	.LASF120:
 4218 0927 456E6450 		.ascii	"EndPointCmdStsList\000"
 4218      6F696E74 
 4218      436D6453 
 4218      74734C69 
 4218      737400
 4219              	.LASF49:
 4220 093a 494E5453 		.ascii	"INTSTAT\000"
 4220      54415400 
 4221              	.LASF60:
 4222 0942 546F6F67 		.ascii	"ToogleReset\000"
 4222      6C655265 
 4222      73657400 
 4223              	.LASF41:
 4224 094e 46454154 		.ascii	"FEATURE_SEL_TestMode\000"
 4224      5552455F 
 4224      53454C5F 
 4224      54657374 
 4224      4D6F6465 
 4225              	.LASF85:
 4226 0963 456E6470 		.ascii	"Endpoint_IsEnabled\000"
 4226      6F696E74 
 4226      5F497345 
 4226      6E61626C 
 4226      656400
 4227              	.LASF124:
 4228 0976 5553425F 		.ascii	"USB_Device_RemoteWakeupEnabled\000"
 4228      44657669 
 4228      63655F52 
 4228      656D6F74 
 4228      6557616B 
 4229              	.LASF13:
 4230 0995 75696E74 		.ascii	"uint8_t\000"
 4230      385F7400 
 4231              	.LASF73:
 4232 099d 44617461 		.ascii	"Data\000"
 4232      00
 4233              	.LASF79:
 4234 09a2 456E6470 		.ascii	"Endpoint_Write_16_LE\000"
 4234      6F696E74 
 4234      5F577269 
 4234      74655F31 
 4234      365F4C45 
 4235              	.LASF138:
 4236 09b7 5553425F 		.ascii	"USB_Device_ProcessControlRequest\000"
 4236      44657669 
 4236      63655F50 
 4236      726F6365 
 4236      7373436F 
 4237              	.LASF24:
 4238 09d8 774C656E 		.ascii	"wLength\000"
 4238      67746800 
 4239              	.LASF129:
 4240 09e0 43414C4C 		.ascii	"CALLBACK_USB_GetDescriptor\000"
 4240      4241434B 
 4240      5F555342 
ARM GAS  /tmp/cc30ujBa.s 			page 83


 4240      5F476574 
 4240      44657363 
 4241              	.LASF27:
 4242 09fb 5245515F 		.ascii	"REQ_ClearFeature\000"
 4242      436C6561 
 4242      72466561 
 4242      74757265 
 4242      00
 4243              	.LASF112:
 4244 0a0c 7573625F 		.ascii	"usb_data_buffer_size\000"
 4244      64617461 
 4244      5F627566 
 4244      6665725F 
 4244      73697A65 
 4245              	.LASF72:
 4246 0a21 636F7265 		.ascii	"corenum\000"
 4246      6E756D00 
 4247              	.LASF98:
 4248 0a29 43757272 		.ascii	"CurrentStatus\000"
 4248      656E7453 
 4248      74617475 
 4248      7300
 4249              		.ident	"GCC: (GNU Tools for ARM Embedded Processors) 4.8.4 20140526 (release) [ARM/embedded-4_8-br
ARM GAS  /tmp/cc30ujBa.s 			page 84


DEFINED SYMBOLS
                            *ABS*:00000000 DeviceStandardReq.c
     /tmp/cc30ujBa.s:18     .text.USB_Device_ProcessControlRequest:00000000 $t
     /tmp/cc30ujBa.s:23     .text.USB_Device_ProcessControlRequest:00000000 USB_Device_ProcessControlRequest
     /tmp/cc30ujBa.s:75     .rodata.USB_Device_ProcessControlRequest:00000000 $d
     /tmp/cc30ujBa.s:771    .text.USB_Device_ProcessControlRequest:00000328 $d
     /tmp/cc30ujBa.s:792    .text.USB_Device_ProcessControlRequest:00000368 $t
     /tmp/cc30ujBa.s:1007   .text.USB_Device_ProcessControlRequest:00000458 $d
     /tmp/cc30ujBa.s:1039   .bss.USB_Device_RemoteWakeupEnabled:00000000 USB_Device_RemoteWakeupEnabled
     /tmp/cc30ujBa.s:1027   .bss.USB_Device_CurrentlySelfPowered:00000000 USB_Device_CurrentlySelfPowered
     /tmp/cc30ujBa.s:1033   .bss.USB_Device_ConfigurationNumber:00000000 USB_Device_ConfigurationNumber
     /tmp/cc30ujBa.s:1028   .bss.USB_Device_CurrentlySelfPowered:00000000 $d
     /tmp/cc30ujBa.s:1034   .bss.USB_Device_ConfigurationNumber:00000000 $d
     /tmp/cc30ujBa.s:1040   .bss.USB_Device_RemoteWakeupEnabled:00000000 $d
                     .debug_frame:00000010 $d

UNDEFINED SYMBOLS
Endpoint_GetSetupPackage
EVENT_USB_Device_ControlRequest
DcdDataTransfer
Endpoint_ClearStatusStage
HAL_SetDeviceAddress
CALLBACK_USB_GetDescriptor
Endpoint_Write_Control_Stream_LE
USB_ControlRequest
endpointhandle1
endpointhandle0
EndPointCmdStsList
endpointselected
usb_data_buffer_index
usb_data_buffer
usb_data_buffer_IN_index
usb_data_buffer_IN
USB_DeviceState
usb_data_buffer_OUT_index
EVENT_USB_Device_ConfigurationChanged
