ARM GAS  /tmp/ccSGpD6O.s 			page 1


   1              		.cpu cortex-m0
   2              		.fpu softvfp
   3              		.eabi_attribute 20, 1
   4              		.eabi_attribute 21, 1
   5              		.eabi_attribute 23, 3
   6              		.eabi_attribute 24, 1
   7              		.eabi_attribute 25, 1
   8              		.eabi_attribute 26, 1
   9              		.eabi_attribute 30, 1
  10              		.eabi_attribute 34, 0
  11              		.eabi_attribute 18, 4
  12              		.code	16
  13              		.file	"Endpoint_LPC11Uxx.c"
  14              		.text
  15              	.Ltext0:
  16              		.cfi_sections	.debug_frame
  17              		.section	.text.HAL_Reset,"ax",%progbits
  18              		.align	2
  19              		.global	HAL_Reset
  20              		.code	16
  21              		.thumb_func
  22              		.type	HAL_Reset, %function
  23              	HAL_Reset:
  24              	.LFB97:
  25              		.file 1 "USBlib_11U14/Drivers/USB/Core/DCD/LPC11UXX/Endpoint_LPC11Uxx.c"
  26              		.loc 1 68 0
  27              		.cfi_startproc
  28 0000 10B5     		push	{r4, lr}
  29              		.cfi_def_cfa_offset 8
  30              		.cfi_offset 4, -8
  31              		.cfi_offset 14, -4
  32              		.loc 1 69 0
  33 0002 114B     		ldr	r3, .L2
  34 0004 0024     		mov	r4, #0
  35 0006 9C61     		str	r4, [r3, #24]
  36              		.loc 1 70 0
  37 0008 0122     		mov	r2, #1
  38 000a 5242     		neg	r2, r2
  39 000c 5A61     		str	r2, [r3, #20]
  40              		.loc 1 71 0
  41 000e DC61     		str	r4, [r3, #28]
  42              		.loc 1 73 0
  43 0010 1968     		ldr	r1, [r3]
  44 0012 A122     		mov	r2, #161
  45 0014 D201     		lsl	r2, r2, #7
  46 0016 0A43     		orr	r2, r1
  47 0018 1A60     		str	r2, [r3]
  48              		.loc 1 75 0
  49 001a 0C4A     		ldr	r2, .L2+4
  50 001c 1A62     		str	r2, [r3, #32]
  51              		.loc 1 79 0
  52 001e 8022     		mov	r2, #128
  53 0020 1206     		lsl	r2, r2, #24
  54 0022 5A62     		str	r2, [r3, #36]
  55              		.loc 1 82 0
  56 0024 0A48     		ldr	r0, .L2+8
  57 0026 9860     		str	r0, [r3, #8]
ARM GAS  /tmp/ccSGpD6O.s 			page 2


  58              		.loc 1 83 0
  59 0028 0A4A     		ldr	r2, .L2+12
  60 002a 920D     		lsr	r2, r2, #22
  61 002c 9205     		lsl	r2, r2, #22
  62 002e DA60     		str	r2, [r3, #12]
  63              		.loc 1 85 0
  64 0030 0021     		mov	r1, #0
  65 0032 5022     		mov	r2, #80
  66 0034 FFF7FEFF 		bl	memset
  67              	.LVL0:
  68              		.loc 1 87 0
  69 0038 0020     		mov	r0, #0
  70 003a FFF7FEFF 		bl	HAL_SetDeviceAddress
  71              	.LVL1:
  72              		.loc 1 89 0
  73 003e 064B     		ldr	r3, .L2+16
  74 0040 1C70     		strb	r4, [r3]
  75 0042 064B     		ldr	r3, .L2+20
  76 0044 1C70     		strb	r4, [r3]
  77              		.loc 1 91 0
  78              		@ sp needed
  79 0046 10BD     		pop	{r4, pc}
  80              	.L3:
  81              		.align	2
  82              	.L2:
  83 0048 00000840 		.word	1074266112
  84 004c FF0300C0 		.word	-1073740801
  85 0050 00000000 		.word	.LANCHOR0
  86 0054 00000000 		.word	usb_data_buffer
  87 0058 00000000 		.word	.LANCHOR1
  88 005c 00000000 		.word	.LANCHOR2
  89              		.cfi_endproc
  90              	.LFE97:
  91              		.size	HAL_Reset, .-HAL_Reset
  92              		.section	.text.Endpoint_ConfigureEndpointControl,"ax",%progbits
  93              		.align	2
  94              		.global	Endpoint_ConfigureEndpointControl
  95              		.code	16
  96              		.thumb_func
  97              		.type	Endpoint_ConfigureEndpointControl, %function
  98              	Endpoint_ConfigureEndpointControl:
  99              	.LFB98:
 100              		.loc 1 94 0
 101              		.cfi_startproc
 102              	.LVL2:
 103 0000 10B5     		push	{r4, lr}
 104              		.cfi_def_cfa_offset 8
 105              		.cfi_offset 4, -8
 106              		.cfi_offset 14, -4
 107              		.loc 1 96 0
 108 0002 134B     		ldr	r3, .L5
 109 0004 0022     		mov	r2, #0
 110 0006 1A80     		strh	r2, [r3]
 111              		.loc 1 97 0
 112 0008 5C88     		ldrh	r4, [r3, #2]
 113 000a A40A     		lsr	r4, r4, #10
 114 000c A402     		lsl	r4, r4, #10
ARM GAS  /tmp/ccSGpD6O.s 			page 3


 115 000e 8021     		mov	r1, #128
 116 0010 8900     		lsl	r1, r1, #2
 117 0012 2143     		orr	r1, r4
 118 0014 5980     		strh	r1, [r3, #2]
 119              		.loc 1 98 0
 120 0016 5988     		ldrh	r1, [r3, #2]
 121 0018 4904     		lsl	r1, r1, #17
 122 001a 490C     		lsr	r1, r1, #17
 123 001c 5980     		strh	r1, [r3, #2]
 124              		.loc 1 101 0
 125 001e 0D49     		ldr	r1, .L5+4
 126 0020 8909     		lsr	r1, r1, #6
 127 0022 9980     		strh	r1, [r3, #4]
 128              		.loc 1 104 0
 129 0024 1A81     		strh	r2, [r3, #8]
 130              		.loc 1 105 0
 131 0026 5A89     		ldrh	r2, [r3, #10]
 132 0028 920A     		lsr	r2, r2, #10
 133 002a 9202     		lsl	r2, r2, #10
 134 002c 5A81     		strh	r2, [r3, #10]
 135              		.loc 1 106 0
 136 002e 5A89     		ldrh	r2, [r3, #10]
 137 0030 5204     		lsl	r2, r2, #17
 138 0032 520C     		lsr	r2, r2, #17
 139 0034 5A81     		strh	r2, [r3, #10]
 140              		.loc 1 108 0
 141 0036 084B     		ldr	r3, .L5+8
 142 0038 196A     		ldr	r1, [r3, #32]
 143 003a 0322     		mov	r2, #3
 144 003c 9143     		bic	r1, r2
 145 003e 1962     		str	r1, [r3, #32]
 146              		.loc 1 109 0
 147 0040 596A     		ldr	r1, [r3, #36]
 148 0042 0A43     		orr	r2, r1
 149 0044 5A62     		str	r2, [r3, #36]
 150              		.loc 1 111 0
 151 0046 054B     		ldr	r3, .L5+12
 152 0048 5860     		str	r0, [r3, #4]
 153 004a 1860     		str	r0, [r3]
 154              		.loc 1 114 0
 155 004c 0120     		mov	r0, #1
 156              	.LVL3:
 157              		@ sp needed
 158 004e 10BD     		pop	{r4, pc}
 159              	.L6:
 160              		.align	2
 161              	.L5:
 162 0050 00000000 		.word	.LANCHOR0
 163 0054 80000000 		.word	.LANCHOR3
 164 0058 00000840 		.word	1074266112
 165 005c 00000000 		.word	.LANCHOR4
 166              		.cfi_endproc
 167              	.LFE98:
 168              		.size	Endpoint_ConfigureEndpointControl, .-Endpoint_ConfigureEndpointControl
 169              		.section	.text.Endpoint_ConfigureEndpoint,"ax",%progbits
 170              		.align	2
 171              		.global	Endpoint_ConfigureEndpoint
ARM GAS  /tmp/ccSGpD6O.s 			page 4


 172              		.code	16
 173              		.thumb_func
 174              		.type	Endpoint_ConfigureEndpoint, %function
 175              	Endpoint_ConfigureEndpoint:
 176              	.LFB99:
 177              		.loc 1 118 0
 178              		.cfi_startproc
 179              	.LVL4:
 180 0000 70B5     		push	{r4, r5, r6, lr}
 181              		.cfi_def_cfa_offset 16
 182              		.cfi_offset 4, -16
 183              		.cfi_offset 5, -12
 184              		.cfi_offset 6, -8
 185              		.cfi_offset 14, -4
 186 0002 04AA     		add	r2, sp, #16
 187              	.LVL5:
 188 0004 1588     		ldrh	r5, [r2]
 189              		.loc 1 119 0
 190 0006 4A00     		lsl	r2, r1, #1
 191              	.LVL6:
 192 0008 5C1E     		sub	r4, r3, #1
 193 000a A341     		sbc	r3, r3, r4
 194              	.LVL7:
 195 000c D318     		add	r3, r2, r3
 196              	.LVL8:
 197              		.loc 1 121 0
 198 000e DA00     		lsl	r2, r3, #3
 199 0010 154C     		ldr	r4, .L14
 200 0012 A218     		add	r2, r4, r2
 201 0014 0024     		mov	r4, #0
 202 0016 1460     		str	r4, [r2]
 203 0018 5460     		str	r4, [r2, #4]
 204              		.loc 1 122 0
 205 001a 0126     		mov	r6, #1
 206 001c 1E40     		and	r6, r3
 207 001e 7442     		neg	r4, r6
 208 0020 6641     		adc	r6, r6, r4
 209 0022 DA00     		lsl	r2, r3, #3
 210 0024 104C     		ldr	r4, .L14
 211 0026 A218     		add	r2, r4, r2
 212 0028 7602     		lsl	r6, r6, #9
 213 002a 5488     		ldrh	r4, [r2, #2]
 214 002c A40A     		lsr	r4, r4, #10
 215 002e A402     		lsl	r4, r4, #10
 216 0030 3443     		orr	r4, r6
 217 0032 5480     		strh	r4, [r2, #2]
 218              		.loc 1 124 0
 219 0034 0D4A     		ldr	r2, .L14+4
 220 0036 166A     		ldr	r6, [r2, #32]
 221 0038 0124     		mov	r4, #1
 222 003a 9C40     		lsl	r4, r4, r3
 223 003c A643     		bic	r6, r4
 224 003e 1662     		str	r6, [r2, #32]
 225              	.LVL9:
 226              		.loc 1 125 0
 227 0040 566A     		ldr	r6, [r2, #36]
 228 0042 3443     		orr	r4, r6
ARM GAS  /tmp/ccSGpD6O.s 			page 5


 229 0044 5462     		str	r4, [r2, #36]
 230              		.loc 1 127 0
 231 0046 9C00     		lsl	r4, r3, #2
 232 0048 094A     		ldr	r2, .L14+8
 233 004a A550     		str	r5, [r4, r2]
 234              		.loc 1 128 0
 235 004c 0028     		cmp	r0, #0
 236 004e 01D0     		beq	.L12
 237 0050 0848     		ldr	r0, .L14+12
 238              	.LVL10:
 239 0052 00E0     		b	.L9
 240              	.LVL11:
 241              	.L12:
 242 0054 0848     		ldr	r0, .L14+16
 243              	.LVL12:
 244              	.L9:
 245              		.loc 1 128 0 is_stmt 0 discriminator 3
 246 0056 4018     		add	r0, r0, r1
 247 0058 0022     		mov	r2, #0
 248 005a 0029     		cmp	r1, #0
 249 005c 00D0     		beq	.L10
 250              		.loc 1 128 0 discriminator 1
 251 005e DAB2     		uxtb	r2, r3
 252              	.L10:
 253              		.loc 1 128 0 discriminator 3
 254 0060 0270     		strb	r2, [r0]
 255              		.loc 1 131 0 is_stmt 1 discriminator 3
 256 0062 0120     		mov	r0, #1
 257              		@ sp needed
 258 0064 70BD     		pop	{r4, r5, r6, pc}
 259              	.L15:
 260 0066 C046     		.align	2
 261              	.L14:
 262 0068 00000000 		.word	.LANCHOR0
 263 006c 00000840 		.word	1074266112
 264 0070 00000000 		.word	.LANCHOR4
 265 0074 00000000 		.word	endpointhandle1
 266 0078 00000000 		.word	endpointhandle0
 267              		.cfi_endproc
 268              	.LFE99:
 269              		.size	Endpoint_ConfigureEndpoint, .-Endpoint_ConfigureEndpoint
 270              		.section	.text.DcdDataTransfer,"ax",%progbits
 271              		.align	2
 272              		.global	DcdDataTransfer
 273              		.code	16
 274              		.thumb_func
 275              		.type	DcdDataTransfer, %function
 276              	DcdDataTransfer:
 277              	.LFB101:
 278              		.loc 1 168 0
 279              		.cfi_startproc
 280              	.LVL13:
 281 0000 30B5     		push	{r4, r5, lr}
 282              		.cfi_def_cfa_offset 12
 283              		.cfi_offset 4, -12
 284              		.cfi_offset 5, -8
 285              		.cfi_offset 14, -4
ARM GAS  /tmp/ccSGpD6O.s 			page 6


 286              		.loc 1 169 0
 287 0002 C307     		lsl	r3, r0, #31
 288 0004 20D5     		bpl	.L17
 289              		.loc 1 170 0
 290 0006 8300     		lsl	r3, r0, #2
 291 0008 144C     		ldr	r4, .L21
 292 000a 1B59     		ldr	r3, [r3, r4]
 293 000c 9342     		cmp	r3, r2
 294 000e 0CD8     		bhi	.L18
 295              		.loc 1 171 0
 296 0010 04D1     		bne	.L19
 297              		.loc 1 171 0 is_stmt 0 discriminator 1
 298 0012 0128     		cmp	r0, #1
 299 0014 02D1     		bne	.L19
 300              		.loc 1 172 0 is_stmt 1
 301 0016 0125     		mov	r5, #1
 302 0018 114C     		ldr	r4, .L21+4
 303 001a 2570     		strb	r5, [r4]
 304              	.L19:
 305              		.loc 1 174 0
 306 001c 4508     		lsr	r5, r0, #1
 307 001e AD00     		lsl	r5, r5, #2
 308 0020 D21A     		sub	r2, r2, r3
 309              	.LVL14:
 310 0022 104C     		ldr	r4, .L21+8
 311 0024 2A51     		str	r2, [r5, r4]
 312              	.LVL15:
 313              		.loc 1 175 0
 314 0026 1A1C     		mov	r2, r3
 315 0028 04E0     		b	.L20
 316              	.LVL16:
 317              	.L18:
 318              		.loc 1 178 0
 319 002a 4408     		lsr	r4, r0, #1
 320 002c A400     		lsl	r4, r4, #2
 321 002e 0025     		mov	r5, #0
 322 0030 0C4B     		ldr	r3, .L21+8
 323 0032 E550     		str	r5, [r4, r3]
 324              	.L20:
 325              		.loc 1 180 0
 326 0034 C300     		lsl	r3, r0, #3
 327 0036 0C4C     		ldr	r4, .L21+12
 328 0038 E318     		add	r3, r4, r3
 329 003a 9205     		lsl	r2, r2, #22
 330              	.LVL17:
 331 003c 940D     		lsr	r4, r2, #22
 332 003e 5A88     		ldrh	r2, [r3, #2]
 333 0040 920A     		lsr	r2, r2, #10
 334 0042 9202     		lsl	r2, r2, #10
 335 0044 2243     		orr	r2, r4
 336 0046 5A80     		strh	r2, [r3, #2]
 337              	.L17:
 338              		.loc 1 182 0
 339 0048 074B     		ldr	r3, .L21+12
 340 004a C000     		lsl	r0, r0, #3
 341              	.LVL18:
 342 004c 8909     		lsr	r1, r1, #6
ARM GAS  /tmp/ccSGpD6O.s 			page 7


 343              	.LVL19:
 344 004e C152     		strh	r1, [r0, r3]
 345              		.loc 1 184 0
 346 0050 1818     		add	r0, r3, r0
 347 0052 4388     		ldrh	r3, [r0, #2]
 348 0054 054A     		ldr	r2, .L21+16
 349 0056 1343     		orr	r3, r2
 350 0058 4380     		strh	r3, [r0, #2]
 351              		.loc 1 185 0
 352              		@ sp needed
 353 005a 30BD     		pop	{r4, r5, pc}
 354              	.L22:
 355              		.align	2
 356              	.L21:
 357 005c 00000000 		.word	.LANCHOR4
 358 0060 00000000 		.word	.LANCHOR2
 359 0064 00000000 		.word	.LANCHOR5
 360 0068 00000000 		.word	.LANCHOR0
 361 006c 0080FFFF 		.word	-32768
 362              		.cfi_endproc
 363              	.LFE101:
 364              		.size	DcdDataTransfer, .-DcdDataTransfer
 365              		.section	.text.Endpoint_Streaming,"ax",%progbits
 366              		.align	2
 367              		.global	Endpoint_Streaming
 368              		.code	16
 369              		.thumb_func
 370              		.type	Endpoint_Streaming, %function
 371              	Endpoint_Streaming:
 372              	.LFB100:
 373              		.loc 1 135 0
 374              		.cfi_startproc
 375              	.LVL20:
 376 0000 F0B5     		push	{r4, r5, r6, r7, lr}
 377              		.cfi_def_cfa_offset 20
 378              		.cfi_offset 4, -20
 379              		.cfi_offset 5, -16
 380              		.cfi_offset 6, -12
 381              		.cfi_offset 7, -8
 382              		.cfi_offset 14, -4
 383 0002 5F46     		mov	r7, fp
 384 0004 5646     		mov	r6, r10
 385 0006 4D46     		mov	r5, r9
 386 0008 4446     		mov	r4, r8
 387 000a F0B4     		push	{r4, r5, r6, r7}
 388              		.cfi_def_cfa_offset 36
 389              		.cfi_offset 8, -36
 390              		.cfi_offset 9, -32
 391              		.cfi_offset 10, -28
 392              		.cfi_offset 11, -24
 393 000c 89B0     		sub	sp, sp, #36
 394              		.cfi_def_cfa_offset 72
 395 000e 051C     		mov	r5, r0
 396 0010 0591     		str	r1, [sp, #20]
 397 0012 0392     		str	r2, [sp, #12]
 398 0014 0193     		str	r3, [sp, #4]
 399 0016 12AB     		add	r3, sp, #72
ARM GAS  /tmp/ccSGpD6O.s 			page 8


 400              	.LVL21:
 401 0018 1B88     		ldrh	r3, [r3]
 402              	.LVL22:
 403 001a 0693     		str	r3, [sp, #24]
 404              		.loc 1 136 0
 405 001c 0028     		cmp	r0, #0
 406 001e 01D0     		beq	.L80
 407 0020 CF4A     		ldr	r2, .L85
 408              	.LVL23:
 409 0022 00E0     		b	.L24
 410              	.LVL24:
 411              	.L80:
 412 0024 CF4A     		ldr	r2, .L85+4
 413              	.LVL25:
 414              	.L24:
 415              		.loc 1 136 0 is_stmt 0 discriminator 3
 416 0026 2C1C     		mov	r4, r5
 417 0028 CF4B     		ldr	r3, .L85+8
 418 002a 5B5D     		ldrb	r3, [r3, r5]
 419 002c D35C     		ldrb	r3, [r2, r3]
 420 002e 9946     		mov	r9, r3
 421              	.LVL26:
 422              		.loc 1 139 0 is_stmt 1 discriminator 3
 423 0030 DB07     		lsl	r3, r3, #31
 424 0032 00D4     		bmi	.LCB391
 425 0034 D1E0     		b	.L25	@long jump
 426              	.LCB391:
 427              	.LVL27:
 428              		.loc 1 140 0 discriminator 1
 429 0036 019F     		ldr	r7, [sp, #4]
 430 0038 002F     		cmp	r7, #0
 431 003a 69D0     		beq	.L26
 432 003c 039F     		ldr	r7, [sp, #12]
 433 003e 0297     		str	r7, [sp, #8]
 434 0040 0598     		ldr	r0, [sp, #20]
 435              	.LVL28:
 436 0042 8046     		mov	r8, r0
 437              		.loc 1 140 0 is_stmt 0
 438 0044 0021     		mov	r1, #0
 439              	.LVL29:
 440 0046 8A46     		mov	r10, r1
 441              	.LBB53:
 442              	.LBB54:
 443              		.file 2 "USBlib_11U14/Drivers/USB/Core/DCD/LPC11UXX/../../DCD/LPC11UXX/Endpoint_LPC11Uxx.h"
 444              		.loc 2 329 0 is_stmt 1
 445 0048 6B02     		lsl	r3, r5, #9
 446 004a C84F     		ldr	r7, .L85+12
 447 004c DF19     		add	r7, r3, r7
 448 004e 0797     		str	r7, [sp, #28]
 449              		.loc 2 333 0
 450 0050 C748     		ldr	r0, .L85+16
 451 0052 1B18     		add	r3, r3, r0
 452 0054 0493     		str	r3, [sp, #16]
 453 0056 4446     		mov	r4, r8
 454              	.LVL30:
 455 0058 A946     		mov	r9, r5
 456 005a A846     		mov	r8, r5
ARM GAS  /tmp/ccSGpD6O.s 			page 9


 457              	.LVL31:
 458              	.L37:
 459              	.LBE54:
 460              	.LBE53:
 461              	.LBB56:
 462              	.LBB57:
 463              	.LBB58:
 464              	.LBB59:
 465              		.file 3 "USBlib_11U14/Drivers/USB/Core/DCD/LPC11UXX/../../Endpoint.h"
 466              		.loc 3 246 0 discriminator 1
 467 005c C24D     		ldr	r5, .L85+8
 468 005e 4046     		mov	r0, r8
 469 0060 2F5C     		ldrb	r7, [r5, r0]
 470 0062 4946     		mov	r1, r9
 471 0064 0029     		cmp	r1, #0
 472 0066 01D0     		beq	.L27
 473 0068 BD4B     		ldr	r3, .L85
 474 006a 00E0     		b	.L28
 475              	.L27:
 476 006c BD4B     		ldr	r3, .L85+4
 477              	.L28:
 478 006e DE5D     		ldrb	r6, [r3, r7]
 479 0070 0123     		mov	r3, #1
 480 0072 3340     		and	r3, r6
 481              	.LBE59:
 482              	.LBE58:
 483              	.LBB61:
 484              	.LBB62:
 485              		.loc 2 291 0 discriminator 1
 486 0074 0122     		mov	r2, #1
 487 0076 9346     		mov	fp, r2
 488              		.loc 2 293 0 discriminator 1
 489 0078 0120     		mov	r0, #1
 490              	.LBE62:
 491              	.LBE61:
 492              	.LBB65:
 493              	.LBB66:
 494              		.loc 2 302 0 discriminator 1
 495 007a F100     		lsl	r1, r6, #3
 496 007c BD4D     		ldr	r5, .L85+20
 497 007e 6918     		add	r1, r5, r1
 498              	.L32:
 499              	.LVL32:
 500              	.LBE66:
 501              	.LBE65:
 502              	.LBB68:
 503              	.LBB60:
 504              		.loc 3 246 0 discriminator 1
 505 0080 002B     		cmp	r3, #0
 506 0082 00D0     		beq	.LCB477
 507 0084 66E1     		b	.L29	@long jump
 508              	.LCB477:
 509              	.LVL33:
 510              	.LBE60:
 511              	.LBE68:
 512              	.LBB69:
 513              	.LBB67:
ARM GAS  /tmp/ccSGpD6O.s 			page 10


 514              		.loc 2 302 0
 515 0086 4A88     		ldrh	r2, [r1, #2]
 516 0088 9205     		lsl	r2, r2, #22
 517 008a 920D     		lsr	r2, r2, #22
 518              		.loc 2 301 0
 519 008c BA4D     		ldr	r5, .L85+24
 520 008e 5219     		add	r2, r2, r5
 521 0090 551E     		sub	r5, r2, #1
 522 0092 AA41     		sbc	r2, r2, r5
 523 0094 D2B2     		uxtb	r2, r2
 524 0096 06E0     		b	.L30
 525              	.LVL34:
 526              	.L73:
 527              	.LBE67:
 528              	.LBE69:
 529              	.LBB70:
 530              	.LBB63:
 531              		.loc 2 293 0
 532 0098 D200     		lsl	r2, r2, #3
 533              	.LVL35:
 534 009a B64D     		ldr	r5, .L85+20
 535 009c AA18     		add	r2, r5, r2
 536 009e 5288     		ldrh	r2, [r2, #2]
 537 00a0 D20B     		lsr	r2, r2, #15
 538 00a2 4240     		eor	r2, r0
 539 00a4 D2B2     		uxtb	r2, r2
 540              	.LVL36:
 541              	.L30:
 542              	.LBE63:
 543              	.LBE70:
 544              	.LBE57:
 545              	.LBE56:
 546              		.loc 1 141 0
 547 00a6 002A     		cmp	r2, #0
 548 00a8 EAD0     		beq	.L32
 549              		.loc 1 142 0
 550 00aa 4846     		mov	r0, r9
 551 00ac 211C     		mov	r1, r4
 552 00ae 039A     		ldr	r2, [sp, #12]
 553 00b0 0023     		mov	r3, #0
 554 00b2 FFF7FEFF 		bl	Endpoint_Write_Stream_LE
 555              	.LVL37:
 556              	.LBB73:
 557              	.LBB55:
 558              		.loc 2 327 0
 559 00b6 AC4B     		ldr	r3, .L85+8
 560 00b8 4746     		mov	r7, r8
 561 00ba DB5D     		ldrb	r3, [r3, r7]
 562 00bc 002B     		cmp	r3, #0
 563 00be 08D0     		beq	.L33
 564              	.LVL38:
 565 00c0 4846     		mov	r0, r9
 566 00c2 0028     		cmp	r0, #0
 567 00c4 01D0     		beq	.L81
 568              	.LVL39:
 569 00c6 A64A     		ldr	r2, .L85
 570 00c8 00E0     		b	.L34
ARM GAS  /tmp/ccSGpD6O.s 			page 11


 571              	.L81:
 572 00ca A64A     		ldr	r2, .L85+4
 573              	.L34:
 574 00cc D05C     		ldrb	r0, [r2, r3]
 575              	.LVL40:
 576              		.loc 2 328 0
 577 00ce 0128     		cmp	r0, #1
 578 00d0 0AD1     		bne	.L35
 579              	.LVL41:
 580              	.L33:
 581              		.loc 2 329 0
 582 00d2 AA4E     		ldr	r6, .L85+28
 583 00d4 4146     		mov	r1, r8
 584 00d6 8F00     		lsl	r7, r1, #2
 585              	.LVL42:
 586 00d8 BA59     		ldr	r2, [r7, r6]
 587 00da 0120     		mov	r0, #1
 588 00dc 0799     		ldr	r1, [sp, #28]
 589 00de FFF7FEFF 		bl	DcdDataTransfer
 590              	.LVL43:
 591              		.loc 2 330 0
 592 00e2 0023     		mov	r3, #0
 593 00e4 BB51     		str	r3, [r7, r6]
 594 00e6 08E0     		b	.L36
 595              	.LVL44:
 596              	.L35:
 597              		.loc 2 333 0
 598 00e8 A54E     		ldr	r6, .L85+32
 599 00ea 4246     		mov	r2, r8
 600              	.LVL45:
 601 00ec 9700     		lsl	r7, r2, #2
 602              	.LVL46:
 603 00ee BA59     		ldr	r2, [r7, r6]
 604 00f0 0499     		ldr	r1, [sp, #16]
 605 00f2 FFF7FEFF 		bl	DcdDataTransfer
 606              	.LVL47:
 607              		.loc 2 334 0
 608 00f6 0023     		mov	r3, #0
 609 00f8 BB51     		str	r3, [r7, r6]
 610              	.L36:
 611              	.LBE55:
 612              	.LBE73:
 613              		.loc 1 140 0
 614 00fa 5546     		mov	r5, r10
 615 00fc 0135     		add	r5, r5, #1
 616 00fe ADB2     		uxth	r5, r5
 617 0100 AA46     		mov	r10, r5
 618              	.LVL48:
 619 0102 029D     		ldr	r5, [sp, #8]
 620              	.LVL49:
 621 0104 6419     		add	r4, r4, r5
 622 0106 019F     		ldr	r7, [sp, #4]
 623 0108 BA45     		cmp	r10, r7
 624 010a A7D1     		bne	.L37
 625 010c 4446     		mov	r4, r8
 626 010e 4D46     		mov	r5, r9
 627              	.LVL50:
ARM GAS  /tmp/ccSGpD6O.s 			page 12


 628              	.L26:
 629              		.loc 1 145 0 discriminator 1
 630 0110 0698     		ldr	r0, [sp, #24]
 631 0112 0028     		cmp	r0, #0
 632 0114 00D1     		bne	.LCB632
 633 0116 4AE1     		b	.L23	@long jump
 634              	.LCB632:
 635              		.loc 1 145 0 is_stmt 0
 636 0118 0021     		mov	r1, #0
 637 011a 8A46     		mov	r10, r1
 638              	.LBB74:
 639              	.LBB75:
 640              		.loc 2 329 0 is_stmt 1
 641 011c 6302     		lsl	r3, r4, #9
 642 011e 934F     		ldr	r7, .L85+12
 643 0120 DF19     		add	r7, r3, r7
 644 0122 0497     		str	r7, [sp, #16]
 645              		.loc 2 333 0
 646 0124 9248     		ldr	r0, .L85+16
 647 0126 1B18     		add	r3, r3, r0
 648 0128 0293     		str	r3, [sp, #8]
 649 012a 0195     		str	r5, [sp, #4]
 650 012c 0699     		ldr	r1, [sp, #24]
 651 012e 8846     		mov	r8, r1
 652              	.LVL51:
 653              	.L49:
 654              	.LBE75:
 655              	.LBE74:
 656              	.LBB77:
 657              	.LBB78:
 658              	.LBB79:
 659              	.LBB80:
 660              		.loc 3 246 0 discriminator 1
 661 0130 8D4D     		ldr	r5, .L85+8
 662 0132 2E5D     		ldrb	r6, [r5, r4]
 663 0134 019D     		ldr	r5, [sp, #4]
 664 0136 002D     		cmp	r5, #0
 665 0138 01D0     		beq	.L39
 666 013a 894B     		ldr	r3, .L85
 667 013c 00E0     		b	.L40
 668              	.L39:
 669 013e 894B     		ldr	r3, .L85+4
 670              	.L40:
 671 0140 995D     		ldrb	r1, [r3, r6]
 672 0142 0123     		mov	r3, #1
 673 0144 0B40     		and	r3, r1
 674              	.LBE80:
 675              	.LBE79:
 676              	.LBB82:
 677              	.LBB83:
 678              		.loc 2 291 0 discriminator 1
 679 0146 0127     		mov	r7, #1
 680 0148 BB46     		mov	fp, r7
 681              		.loc 2 293 0 discriminator 1
 682 014a 8A48     		ldr	r0, .L85+20
 683 014c 8146     		mov	r9, r0
 684 014e 0125     		mov	r5, #1
ARM GAS  /tmp/ccSGpD6O.s 			page 13


 685              	.LBE83:
 686              	.LBE82:
 687              	.LBB86:
 688              	.LBB87:
 689              		.loc 2 302 0 discriminator 1
 690 0150 C800     		lsl	r0, r1, #3
 691 0152 4A46     		mov	r2, r9
 692 0154 1018     		add	r0, r2, r0
 693              	.L44:
 694              	.LVL52:
 695              	.LBE87:
 696              	.LBE86:
 697              	.LBB89:
 698              	.LBB81:
 699              		.loc 3 246 0 discriminator 1
 700 0156 002B     		cmp	r3, #0
 701 0158 00D0     		beq	.LCB703
 702 015a 17E1     		b	.L41	@long jump
 703              	.LCB703:
 704              	.LVL53:
 705              	.LBE81:
 706              	.LBE89:
 707              	.LBB90:
 708              	.LBB88:
 709              		.loc 2 302 0
 710 015c 4288     		ldrh	r2, [r0, #2]
 711 015e 9205     		lsl	r2, r2, #22
 712 0160 920D     		lsr	r2, r2, #22
 713              		.loc 2 301 0
 714 0162 854F     		ldr	r7, .L85+24
 715 0164 D219     		add	r2, r2, r7
 716 0166 571E     		sub	r7, r2, #1
 717 0168 BA41     		sbc	r2, r2, r7
 718 016a D2B2     		uxtb	r2, r2
 719 016c 05E0     		b	.L42
 720              	.LVL54:
 721              	.L75:
 722              	.LBE88:
 723              	.LBE90:
 724              	.LBB91:
 725              	.LBB84:
 726              		.loc 2 293 0
 727 016e D200     		lsl	r2, r2, #3
 728              	.LVL55:
 729 0170 4A44     		add	r2, r2, r9
 730 0172 5288     		ldrh	r2, [r2, #2]
 731 0174 D20B     		lsr	r2, r2, #15
 732 0176 6A40     		eor	r2, r5
 733 0178 D2B2     		uxtb	r2, r2
 734              	.LVL56:
 735              	.L42:
 736              	.LBE84:
 737              	.LBE91:
 738              	.LBE78:
 739              	.LBE77:
 740              		.loc 1 146 0
 741 017a 002A     		cmp	r2, #0
ARM GAS  /tmp/ccSGpD6O.s 			page 14


 742 017c EBD0     		beq	.L44
 743              		.loc 1 147 0
 744 017e 0198     		ldr	r0, [sp, #4]
 745 0180 0599     		ldr	r1, [sp, #20]
 746 0182 039A     		ldr	r2, [sp, #12]
 747 0184 0023     		mov	r3, #0
 748 0186 FFF7FEFF 		bl	Endpoint_Write_Stream_LE
 749              	.LVL57:
 750              	.LBB94:
 751              	.LBB76:
 752              		.loc 2 327 0
 753 018a 774B     		ldr	r3, .L85+8
 754 018c 1B5D     		ldrb	r3, [r3, r4]
 755 018e 002B     		cmp	r3, #0
 756 0190 08D0     		beq	.L45
 757 0192 019D     		ldr	r5, [sp, #4]
 758 0194 002D     		cmp	r5, #0
 759 0196 01D0     		beq	.L82
 760 0198 714A     		ldr	r2, .L85
 761 019a 00E0     		b	.L46
 762              	.L82:
 763 019c 714A     		ldr	r2, .L85+4
 764              	.L46:
 765 019e D05C     		ldrb	r0, [r2, r3]
 766              	.LVL58:
 767              		.loc 2 328 0
 768 01a0 0128     		cmp	r0, #1
 769 01a2 09D1     		bne	.L47
 770              	.LVL59:
 771              	.L45:
 772              		.loc 2 329 0
 773 01a4 754E     		ldr	r6, .L85+28
 774 01a6 A700     		lsl	r7, r4, #2
 775 01a8 BA59     		ldr	r2, [r7, r6]
 776 01aa 0120     		mov	r0, #1
 777 01ac 0499     		ldr	r1, [sp, #16]
 778 01ae FFF7FEFF 		bl	DcdDataTransfer
 779              	.LVL60:
 780              		.loc 2 330 0
 781 01b2 0023     		mov	r3, #0
 782 01b4 BB51     		str	r3, [r7, r6]
 783 01b6 09E0     		b	.L48
 784              	.LVL61:
 785              	.L47:
 786              		.loc 2 333 0
 787 01b8 714E     		ldr	r6, .L85+32
 788 01ba A100     		lsl	r1, r4, #2
 789 01bc 8946     		mov	r9, r1
 790 01be 8A59     		ldr	r2, [r1, r6]
 791              	.LVL62:
 792 01c0 0299     		ldr	r1, [sp, #8]
 793 01c2 FFF7FEFF 		bl	DcdDataTransfer
 794              	.LVL63:
 795              		.loc 2 334 0
 796 01c6 0023     		mov	r3, #0
 797 01c8 4A46     		mov	r2, r9
 798 01ca 9351     		str	r3, [r2, r6]
ARM GAS  /tmp/ccSGpD6O.s 			page 15


 799              	.L48:
 800              	.LBE76:
 801              	.LBE94:
 802              		.loc 1 145 0
 803 01cc 5746     		mov	r7, r10
 804 01ce 0137     		add	r7, r7, #1
 805 01d0 BFB2     		uxth	r7, r7
 806 01d2 BA46     		mov	r10, r7
 807              	.LVL64:
 808 01d4 4745     		cmp	r7, r8
 809 01d6 ABD1     		bne	.L49
 810 01d8 E9E0     		b	.L23
 811              	.LVL65:
 812              	.L25:
 813              		.loc 1 152 0
 814 01da 019F     		ldr	r7, [sp, #4]
 815 01dc 0698     		ldr	r0, [sp, #24]
 816              	.LVL66:
 817 01de 3B18     		add	r3, r7, r0
 818 01e0 684A     		ldr	r2, .L85+36
 819              	.LVL67:
 820 01e2 1380     		strh	r3, [r2]
 821              	.LVL68:
 822              		.loc 1 153 0
 823 01e4 002F     		cmp	r7, #0
 824 01e6 5BD0     		beq	.L50
 825 01e8 039F     		ldr	r7, [sp, #12]
 826 01ea 0497     		str	r7, [sp, #16]
 827 01ec 0598     		ldr	r0, [sp, #20]
 828 01ee 0021     		mov	r1, #0
 829              	.LVL69:
 830 01f0 8A46     		mov	r10, r1
 831              	.LBB95:
 832              	.LBB96:
 833              		.loc 2 344 0
 834 01f2 0295     		str	r5, [sp, #8]
 835 01f4 071C     		mov	r7, r0
 836 01f6 A846     		mov	r8, r5
 837              	.LVL70:
 838              	.L60:
 839              	.LBE96:
 840              	.LBE95:
 841              		.loc 1 154 0
 842 01f8 4846     		mov	r0, r9
 843 01fa 391C     		mov	r1, r7
 844 01fc 049A     		ldr	r2, [sp, #16]
 845 01fe FFF7FEFF 		bl	DcdDataTransfer
 846              	.LVL71:
 847              	.LBB98:
 848              	.LBB97:
 849              		.loc 2 343 0
 850 0202 594C     		ldr	r4, .L85+8
 851 0204 029D     		ldr	r5, [sp, #8]
 852 0206 605D     		ldrb	r0, [r4, r5]
 853 0208 0028     		cmp	r0, #0
 854 020a 04D1     		bne	.L51
 855              		.loc 2 344 0
ARM GAS  /tmp/ccSGpD6O.s 			page 16


 856 020c AB00     		lsl	r3, r5, #2
 857 020e 0022     		mov	r2, #0
 858 0210 5A4C     		ldr	r4, .L85+28
 859 0212 1A51     		str	r2, [r3, r4]
 860 0214 04E0     		b	.L52
 861              	.L51:
 862              		.loc 2 346 0
 863 0216 029D     		ldr	r5, [sp, #8]
 864 0218 AB00     		lsl	r3, r5, #2
 865 021a 0022     		mov	r2, #0
 866 021c 5A4C     		ldr	r4, .L85+40
 867 021e 1A51     		str	r2, [r3, r4]
 868              	.L52:
 869              		.loc 2 348 0
 870 0220 4546     		mov	r5, r8
 871 0222 002D     		cmp	r5, #0
 872 0224 01D0     		beq	.L83
 873              	.LVL72:
 874 0226 4E4B     		ldr	r3, .L85
 875 0228 00E0     		b	.L53
 876              	.L83:
 877 022a 4E4B     		ldr	r3, .L85+4
 878              	.L53:
 879 022c 1B5C     		ldrb	r3, [r3, r0]
 880 022e DB00     		lsl	r3, r3, #3
 881 0230 504A     		ldr	r2, .L85+20
 882 0232 D318     		add	r3, r2, r3
 883 0234 5988     		ldrh	r1, [r3, #2]
 884 0236 890A     		lsr	r1, r1, #10
 885 0238 8902     		lsl	r1, r1, #10
 886 023a 8022     		mov	r2, #128
 887 023c 9200     		lsl	r2, r2, #2
 888 023e 0A43     		orr	r2, r1
 889 0240 5A80     		strh	r2, [r3, #2]
 890 0242 4146     		mov	r1, r8
 891 0244 0029     		cmp	r1, #0
 892 0246 01D0     		beq	.L54
 893              	.LVL73:
 894 0248 454B     		ldr	r3, .L85
 895 024a 00E0     		b	.L55
 896              	.L54:
 897 024c 454B     		ldr	r3, .L85+4
 898              	.L55:
 899              	.LBE97:
 900              	.LBE98:
 901              	.LBB99:
 902              	.LBB100:
 903              	.LBB101:
 904              	.LBB102:
 905              		.loc 3 246 0
 906 024e 1E5C     		ldrb	r6, [r3, r0]
 907 0250 0123     		mov	r3, #1
 908 0252 3340     		and	r3, r6
 909              	.LBE102:
 910              	.LBE101:
 911              	.LBB104:
 912              	.LBB105:
ARM GAS  /tmp/ccSGpD6O.s 			page 17


 913              		.loc 2 291 0
 914 0254 0122     		mov	r2, #1
 915 0256 9346     		mov	fp, r2
 916              		.loc 2 293 0
 917 0258 0125     		mov	r5, #1
 918              	.LBE105:
 919              	.LBE104:
 920              	.LBB108:
 921              	.LBB109:
 922              		.loc 2 302 0
 923 025a F100     		lsl	r1, r6, #3
 924              	.LVL74:
 925 025c 454C     		ldr	r4, .L85+20
 926 025e 6118     		add	r1, r4, r1
 927              	.L59:
 928              	.LVL75:
 929              	.LBE109:
 930              	.LBE108:
 931              	.LBB111:
 932              	.LBB103:
 933              		.loc 3 246 0 discriminator 1
 934 0260 002B     		cmp	r3, #0
 935 0262 00D0     		beq	.LCB960
 936 0264 98E0     		b	.L56	@long jump
 937              	.LCB960:
 938              	.LVL76:
 939              	.LBE103:
 940              	.LBE111:
 941              	.LBB112:
 942              	.LBB110:
 943              		.loc 2 302 0
 944 0266 4A88     		ldrh	r2, [r1, #2]
 945 0268 9205     		lsl	r2, r2, #22
 946 026a 920D     		lsr	r2, r2, #22
 947              		.loc 2 301 0
 948 026c 424C     		ldr	r4, .L85+24
 949 026e 1219     		add	r2, r2, r4
 950 0270 541E     		sub	r4, r2, #1
 951 0272 A241     		sbc	r2, r2, r4
 952 0274 D2B2     		uxtb	r2, r2
 953 0276 06E0     		b	.L57
 954              	.LVL77:
 955              	.L77:
 956              	.LBE110:
 957              	.LBE112:
 958              	.LBB113:
 959              	.LBB106:
 960              		.loc 2 293 0
 961 0278 D200     		lsl	r2, r2, #3
 962              	.LVL78:
 963 027a 3E4C     		ldr	r4, .L85+20
 964 027c A218     		add	r2, r4, r2
 965 027e 5288     		ldrh	r2, [r2, #2]
 966 0280 D20B     		lsr	r2, r2, #15
 967 0282 6A40     		eor	r2, r5
 968 0284 D2B2     		uxtb	r2, r2
 969              	.LVL79:
ARM GAS  /tmp/ccSGpD6O.s 			page 18


 970              	.L57:
 971              	.LBE106:
 972              	.LBE113:
 973              	.LBE100:
 974              	.LBE99:
 975              		.loc 1 156 0
 976 0286 002A     		cmp	r2, #0
 977 0288 EAD0     		beq	.L59
 978              		.loc 1 153 0
 979 028a 5446     		mov	r4, r10
 980 028c 0134     		add	r4, r4, #1
 981 028e A4B2     		uxth	r4, r4
 982 0290 A246     		mov	r10, r4
 983              	.LVL80:
 984 0292 049D     		ldr	r5, [sp, #16]
 985 0294 7F19     		add	r7, r7, r5
 986 0296 019C     		ldr	r4, [sp, #4]
 987              	.LVL81:
 988 0298 A245     		cmp	r10, r4
 989 029a ADD1     		bne	.L60
 990 029c 029C     		ldr	r4, [sp, #8]
 991 029e 4546     		mov	r5, r8
 992              	.LVL82:
 993              	.L50:
 994              		.loc 1 158 0 discriminator 1
 995 02a0 069F     		ldr	r7, [sp, #24]
 996 02a2 002F     		cmp	r7, #0
 997 02a4 52D0     		beq	.L61
 998              		.loc 1 158 0 is_stmt 0
 999 02a6 0026     		mov	r6, #0
 1000              	.LBB116:
 1001              	.LBB117:
 1002              		.loc 2 343 0 is_stmt 1
 1003 02a8 2F48     		ldr	r0, .L85+8
 1004 02aa 8046     		mov	r8, r0
 1005              		.loc 2 344 0
 1006 02ac A246     		mov	r10, r4
 1007 02ae 0195     		str	r5, [sp, #4]
 1008              	.LVL83:
 1009              	.L71:
 1010              	.LBE117:
 1011              	.LBE116:
 1012              		.loc 1 159 0
 1013 02b0 4846     		mov	r0, r9
 1014 02b2 0599     		ldr	r1, [sp, #20]
 1015 02b4 039A     		ldr	r2, [sp, #12]
 1016 02b6 FFF7FEFF 		bl	DcdDataTransfer
 1017              	.LVL84:
 1018              	.LBB119:
 1019              	.LBB118:
 1020              		.loc 2 343 0
 1021 02ba 4246     		mov	r2, r8
 1022 02bc 5244     		add	r2, r2, r10
 1023 02be 1178     		ldrb	r1, [r2]
 1024 02c0 0029     		cmp	r1, #0
 1025 02c2 05D1     		bne	.L62
 1026              		.loc 2 344 0
ARM GAS  /tmp/ccSGpD6O.s 			page 19


 1027 02c4 5446     		mov	r4, r10
 1028 02c6 A300     		lsl	r3, r4, #2
 1029 02c8 0022     		mov	r2, #0
 1030 02ca 2C4D     		ldr	r5, .L85+28
 1031 02cc 5A51     		str	r2, [r3, r5]
 1032 02ce 04E0     		b	.L63
 1033              	.L62:
 1034              		.loc 2 346 0
 1035 02d0 5746     		mov	r7, r10
 1036 02d2 BB00     		lsl	r3, r7, #2
 1037 02d4 0022     		mov	r2, #0
 1038 02d6 2C4C     		ldr	r4, .L85+40
 1039 02d8 1A51     		str	r2, [r3, r4]
 1040              	.L63:
 1041              		.loc 2 348 0
 1042 02da 019D     		ldr	r5, [sp, #4]
 1043 02dc 002D     		cmp	r5, #0
 1044 02de 01D0     		beq	.L84
 1045 02e0 1F4B     		ldr	r3, .L85
 1046 02e2 00E0     		b	.L64
 1047              	.L84:
 1048 02e4 1F4B     		ldr	r3, .L85+4
 1049              	.L64:
 1050 02e6 5B5C     		ldrb	r3, [r3, r1]
 1051 02e8 DB00     		lsl	r3, r3, #3
 1052 02ea 224A     		ldr	r2, .L85+20
 1053 02ec D318     		add	r3, r2, r3
 1054 02ee 5888     		ldrh	r0, [r3, #2]
 1055 02f0 800A     		lsr	r0, r0, #10
 1056 02f2 8002     		lsl	r0, r0, #10
 1057 02f4 8022     		mov	r2, #128
 1058 02f6 9200     		lsl	r2, r2, #2
 1059 02f8 0243     		orr	r2, r0
 1060 02fa 5A80     		strh	r2, [r3, #2]
 1061 02fc 019C     		ldr	r4, [sp, #4]
 1062 02fe 002C     		cmp	r4, #0
 1063 0300 01D0     		beq	.L65
 1064 0302 174B     		ldr	r3, .L85
 1065 0304 00E0     		b	.L66
 1066              	.L65:
 1067 0306 174B     		ldr	r3, .L85+4
 1068              	.L66:
 1069              	.LBE118:
 1070              	.LBE119:
 1071              	.LBB120:
 1072              	.LBB121:
 1073              	.LBB122:
 1074              	.LBB123:
 1075              		.loc 3 246 0
 1076 0308 585C     		ldrb	r0, [r3, r1]
 1077 030a 0123     		mov	r3, #1
 1078 030c 0340     		and	r3, r0
 1079              	.LBE123:
 1080              	.LBE122:
 1081              	.LBB125:
 1082              	.LBB126:
 1083              		.loc 2 291 0
ARM GAS  /tmp/ccSGpD6O.s 			page 20


 1084 030e 0125     		mov	r5, #1
 1085 0310 AB46     		mov	fp, r5
 1086              		.loc 2 293 0
 1087 0312 0124     		mov	r4, #1
 1088              	.LBE126:
 1089              	.LBE125:
 1090              	.LBB129:
 1091              	.LBB130:
 1092              		.loc 2 302 0
 1093 0314 C700     		lsl	r7, r0, #3
 1094 0316 174A     		ldr	r2, .L85+20
 1095 0318 D719     		add	r7, r2, r7
 1096              	.L70:
 1097              	.LVL85:
 1098              	.LBE130:
 1099              	.LBE129:
 1100              	.LBB132:
 1101              	.LBB124:
 1102              		.loc 3 246 0 discriminator 1
 1103 031a 002B     		cmp	r3, #0
 1104 031c 42D1     		bne	.L67
 1105              	.LVL86:
 1106              	.LBE124:
 1107              	.LBE132:
 1108              	.LBB133:
 1109              	.LBB131:
 1110              		.loc 2 302 0
 1111 031e 7A88     		ldrh	r2, [r7, #2]
 1112 0320 9205     		lsl	r2, r2, #22
 1113 0322 920D     		lsr	r2, r2, #22
 1114              		.loc 2 301 0
 1115 0324 144D     		ldr	r5, .L85+24
 1116 0326 5219     		add	r2, r2, r5
 1117 0328 551E     		sub	r5, r2, #1
 1118 032a AA41     		sbc	r2, r2, r5
 1119 032c D2B2     		uxtb	r2, r2
 1120 032e 06E0     		b	.L68
 1121              	.LVL87:
 1122              	.L79:
 1123              	.LBE131:
 1124              	.LBE133:
 1125              	.LBB134:
 1126              	.LBB127:
 1127              		.loc 2 293 0
 1128 0330 D200     		lsl	r2, r2, #3
 1129              	.LVL88:
 1130 0332 104D     		ldr	r5, .L85+20
 1131 0334 AA18     		add	r2, r5, r2
 1132 0336 5288     		ldrh	r2, [r2, #2]
 1133 0338 D20B     		lsr	r2, r2, #15
 1134 033a 6240     		eor	r2, r4
 1135 033c D2B2     		uxtb	r2, r2
 1136              	.LVL89:
 1137              	.L68:
 1138              	.LBE127:
 1139              	.LBE134:
 1140              	.LBE121:
ARM GAS  /tmp/ccSGpD6O.s 			page 21


 1141              	.LBE120:
 1142              		.loc 1 161 0
 1143 033e 002A     		cmp	r2, #0
 1144 0340 EBD0     		beq	.L70
 1145              		.loc 1 158 0
 1146 0342 0136     		add	r6, r6, #1
 1147              	.LVL90:
 1148 0344 B6B2     		uxth	r6, r6
 1149              	.LVL91:
 1150 0346 069C     		ldr	r4, [sp, #24]
 1151 0348 A642     		cmp	r6, r4
 1152 034a B1D1     		bne	.L71
 1153              	.LVL92:
 1154              	.L61:
 1155              		.loc 1 163 0
 1156 034c 0022     		mov	r2, #0
 1157 034e 0D4B     		ldr	r3, .L85+36
 1158 0350 1A80     		strh	r2, [r3]
 1159 0352 2CE0     		b	.L23
 1160              	.LVL93:
 1161              	.L29:
 1162              	.LBB137:
 1163              	.LBB72:
 1164              	.LBB71:
 1165              	.LBB64:
 1166              		.loc 2 291 0
 1167 0354 321C     		mov	r2, r6
 1168 0356 002F     		cmp	r7, #0
 1169 0358 00D0     		beq	.LCB1225
 1170 035a 9DE6     		b	.L73	@long jump
 1171              	.LCB1225:
 1172 035c 5A46     		mov	r2, fp
 1173 035e 9BE6     		b	.L73
 1174              	.L86:
 1175              		.align	2
 1176              	.L85:
 1177 0360 00000000 		.word	endpointhandle1
 1178 0364 00000000 		.word	endpointhandle0
 1179 0368 00000000 		.word	endpointselected
 1180 036c 00000000 		.word	usb_data_buffer
 1181 0370 00000000 		.word	usb_data_buffer_IN
 1182 0374 00000000 		.word	.LANCHOR0
 1183 0378 00FEFFFF 		.word	-512
 1184 037c 00000000 		.word	usb_data_buffer_index
 1185 0380 00000000 		.word	usb_data_buffer_IN_index
 1186 0384 00000000 		.word	.LANCHOR6
 1187 0388 00000000 		.word	usb_data_buffer_OUT_index
 1188              	.LVL94:
 1189              	.L41:
 1190              	.LBE64:
 1191              	.LBE71:
 1192              	.LBE72:
 1193              	.LBE137:
 1194              	.LBB138:
 1195              	.LBB93:
 1196              	.LBB92:
 1197              	.LBB85:
ARM GAS  /tmp/ccSGpD6O.s 			page 22


 1198 038c 0A1C     		mov	r2, r1
 1199 038e 002E     		cmp	r6, #0
 1200 0390 00D0     		beq	.LCB1264
 1201 0392 ECE6     		b	.L75	@long jump
 1202              	.LCB1264:
 1203 0394 5A46     		mov	r2, fp
 1204 0396 EAE6     		b	.L75
 1205              	.LVL95:
 1206              	.L56:
 1207              	.LBE85:
 1208              	.LBE92:
 1209              	.LBE93:
 1210              	.LBE138:
 1211              	.LBB139:
 1212              	.LBB115:
 1213              	.LBB114:
 1214              	.LBB107:
 1215 0398 321C     		mov	r2, r6
 1216 039a 0028     		cmp	r0, #0
 1217 039c 00D0     		beq	.LCB1289
 1218 039e 6BE7     		b	.L77	@long jump
 1219              	.LCB1289:
 1220 03a0 5A46     		mov	r2, fp
 1221 03a2 69E7     		b	.L77
 1222              	.LVL96:
 1223              	.L67:
 1224              	.LBE107:
 1225              	.LBE114:
 1226              	.LBE115:
 1227              	.LBE139:
 1228              	.LBB140:
 1229              	.LBB136:
 1230              	.LBB135:
 1231              	.LBB128:
 1232 03a4 021C     		mov	r2, r0
 1233 03a6 0029     		cmp	r1, #0
 1234 03a8 C2D1     		bne	.L79
 1235 03aa 5A46     		mov	r2, fp
 1236 03ac C0E7     		b	.L79
 1237              	.LVL97:
 1238              	.L23:
 1239              	.LBE128:
 1240              	.LBE135:
 1241              	.LBE136:
 1242              	.LBE140:
 1243              		.loc 1 165 0
 1244 03ae 09B0     		add	sp, sp, #36
 1245              		@ sp needed
 1246 03b0 3CBC     		pop	{r2, r3, r4, r5}
 1247 03b2 9046     		mov	r8, r2
 1248 03b4 9946     		mov	r9, r3
 1249 03b6 A246     		mov	r10, r4
 1250 03b8 AB46     		mov	fp, r5
 1251 03ba F0BD     		pop	{r4, r5, r6, r7, pc}
 1252              		.cfi_endproc
 1253              	.LFE100:
 1254              		.size	Endpoint_Streaming, .-Endpoint_Streaming
ARM GAS  /tmp/ccSGpD6O.s 			page 23


 1255              		.section	.text.Endpoint_GetSetupPackage,"ax",%progbits
 1256              		.align	2
 1257              		.global	Endpoint_GetSetupPackage
 1258              		.code	16
 1259              		.thumb_func
 1260              		.type	Endpoint_GetSetupPackage, %function
 1261              	Endpoint_GetSetupPackage:
 1262              	.LFB102:
 1263              		.loc 1 188 0
 1264              		.cfi_startproc
 1265              	.LVL98:
 1266 0000 08B5     		push	{r3, lr}
 1267              		.cfi_def_cfa_offset 8
 1268              		.cfi_offset 3, -8
 1269              		.cfi_offset 14, -4
 1270              		.loc 1 189 0
 1271 0002 081C     		mov	r0, r1
 1272              	.LVL99:
 1273 0004 0649     		ldr	r1, .L88
 1274              	.LVL100:
 1275 0006 0822     		mov	r2, #8
 1276 0008 FFF7FEFF 		bl	memcpy
 1277              	.LVL101:
 1278              		.loc 1 191 0
 1279 000c 054B     		ldr	r3, .L88+4
 1280 000e 5988     		ldrh	r1, [r3, #2]
 1281 0010 054A     		ldr	r2, .L88+8
 1282 0012 1140     		and	r1, r2
 1283 0014 5980     		strh	r1, [r3, #2]
 1284              		.loc 1 192 0
 1285 0016 5989     		ldrh	r1, [r3, #10]
 1286 0018 0A40     		and	r2, r1
 1287 001a 5A81     		strh	r2, [r3, #10]
 1288              		.loc 1 193 0
 1289              		@ sp needed
 1290 001c 08BD     		pop	{r3, pc}
 1291              	.L89:
 1292 001e C046     		.align	2
 1293              	.L88:
 1294 0020 80000000 		.word	.LANCHOR3
 1295 0024 00000000 		.word	.LANCHOR0
 1296 0028 FFDFFFFF 		.word	-8193
 1297              		.cfi_endproc
 1298              	.LFE102:
 1299              		.size	Endpoint_GetSetupPackage, .-Endpoint_GetSetupPackage
 1300              		.section	.text.USB_IRQHandler,"ax",%progbits
 1301              		.align	2
 1302              		.global	USB_IRQHandler
 1303              		.code	16
 1304              		.thumb_func
 1305              		.type	USB_IRQHandler, %function
 1306              	USB_IRQHandler:
 1307              	.LFB103:
 1308              		.loc 1 196 0
 1309              		.cfi_startproc
 1310 0000 F8B5     		push	{r3, r4, r5, r6, r7, lr}
 1311              		.cfi_def_cfa_offset 24
ARM GAS  /tmp/ccSGpD6O.s 			page 24


 1312              		.cfi_offset 3, -24
 1313              		.cfi_offset 4, -20
 1314              		.cfi_offset 5, -16
 1315              		.cfi_offset 6, -12
 1316              		.cfi_offset 7, -8
 1317              		.cfi_offset 14, -4
 1318              		.loc 1 201 0
 1319 0002 604B     		ldr	r3, .L110
 1320 0004 1A6A     		ldr	r2, [r3, #32]
 1321              	.LVL102:
 1322              		.loc 1 202 0
 1323 0006 5B6A     		ldr	r3, [r3, #36]
 1324              	.LVL103:
 1325              		.loc 1 204 0
 1326 0008 141C     		mov	r4, r2
 1327 000a 1C40     		and	r4, r3
 1328              	.LVL104:
 1329              		.loc 1 206 0
 1330 000c 00D1     		bne	.LCB1406
 1331 000e B8E0     		b	.L90	@long jump
 1332              	.LCB1406:
 1333              		.loc 1 210 0
 1334 0010 5C4B     		ldr	r3, .L110
 1335              	.LVL105:
 1336 0012 1C62     		str	r4, [r3, #32]
 1337              		.loc 1 216 0
 1338 0014 24D5     		bpl	.L92
 1339              	.LBB141:
 1340              		.loc 1 217 0
 1341 0016 1D68     		ldr	r5, [r3]
 1342              	.LVL106:
 1343              		.loc 1 219 0
 1344 0018 6901     		lsl	r1, r5, #5
 1345 001a 0CD5     		bpl	.L93
 1346              		.loc 1 220 0
 1347 001c 1968     		ldr	r1, [r3]
 1348 001e 8022     		mov	r2, #128
 1349 0020 D204     		lsl	r2, r2, #19
 1350 0022 0A43     		orr	r2, r1
 1351 0024 1A60     		str	r2, [r3]
 1352              		.loc 1 221 0
 1353 0026 FFF7FEFF 		bl	HAL_Reset
 1354              	.LVL107:
 1355              		.loc 1 222 0
 1356 002a 0222     		mov	r2, #2
 1357 002c 564B     		ldr	r3, .L110+4
 1358 002e 1A70     		strb	r2, [r3]
 1359              		.loc 1 223 0
 1360 0030 4020     		mov	r0, #64
 1361 0032 FFF7FEFF 		bl	Endpoint_ConfigureEndpointControl
 1362              	.LVL108:
 1363              	.L93:
 1364              		.loc 1 226 0
 1365 0036 EA01     		lsl	r2, r5, #7
 1366 0038 05D5     		bpl	.L94
 1367              		.loc 1 227 0
 1368 003a 524B     		ldr	r3, .L110
ARM GAS  /tmp/ccSGpD6O.s 			page 25


 1369 003c 1968     		ldr	r1, [r3]
 1370 003e 8022     		mov	r2, #128
 1371 0040 5204     		lsl	r2, r2, #17
 1372 0042 0A43     		orr	r2, r1
 1373 0044 1A60     		str	r2, [r3]
 1374              	.L94:
 1375              		.loc 1 230 0
 1376 0046 AB01     		lsl	r3, r5, #6
 1377 0048 0AD5     		bpl	.L92
 1378              		.loc 1 231 0
 1379 004a 4E4B     		ldr	r3, .L110
 1380 004c 1968     		ldr	r1, [r3]
 1381 004e 8022     		mov	r2, #128
 1382 0050 9204     		lsl	r2, r2, #18
 1383 0052 0A43     		orr	r2, r1
 1384 0054 1A60     		str	r2, [r3]
 1385              		.loc 1 232 0
 1386 0056 A903     		lsl	r1, r5, #14
 1387 0058 02D5     		bpl	.L92
 1388              		.loc 1 233 0
 1389 005a 0522     		mov	r2, #5
 1390 005c 4A4B     		ldr	r3, .L110+4
 1391 005e 1A70     		strb	r2, [r3]
 1392              	.LVL109:
 1393              	.L92:
 1394              	.LBE141:
 1395              		.loc 1 241 0
 1396 0060 A305     		lsl	r3, r4, #22
 1397 0062 00D1     		bne	.LCB1470
 1398 0064 8DE0     		b	.L90	@long jump
 1399              	.LCB1470:
 1400 0066 0127     		mov	r7, #1
 1401 0068 0026     		mov	r6, #0
 1402 006a 01E0     		b	.L95
 1403              	.L109:
 1404 006c 0137     		add	r7, r7, #1
 1405 006e 0136     		add	r6, r6, #1
 1406              	.L95:
 1407              	.LVL110:
 1408              	.LBB142:
 1409              		.loc 1 244 0
 1410 0070 0123     		mov	r3, #1
 1411 0072 B340     		lsl	r3, r3, r6
 1412 0074 1C42     		tst	r4, r3
 1413 0076 00D1     		bne	.LCB1491
 1414 0078 80E0     		b	.L96	@long jump
 1415              	.LCB1491:
 1416              		.loc 1 245 0
 1417 007a F207     		lsl	r2, r6, #31
 1418 007c 46D4     		bmi	.L97
 1419              	.LVL111:
 1420              	.LBB143:
 1421              	.LBB144:
 1422              		.loc 2 310 0
 1423 007e 414B     		ldr	r3, .L110
 1424 0080 1B68     		ldr	r3, [r3]
 1425              	.LBE144:
ARM GAS  /tmp/ccSGpD6O.s 			page 26


 1426              	.LBE143:
 1427              		.loc 1 246 0
 1428 0082 D905     		lsl	r1, r3, #23
 1429 0084 7AD4     		bmi	.L96
 1430              		.loc 1 247 0
 1431 0086 F300     		lsl	r3, r6, #3
 1432 0088 404A     		ldr	r2, .L110+8
 1433 008a D318     		add	r3, r2, r3
 1434 008c 5A88     		ldrh	r2, [r3, #2]
 1435 008e 9205     		lsl	r2, r2, #22
 1436 0090 920D     		lsr	r2, r2, #22
 1437 0092 8023     		mov	r3, #128
 1438 0094 9B00     		lsl	r3, r3, #2
 1439 0096 9A42     		cmp	r2, r3
 1440 0098 19D1     		bne	.L98
 1441              		.loc 1 248 0
 1442 009a 002E     		cmp	r6, #0
 1443 009c 05D1     		bne	.L99
 1444              		.loc 1 249 0
 1445 009e 0020     		mov	r0, #0
 1446 00a0 3B49     		ldr	r1, .L110+12
 1447 00a2 1A1C     		mov	r2, r3
 1448 00a4 FFF7FEFF 		bl	DcdDataTransfer
 1449              	.LVL112:
 1450 00a8 0DE0     		b	.L100
 1451              	.L99:
 1452              		.loc 1 251 0
 1453 00aa 3A4B     		ldr	r3, .L110+16
 1454 00ac 1B88     		ldrh	r3, [r3]
 1455 00ae 002B     		cmp	r3, #0
 1456 00b0 64D1     		bne	.L96
 1457              		.loc 1 252 0
 1458 00b2 F0B2     		uxtb	r0, r6
 1459 00b4 3849     		ldr	r1, .L110+20
 1460 00b6 8022     		mov	r2, #128
 1461 00b8 9200     		lsl	r2, r2, #2
 1462 00ba FFF7FEFF 		bl	DcdDataTransfer
 1463              	.LVL113:
 1464              		.loc 1 254 0
 1465 00be 354B     		ldr	r3, .L110+16
 1466 00c0 1B88     		ldrh	r3, [r3]
 1467 00c2 002B     		cmp	r3, #0
 1468 00c4 5AD1     		bne	.L96
 1469              	.L100:
 1470              		.loc 1 255 0
 1471 00c6 0122     		mov	r2, #1
 1472 00c8 344B     		ldr	r3, .L110+24
 1473 00ca 1A70     		strb	r2, [r3]
 1474 00cc 56E0     		b	.L96
 1475              	.L98:
 1476              		.loc 1 259 0
 1477 00ce 334B     		ldr	r3, .L110+24
 1478 00d0 1B78     		ldrb	r3, [r3]
 1479 00d2 002B     		cmp	r3, #0
 1480 00d4 52D0     		beq	.L96
 1481              		.loc 1 260 0
 1482 00d6 0022     		mov	r2, #0
ARM GAS  /tmp/ccSGpD6O.s 			page 27


 1483 00d8 304B     		ldr	r3, .L110+24
 1484 00da 1A70     		strb	r2, [r3]
 1485              		.loc 1 261 0
 1486 00dc 002E     		cmp	r6, #0
 1487 00de 09D1     		bne	.L101
 1488              		.loc 1 262 0
 1489 00e0 2A4B     		ldr	r3, .L110+8
 1490 00e2 5B88     		ldrh	r3, [r3, #2]
 1491 00e4 9B05     		lsl	r3, r3, #22
 1492 00e6 9B0D     		lsr	r3, r3, #22
 1493 00e8 8022     		mov	r2, #128
 1494 00ea 9200     		lsl	r2, r2, #2
 1495 00ec D21A     		sub	r2, r2, r3
 1496 00ee 2C4B     		ldr	r3, .L110+28
 1497 00f0 1A60     		str	r2, [r3]
 1498 00f2 BBE7     		b	.L109
 1499              	.L101:
 1500              		.loc 1 265 0
 1501 00f4 F300     		lsl	r3, r6, #3
 1502 00f6 254A     		ldr	r2, .L110+8
 1503 00f8 D318     		add	r3, r2, r3
 1504 00fa 5B88     		ldrh	r3, [r3, #2]
 1505 00fc 9B05     		lsl	r3, r3, #22
 1506 00fe 9B0D     		lsr	r3, r3, #22
 1507 0100 8022     		mov	r2, #128
 1508 0102 9200     		lsl	r2, r2, #2
 1509 0104 D21A     		sub	r2, r2, r3
 1510 0106 274B     		ldr	r3, .L110+32
 1511 0108 1A60     		str	r2, [r3]
 1512 010a 37E0     		b	.L96
 1513              	.LVL114:
 1514              	.L97:
 1515              		.loc 1 272 0
 1516 010c 7308     		lsr	r3, r6, #1
 1517 010e 9B00     		lsl	r3, r3, #2
 1518 0110 2549     		ldr	r1, .L110+36
 1519 0112 5A58     		ldr	r2, [r3, r1]
 1520 0114 002A     		cmp	r2, #0
 1521 0116 22D0     		beq	.L103
 1522              	.LBB145:
 1523              		.loc 1 274 0
 1524 0118 012E     		cmp	r6, #1
 1525 011a 0FD1     		bne	.L104
 1526              		.loc 1 276 0
 1527 011c 234B     		ldr	r3, .L110+40
 1528 011e 5968     		ldr	r1, [r3, #4]
 1529 0120 1B4B     		ldr	r3, .L110+12
 1530 0122 CB18     		add	r3, r1, r3
 1531 0124 9818     		add	r0, r3, r2
 1532 0126 4942     		neg	r1, r1
 1533              	.L106:
 1534              		.loc 1 276 0 is_stmt 0 discriminator 2
 1535 0128 1D78     		ldrb	r5, [r3]
 1536 012a 5D54     		strb	r5, [r3, r1]
 1537              	.LVL115:
 1538 012c 0133     		add	r3, r3, #1
 1539              		.loc 1 275 0 is_stmt 1 discriminator 2
ARM GAS  /tmp/ccSGpD6O.s 			page 28


 1540 012e 8342     		cmp	r3, r0
 1541 0130 FAD1     		bne	.L106
 1542              		.loc 1 277 0
 1543 0132 0120     		mov	r0, #1
 1544 0134 1649     		ldr	r1, .L110+12
 1545 0136 FFF7FEFF 		bl	DcdDataTransfer
 1546              	.LVL116:
 1547 013a 97E7     		b	.L109
 1548              	.L104:
 1549 013c B300     		lsl	r3, r6, #2
 1550              		.loc 1 281 0
 1551 013e 1B49     		ldr	r1, .L110+40
 1552 0140 5858     		ldr	r0, [r3, r1]
 1553 0142 1B4B     		ldr	r3, .L110+44
 1554 0144 C318     		add	r3, r0, r3
 1555 0146 9D18     		add	r5, r3, r2
 1556 0148 4042     		neg	r0, r0
 1557              	.L108:
 1558              		.loc 1 281 0 is_stmt 0 discriminator 2
 1559 014a 1978     		ldrb	r1, [r3]
 1560 014c 1954     		strb	r1, [r3, r0]
 1561 014e 0133     		add	r3, r3, #1
 1562              		.loc 1 280 0 is_stmt 1 discriminator 2
 1563 0150 AB42     		cmp	r3, r5
 1564 0152 FAD1     		bne	.L108
 1565              		.loc 1 282 0
 1566 0154 F0B2     		uxtb	r0, r6
 1567 0156 1649     		ldr	r1, .L110+44
 1568 0158 FFF7FEFF 		bl	DcdDataTransfer
 1569              	.LVL117:
 1570 015c 0EE0     		b	.L96
 1571              	.L103:
 1572              	.LBE145:
 1573              		.loc 1 286 0
 1574 015e 012E     		cmp	r6, #1
 1575 0160 0CD1     		bne	.L96
 1576              		.loc 1 287 0
 1577 0162 144A     		ldr	r2, .L110+48
 1578 0164 1378     		ldrb	r3, [r2]
 1579 0166 002B     		cmp	r3, #0
 1580 0168 00D1     		bne	.LCB1655
 1581 016a 7FE7     		b	.L109	@long jump
 1582              	.LCB1655:
 1583              		.loc 1 288 0
 1584 016c 0023     		mov	r3, #0
 1585 016e 1370     		strb	r3, [r2]
 1586              		.loc 1 289 0
 1587 0170 0120     		mov	r0, #1
 1588 0172 0749     		ldr	r1, .L110+12
 1589 0174 0022     		mov	r2, #0
 1590 0176 FFF7FEFF 		bl	DcdDataTransfer
 1591              	.LVL118:
 1592 017a 77E7     		b	.L109
 1593              	.L96:
 1594              	.LVL119:
 1595              		.loc 1 243 0
 1596 017c 092F     		cmp	r7, #9
ARM GAS  /tmp/ccSGpD6O.s 			page 29


 1597 017e 00D8     		bhi	.LCB1670
 1598 0180 74E7     		b	.L109	@long jump
 1599              	.LCB1670:
 1600              	.LVL120:
 1601              	.L90:
 1602              	.LBE142:
 1603              		.loc 1 297 0
 1604              		@ sp needed
 1605              	.LVL121:
 1606 0182 F8BD     		pop	{r3, r4, r5, r6, r7, pc}
 1607              	.L111:
 1608              		.align	2
 1609              	.L110:
 1610 0184 00000840 		.word	1074266112
 1611 0188 00000000 		.word	USB_DeviceState
 1612 018c 00000000 		.word	.LANCHOR0
 1613 0190 00000000 		.word	usb_data_buffer
 1614 0194 00000000 		.word	.LANCHOR6
 1615 0198 00000000 		.word	usb_data_buffer_OUT
 1616 019c 00000000 		.word	.LANCHOR1
 1617 01a0 00000000 		.word	usb_data_buffer_size
 1618 01a4 00000000 		.word	usb_data_buffer_OUT_size
 1619 01a8 00000000 		.word	.LANCHOR5
 1620 01ac 00000000 		.word	.LANCHOR4
 1621 01b0 00000000 		.word	usb_data_buffer_IN
 1622 01b4 00000000 		.word	.LANCHOR2
 1623              		.cfi_endproc
 1624              	.LFE103:
 1625              		.size	USB_IRQHandler, .-USB_IRQHandler
 1626              		.global	stream_total_packets
 1627              		.global	epout_primed
 1628              		.global	shortpacket
 1629              		.global	Remain_length
 1630              		.global	EndpointMaxPacketSize
 1631              		.global	EndPointCmdStsList
 1632              		.section	.bss.shortpacket,"aw",%nobits
 1633              		.set	.LANCHOR2,. + 0
 1634              		.type	shortpacket, %object
 1635              		.size	shortpacket, 1
 1636              	shortpacket:
 1637 0000 00       		.space	1
 1638              		.section	.bss.Remain_length,"aw",%nobits
 1639              		.align	2
 1640              		.set	.LANCHOR5,. + 0
 1641              		.type	Remain_length, %object
 1642              		.size	Remain_length, 20
 1643              	Remain_length:
 1644 0000 00000000 		.space	20
 1644      00000000 
 1644      00000000 
 1644      00000000 
 1644      00000000 
 1645              		.section	.bss.stream_total_packets,"aw",%nobits
 1646              		.align	1
 1647              		.set	.LANCHOR6,. + 0
 1648              		.type	stream_total_packets, %object
 1649              		.size	stream_total_packets, 2
ARM GAS  /tmp/ccSGpD6O.s 			page 30


 1650              	stream_total_packets:
 1651 0000 0000     		.space	2
 1652              		.section	.bss.epout_primed,"aw",%nobits
 1653              		.set	.LANCHOR1,. + 0
 1654              		.type	epout_primed, %object
 1655              		.size	epout_primed, 1
 1656              	epout_primed:
 1657 0000 00       		.space	1
 1658              		.section	.bss.$RAM2,"aw",%nobits
 1659              		.align	8
 1660              		.set	.LANCHOR0,. + 0
 1661              		.set	.LANCHOR3,. + 128
 1662              		.type	EndPointCmdStsList, %object
 1663              		.size	EndPointCmdStsList, 80
 1664              	EndPointCmdStsList:
 1665 0000 00000000 		.space	80
 1665      00000000 
 1665      00000000 
 1665      00000000 
 1665      00000000 
 1666 0050 00000000 		.space	48
 1666      00000000 
 1666      00000000 
 1666      00000000 
 1666      00000000 
 1667              		.type	SetupPackage, %object
 1668              		.size	SetupPackage, 8
 1669              	SetupPackage:
 1670 0080 00000000 		.space	8
 1670      00000000 
 1671 0088 00000000 		.section	.bss.EndpointMaxPacketSize,"aw",%nobits
 1671      00000000 
 1671      00000000 
 1671      00000000 
 1671      00000000 
 1672              		.align	2
 1673              		.set	.LANCHOR4,. + 0
 1674              		.type	EndpointMaxPacketSize, %object
 1675              		.size	EndpointMaxPacketSize, 40
 1676              	EndpointMaxPacketSize:
 1677 0000 00000000 		.space	40
 1677      00000000 
 1677      00000000 
 1677      00000000 
 1677      00000000 
 1678              		.text
 1679              	.Letext0:
 1680              		.file 4 "/usr/local/lpcxpresso_7.3.0_186/lpcxpresso/tools/arm-none-eabi/include/machine/_default_t
 1681              		.file 5 "/usr/local/lpcxpresso_7.3.0_186/lpcxpresso/tools/arm-none-eabi/include/stdint.h"
 1682              		.file 6 "CMSIS_CORE_LPC11Uxx/inc/LPC11Uxx.h"
 1683              		.file 7 "USBlib_11U14/Drivers/USB/Core/DCD/LPC11UXX/../../DCD/LPC11UXX/../../HAL/LPC11UXX/HAL_LPC1
 1684              		.file 8 "USBlib_11U14/Drivers/USB/Core/DCD/LPC11UXX/../../USBTask.h"
 1685              		.file 9 "USBlib_11U14/Drivers/USB/Core/DCD/LPC11UXX/../../DCD/LPC11UXX/../EndpointCommon.h"
 1686              		.file 10 "USBlib_11U14/Drivers/USB/Core/DCD/LPC11UXX/../../Device.h"
 1687              		.file 11 "USBlib_11U14/Drivers/USB/Core/DCD/LPC11UXX/../../EndpointStream.h"
 1688              		.section	.debug_info,"",%progbits
 1689              	.Ldebug_info0:
ARM GAS  /tmp/ccSGpD6O.s 			page 31


 1690 0000 360C0000 		.4byte	0xc36
 1691 0004 0400     		.2byte	0x4
 1692 0006 00000000 		.4byte	.Ldebug_abbrev0
 1693 000a 04       		.byte	0x4
 1694 000b 01       		.uleb128 0x1
 1695 000c 84010000 		.4byte	.LASF100
 1696 0010 01       		.byte	0x1
 1697 0011 05060000 		.4byte	.LASF101
 1698 0015 61050000 		.4byte	.LASF102
 1699 0019 00020000 		.4byte	.Ldebug_ranges0+0x200
 1700 001d 00000000 		.4byte	0
 1701 0021 00000000 		.4byte	.Ldebug_line0
 1702 0025 02       		.uleb128 0x2
 1703 0026 01       		.byte	0x1
 1704 0027 06       		.byte	0x6
 1705 0028 93030000 		.4byte	.LASF0
 1706 002c 03       		.uleb128 0x3
 1707 002d D2020000 		.4byte	.LASF3
 1708 0031 04       		.byte	0x4
 1709 0032 1C       		.byte	0x1c
 1710 0033 37000000 		.4byte	0x37
 1711 0037 02       		.uleb128 0x2
 1712 0038 01       		.byte	0x1
 1713 0039 08       		.byte	0x8
 1714 003a 3E030000 		.4byte	.LASF1
 1715 003e 02       		.uleb128 0x2
 1716 003f 02       		.byte	0x2
 1717 0040 05       		.byte	0x5
 1718 0041 4B000000 		.4byte	.LASF2
 1719 0045 03       		.uleb128 0x3
 1720 0046 D2000000 		.4byte	.LASF4
 1721 004a 04       		.byte	0x4
 1722 004b 26       		.byte	0x26
 1723 004c 50000000 		.4byte	0x50
 1724 0050 02       		.uleb128 0x2
 1725 0051 02       		.byte	0x2
 1726 0052 07       		.byte	0x7
 1727 0053 1F040000 		.4byte	.LASF5
 1728 0057 03       		.uleb128 0x3
 1729 0058 39050000 		.4byte	.LASF6
 1730 005c 04       		.byte	0x4
 1731 005d 37       		.byte	0x37
 1732 005e 62000000 		.4byte	0x62
 1733 0062 02       		.uleb128 0x2
 1734 0063 04       		.byte	0x4
 1735 0064 05       		.byte	0x5
 1736 0065 8E020000 		.4byte	.LASF7
 1737 0069 03       		.uleb128 0x3
 1738 006a 8B000000 		.4byte	.LASF8
 1739 006e 04       		.byte	0x4
 1740 006f 38       		.byte	0x38
 1741 0070 74000000 		.4byte	0x74
 1742 0074 02       		.uleb128 0x2
 1743 0075 04       		.byte	0x4
 1744 0076 07       		.byte	0x7
 1745 0077 D3040000 		.4byte	.LASF9
 1746 007b 02       		.uleb128 0x2
ARM GAS  /tmp/ccSGpD6O.s 			page 32


 1747 007c 08       		.byte	0x8
 1748 007d 05       		.byte	0x5
 1749 007e 62020000 		.4byte	.LASF10
 1750 0082 02       		.uleb128 0x2
 1751 0083 08       		.byte	0x8
 1752 0084 07       		.byte	0x7
 1753 0085 9F030000 		.4byte	.LASF11
 1754 0089 04       		.uleb128 0x4
 1755 008a 04       		.byte	0x4
 1756 008b 05       		.byte	0x5
 1757 008c 696E7400 		.ascii	"int\000"
 1758 0090 02       		.uleb128 0x2
 1759 0091 04       		.byte	0x4
 1760 0092 07       		.byte	0x7
 1761 0093 C6030000 		.4byte	.LASF12
 1762 0097 03       		.uleb128 0x3
 1763 0098 2F010000 		.4byte	.LASF13
 1764 009c 05       		.byte	0x5
 1765 009d 2A       		.byte	0x2a
 1766 009e 2C000000 		.4byte	0x2c
 1767 00a2 03       		.uleb128 0x3
 1768 00a3 D3030000 		.4byte	.LASF14
 1769 00a7 05       		.byte	0x5
 1770 00a8 36       		.byte	0x36
 1771 00a9 45000000 		.4byte	0x45
 1772 00ad 03       		.uleb128 0x3
 1773 00ae 59040000 		.4byte	.LASF15
 1774 00b2 05       		.byte	0x5
 1775 00b3 41       		.byte	0x41
 1776 00b4 57000000 		.4byte	0x57
 1777 00b8 03       		.uleb128 0x3
 1778 00b9 B6030000 		.4byte	.LASF16
 1779 00bd 05       		.byte	0x5
 1780 00be 42       		.byte	0x42
 1781 00bf 69000000 		.4byte	0x69
 1782 00c3 02       		.uleb128 0x2
 1783 00c4 04       		.byte	0x4
 1784 00c5 07       		.byte	0x7
 1785 00c6 6A000000 		.4byte	.LASF17
 1786 00ca 05       		.uleb128 0x5
 1787 00cb 04       		.byte	0x4
 1788 00cc 02       		.uleb128 0x2
 1789 00cd 01       		.byte	0x1
 1790 00ce 08       		.byte	0x8
 1791 00cf 3E040000 		.4byte	.LASF18
 1792 00d3 06       		.uleb128 0x6
 1793 00d4 E5040000 		.4byte	.LASF103
 1794 00d8 01       		.byte	0x1
 1795 00d9 0A       		.byte	0xa
 1796 00da 48       		.byte	0x48
 1797 00db 04010000 		.4byte	0x104
 1798 00df 07       		.uleb128 0x7
 1799 00e0 FF000000 		.4byte	.LASF19
 1800 00e4 00       		.sleb128 0
 1801 00e5 07       		.uleb128 0x7
 1802 00e6 4C050000 		.4byte	.LASF20
 1803 00ea 01       		.sleb128 1
ARM GAS  /tmp/ccSGpD6O.s 			page 33


 1804 00eb 07       		.uleb128 0x7
 1805 00ec C5060000 		.4byte	.LASF21
 1806 00f0 02       		.sleb128 2
 1807 00f1 07       		.uleb128 0x7
 1808 00f2 90050000 		.4byte	.LASF22
 1809 00f6 03       		.sleb128 3
 1810 00f7 07       		.uleb128 0x7
 1811 00f8 CB050000 		.4byte	.LASF23
 1812 00fc 04       		.sleb128 4
 1813 00fd 07       		.uleb128 0x7
 1814 00fe 8F060000 		.4byte	.LASF24
 1815 0102 05       		.sleb128 5
 1816 0103 00       		.byte	0
 1817 0104 08       		.uleb128 0x8
 1818 0105 B8000000 		.4byte	0xb8
 1819 0109 14010000 		.4byte	0x114
 1820 010d 09       		.uleb128 0x9
 1821 010e C3000000 		.4byte	0xc3
 1822 0112 00       		.byte	0
 1823 0113 00       		.byte	0
 1824 0114 0A       		.uleb128 0xa
 1825 0115 19010000 		.4byte	0x119
 1826 0119 0B       		.uleb128 0xb
 1827 011a B8000000 		.4byte	0xb8
 1828 011e 08       		.uleb128 0x8
 1829 011f B8000000 		.4byte	0xb8
 1830 0123 2E010000 		.4byte	0x12e
 1831 0127 09       		.uleb128 0x9
 1832 0128 C3000000 		.4byte	0xc3
 1833 012c 04       		.byte	0x4
 1834 012d 00       		.byte	0
 1835 012e 0C       		.uleb128 0xc
 1836 012f 38       		.byte	0x38
 1837 0130 06       		.byte	0x6
 1838 0131 2202     		.2byte	0x222
 1839 0133 EE010000 		.4byte	0x1ee
 1840 0137 0D       		.uleb128 0xd
 1841 0138 61030000 		.4byte	.LASF25
 1842 013c 06       		.byte	0x6
 1843 013d 2302     		.2byte	0x223
 1844 013f 19010000 		.4byte	0x119
 1845 0143 00       		.byte	0
 1846 0144 0D       		.uleb128 0xd
 1847 0145 DC030000 		.4byte	.LASF26
 1848 0149 06       		.byte	0x6
 1849 014a 2402     		.2byte	0x224
 1850 014c 19010000 		.4byte	0x119
 1851 0150 04       		.byte	0x4
 1852 0151 0D       		.uleb128 0xd
 1853 0152 A6060000 		.4byte	.LASF27
 1854 0156 06       		.byte	0x6
 1855 0157 2502     		.2byte	0x225
 1856 0159 19010000 		.4byte	0x119
 1857 015d 08       		.byte	0x8
 1858 015e 0D       		.uleb128 0xd
 1859 015f 0D050000 		.4byte	.LASF28
 1860 0163 06       		.byte	0x6
ARM GAS  /tmp/ccSGpD6O.s 			page 34


 1861 0164 2602     		.2byte	0x226
 1862 0166 19010000 		.4byte	0x119
 1863 016a 0C       		.byte	0xc
 1864 016b 0E       		.uleb128 0xe
 1865 016c 4C504D00 		.ascii	"LPM\000"
 1866 0170 06       		.byte	0x6
 1867 0171 2702     		.2byte	0x227
 1868 0173 19010000 		.4byte	0x119
 1869 0177 10       		.byte	0x10
 1870 0178 0D       		.uleb128 0xd
 1871 0179 BF030000 		.4byte	.LASF29
 1872 017d 06       		.byte	0x6
 1873 017e 2802     		.2byte	0x228
 1874 0180 19010000 		.4byte	0x119
 1875 0184 14       		.byte	0x14
 1876 0185 0D       		.uleb128 0xd
 1877 0186 0F000000 		.4byte	.LASF30
 1878 018a 06       		.byte	0x6
 1879 018b 2902     		.2byte	0x229
 1880 018d 19010000 		.4byte	0x119
 1881 0191 18       		.byte	0x18
 1882 0192 0D       		.uleb128 0xd
 1883 0193 43050000 		.4byte	.LASF31
 1884 0197 06       		.byte	0x6
 1885 0198 2A02     		.2byte	0x22a
 1886 019a 19010000 		.4byte	0x119
 1887 019e 1C       		.byte	0x1c
 1888 019f 0D       		.uleb128 0xd
 1889 01a0 51040000 		.4byte	.LASF32
 1890 01a4 06       		.byte	0x6
 1891 01a5 2B02     		.2byte	0x22b
 1892 01a7 19010000 		.4byte	0x119
 1893 01ab 20       		.byte	0x20
 1894 01ac 0D       		.uleb128 0xd
 1895 01ad 8A050000 		.4byte	.LASF33
 1896 01b1 06       		.byte	0x6
 1897 01b2 2C02     		.2byte	0x22c
 1898 01b4 19010000 		.4byte	0x119
 1899 01b8 24       		.byte	0x24
 1900 01b9 0D       		.uleb128 0xd
 1901 01ba 17010000 		.4byte	.LASF34
 1902 01be 06       		.byte	0x6
 1903 01bf 2D02     		.2byte	0x22d
 1904 01c1 19010000 		.4byte	0x119
 1905 01c5 28       		.byte	0x28
 1906 01c6 0D       		.uleb128 0xd
 1907 01c7 DC020000 		.4byte	.LASF35
 1908 01cb 06       		.byte	0x6
 1909 01cc 2E02     		.2byte	0x22e
 1910 01ce 19010000 		.4byte	0x119
 1911 01d2 2C       		.byte	0x2c
 1912 01d3 0D       		.uleb128 0xd
 1913 01d4 C4040000 		.4byte	.LASF36
 1914 01d8 06       		.byte	0x6
 1915 01d9 2F02     		.2byte	0x22f
 1916 01db EE010000 		.4byte	0x1ee
 1917 01df 30       		.byte	0x30
ARM GAS  /tmp/ccSGpD6O.s 			page 35


 1918 01e0 0D       		.uleb128 0xd
 1919 01e1 AC000000 		.4byte	.LASF37
 1920 01e5 06       		.byte	0x6
 1921 01e6 3002     		.2byte	0x230
 1922 01e8 14010000 		.4byte	0x114
 1923 01ec 34       		.byte	0x34
 1924 01ed 00       		.byte	0
 1925 01ee 0A       		.uleb128 0xa
 1926 01ef F3010000 		.4byte	0x1f3
 1927 01f3 0B       		.uleb128 0xb
 1928 01f4 04010000 		.4byte	0x104
 1929 01f8 0F       		.uleb128 0xf
 1930 01f9 C5000000 		.4byte	.LASF38
 1931 01fd 06       		.byte	0x6
 1932 01fe 3102     		.2byte	0x231
 1933 0200 2E010000 		.4byte	0x12e
 1934 0204 10       		.uleb128 0x10
 1935 0205 04       		.byte	0x4
 1936 0206 07       		.byte	0x7
 1937 0207 3B       		.byte	0x3b
 1938 0208 82020000 		.4byte	0x282
 1939 020c 11       		.uleb128 0x11
 1940 020d A6020000 		.4byte	.LASF39
 1941 0211 07       		.byte	0x7
 1942 0212 3C       		.byte	0x3c
 1943 0213 A2000000 		.4byte	0xa2
 1944 0217 00       		.byte	0
 1945 0218 12       		.uleb128 0x12
 1946 0219 F9040000 		.4byte	.LASF40
 1947 021d 07       		.byte	0x7
 1948 021e 3E       		.byte	0x3e
 1949 021f 82020000 		.4byte	0x282
 1950 0223 02       		.byte	0x2
 1951 0224 0A       		.byte	0xa
 1952 0225 06       		.byte	0x6
 1953 0226 02       		.byte	0x2
 1954 0227 12       		.uleb128 0x12
 1955 0228 CE040000 		.4byte	.LASF41
 1956 022c 07       		.byte	0x7
 1957 022d 3F       		.byte	0x3f
 1958 022e A2000000 		.4byte	0xa2
 1959 0232 02       		.byte	0x2
 1960 0233 01       		.byte	0x1
 1961 0234 05       		.byte	0x5
 1962 0235 02       		.byte	0x2
 1963 0236 12       		.uleb128 0x12
 1964 0237 FA030000 		.4byte	.LASF42
 1965 023b 07       		.byte	0x7
 1966 023c 40       		.byte	0x40
 1967 023d A2000000 		.4byte	0xa2
 1968 0241 02       		.byte	0x2
 1969 0242 01       		.byte	0x1
 1970 0243 04       		.byte	0x4
 1971 0244 02       		.byte	0x2
 1972 0245 12       		.uleb128 0x12
 1973 0246 83060000 		.4byte	.LASF43
 1974 024a 07       		.byte	0x7
ARM GAS  /tmp/ccSGpD6O.s 			page 36


 1975 024b 41       		.byte	0x41
 1976 024c A2000000 		.4byte	0xa2
 1977 0250 02       		.byte	0x2
 1978 0251 01       		.byte	0x1
 1979 0252 03       		.byte	0x3
 1980 0253 02       		.byte	0x2
 1981 0254 12       		.uleb128 0x12
 1982 0255 1A050000 		.4byte	.LASF44
 1983 0259 07       		.byte	0x7
 1984 025a 42       		.byte	0x42
 1985 025b 82020000 		.4byte	0x282
 1986 025f 02       		.byte	0x2
 1987 0260 01       		.byte	0x1
 1988 0261 02       		.byte	0x2
 1989 0262 02       		.byte	0x2
 1990 0263 12       		.uleb128 0x12
 1991 0264 DA060000 		.4byte	.LASF45
 1992 0268 07       		.byte	0x7
 1993 0269 43       		.byte	0x43
 1994 026a A2000000 		.4byte	0xa2
 1995 026e 02       		.byte	0x2
 1996 026f 01       		.byte	0x1
 1997 0270 01       		.byte	0x1
 1998 0271 02       		.byte	0x2
 1999 0272 12       		.uleb128 0x12
 2000 0273 CB020000 		.4byte	.LASF46
 2001 0277 07       		.byte	0x7
 2002 0278 44       		.byte	0x44
 2003 0279 82020000 		.4byte	0x282
 2004 027d 02       		.byte	0x2
 2005 027e 01       		.byte	0x1
 2006 027f 00       		.byte	0
 2007 0280 02       		.byte	0x2
 2008 0281 00       		.byte	0
 2009 0282 0B       		.uleb128 0xb
 2010 0283 A2000000 		.4byte	0xa2
 2011 0287 03       		.uleb128 0x3
 2012 0288 22010000 		.4byte	.LASF47
 2013 028c 07       		.byte	0x7
 2014 028d 46       		.byte	0x46
 2015 028e 04020000 		.4byte	0x204
 2016 0292 13       		.uleb128 0x13
 2017 0293 50010000 		.4byte	.LASF48
 2018 0297 03       		.byte	0x3
 2019 0298 F4       		.byte	0xf4
 2020 0299 97000000 		.4byte	0x97
 2021 029d 03       		.byte	0x3
 2022 029e AE020000 		.4byte	0x2ae
 2023 02a2 14       		.uleb128 0x14
 2024 02a3 3D000000 		.4byte	.LASF50
 2025 02a7 03       		.byte	0x3
 2026 02a8 F4       		.byte	0xf4
 2027 02a9 97000000 		.4byte	0x97
 2028 02ad 00       		.byte	0
 2029 02ae 15       		.uleb128 0x15
 2030 02af 7C030000 		.4byte	.LASF49
 2031 02b3 02       		.byte	0x2
ARM GAS  /tmp/ccSGpD6O.s 			page 37


 2032 02b4 2B01     		.2byte	0x12b
 2033 02b6 CC020000 		.4byte	0x2cc
 2034 02ba 03       		.byte	0x3
 2035 02bb CC020000 		.4byte	0x2cc
 2036 02bf 16       		.uleb128 0x16
 2037 02c0 3D000000 		.4byte	.LASF50
 2038 02c4 02       		.byte	0x2
 2039 02c5 2B01     		.2byte	0x12b
 2040 02c7 97000000 		.4byte	0x97
 2041 02cb 00       		.byte	0
 2042 02cc 02       		.uleb128 0x2
 2043 02cd 01       		.byte	0x1
 2044 02ce 02       		.byte	0x2
 2045 02cf 80040000 		.4byte	.LASF51
 2046 02d3 15       		.uleb128 0x15
 2047 02d4 54060000 		.4byte	.LASF52
 2048 02d8 02       		.byte	0x2
 2049 02d9 2101     		.2byte	0x121
 2050 02db CC020000 		.4byte	0x2cc
 2051 02df 03       		.byte	0x3
 2052 02e0 FD020000 		.4byte	0x2fd
 2053 02e4 16       		.uleb128 0x16
 2054 02e5 3D000000 		.4byte	.LASF50
 2055 02e9 02       		.byte	0x2
 2056 02ea 2101     		.2byte	0x121
 2057 02ec 97000000 		.4byte	0x97
 2058 02f0 17       		.uleb128 0x17
 2059 02f1 37010000 		.4byte	.LASF54
 2060 02f5 02       		.byte	0x2
 2061 02f6 2301     		.2byte	0x123
 2062 02f8 B8000000 		.4byte	0xb8
 2063 02fc 00       		.byte	0
 2064 02fd 15       		.uleb128 0x15
 2065 02fe 67060000 		.4byte	.LASF53
 2066 0302 03       		.byte	0x3
 2067 0303 0901     		.2byte	0x109
 2068 0305 CC020000 		.4byte	0x2cc
 2069 0309 03       		.byte	0x3
 2070 030a 1B030000 		.4byte	0x31b
 2071 030e 16       		.uleb128 0x16
 2072 030f 3D000000 		.4byte	.LASF50
 2073 0313 03       		.byte	0x3
 2074 0314 0901     		.2byte	0x109
 2075 0316 97000000 		.4byte	0x97
 2076 031a 00       		.byte	0
 2077 031b 18       		.uleb128 0x18
 2078 031c 0E040000 		.4byte	.LASF55
 2079 0320 02       		.byte	0x2
 2080 0321 4501     		.2byte	0x145
 2081 0323 03       		.byte	0x3
 2082 0324 41030000 		.4byte	0x341
 2083 0328 16       		.uleb128 0x16
 2084 0329 3D000000 		.4byte	.LASF50
 2085 032d 02       		.byte	0x2
 2086 032e 4501     		.2byte	0x145
 2087 0330 97000000 		.4byte	0x97
 2088 0334 17       		.uleb128 0x17
ARM GAS  /tmp/ccSGpD6O.s 			page 38


 2089 0335 37010000 		.4byte	.LASF54
 2090 0339 02       		.byte	0x2
 2091 033a 4701     		.2byte	0x147
 2092 033c 97000000 		.4byte	0x97
 2093 0340 00       		.byte	0
 2094 0341 18       		.uleb128 0x18
 2095 0342 86040000 		.4byte	.LASF56
 2096 0346 02       		.byte	0x2
 2097 0347 5501     		.2byte	0x155
 2098 0349 03       		.byte	0x3
 2099 034a 5B030000 		.4byte	0x35b
 2100 034e 16       		.uleb128 0x16
 2101 034f 3D000000 		.4byte	.LASF50
 2102 0353 02       		.byte	0x2
 2103 0354 5501     		.2byte	0x155
 2104 0356 97000000 		.4byte	0x97
 2105 035a 00       		.byte	0
 2106 035b 15       		.uleb128 0x15
 2107 035c 01030000 		.4byte	.LASF57
 2108 0360 02       		.byte	0x2
 2109 0361 3401     		.2byte	0x134
 2110 0363 CC020000 		.4byte	0x2cc
 2111 0367 03       		.byte	0x3
 2112 0368 79030000 		.4byte	0x379
 2113 036c 16       		.uleb128 0x16
 2114 036d 3D000000 		.4byte	.LASF50
 2115 0371 02       		.byte	0x2
 2116 0372 3401     		.2byte	0x134
 2117 0374 97000000 		.4byte	0x97
 2118 0378 00       		.byte	0
 2119 0379 19       		.uleb128 0x19
 2120 037a 76040000 		.4byte	.LASF64
 2121 037e 01       		.byte	0x1
 2122 037f 43       		.byte	0x43
 2123 0380 00000000 		.4byte	.LFB97
 2124 0384 60000000 		.4byte	.LFE97-.LFB97
 2125 0388 01       		.uleb128 0x1
 2126 0389 9C       		.byte	0x9c
 2127 038a C2030000 		.4byte	0x3c2
 2128 038e 1A       		.uleb128 0x1a
 2129 038f 38000000 		.4byte	.LVL0
 2130 0393 B60B0000 		.4byte	0xbb6
 2131 0397 B1030000 		.4byte	0x3b1
 2132 039b 1B       		.uleb128 0x1b
 2133 039c 01       		.uleb128 0x1
 2134 039d 52       		.byte	0x52
 2135 039e 02       		.uleb128 0x2
 2136 039f 08       		.byte	0x8
 2137 03a0 50       		.byte	0x50
 2138 03a1 1B       		.uleb128 0x1b
 2139 03a2 01       		.uleb128 0x1
 2140 03a3 51       		.byte	0x51
 2141 03a4 02       		.uleb128 0x2
 2142 03a5 74       		.byte	0x74
 2143 03a6 00       		.sleb128 0
 2144 03a7 1B       		.uleb128 0x1b
 2145 03a8 01       		.uleb128 0x1
ARM GAS  /tmp/ccSGpD6O.s 			page 39


 2146 03a9 50       		.byte	0x50
 2147 03aa 05       		.uleb128 0x5
 2148 03ab 03       		.byte	0x3
 2149 03ac 00000000 		.4byte	.LANCHOR0
 2150 03b0 00       		.byte	0
 2151 03b1 1C       		.uleb128 0x1c
 2152 03b2 3E000000 		.4byte	.LVL1
 2153 03b6 D30B0000 		.4byte	0xbd3
 2154 03ba 1B       		.uleb128 0x1b
 2155 03bb 01       		.uleb128 0x1
 2156 03bc 50       		.byte	0x50
 2157 03bd 02       		.uleb128 0x2
 2158 03be 74       		.byte	0x74
 2159 03bf 00       		.sleb128 0
 2160 03c0 00       		.byte	0
 2161 03c1 00       		.byte	0
 2162 03c2 1D       		.uleb128 0x1d
 2163 03c3 E3050000 		.4byte	.LASF58
 2164 03c7 01       		.byte	0x1
 2165 03c8 5D       		.byte	0x5d
 2166 03c9 CC020000 		.4byte	0x2cc
 2167 03cd 00000000 		.4byte	.LFB98
 2168 03d1 60000000 		.4byte	.LFE98-.LFB98
 2169 03d5 01       		.uleb128 0x1
 2170 03d6 9C       		.byte	0x9c
 2171 03d7 EB030000 		.4byte	0x3eb
 2172 03db 1E       		.uleb128 0x1e
 2173 03dc 00000000 		.4byte	.LASF60
 2174 03e0 01       		.byte	0x1
 2175 03e1 5D       		.byte	0x5d
 2176 03e2 EB030000 		.4byte	0x3eb
 2177 03e6 00000000 		.4byte	.LLST0
 2178 03ea 00       		.byte	0
 2179 03eb 0A       		.uleb128 0xa
 2180 03ec A2000000 		.4byte	0xa2
 2181 03f0 1D       		.uleb128 0x1d
 2182 03f1 E4000000 		.4byte	.LASF59
 2183 03f5 01       		.byte	0x1
 2184 03f6 74       		.byte	0x74
 2185 03f7 CC020000 		.4byte	0x2cc
 2186 03fb 00000000 		.4byte	.LFB99
 2187 03ff 7C000000 		.4byte	.LFE99-.LFB99
 2188 0403 01       		.uleb128 0x1
 2189 0404 9C       		.byte	0x9c
 2190 0405 6F040000 		.4byte	0x46f
 2191 0409 1E       		.uleb128 0x1e
 2192 040a 3D000000 		.4byte	.LASF50
 2193 040e 01       		.byte	0x1
 2194 040f 74       		.byte	0x74
 2195 0410 97000000 		.4byte	0x97
 2196 0414 21000000 		.4byte	.LLST1
 2197 0418 1F       		.uleb128 0x1f
 2198 0419 73000000 		.4byte	.LASF61
 2199 041d 01       		.byte	0x1
 2200 041e 74       		.byte	0x74
 2201 041f 6F040000 		.4byte	0x46f
 2202 0423 01       		.uleb128 0x1
ARM GAS  /tmp/ccSGpD6O.s 			page 40


 2203 0424 51       		.byte	0x51
 2204 0425 1E       		.uleb128 0x1e
 2205 0426 CE040000 		.4byte	.LASF41
 2206 042a 01       		.byte	0x1
 2207 042b 74       		.byte	0x74
 2208 042c 6F040000 		.4byte	0x46f
 2209 0430 5B000000 		.4byte	.LLST2
 2210 0434 1E       		.uleb128 0x1e
 2211 0435 05000000 		.4byte	.LASF62
 2212 0439 01       		.byte	0x1
 2213 043a 75       		.byte	0x75
 2214 043b 6F040000 		.4byte	0x46f
 2215 043f 7C000000 		.4byte	.LLST3
 2216 0443 1E       		.uleb128 0x1e
 2217 0444 00000000 		.4byte	.LASF60
 2218 0448 01       		.byte	0x1
 2219 0449 75       		.byte	0x75
 2220 044a EB030000 		.4byte	0x3eb
 2221 044e 9D000000 		.4byte	.LLST4
 2222 0452 1E       		.uleb128 0x1e
 2223 0453 38040000 		.4byte	.LASF63
 2224 0457 01       		.byte	0x1
 2225 0458 75       		.byte	0x75
 2226 0459 6F040000 		.4byte	0x46f
 2227 045d C9000000 		.4byte	.LLST5
 2228 0461 20       		.uleb128 0x20
 2229 0462 37010000 		.4byte	.LASF54
 2230 0466 01       		.byte	0x1
 2231 0467 77       		.byte	0x77
 2232 0468 B8000000 		.4byte	0xb8
 2233 046c 01       		.uleb128 0x1
 2234 046d 53       		.byte	0x53
 2235 046e 00       		.byte	0
 2236 046f 0A       		.uleb128 0xa
 2237 0470 97000000 		.4byte	0x97
 2238 0474 19       		.uleb128 0x19
 2239 0475 1A030000 		.4byte	.LASF65
 2240 0479 01       		.byte	0x1
 2241 047a A7       		.byte	0xa7
 2242 047b 00000000 		.4byte	.LFB101
 2243 047f 70000000 		.4byte	.LFE101-.LFB101
 2244 0483 01       		.uleb128 0x1
 2245 0484 9C       		.byte	0x9c
 2246 0485 B7040000 		.4byte	0x4b7
 2247 0489 1E       		.uleb128 0x1e
 2248 048a 32040000 		.4byte	.LASF66
 2249 048e 01       		.byte	0x1
 2250 048f A7       		.byte	0xa7
 2251 0490 97000000 		.4byte	0x97
 2252 0494 F5000000 		.4byte	.LLST6
 2253 0498 1E       		.uleb128 0x1e
 2254 0499 45000000 		.4byte	.LASF67
 2255 049d 01       		.byte	0x1
 2256 049e A7       		.byte	0xa7
 2257 049f B7040000 		.4byte	0x4b7
 2258 04a3 16010000 		.4byte	.LLST7
 2259 04a7 1E       		.uleb128 0x1e
ARM GAS  /tmp/ccSGpD6O.s 			page 41


 2260 04a8 2A030000 		.4byte	.LASF68
 2261 04ac 01       		.byte	0x1
 2262 04ad A7       		.byte	0xa7
 2263 04ae B8000000 		.4byte	0xb8
 2264 04b2 37010000 		.4byte	.LLST8
 2265 04b6 00       		.byte	0
 2266 04b7 21       		.uleb128 0x21
 2267 04b8 04       		.byte	0x4
 2268 04b9 97000000 		.4byte	0x97
 2269 04bd 19       		.uleb128 0x19
 2270 04be E1030000 		.4byte	.LASF69
 2271 04c2 01       		.byte	0x1
 2272 04c3 85       		.byte	0x85
 2273 04c4 00000000 		.4byte	.LFB100
 2274 04c8 BC030000 		.4byte	.LFE100-.LFB100
 2275 04cc 01       		.uleb128 0x1
 2276 04cd 9C       		.byte	0x9c
 2277 04ce BD080000 		.4byte	0x8bd
 2278 04d2 1E       		.uleb128 0x1e
 2279 04d3 3D000000 		.4byte	.LASF50
 2280 04d7 01       		.byte	0x1
 2281 04d8 85       		.byte	0x85
 2282 04d9 97000000 		.4byte	0x97
 2283 04dd 6E010000 		.4byte	.LLST9
 2284 04e1 1E       		.uleb128 0x1e
 2285 04e2 BD040000 		.4byte	.LASF70
 2286 04e6 01       		.byte	0x1
 2287 04e7 85       		.byte	0x85
 2288 04e8 B7040000 		.4byte	0x4b7
 2289 04ec A8010000 		.4byte	.LLST10
 2290 04f0 1E       		.uleb128 0x1e
 2291 04f1 C0050000 		.4byte	.LASF71
 2292 04f5 01       		.byte	0x1
 2293 04f6 85       		.byte	0x85
 2294 04f7 A2000000 		.4byte	0xa2
 2295 04fb DE010000 		.4byte	.LLST11
 2296 04ff 1E       		.uleb128 0x1e
 2297 0500 54030000 		.4byte	.LASF72
 2298 0504 01       		.byte	0x1
 2299 0505 86       		.byte	0x86
 2300 0506 A2000000 		.4byte	0xa2
 2301 050a 18020000 		.4byte	.LLST12
 2302 050e 1E       		.uleb128 0x1e
 2303 050f 31030000 		.4byte	.LASF73
 2304 0513 01       		.byte	0x1
 2305 0514 86       		.byte	0x86
 2306 0515 A2000000 		.4byte	0xa2
 2307 0519 39020000 		.4byte	.LLST13
 2308 051d 22       		.uleb128 0x22
 2309 051e 37010000 		.4byte	.LASF54
 2310 0522 01       		.byte	0x1
 2311 0523 88       		.byte	0x88
 2312 0524 97000000 		.4byte	0x97
 2313 0528 65020000 		.4byte	.LLST14
 2314 052c 23       		.uleb128 0x23
 2315 052d 6900     		.ascii	"i\000"
 2316 052f 01       		.byte	0x1
ARM GAS  /tmp/ccSGpD6O.s 			page 42


 2317 0530 89       		.byte	0x89
 2318 0531 A2000000 		.4byte	0xa2
 2319 0535 FB020000 		.4byte	.LLST15
 2320 0539 24       		.uleb128 0x24
 2321 053a 1B030000 		.4byte	0x31b
 2322 053e 48000000 		.4byte	.LBB53
 2323 0542 00000000 		.4byte	.Ldebug_ranges0+0
 2324 0546 01       		.byte	0x1
 2325 0547 8F       		.byte	0x8f
 2326 0548 91050000 		.4byte	0x591
 2327 054c 25       		.uleb128 0x25
 2328 054d 28030000 		.4byte	0x328
 2329 0551 C4030000 		.4byte	.LLST16
 2330 0555 26       		.uleb128 0x26
 2331 0556 00000000 		.4byte	.Ldebug_ranges0+0
 2332 055a 27       		.uleb128 0x27
 2333 055b 34030000 		.4byte	0x334
 2334 055f 19040000 		.4byte	.LLST17
 2335 0563 1A       		.uleb128 0x1a
 2336 0564 E2000000 		.4byte	.LVL43
 2337 0568 74040000 		.4byte	0x474
 2338 056c 7E050000 		.4byte	0x57e
 2339 0570 1B       		.uleb128 0x1b
 2340 0571 01       		.uleb128 0x1
 2341 0572 51       		.byte	0x51
 2342 0573 03       		.uleb128 0x3
 2343 0574 91       		.byte	0x91
 2344 0575 54       		.sleb128 -44
 2345 0576 06       		.byte	0x6
 2346 0577 1B       		.uleb128 0x1b
 2347 0578 01       		.uleb128 0x1
 2348 0579 50       		.byte	0x50
 2349 057a 02       		.uleb128 0x2
 2350 057b 7B       		.byte	0x7b
 2351 057c 00       		.sleb128 0
 2352 057d 00       		.byte	0
 2353 057e 1C       		.uleb128 0x1c
 2354 057f F6000000 		.4byte	.LVL47
 2355 0583 74040000 		.4byte	0x474
 2356 0587 1B       		.uleb128 0x1b
 2357 0588 01       		.uleb128 0x1
 2358 0589 51       		.byte	0x51
 2359 058a 03       		.uleb128 0x3
 2360 058b 91       		.byte	0x91
 2361 058c 48       		.sleb128 -56
 2362 058d 06       		.byte	0x6
 2363 058e 00       		.byte	0
 2364 058f 00       		.byte	0
 2365 0590 00       		.byte	0
 2366 0591 24       		.uleb128 0x24
 2367 0592 FD020000 		.4byte	0x2fd
 2368 0596 5C000000 		.4byte	.LBB56
 2369 059a 18000000 		.4byte	.Ldebug_ranges0+0x18
 2370 059e 01       		.byte	0x1
 2371 059f 8D       		.byte	0x8d
 2372 05a0 13060000 		.4byte	0x613
 2373 05a4 25       		.uleb128 0x25
ARM GAS  /tmp/ccSGpD6O.s 			page 43


 2374 05a5 0E030000 		.4byte	0x30e
 2375 05a9 4A040000 		.4byte	.LLST18
 2376 05ad 28       		.uleb128 0x28
 2377 05ae 92020000 		.4byte	0x292
 2378 05b2 5C000000 		.4byte	.LBB58
 2379 05b6 30000000 		.4byte	.Ldebug_ranges0+0x30
 2380 05ba 03       		.byte	0x3
 2381 05bb 0B01     		.2byte	0x10b
 2382 05bd CB050000 		.4byte	0x5cb
 2383 05c1 25       		.uleb128 0x25
 2384 05c2 A2020000 		.4byte	0x2a2
 2385 05c6 4A040000 		.4byte	.LLST18
 2386 05ca 00       		.byte	0
 2387 05cb 28       		.uleb128 0x28
 2388 05cc D3020000 		.4byte	0x2d3
 2389 05d0 74000000 		.4byte	.LBB61
 2390 05d4 48000000 		.4byte	.Ldebug_ranges0+0x48
 2391 05d8 03       		.byte	0x3
 2392 05d9 0B01     		.2byte	0x10b
 2393 05db F8050000 		.4byte	0x5f8
 2394 05df 25       		.uleb128 0x25
 2395 05e0 E4020000 		.4byte	0x2e4
 2396 05e4 AA040000 		.4byte	.LLST20
 2397 05e8 26       		.uleb128 0x26
 2398 05e9 48000000 		.4byte	.Ldebug_ranges0+0x48
 2399 05ed 27       		.uleb128 0x27
 2400 05ee F0020000 		.4byte	0x2f0
 2401 05f2 C8040000 		.4byte	.LLST21
 2402 05f6 00       		.byte	0
 2403 05f7 00       		.byte	0
 2404 05f8 29       		.uleb128 0x29
 2405 05f9 AE020000 		.4byte	0x2ae
 2406 05fd 7A000000 		.4byte	.LBB65
 2407 0601 68000000 		.4byte	.Ldebug_ranges0+0x68
 2408 0605 03       		.byte	0x3
 2409 0606 0B01     		.2byte	0x10b
 2410 0608 25       		.uleb128 0x25
 2411 0609 BF020000 		.4byte	0x2bf
 2412 060d DB040000 		.4byte	.LLST22
 2413 0611 00       		.byte	0
 2414 0612 00       		.byte	0
 2415 0613 24       		.uleb128 0x24
 2416 0614 1B030000 		.4byte	0x31b
 2417 0618 1C010000 		.4byte	.LBB74
 2418 061c 80000000 		.4byte	.Ldebug_ranges0+0x80
 2419 0620 01       		.byte	0x1
 2420 0621 94       		.byte	0x94
 2421 0622 6B060000 		.4byte	0x66b
 2422 0626 25       		.uleb128 0x25
 2423 0627 28030000 		.4byte	0x328
 2424 062b EE040000 		.4byte	.LLST23
 2425 062f 26       		.uleb128 0x26
 2426 0630 80000000 		.4byte	.Ldebug_ranges0+0x80
 2427 0634 27       		.uleb128 0x27
 2428 0635 34030000 		.4byte	0x334
 2429 0639 03050000 		.4byte	.LLST24
 2430 063d 1A       		.uleb128 0x1a
ARM GAS  /tmp/ccSGpD6O.s 			page 44


 2431 063e B2010000 		.4byte	.LVL60
 2432 0642 74040000 		.4byte	0x474
 2433 0646 58060000 		.4byte	0x658
 2434 064a 1B       		.uleb128 0x1b
 2435 064b 01       		.uleb128 0x1
 2436 064c 51       		.byte	0x51
 2437 064d 03       		.uleb128 0x3
 2438 064e 91       		.byte	0x91
 2439 064f 48       		.sleb128 -56
 2440 0650 06       		.byte	0x6
 2441 0651 1B       		.uleb128 0x1b
 2442 0652 01       		.uleb128 0x1
 2443 0653 50       		.byte	0x50
 2444 0654 02       		.uleb128 0x2
 2445 0655 7B       		.byte	0x7b
 2446 0656 00       		.sleb128 0
 2447 0657 00       		.byte	0
 2448 0658 1C       		.uleb128 0x1c
 2449 0659 C6010000 		.4byte	.LVL63
 2450 065d 74040000 		.4byte	0x474
 2451 0661 1B       		.uleb128 0x1b
 2452 0662 01       		.uleb128 0x1
 2453 0663 51       		.byte	0x51
 2454 0664 03       		.uleb128 0x3
 2455 0665 91       		.byte	0x91
 2456 0666 40       		.sleb128 -64
 2457 0667 06       		.byte	0x6
 2458 0668 00       		.byte	0
 2459 0669 00       		.byte	0
 2460 066a 00       		.byte	0
 2461 066b 24       		.uleb128 0x24
 2462 066c FD020000 		.4byte	0x2fd
 2463 0670 30010000 		.4byte	.LBB77
 2464 0674 98000000 		.4byte	.Ldebug_ranges0+0x98
 2465 0678 01       		.byte	0x1
 2466 0679 92       		.byte	0x92
 2467 067a ED060000 		.4byte	0x6ed
 2468 067e 25       		.uleb128 0x25
 2469 067f 0E030000 		.4byte	0x30e
 2470 0683 34050000 		.4byte	.LLST25
 2471 0687 28       		.uleb128 0x28
 2472 0688 92020000 		.4byte	0x292
 2473 068c 30010000 		.4byte	.LBB79
 2474 0690 B0000000 		.4byte	.Ldebug_ranges0+0xb0
 2475 0694 03       		.byte	0x3
 2476 0695 0B01     		.2byte	0x10b
 2477 0697 A5060000 		.4byte	0x6a5
 2478 069b 25       		.uleb128 0x25
 2479 069c A2020000 		.4byte	0x2a2
 2480 06a0 34050000 		.4byte	.LLST25
 2481 06a4 00       		.byte	0
 2482 06a5 28       		.uleb128 0x28
 2483 06a6 D3020000 		.4byte	0x2d3
 2484 06aa 46010000 		.4byte	.LBB82
 2485 06ae C8000000 		.4byte	.Ldebug_ranges0+0xc8
 2486 06b2 03       		.byte	0x3
 2487 06b3 0B01     		.2byte	0x10b
ARM GAS  /tmp/ccSGpD6O.s 			page 45


 2488 06b5 D2060000 		.4byte	0x6d2
 2489 06b9 25       		.uleb128 0x25
 2490 06ba E4020000 		.4byte	0x2e4
 2491 06be 56050000 		.4byte	.LLST27
 2492 06c2 26       		.uleb128 0x26
 2493 06c3 C8000000 		.4byte	.Ldebug_ranges0+0xc8
 2494 06c7 27       		.uleb128 0x27
 2495 06c8 F0020000 		.4byte	0x2f0
 2496 06cc 78050000 		.4byte	.LLST28
 2497 06d0 00       		.byte	0
 2498 06d1 00       		.byte	0
 2499 06d2 29       		.uleb128 0x29
 2500 06d3 AE020000 		.4byte	0x2ae
 2501 06d7 50010000 		.4byte	.LBB86
 2502 06db E8000000 		.4byte	.Ldebug_ranges0+0xe8
 2503 06df 03       		.byte	0x3
 2504 06e0 0B01     		.2byte	0x10b
 2505 06e2 25       		.uleb128 0x25
 2506 06e3 BF020000 		.4byte	0x2bf
 2507 06e7 8B050000 		.4byte	.LLST29
 2508 06eb 00       		.byte	0
 2509 06ec 00       		.byte	0
 2510 06ed 24       		.uleb128 0x24
 2511 06ee 41030000 		.4byte	0x341
 2512 06f2 F2010000 		.4byte	.LBB95
 2513 06f6 00010000 		.4byte	.Ldebug_ranges0+0x100
 2514 06fa 01       		.byte	0x1
 2515 06fb 9B       		.byte	0x9b
 2516 06fc 0A070000 		.4byte	0x70a
 2517 0700 25       		.uleb128 0x25
 2518 0701 4E030000 		.4byte	0x34e
 2519 0705 A0050000 		.4byte	.LLST30
 2520 0709 00       		.byte	0
 2521 070a 24       		.uleb128 0x24
 2522 070b FD020000 		.4byte	0x2fd
 2523 070f 4E020000 		.4byte	.LBB99
 2524 0713 18010000 		.4byte	.Ldebug_ranges0+0x118
 2525 0717 01       		.byte	0x1
 2526 0718 9C       		.byte	0x9c
 2527 0719 8C070000 		.4byte	0x78c
 2528 071d 25       		.uleb128 0x25
 2529 071e 0E030000 		.4byte	0x30e
 2530 0722 DF050000 		.4byte	.LLST31
 2531 0726 28       		.uleb128 0x28
 2532 0727 92020000 		.4byte	0x292
 2533 072b 4E020000 		.4byte	.LBB101
 2534 072f 30010000 		.4byte	.Ldebug_ranges0+0x130
 2535 0733 03       		.byte	0x3
 2536 0734 0B01     		.2byte	0x10b
 2537 0736 44070000 		.4byte	0x744
 2538 073a 25       		.uleb128 0x25
 2539 073b A2020000 		.4byte	0x2a2
 2540 073f DF050000 		.4byte	.LLST31
 2541 0743 00       		.byte	0
 2542 0744 28       		.uleb128 0x28
 2543 0745 D3020000 		.4byte	0x2d3
 2544 0749 54020000 		.4byte	.LBB104
ARM GAS  /tmp/ccSGpD6O.s 			page 46


 2545 074d 48010000 		.4byte	.Ldebug_ranges0+0x148
 2546 0751 03       		.byte	0x3
 2547 0752 0B01     		.2byte	0x10b
 2548 0754 71070000 		.4byte	0x771
 2549 0758 25       		.uleb128 0x25
 2550 0759 E4020000 		.4byte	0x2e4
 2551 075d FD050000 		.4byte	.LLST33
 2552 0761 26       		.uleb128 0x26
 2553 0762 48010000 		.4byte	.Ldebug_ranges0+0x148
 2554 0766 27       		.uleb128 0x27
 2555 0767 F0020000 		.4byte	0x2f0
 2556 076b 1B060000 		.4byte	.LLST34
 2557 076f 00       		.byte	0
 2558 0770 00       		.byte	0
 2559 0771 29       		.uleb128 0x29
 2560 0772 AE020000 		.4byte	0x2ae
 2561 0776 5A020000 		.4byte	.LBB108
 2562 077a 68010000 		.4byte	.Ldebug_ranges0+0x168
 2563 077e 03       		.byte	0x3
 2564 077f 0B01     		.2byte	0x10b
 2565 0781 25       		.uleb128 0x25
 2566 0782 BF020000 		.4byte	0x2bf
 2567 0786 2E060000 		.4byte	.LLST35
 2568 078a 00       		.byte	0
 2569 078b 00       		.byte	0
 2570 078c 24       		.uleb128 0x24
 2571 078d 41030000 		.4byte	0x341
 2572 0791 A8020000 		.4byte	.LBB116
 2573 0795 80010000 		.4byte	.Ldebug_ranges0+0x180
 2574 0799 01       		.byte	0x1
 2575 079a A0       		.byte	0xa0
 2576 079b A9070000 		.4byte	0x7a9
 2577 079f 25       		.uleb128 0x25
 2578 07a0 4E030000 		.4byte	0x34e
 2579 07a4 41060000 		.4byte	.LLST36
 2580 07a8 00       		.byte	0
 2581 07a9 24       		.uleb128 0x24
 2582 07aa FD020000 		.4byte	0x2fd
 2583 07ae 08030000 		.4byte	.LBB120
 2584 07b2 98010000 		.4byte	.Ldebug_ranges0+0x198
 2585 07b6 01       		.byte	0x1
 2586 07b7 A1       		.byte	0xa1
 2587 07b8 2B080000 		.4byte	0x82b
 2588 07bc 25       		.uleb128 0x25
 2589 07bd 0E030000 		.4byte	0x30e
 2590 07c1 63060000 		.4byte	.LLST37
 2591 07c5 28       		.uleb128 0x28
 2592 07c6 92020000 		.4byte	0x292
 2593 07ca 08030000 		.4byte	.LBB122
 2594 07ce B0010000 		.4byte	.Ldebug_ranges0+0x1b0
 2595 07d2 03       		.byte	0x3
 2596 07d3 0B01     		.2byte	0x10b
 2597 07d5 E3070000 		.4byte	0x7e3
 2598 07d9 25       		.uleb128 0x25
 2599 07da A2020000 		.4byte	0x2a2
 2600 07de 63060000 		.4byte	.LLST37
 2601 07e2 00       		.byte	0
ARM GAS  /tmp/ccSGpD6O.s 			page 47


 2602 07e3 28       		.uleb128 0x28
 2603 07e4 D3020000 		.4byte	0x2d3
 2604 07e8 0E030000 		.4byte	.LBB125
 2605 07ec C8010000 		.4byte	.Ldebug_ranges0+0x1c8
 2606 07f0 03       		.byte	0x3
 2607 07f1 0B01     		.2byte	0x10b
 2608 07f3 10080000 		.4byte	0x810
 2609 07f7 25       		.uleb128 0x25
 2610 07f8 E4020000 		.4byte	0x2e4
 2611 07fc 85060000 		.4byte	.LLST39
 2612 0800 26       		.uleb128 0x26
 2613 0801 C8010000 		.4byte	.Ldebug_ranges0+0x1c8
 2614 0805 27       		.uleb128 0x27
 2615 0806 F0020000 		.4byte	0x2f0
 2616 080a A7060000 		.4byte	.LLST40
 2617 080e 00       		.byte	0
 2618 080f 00       		.byte	0
 2619 0810 29       		.uleb128 0x29
 2620 0811 AE020000 		.4byte	0x2ae
 2621 0815 14030000 		.4byte	.LBB129
 2622 0819 E8010000 		.4byte	.Ldebug_ranges0+0x1e8
 2623 081d 03       		.byte	0x3
 2624 081e 0B01     		.2byte	0x10b
 2625 0820 25       		.uleb128 0x25
 2626 0821 BF020000 		.4byte	0x2bf
 2627 0825 BA060000 		.4byte	.LLST41
 2628 0829 00       		.byte	0
 2629 082a 00       		.byte	0
 2630 082b 1A       		.uleb128 0x1a
 2631 082c B6000000 		.4byte	.LVL37
 2632 0830 E40B0000 		.4byte	0xbe4
 2633 0834 52080000 		.4byte	0x852
 2634 0838 1B       		.uleb128 0x1b
 2635 0839 01       		.uleb128 0x1
 2636 083a 53       		.byte	0x53
 2637 083b 01       		.uleb128 0x1
 2638 083c 30       		.byte	0x30
 2639 083d 1B       		.uleb128 0x1b
 2640 083e 01       		.uleb128 0x1
 2641 083f 52       		.byte	0x52
 2642 0840 04       		.uleb128 0x4
 2643 0841 91       		.byte	0x91
 2644 0842 44       		.sleb128 -60
 2645 0843 94       		.byte	0x94
 2646 0844 02       		.byte	0x2
 2647 0845 1B       		.uleb128 0x1b
 2648 0846 01       		.uleb128 0x1
 2649 0847 51       		.byte	0x51
 2650 0848 02       		.uleb128 0x2
 2651 0849 74       		.byte	0x74
 2652 084a 00       		.sleb128 0
 2653 084b 1B       		.uleb128 0x1b
 2654 084c 01       		.uleb128 0x1
 2655 084d 50       		.byte	0x50
 2656 084e 02       		.uleb128 0x2
 2657 084f 78       		.byte	0x78
 2658 0850 00       		.sleb128 0
ARM GAS  /tmp/ccSGpD6O.s 			page 48


 2659 0851 00       		.byte	0
 2660 0852 1A       		.uleb128 0x1a
 2661 0853 8A010000 		.4byte	.LVL57
 2662 0857 E40B0000 		.4byte	0xbe4
 2663 085b 7D080000 		.4byte	0x87d
 2664 085f 1B       		.uleb128 0x1b
 2665 0860 01       		.uleb128 0x1
 2666 0861 53       		.byte	0x53
 2667 0862 01       		.uleb128 0x1
 2668 0863 30       		.byte	0x30
 2669 0864 1B       		.uleb128 0x1b
 2670 0865 01       		.uleb128 0x1
 2671 0866 52       		.byte	0x52
 2672 0867 04       		.uleb128 0x4
 2673 0868 91       		.byte	0x91
 2674 0869 44       		.sleb128 -60
 2675 086a 94       		.byte	0x94
 2676 086b 02       		.byte	0x2
 2677 086c 1B       		.uleb128 0x1b
 2678 086d 01       		.uleb128 0x1
 2679 086e 51       		.byte	0x51
 2680 086f 03       		.uleb128 0x3
 2681 0870 91       		.byte	0x91
 2682 0871 4C       		.sleb128 -52
 2683 0872 06       		.byte	0x6
 2684 0873 1B       		.uleb128 0x1b
 2685 0874 01       		.uleb128 0x1
 2686 0875 50       		.byte	0x50
 2687 0876 05       		.uleb128 0x5
 2688 0877 91       		.byte	0x91
 2689 0878 BC7F     		.sleb128 -68
 2690 087a 94       		.byte	0x94
 2691 087b 01       		.byte	0x1
 2692 087c 00       		.byte	0
 2693 087d 1A       		.uleb128 0x1a
 2694 087e 02020000 		.4byte	.LVL71
 2695 0882 74040000 		.4byte	0x474
 2696 0886 9E080000 		.4byte	0x89e
 2697 088a 1B       		.uleb128 0x1b
 2698 088b 01       		.uleb128 0x1
 2699 088c 52       		.byte	0x52
 2700 088d 03       		.uleb128 0x3
 2701 088e 91       		.byte	0x91
 2702 088f 48       		.sleb128 -56
 2703 0890 06       		.byte	0x6
 2704 0891 1B       		.uleb128 0x1b
 2705 0892 01       		.uleb128 0x1
 2706 0893 51       		.byte	0x51
 2707 0894 02       		.uleb128 0x2
 2708 0895 77       		.byte	0x77
 2709 0896 00       		.sleb128 0
 2710 0897 1B       		.uleb128 0x1b
 2711 0898 01       		.uleb128 0x1
 2712 0899 50       		.byte	0x50
 2713 089a 02       		.uleb128 0x2
 2714 089b 79       		.byte	0x79
 2715 089c 00       		.sleb128 0
ARM GAS  /tmp/ccSGpD6O.s 			page 49


 2716 089d 00       		.byte	0
 2717 089e 1C       		.uleb128 0x1c
 2718 089f BA020000 		.4byte	.LVL84
 2719 08a3 74040000 		.4byte	0x474
 2720 08a7 1B       		.uleb128 0x1b
 2721 08a8 01       		.uleb128 0x1
 2722 08a9 52       		.byte	0x52
 2723 08aa 03       		.uleb128 0x3
 2724 08ab 91       		.byte	0x91
 2725 08ac 44       		.sleb128 -60
 2726 08ad 06       		.byte	0x6
 2727 08ae 1B       		.uleb128 0x1b
 2728 08af 01       		.uleb128 0x1
 2729 08b0 51       		.byte	0x51
 2730 08b1 03       		.uleb128 0x3
 2731 08b2 91       		.byte	0x91
 2732 08b3 4C       		.sleb128 -52
 2733 08b4 06       		.byte	0x6
 2734 08b5 1B       		.uleb128 0x1b
 2735 08b6 01       		.uleb128 0x1
 2736 08b7 50       		.byte	0x50
 2737 08b8 02       		.uleb128 0x2
 2738 08b9 79       		.byte	0x79
 2739 08ba 00       		.sleb128 0
 2740 08bb 00       		.byte	0
 2741 08bc 00       		.byte	0
 2742 08bd 19       		.uleb128 0x19
 2743 08be 49020000 		.4byte	.LASF74
 2744 08c2 01       		.byte	0x1
 2745 08c3 BB       		.byte	0xbb
 2746 08c4 00000000 		.4byte	.LFB102
 2747 08c8 2C000000 		.4byte	.LFE102-.LFB102
 2748 08cc 01       		.uleb128 0x1
 2749 08cd 9C       		.byte	0x9c
 2750 08ce 10090000 		.4byte	0x910
 2751 08d2 1E       		.uleb128 0x1e
 2752 08d3 3D000000 		.4byte	.LASF50
 2753 08d7 01       		.byte	0x1
 2754 08d8 BB       		.byte	0xbb
 2755 08d9 97000000 		.4byte	0x97
 2756 08dd CF060000 		.4byte	.LLST42
 2757 08e1 1E       		.uleb128 0x1e
 2758 08e2 45000000 		.4byte	.LASF67
 2759 08e6 01       		.byte	0x1
 2760 08e7 BB       		.byte	0xbb
 2761 08e8 B7040000 		.4byte	0x4b7
 2762 08ec F0060000 		.4byte	.LLST43
 2763 08f0 1C       		.uleb128 0x1c
 2764 08f1 0C000000 		.4byte	.LVL101
 2765 08f5 200C0000 		.4byte	0xc20
 2766 08f9 1B       		.uleb128 0x1b
 2767 08fa 01       		.uleb128 0x1
 2768 08fb 52       		.byte	0x52
 2769 08fc 01       		.uleb128 0x1
 2770 08fd 38       		.byte	0x38
 2771 08fe 1B       		.uleb128 0x1b
 2772 08ff 01       		.uleb128 0x1
ARM GAS  /tmp/ccSGpD6O.s 			page 50


 2773 0900 51       		.byte	0x51
 2774 0901 05       		.uleb128 0x5
 2775 0902 03       		.byte	0x3
 2776 0903 80000000 		.4byte	.LANCHOR3
 2777 0907 1B       		.uleb128 0x1b
 2778 0908 01       		.uleb128 0x1
 2779 0909 50       		.byte	0x50
 2780 090a 03       		.uleb128 0x3
 2781 090b F3       		.byte	0xf3
 2782 090c 01       		.uleb128 0x1
 2783 090d 51       		.byte	0x51
 2784 090e 00       		.byte	0
 2785 090f 00       		.byte	0
 2786 0910 19       		.uleb128 0x19
 2787 0911 97020000 		.4byte	.LASF75
 2788 0915 01       		.byte	0x1
 2789 0916 C3       		.byte	0xc3
 2790 0917 00000000 		.4byte	.LFB103
 2791 091b B8010000 		.4byte	.LFE103-.LFB103
 2792 091f 01       		.uleb128 0x1
 2793 0920 9C       		.byte	0x9c
 2794 0921 340A0000 		.4byte	0xa34
 2795 0925 22       		.uleb128 0x22
 2796 0926 4C030000 		.4byte	.LASF76
 2797 092a 01       		.byte	0x1
 2798 092b C9       		.byte	0xc9
 2799 092c B8000000 		.4byte	0xb8
 2800 0930 1C070000 		.4byte	.LLST44
 2801 0934 22       		.uleb128 0x22
 2802 0935 F4030000 		.4byte	.LASF77
 2803 0939 01       		.byte	0x1
 2804 093a CA       		.byte	0xca
 2805 093b B8000000 		.4byte	0xb8
 2806 093f 3A070000 		.4byte	.LLST45
 2807 0943 2A       		.uleb128 0x2a
 2808 0944 16000000 		.4byte	.LBB141
 2809 0948 4A000000 		.4byte	.LBE141-.LBB141
 2810 094c 79090000 		.4byte	0x979
 2811 0950 22       		.uleb128 0x22
 2812 0951 77020000 		.4byte	.LASF78
 2813 0955 01       		.byte	0x1
 2814 0956 D9       		.byte	0xd9
 2815 0957 B8000000 		.4byte	0xb8
 2816 095b 4D070000 		.4byte	.LLST46
 2817 095f 2B       		.uleb128 0x2b
 2818 0960 2A000000 		.4byte	.LVL107
 2819 0964 79030000 		.4byte	0x379
 2820 0968 1C       		.uleb128 0x1c
 2821 0969 36000000 		.4byte	.LVL108
 2822 096d C2030000 		.4byte	0x3c2
 2823 0971 1B       		.uleb128 0x1b
 2824 0972 01       		.uleb128 0x1
 2825 0973 50       		.byte	0x50
 2826 0974 02       		.uleb128 0x2
 2827 0975 08       		.byte	0x8
 2828 0976 40       		.byte	0x40
 2829 0977 00       		.byte	0
ARM GAS  /tmp/ccSGpD6O.s 			page 51


 2830 0978 00       		.byte	0
 2831 0979 2C       		.uleb128 0x2c
 2832 097a 70000000 		.4byte	.LBB142
 2833 097e 12010000 		.4byte	.LBE142-.LBB142
 2834 0982 22       		.uleb128 0x22
 2835 0983 37010000 		.4byte	.LASF54
 2836 0987 01       		.byte	0x1
 2837 0988 F2       		.byte	0xf2
 2838 0989 B8000000 		.4byte	0xb8
 2839 098d 60070000 		.4byte	.LLST47
 2840 0991 2D       		.uleb128 0x2d
 2841 0992 5B030000 		.4byte	0x35b
 2842 0996 7E000000 		.4byte	.LBB143
 2843 099a 04000000 		.4byte	.LBE143-.LBB143
 2844 099e 01       		.byte	0x1
 2845 099f F6       		.byte	0xf6
 2846 09a0 AE090000 		.4byte	0x9ae
 2847 09a4 25       		.uleb128 0x25
 2848 09a5 6C030000 		.4byte	0x36c
 2849 09a9 7E070000 		.4byte	.LLST48
 2850 09ad 00       		.byte	0
 2851 09ae 2A       		.uleb128 0x2a
 2852 09af 18010000 		.4byte	.LBB145
 2853 09b3 46000000 		.4byte	.LBE145-.LBB145
 2854 09b7 E9090000 		.4byte	0x9e9
 2855 09bb 2E       		.uleb128 0x2e
 2856 09bc 6900     		.ascii	"i\000"
 2857 09be 01       		.byte	0x1
 2858 09bf 1101     		.2byte	0x111
 2859 09c1 B8000000 		.4byte	0xb8
 2860 09c5 1A       		.uleb128 0x1a
 2861 09c6 3A010000 		.4byte	.LVL116
 2862 09ca 74040000 		.4byte	0x474
 2863 09ce D8090000 		.4byte	0x9d8
 2864 09d2 1B       		.uleb128 0x1b
 2865 09d3 01       		.uleb128 0x1
 2866 09d4 50       		.byte	0x50
 2867 09d5 01       		.uleb128 0x1
 2868 09d6 31       		.byte	0x31
 2869 09d7 00       		.byte	0
 2870 09d8 1C       		.uleb128 0x1c
 2871 09d9 5C010000 		.4byte	.LVL117
 2872 09dd 74040000 		.4byte	0x474
 2873 09e1 1B       		.uleb128 0x1b
 2874 09e2 01       		.uleb128 0x1
 2875 09e3 50       		.byte	0x50
 2876 09e4 02       		.uleb128 0x2
 2877 09e5 76       		.byte	0x76
 2878 09e6 00       		.sleb128 0
 2879 09e7 00       		.byte	0
 2880 09e8 00       		.byte	0
 2881 09e9 1A       		.uleb128 0x1a
 2882 09ea A8000000 		.4byte	.LVL112
 2883 09ee 74040000 		.4byte	0x474
 2884 09f2 030A0000 		.4byte	0xa03
 2885 09f6 1B       		.uleb128 0x1b
 2886 09f7 01       		.uleb128 0x1
ARM GAS  /tmp/ccSGpD6O.s 			page 52


 2887 09f8 52       		.byte	0x52
 2888 09f9 03       		.uleb128 0x3
 2889 09fa 0A       		.byte	0xa
 2890 09fb 0002     		.2byte	0x200
 2891 09fd 1B       		.uleb128 0x1b
 2892 09fe 01       		.uleb128 0x1
 2893 09ff 50       		.byte	0x50
 2894 0a00 01       		.uleb128 0x1
 2895 0a01 30       		.byte	0x30
 2896 0a02 00       		.byte	0
 2897 0a03 1A       		.uleb128 0x1a
 2898 0a04 BE000000 		.4byte	.LVL113
 2899 0a08 74040000 		.4byte	0x474
 2900 0a0c 1E0A0000 		.4byte	0xa1e
 2901 0a10 1B       		.uleb128 0x1b
 2902 0a11 01       		.uleb128 0x1
 2903 0a12 52       		.byte	0x52
 2904 0a13 03       		.uleb128 0x3
 2905 0a14 0A       		.byte	0xa
 2906 0a15 0002     		.2byte	0x200
 2907 0a17 1B       		.uleb128 0x1b
 2908 0a18 01       		.uleb128 0x1
 2909 0a19 50       		.byte	0x50
 2910 0a1a 02       		.uleb128 0x2
 2911 0a1b 76       		.byte	0x76
 2912 0a1c 00       		.sleb128 0
 2913 0a1d 00       		.byte	0
 2914 0a1e 1C       		.uleb128 0x1c
 2915 0a1f 7A010000 		.4byte	.LVL118
 2916 0a23 74040000 		.4byte	0x474
 2917 0a27 1B       		.uleb128 0x1b
 2918 0a28 01       		.uleb128 0x1
 2919 0a29 52       		.byte	0x52
 2920 0a2a 01       		.uleb128 0x1
 2921 0a2b 30       		.byte	0x30
 2922 0a2c 1B       		.uleb128 0x1b
 2923 0a2d 01       		.uleb128 0x1
 2924 0a2e 50       		.byte	0x50
 2925 0a2f 01       		.uleb128 0x1
 2926 0a30 31       		.byte	0x31
 2927 0a31 00       		.byte	0
 2928 0a32 00       		.byte	0
 2929 0a33 00       		.byte	0
 2930 0a34 08       		.uleb128 0x8
 2931 0a35 97000000 		.4byte	0x97
 2932 0a39 440A0000 		.4byte	0xa44
 2933 0a3d 09       		.uleb128 0x9
 2934 0a3e C3000000 		.4byte	0xc3
 2935 0a42 07       		.byte	0x7
 2936 0a43 00       		.byte	0
 2937 0a44 20       		.uleb128 0x20
 2938 0a45 17000000 		.4byte	.LASF79
 2939 0a49 01       		.byte	0x1
 2940 0a4a 3D       		.byte	0x3d
 2941 0a4b 340A0000 		.4byte	0xa34
 2942 0a4f 05       		.uleb128 0x5
 2943 0a50 03       		.byte	0x3
ARM GAS  /tmp/ccSGpD6O.s 			page 53


 2944 0a51 80000000 		.4byte	SetupPackage
 2945 0a55 08       		.uleb128 0x8
 2946 0a56 97000000 		.4byte	0x97
 2947 0a5a 600A0000 		.4byte	0xa60
 2948 0a5e 2F       		.uleb128 0x2f
 2949 0a5f 00       		.byte	0
 2950 0a60 30       		.uleb128 0x30
 2951 0a61 6C030000 		.4byte	.LASF80
 2952 0a65 08       		.byte	0x8
 2953 0a66 8B       		.byte	0x8b
 2954 0a67 6B0A0000 		.4byte	0xa6b
 2955 0a6b 0B       		.uleb128 0xb
 2956 0a6c 550A0000 		.4byte	0xa55
 2957 0a70 08       		.uleb128 0x8
 2958 0a71 97000000 		.4byte	0x97
 2959 0a75 820A0000 		.4byte	0xa82
 2960 0a79 2F       		.uleb128 0x2f
 2961 0a7a 31       		.uleb128 0x31
 2962 0a7b C3000000 		.4byte	0xc3
 2963 0a7f FF01     		.2byte	0x1ff
 2964 0a81 00       		.byte	0
 2965 0a82 30       		.uleb128 0x30
 2966 0a83 B5000000 		.4byte	.LASF81
 2967 0a87 09       		.byte	0x9
 2968 0a88 36       		.byte	0x36
 2969 0a89 700A0000 		.4byte	0xa70
 2970 0a8d 30       		.uleb128 0x30
 2971 0a8e 3D010000 		.4byte	.LASF82
 2972 0a92 09       		.byte	0x9
 2973 0a93 38       		.byte	0x38
 2974 0a94 700A0000 		.4byte	0xa70
 2975 0a98 30       		.uleb128 0x30
 2976 0a99 B7020000 		.4byte	.LASF83
 2977 0a9d 09       		.byte	0x9
 2978 0a9e 3A       		.byte	0x3a
 2979 0a9f 700A0000 		.4byte	0xa70
 2980 0aa3 08       		.uleb128 0x8
 2981 0aa4 AD000000 		.4byte	0xad
 2982 0aa8 AE0A0000 		.4byte	0xaae
 2983 0aac 2F       		.uleb128 0x2f
 2984 0aad 00       		.byte	0
 2985 0aae 30       		.uleb128 0x30
 2986 0aaf 61040000 		.4byte	.LASF84
 2987 0ab3 09       		.byte	0x9
 2988 0ab4 3C       		.byte	0x3c
 2989 0ab5 B90A0000 		.4byte	0xab9
 2990 0ab9 0B       		.uleb128 0xb
 2991 0aba A30A0000 		.4byte	0xaa3
 2992 0abe 08       		.uleb128 0x8
 2993 0abf B8000000 		.4byte	0xb8
 2994 0ac3 C90A0000 		.4byte	0xac9
 2995 0ac7 2F       		.uleb128 0x2f
 2996 0ac8 00       		.byte	0
 2997 0ac9 30       		.uleb128 0x30
 2998 0aca A7050000 		.4byte	.LASF85
 2999 0ace 09       		.byte	0x9
 3000 0acf 3E       		.byte	0x3e
ARM GAS  /tmp/ccSGpD6O.s 			page 54


 3001 0ad0 D40A0000 		.4byte	0xad4
 3002 0ad4 0B       		.uleb128 0xb
 3003 0ad5 BE0A0000 		.4byte	0xabe
 3004 0ad9 30       		.uleb128 0x30
 3005 0ada 6E010000 		.4byte	.LASF86
 3006 0ade 09       		.byte	0x9
 3007 0adf 43       		.byte	0x43
 3008 0ae0 E40A0000 		.4byte	0xae4
 3009 0ae4 0B       		.uleb128 0xb
 3010 0ae5 BE0A0000 		.4byte	0xabe
 3011 0ae9 30       		.uleb128 0x30
 3012 0aea 20050000 		.4byte	.LASF87
 3013 0aee 09       		.byte	0x9
 3014 0aef 44       		.byte	0x44
 3015 0af0 F40A0000 		.4byte	0xaf4
 3016 0af4 0B       		.uleb128 0xb
 3017 0af5 BE0A0000 		.4byte	0xabe
 3018 0af9 30       		.uleb128 0x30
 3019 0afa E7020000 		.4byte	.LASF88
 3020 0afe 09       		.byte	0x9
 3021 0aff 45       		.byte	0x45
 3022 0b00 040B0000 		.4byte	0xb04
 3023 0b04 0B       		.uleb128 0xb
 3024 0b05 BE0A0000 		.4byte	0xabe
 3025 0b09 30       		.uleb128 0x30
 3026 0b0a 7A000000 		.4byte	.LASF89
 3027 0b0e 09       		.byte	0x9
 3028 0b0f 49       		.byte	0x49
 3029 0b10 550A0000 		.4byte	0xa55
 3030 0b14 30       		.uleb128 0x30
 3031 0b15 44060000 		.4byte	.LASF90
 3032 0b19 09       		.byte	0x9
 3033 0b1a 4D       		.byte	0x4d
 3034 0b1b 550A0000 		.4byte	0xa55
 3035 0b1f 30       		.uleb128 0x30
 3036 0b20 98040000 		.4byte	.LASF91
 3037 0b24 09       		.byte	0x9
 3038 0b25 4E       		.byte	0x4e
 3039 0b26 550A0000 		.4byte	0xa55
 3040 0b2a 08       		.uleb128 0x8
 3041 0b2b 87020000 		.4byte	0x287
 3042 0b2f 400B0000 		.4byte	0xb40
 3043 0b33 09       		.uleb128 0x9
 3044 0b34 C3000000 		.4byte	0xc3
 3045 0b38 09       		.byte	0x9
 3046 0b39 09       		.uleb128 0x9
 3047 0b3a C3000000 		.4byte	0xc3
 3048 0b3e 01       		.byte	0x1
 3049 0b3f 00       		.byte	0
 3050 0b40 32       		.uleb128 0x32
 3051 0b41 B2060000 		.4byte	.LASF92
 3052 0b45 01       		.byte	0x1
 3053 0b46 3B       		.byte	0x3b
 3054 0b47 2A0B0000 		.4byte	0xb2a
 3055 0b4b 05       		.uleb128 0x5
 3056 0b4c 03       		.byte	0x3
 3057 0b4d 00000000 		.4byte	EndPointCmdStsList
ARM GAS  /tmp/ccSGpD6O.s 			page 55


 3058 0b51 08       		.uleb128 0x8
 3059 0b52 B8000000 		.4byte	0xb8
 3060 0b56 610B0000 		.4byte	0xb61
 3061 0b5a 09       		.uleb128 0x9
 3062 0b5b C3000000 		.4byte	0xc3
 3063 0b5f 09       		.byte	0x9
 3064 0b60 00       		.byte	0
 3065 0b61 32       		.uleb128 0x32
 3066 0b62 96000000 		.4byte	.LASF93
 3067 0b66 01       		.byte	0x1
 3068 0b67 3E       		.byte	0x3e
 3069 0b68 510B0000 		.4byte	0xb51
 3070 0b6c 05       		.uleb128 0x5
 3071 0b6d 03       		.byte	0x3
 3072 0b6e 00000000 		.4byte	EndpointMaxPacketSize
 3073 0b72 32       		.uleb128 0x32
 3074 0b73 43040000 		.4byte	.LASF94
 3075 0b77 01       		.byte	0x1
 3076 0b78 3F       		.byte	0x3f
 3077 0b79 1E010000 		.4byte	0x11e
 3078 0b7d 05       		.uleb128 0x5
 3079 0b7e 03       		.byte	0x3
 3080 0b7f 00000000 		.4byte	Remain_length
 3081 0b83 32       		.uleb128 0x32
 3082 0b84 82020000 		.4byte	.LASF95
 3083 0b88 01       		.byte	0x1
 3084 0b89 40       		.byte	0x40
 3085 0b8a CC020000 		.4byte	0x2cc
 3086 0b8e 05       		.uleb128 0x5
 3087 0b8f 03       		.byte	0x3
 3088 0b90 00000000 		.4byte	shortpacket
 3089 0b94 32       		.uleb128 0x32
 3090 0b95 00050000 		.4byte	.LASF96
 3091 0b99 01       		.byte	0x1
 3092 0b9a 40       		.byte	0x40
 3093 0b9b CC020000 		.4byte	0x2cc
 3094 0b9f 05       		.uleb128 0x5
 3095 0ba0 03       		.byte	0x3
 3096 0ba1 00000000 		.4byte	epout_primed
 3097 0ba5 32       		.uleb128 0x32
 3098 0ba6 A8040000 		.4byte	.LASF97
 3099 0baa 01       		.byte	0x1
 3100 0bab 41       		.byte	0x41
 3101 0bac A2000000 		.4byte	0xa2
 3102 0bb0 05       		.uleb128 0x5
 3103 0bb1 03       		.byte	0x3
 3104 0bb2 00000000 		.4byte	stream_total_packets
 3105 0bb6 33       		.uleb128 0x33
 3106 0bb7 70020000 		.4byte	.LASF98
 3107 0bbb CA000000 		.4byte	0xca
 3108 0bbf D30B0000 		.4byte	0xbd3
 3109 0bc3 34       		.uleb128 0x34
 3110 0bc4 CA000000 		.4byte	0xca
 3111 0bc8 34       		.uleb128 0x34
 3112 0bc9 89000000 		.4byte	0x89
 3113 0bcd 34       		.uleb128 0x34
 3114 0bce C3000000 		.4byte	0xc3
ARM GAS  /tmp/ccSGpD6O.s 			page 56


 3115 0bd2 00       		.byte	0
 3116 0bd3 35       		.uleb128 0x35
 3117 0bd4 55000000 		.4byte	.LASF99
 3118 0bd8 07       		.byte	0x7
 3119 0bd9 4A       		.byte	0x4a
 3120 0bda E40B0000 		.4byte	0xbe4
 3121 0bde 34       		.uleb128 0x34
 3122 0bdf 97000000 		.4byte	0x97
 3123 0be3 00       		.byte	0
 3124 0be4 36       		.uleb128 0x36
 3125 0be5 24000000 		.4byte	.LASF104
 3126 0be9 0B       		.byte	0xb
 3127 0bea 2201     		.2byte	0x122
 3128 0bec 97000000 		.4byte	0x97
 3129 0bf0 090C0000 		.4byte	0xc09
 3130 0bf4 34       		.uleb128 0x34
 3131 0bf5 97000000 		.4byte	0x97
 3132 0bf9 34       		.uleb128 0x34
 3133 0bfa 090C0000 		.4byte	0xc09
 3134 0bfe 34       		.uleb128 0x34
 3135 0bff A2000000 		.4byte	0xa2
 3136 0c03 34       		.uleb128 0x34
 3137 0c04 150C0000 		.4byte	0xc15
 3138 0c08 00       		.byte	0
 3139 0c09 0A       		.uleb128 0xa
 3140 0c0a 0E0C0000 		.4byte	0xc0e
 3141 0c0e 21       		.uleb128 0x21
 3142 0c0f 04       		.byte	0x4
 3143 0c10 140C0000 		.4byte	0xc14
 3144 0c14 37       		.uleb128 0x37
 3145 0c15 0A       		.uleb128 0xa
 3146 0c16 1A0C0000 		.4byte	0xc1a
 3147 0c1a 21       		.uleb128 0x21
 3148 0c1b 04       		.byte	0x4
 3149 0c1c A2000000 		.4byte	0xa2
 3150 0c20 38       		.uleb128 0x38
 3151 0c21 DD000000 		.4byte	.LASF105
 3152 0c25 CA000000 		.4byte	0xca
 3153 0c29 34       		.uleb128 0x34
 3154 0c2a CA000000 		.4byte	0xca
 3155 0c2e 34       		.uleb128 0x34
 3156 0c2f 0E0C0000 		.4byte	0xc0e
 3157 0c33 34       		.uleb128 0x34
 3158 0c34 C3000000 		.4byte	0xc3
 3159 0c38 00       		.byte	0
 3160 0c39 00       		.byte	0
 3161              		.section	.debug_abbrev,"",%progbits
 3162              	.Ldebug_abbrev0:
 3163 0000 01       		.uleb128 0x1
 3164 0001 11       		.uleb128 0x11
 3165 0002 01       		.byte	0x1
 3166 0003 25       		.uleb128 0x25
 3167 0004 0E       		.uleb128 0xe
 3168 0005 13       		.uleb128 0x13
 3169 0006 0B       		.uleb128 0xb
 3170 0007 03       		.uleb128 0x3
 3171 0008 0E       		.uleb128 0xe
ARM GAS  /tmp/ccSGpD6O.s 			page 57


 3172 0009 1B       		.uleb128 0x1b
 3173 000a 0E       		.uleb128 0xe
 3174 000b 55       		.uleb128 0x55
 3175 000c 17       		.uleb128 0x17
 3176 000d 11       		.uleb128 0x11
 3177 000e 01       		.uleb128 0x1
 3178 000f 10       		.uleb128 0x10
 3179 0010 17       		.uleb128 0x17
 3180 0011 00       		.byte	0
 3181 0012 00       		.byte	0
 3182 0013 02       		.uleb128 0x2
 3183 0014 24       		.uleb128 0x24
 3184 0015 00       		.byte	0
 3185 0016 0B       		.uleb128 0xb
 3186 0017 0B       		.uleb128 0xb
 3187 0018 3E       		.uleb128 0x3e
 3188 0019 0B       		.uleb128 0xb
 3189 001a 03       		.uleb128 0x3
 3190 001b 0E       		.uleb128 0xe
 3191 001c 00       		.byte	0
 3192 001d 00       		.byte	0
 3193 001e 03       		.uleb128 0x3
 3194 001f 16       		.uleb128 0x16
 3195 0020 00       		.byte	0
 3196 0021 03       		.uleb128 0x3
 3197 0022 0E       		.uleb128 0xe
 3198 0023 3A       		.uleb128 0x3a
 3199 0024 0B       		.uleb128 0xb
 3200 0025 3B       		.uleb128 0x3b
 3201 0026 0B       		.uleb128 0xb
 3202 0027 49       		.uleb128 0x49
 3203 0028 13       		.uleb128 0x13
 3204 0029 00       		.byte	0
 3205 002a 00       		.byte	0
 3206 002b 04       		.uleb128 0x4
 3207 002c 24       		.uleb128 0x24
 3208 002d 00       		.byte	0
 3209 002e 0B       		.uleb128 0xb
 3210 002f 0B       		.uleb128 0xb
 3211 0030 3E       		.uleb128 0x3e
 3212 0031 0B       		.uleb128 0xb
 3213 0032 03       		.uleb128 0x3
 3214 0033 08       		.uleb128 0x8
 3215 0034 00       		.byte	0
 3216 0035 00       		.byte	0
 3217 0036 05       		.uleb128 0x5
 3218 0037 0F       		.uleb128 0xf
 3219 0038 00       		.byte	0
 3220 0039 0B       		.uleb128 0xb
 3221 003a 0B       		.uleb128 0xb
 3222 003b 00       		.byte	0
 3223 003c 00       		.byte	0
 3224 003d 06       		.uleb128 0x6
 3225 003e 04       		.uleb128 0x4
 3226 003f 01       		.byte	0x1
 3227 0040 03       		.uleb128 0x3
 3228 0041 0E       		.uleb128 0xe
ARM GAS  /tmp/ccSGpD6O.s 			page 58


 3229 0042 0B       		.uleb128 0xb
 3230 0043 0B       		.uleb128 0xb
 3231 0044 3A       		.uleb128 0x3a
 3232 0045 0B       		.uleb128 0xb
 3233 0046 3B       		.uleb128 0x3b
 3234 0047 0B       		.uleb128 0xb
 3235 0048 01       		.uleb128 0x1
 3236 0049 13       		.uleb128 0x13
 3237 004a 00       		.byte	0
 3238 004b 00       		.byte	0
 3239 004c 07       		.uleb128 0x7
 3240 004d 28       		.uleb128 0x28
 3241 004e 00       		.byte	0
 3242 004f 03       		.uleb128 0x3
 3243 0050 0E       		.uleb128 0xe
 3244 0051 1C       		.uleb128 0x1c
 3245 0052 0D       		.uleb128 0xd
 3246 0053 00       		.byte	0
 3247 0054 00       		.byte	0
 3248 0055 08       		.uleb128 0x8
 3249 0056 01       		.uleb128 0x1
 3250 0057 01       		.byte	0x1
 3251 0058 49       		.uleb128 0x49
 3252 0059 13       		.uleb128 0x13
 3253 005a 01       		.uleb128 0x1
 3254 005b 13       		.uleb128 0x13
 3255 005c 00       		.byte	0
 3256 005d 00       		.byte	0
 3257 005e 09       		.uleb128 0x9
 3258 005f 21       		.uleb128 0x21
 3259 0060 00       		.byte	0
 3260 0061 49       		.uleb128 0x49
 3261 0062 13       		.uleb128 0x13
 3262 0063 2F       		.uleb128 0x2f
 3263 0064 0B       		.uleb128 0xb
 3264 0065 00       		.byte	0
 3265 0066 00       		.byte	0
 3266 0067 0A       		.uleb128 0xa
 3267 0068 26       		.uleb128 0x26
 3268 0069 00       		.byte	0
 3269 006a 49       		.uleb128 0x49
 3270 006b 13       		.uleb128 0x13
 3271 006c 00       		.byte	0
 3272 006d 00       		.byte	0
 3273 006e 0B       		.uleb128 0xb
 3274 006f 35       		.uleb128 0x35
 3275 0070 00       		.byte	0
 3276 0071 49       		.uleb128 0x49
 3277 0072 13       		.uleb128 0x13
 3278 0073 00       		.byte	0
 3279 0074 00       		.byte	0
 3280 0075 0C       		.uleb128 0xc
 3281 0076 13       		.uleb128 0x13
 3282 0077 01       		.byte	0x1
 3283 0078 0B       		.uleb128 0xb
 3284 0079 0B       		.uleb128 0xb
 3285 007a 3A       		.uleb128 0x3a
ARM GAS  /tmp/ccSGpD6O.s 			page 59


 3286 007b 0B       		.uleb128 0xb
 3287 007c 3B       		.uleb128 0x3b
 3288 007d 05       		.uleb128 0x5
 3289 007e 01       		.uleb128 0x1
 3290 007f 13       		.uleb128 0x13
 3291 0080 00       		.byte	0
 3292 0081 00       		.byte	0
 3293 0082 0D       		.uleb128 0xd
 3294 0083 0D       		.uleb128 0xd
 3295 0084 00       		.byte	0
 3296 0085 03       		.uleb128 0x3
 3297 0086 0E       		.uleb128 0xe
 3298 0087 3A       		.uleb128 0x3a
 3299 0088 0B       		.uleb128 0xb
 3300 0089 3B       		.uleb128 0x3b
 3301 008a 05       		.uleb128 0x5
 3302 008b 49       		.uleb128 0x49
 3303 008c 13       		.uleb128 0x13
 3304 008d 38       		.uleb128 0x38
 3305 008e 0B       		.uleb128 0xb
 3306 008f 00       		.byte	0
 3307 0090 00       		.byte	0
 3308 0091 0E       		.uleb128 0xe
 3309 0092 0D       		.uleb128 0xd
 3310 0093 00       		.byte	0
 3311 0094 03       		.uleb128 0x3
 3312 0095 08       		.uleb128 0x8
 3313 0096 3A       		.uleb128 0x3a
 3314 0097 0B       		.uleb128 0xb
 3315 0098 3B       		.uleb128 0x3b
 3316 0099 05       		.uleb128 0x5
 3317 009a 49       		.uleb128 0x49
 3318 009b 13       		.uleb128 0x13
 3319 009c 38       		.uleb128 0x38
 3320 009d 0B       		.uleb128 0xb
 3321 009e 00       		.byte	0
 3322 009f 00       		.byte	0
 3323 00a0 0F       		.uleb128 0xf
 3324 00a1 16       		.uleb128 0x16
 3325 00a2 00       		.byte	0
 3326 00a3 03       		.uleb128 0x3
 3327 00a4 0E       		.uleb128 0xe
 3328 00a5 3A       		.uleb128 0x3a
 3329 00a6 0B       		.uleb128 0xb
 3330 00a7 3B       		.uleb128 0x3b
 3331 00a8 05       		.uleb128 0x5
 3332 00a9 49       		.uleb128 0x49
 3333 00aa 13       		.uleb128 0x13
 3334 00ab 00       		.byte	0
 3335 00ac 00       		.byte	0
 3336 00ad 10       		.uleb128 0x10
 3337 00ae 13       		.uleb128 0x13
 3338 00af 01       		.byte	0x1
 3339 00b0 0B       		.uleb128 0xb
 3340 00b1 0B       		.uleb128 0xb
 3341 00b2 3A       		.uleb128 0x3a
 3342 00b3 0B       		.uleb128 0xb
ARM GAS  /tmp/ccSGpD6O.s 			page 60


 3343 00b4 3B       		.uleb128 0x3b
 3344 00b5 0B       		.uleb128 0xb
 3345 00b6 01       		.uleb128 0x1
 3346 00b7 13       		.uleb128 0x13
 3347 00b8 00       		.byte	0
 3348 00b9 00       		.byte	0
 3349 00ba 11       		.uleb128 0x11
 3350 00bb 0D       		.uleb128 0xd
 3351 00bc 00       		.byte	0
 3352 00bd 03       		.uleb128 0x3
 3353 00be 0E       		.uleb128 0xe
 3354 00bf 3A       		.uleb128 0x3a
 3355 00c0 0B       		.uleb128 0xb
 3356 00c1 3B       		.uleb128 0x3b
 3357 00c2 0B       		.uleb128 0xb
 3358 00c3 49       		.uleb128 0x49
 3359 00c4 13       		.uleb128 0x13
 3360 00c5 38       		.uleb128 0x38
 3361 00c6 0B       		.uleb128 0xb
 3362 00c7 00       		.byte	0
 3363 00c8 00       		.byte	0
 3364 00c9 12       		.uleb128 0x12
 3365 00ca 0D       		.uleb128 0xd
 3366 00cb 00       		.byte	0
 3367 00cc 03       		.uleb128 0x3
 3368 00cd 0E       		.uleb128 0xe
 3369 00ce 3A       		.uleb128 0x3a
 3370 00cf 0B       		.uleb128 0xb
 3371 00d0 3B       		.uleb128 0x3b
 3372 00d1 0B       		.uleb128 0xb
 3373 00d2 49       		.uleb128 0x49
 3374 00d3 13       		.uleb128 0x13
 3375 00d4 0B       		.uleb128 0xb
 3376 00d5 0B       		.uleb128 0xb
 3377 00d6 0D       		.uleb128 0xd
 3378 00d7 0B       		.uleb128 0xb
 3379 00d8 0C       		.uleb128 0xc
 3380 00d9 0B       		.uleb128 0xb
 3381 00da 38       		.uleb128 0x38
 3382 00db 0B       		.uleb128 0xb
 3383 00dc 00       		.byte	0
 3384 00dd 00       		.byte	0
 3385 00de 13       		.uleb128 0x13
 3386 00df 2E       		.uleb128 0x2e
 3387 00e0 01       		.byte	0x1
 3388 00e1 03       		.uleb128 0x3
 3389 00e2 0E       		.uleb128 0xe
 3390 00e3 3A       		.uleb128 0x3a
 3391 00e4 0B       		.uleb128 0xb
 3392 00e5 3B       		.uleb128 0x3b
 3393 00e6 0B       		.uleb128 0xb
 3394 00e7 27       		.uleb128 0x27
 3395 00e8 19       		.uleb128 0x19
 3396 00e9 49       		.uleb128 0x49
 3397 00ea 13       		.uleb128 0x13
 3398 00eb 20       		.uleb128 0x20
 3399 00ec 0B       		.uleb128 0xb
ARM GAS  /tmp/ccSGpD6O.s 			page 61


 3400 00ed 01       		.uleb128 0x1
 3401 00ee 13       		.uleb128 0x13
 3402 00ef 00       		.byte	0
 3403 00f0 00       		.byte	0
 3404 00f1 14       		.uleb128 0x14
 3405 00f2 05       		.uleb128 0x5
 3406 00f3 00       		.byte	0
 3407 00f4 03       		.uleb128 0x3
 3408 00f5 0E       		.uleb128 0xe
 3409 00f6 3A       		.uleb128 0x3a
 3410 00f7 0B       		.uleb128 0xb
 3411 00f8 3B       		.uleb128 0x3b
 3412 00f9 0B       		.uleb128 0xb
 3413 00fa 49       		.uleb128 0x49
 3414 00fb 13       		.uleb128 0x13
 3415 00fc 00       		.byte	0
 3416 00fd 00       		.byte	0
 3417 00fe 15       		.uleb128 0x15
 3418 00ff 2E       		.uleb128 0x2e
 3419 0100 01       		.byte	0x1
 3420 0101 03       		.uleb128 0x3
 3421 0102 0E       		.uleb128 0xe
 3422 0103 3A       		.uleb128 0x3a
 3423 0104 0B       		.uleb128 0xb
 3424 0105 3B       		.uleb128 0x3b
 3425 0106 05       		.uleb128 0x5
 3426 0107 27       		.uleb128 0x27
 3427 0108 19       		.uleb128 0x19
 3428 0109 49       		.uleb128 0x49
 3429 010a 13       		.uleb128 0x13
 3430 010b 20       		.uleb128 0x20
 3431 010c 0B       		.uleb128 0xb
 3432 010d 01       		.uleb128 0x1
 3433 010e 13       		.uleb128 0x13
 3434 010f 00       		.byte	0
 3435 0110 00       		.byte	0
 3436 0111 16       		.uleb128 0x16
 3437 0112 05       		.uleb128 0x5
 3438 0113 00       		.byte	0
 3439 0114 03       		.uleb128 0x3
 3440 0115 0E       		.uleb128 0xe
 3441 0116 3A       		.uleb128 0x3a
 3442 0117 0B       		.uleb128 0xb
 3443 0118 3B       		.uleb128 0x3b
 3444 0119 05       		.uleb128 0x5
 3445 011a 49       		.uleb128 0x49
 3446 011b 13       		.uleb128 0x13
 3447 011c 00       		.byte	0
 3448 011d 00       		.byte	0
 3449 011e 17       		.uleb128 0x17
 3450 011f 34       		.uleb128 0x34
 3451 0120 00       		.byte	0
 3452 0121 03       		.uleb128 0x3
 3453 0122 0E       		.uleb128 0xe
 3454 0123 3A       		.uleb128 0x3a
 3455 0124 0B       		.uleb128 0xb
 3456 0125 3B       		.uleb128 0x3b
ARM GAS  /tmp/ccSGpD6O.s 			page 62


 3457 0126 05       		.uleb128 0x5
 3458 0127 49       		.uleb128 0x49
 3459 0128 13       		.uleb128 0x13
 3460 0129 00       		.byte	0
 3461 012a 00       		.byte	0
 3462 012b 18       		.uleb128 0x18
 3463 012c 2E       		.uleb128 0x2e
 3464 012d 01       		.byte	0x1
 3465 012e 03       		.uleb128 0x3
 3466 012f 0E       		.uleb128 0xe
 3467 0130 3A       		.uleb128 0x3a
 3468 0131 0B       		.uleb128 0xb
 3469 0132 3B       		.uleb128 0x3b
 3470 0133 05       		.uleb128 0x5
 3471 0134 27       		.uleb128 0x27
 3472 0135 19       		.uleb128 0x19
 3473 0136 20       		.uleb128 0x20
 3474 0137 0B       		.uleb128 0xb
 3475 0138 01       		.uleb128 0x1
 3476 0139 13       		.uleb128 0x13
 3477 013a 00       		.byte	0
 3478 013b 00       		.byte	0
 3479 013c 19       		.uleb128 0x19
 3480 013d 2E       		.uleb128 0x2e
 3481 013e 01       		.byte	0x1
 3482 013f 3F       		.uleb128 0x3f
 3483 0140 19       		.uleb128 0x19
 3484 0141 03       		.uleb128 0x3
 3485 0142 0E       		.uleb128 0xe
 3486 0143 3A       		.uleb128 0x3a
 3487 0144 0B       		.uleb128 0xb
 3488 0145 3B       		.uleb128 0x3b
 3489 0146 0B       		.uleb128 0xb
 3490 0147 27       		.uleb128 0x27
 3491 0148 19       		.uleb128 0x19
 3492 0149 11       		.uleb128 0x11
 3493 014a 01       		.uleb128 0x1
 3494 014b 12       		.uleb128 0x12
 3495 014c 06       		.uleb128 0x6
 3496 014d 40       		.uleb128 0x40
 3497 014e 18       		.uleb128 0x18
 3498 014f 9742     		.uleb128 0x2117
 3499 0151 19       		.uleb128 0x19
 3500 0152 01       		.uleb128 0x1
 3501 0153 13       		.uleb128 0x13
 3502 0154 00       		.byte	0
 3503 0155 00       		.byte	0
 3504 0156 1A       		.uleb128 0x1a
 3505 0157 898201   		.uleb128 0x4109
 3506 015a 01       		.byte	0x1
 3507 015b 11       		.uleb128 0x11
 3508 015c 01       		.uleb128 0x1
 3509 015d 31       		.uleb128 0x31
 3510 015e 13       		.uleb128 0x13
 3511 015f 01       		.uleb128 0x1
 3512 0160 13       		.uleb128 0x13
 3513 0161 00       		.byte	0
ARM GAS  /tmp/ccSGpD6O.s 			page 63


 3514 0162 00       		.byte	0
 3515 0163 1B       		.uleb128 0x1b
 3516 0164 8A8201   		.uleb128 0x410a
 3517 0167 00       		.byte	0
 3518 0168 02       		.uleb128 0x2
 3519 0169 18       		.uleb128 0x18
 3520 016a 9142     		.uleb128 0x2111
 3521 016c 18       		.uleb128 0x18
 3522 016d 00       		.byte	0
 3523 016e 00       		.byte	0
 3524 016f 1C       		.uleb128 0x1c
 3525 0170 898201   		.uleb128 0x4109
 3526 0173 01       		.byte	0x1
 3527 0174 11       		.uleb128 0x11
 3528 0175 01       		.uleb128 0x1
 3529 0176 31       		.uleb128 0x31
 3530 0177 13       		.uleb128 0x13
 3531 0178 00       		.byte	0
 3532 0179 00       		.byte	0
 3533 017a 1D       		.uleb128 0x1d
 3534 017b 2E       		.uleb128 0x2e
 3535 017c 01       		.byte	0x1
 3536 017d 3F       		.uleb128 0x3f
 3537 017e 19       		.uleb128 0x19
 3538 017f 03       		.uleb128 0x3
 3539 0180 0E       		.uleb128 0xe
 3540 0181 3A       		.uleb128 0x3a
 3541 0182 0B       		.uleb128 0xb
 3542 0183 3B       		.uleb128 0x3b
 3543 0184 0B       		.uleb128 0xb
 3544 0185 27       		.uleb128 0x27
 3545 0186 19       		.uleb128 0x19
 3546 0187 49       		.uleb128 0x49
 3547 0188 13       		.uleb128 0x13
 3548 0189 11       		.uleb128 0x11
 3549 018a 01       		.uleb128 0x1
 3550 018b 12       		.uleb128 0x12
 3551 018c 06       		.uleb128 0x6
 3552 018d 40       		.uleb128 0x40
 3553 018e 18       		.uleb128 0x18
 3554 018f 9742     		.uleb128 0x2117
 3555 0191 19       		.uleb128 0x19
 3556 0192 01       		.uleb128 0x1
 3557 0193 13       		.uleb128 0x13
 3558 0194 00       		.byte	0
 3559 0195 00       		.byte	0
 3560 0196 1E       		.uleb128 0x1e
 3561 0197 05       		.uleb128 0x5
 3562 0198 00       		.byte	0
 3563 0199 03       		.uleb128 0x3
 3564 019a 0E       		.uleb128 0xe
 3565 019b 3A       		.uleb128 0x3a
 3566 019c 0B       		.uleb128 0xb
 3567 019d 3B       		.uleb128 0x3b
 3568 019e 0B       		.uleb128 0xb
 3569 019f 49       		.uleb128 0x49
 3570 01a0 13       		.uleb128 0x13
ARM GAS  /tmp/ccSGpD6O.s 			page 64


 3571 01a1 02       		.uleb128 0x2
 3572 01a2 17       		.uleb128 0x17
 3573 01a3 00       		.byte	0
 3574 01a4 00       		.byte	0
 3575 01a5 1F       		.uleb128 0x1f
 3576 01a6 05       		.uleb128 0x5
 3577 01a7 00       		.byte	0
 3578 01a8 03       		.uleb128 0x3
 3579 01a9 0E       		.uleb128 0xe
 3580 01aa 3A       		.uleb128 0x3a
 3581 01ab 0B       		.uleb128 0xb
 3582 01ac 3B       		.uleb128 0x3b
 3583 01ad 0B       		.uleb128 0xb
 3584 01ae 49       		.uleb128 0x49
 3585 01af 13       		.uleb128 0x13
 3586 01b0 02       		.uleb128 0x2
 3587 01b1 18       		.uleb128 0x18
 3588 01b2 00       		.byte	0
 3589 01b3 00       		.byte	0
 3590 01b4 20       		.uleb128 0x20
 3591 01b5 34       		.uleb128 0x34
 3592 01b6 00       		.byte	0
 3593 01b7 03       		.uleb128 0x3
 3594 01b8 0E       		.uleb128 0xe
 3595 01b9 3A       		.uleb128 0x3a
 3596 01ba 0B       		.uleb128 0xb
 3597 01bb 3B       		.uleb128 0x3b
 3598 01bc 0B       		.uleb128 0xb
 3599 01bd 49       		.uleb128 0x49
 3600 01be 13       		.uleb128 0x13
 3601 01bf 02       		.uleb128 0x2
 3602 01c0 18       		.uleb128 0x18
 3603 01c1 00       		.byte	0
 3604 01c2 00       		.byte	0
 3605 01c3 21       		.uleb128 0x21
 3606 01c4 0F       		.uleb128 0xf
 3607 01c5 00       		.byte	0
 3608 01c6 0B       		.uleb128 0xb
 3609 01c7 0B       		.uleb128 0xb
 3610 01c8 49       		.uleb128 0x49
 3611 01c9 13       		.uleb128 0x13
 3612 01ca 00       		.byte	0
 3613 01cb 00       		.byte	0
 3614 01cc 22       		.uleb128 0x22
 3615 01cd 34       		.uleb128 0x34
 3616 01ce 00       		.byte	0
 3617 01cf 03       		.uleb128 0x3
 3618 01d0 0E       		.uleb128 0xe
 3619 01d1 3A       		.uleb128 0x3a
 3620 01d2 0B       		.uleb128 0xb
 3621 01d3 3B       		.uleb128 0x3b
 3622 01d4 0B       		.uleb128 0xb
 3623 01d5 49       		.uleb128 0x49
 3624 01d6 13       		.uleb128 0x13
 3625 01d7 02       		.uleb128 0x2
 3626 01d8 17       		.uleb128 0x17
 3627 01d9 00       		.byte	0
ARM GAS  /tmp/ccSGpD6O.s 			page 65


 3628 01da 00       		.byte	0
 3629 01db 23       		.uleb128 0x23
 3630 01dc 34       		.uleb128 0x34
 3631 01dd 00       		.byte	0
 3632 01de 03       		.uleb128 0x3
 3633 01df 08       		.uleb128 0x8
 3634 01e0 3A       		.uleb128 0x3a
 3635 01e1 0B       		.uleb128 0xb
 3636 01e2 3B       		.uleb128 0x3b
 3637 01e3 0B       		.uleb128 0xb
 3638 01e4 49       		.uleb128 0x49
 3639 01e5 13       		.uleb128 0x13
 3640 01e6 02       		.uleb128 0x2
 3641 01e7 17       		.uleb128 0x17
 3642 01e8 00       		.byte	0
 3643 01e9 00       		.byte	0
 3644 01ea 24       		.uleb128 0x24
 3645 01eb 1D       		.uleb128 0x1d
 3646 01ec 01       		.byte	0x1
 3647 01ed 31       		.uleb128 0x31
 3648 01ee 13       		.uleb128 0x13
 3649 01ef 52       		.uleb128 0x52
 3650 01f0 01       		.uleb128 0x1
 3651 01f1 55       		.uleb128 0x55
 3652 01f2 17       		.uleb128 0x17
 3653 01f3 58       		.uleb128 0x58
 3654 01f4 0B       		.uleb128 0xb
 3655 01f5 59       		.uleb128 0x59
 3656 01f6 0B       		.uleb128 0xb
 3657 01f7 01       		.uleb128 0x1
 3658 01f8 13       		.uleb128 0x13
 3659 01f9 00       		.byte	0
 3660 01fa 00       		.byte	0
 3661 01fb 25       		.uleb128 0x25
 3662 01fc 05       		.uleb128 0x5
 3663 01fd 00       		.byte	0
 3664 01fe 31       		.uleb128 0x31
 3665 01ff 13       		.uleb128 0x13
 3666 0200 02       		.uleb128 0x2
 3667 0201 17       		.uleb128 0x17
 3668 0202 00       		.byte	0
 3669 0203 00       		.byte	0
 3670 0204 26       		.uleb128 0x26
 3671 0205 0B       		.uleb128 0xb
 3672 0206 01       		.byte	0x1
 3673 0207 55       		.uleb128 0x55
 3674 0208 17       		.uleb128 0x17
 3675 0209 00       		.byte	0
 3676 020a 00       		.byte	0
 3677 020b 27       		.uleb128 0x27
 3678 020c 34       		.uleb128 0x34
 3679 020d 00       		.byte	0
 3680 020e 31       		.uleb128 0x31
 3681 020f 13       		.uleb128 0x13
 3682 0210 02       		.uleb128 0x2
 3683 0211 17       		.uleb128 0x17
 3684 0212 00       		.byte	0
ARM GAS  /tmp/ccSGpD6O.s 			page 66


 3685 0213 00       		.byte	0
 3686 0214 28       		.uleb128 0x28
 3687 0215 1D       		.uleb128 0x1d
 3688 0216 01       		.byte	0x1
 3689 0217 31       		.uleb128 0x31
 3690 0218 13       		.uleb128 0x13
 3691 0219 52       		.uleb128 0x52
 3692 021a 01       		.uleb128 0x1
 3693 021b 55       		.uleb128 0x55
 3694 021c 17       		.uleb128 0x17
 3695 021d 58       		.uleb128 0x58
 3696 021e 0B       		.uleb128 0xb
 3697 021f 59       		.uleb128 0x59
 3698 0220 05       		.uleb128 0x5
 3699 0221 01       		.uleb128 0x1
 3700 0222 13       		.uleb128 0x13
 3701 0223 00       		.byte	0
 3702 0224 00       		.byte	0
 3703 0225 29       		.uleb128 0x29
 3704 0226 1D       		.uleb128 0x1d
 3705 0227 01       		.byte	0x1
 3706 0228 31       		.uleb128 0x31
 3707 0229 13       		.uleb128 0x13
 3708 022a 52       		.uleb128 0x52
 3709 022b 01       		.uleb128 0x1
 3710 022c 55       		.uleb128 0x55
 3711 022d 17       		.uleb128 0x17
 3712 022e 58       		.uleb128 0x58
 3713 022f 0B       		.uleb128 0xb
 3714 0230 59       		.uleb128 0x59
 3715 0231 05       		.uleb128 0x5
 3716 0232 00       		.byte	0
 3717 0233 00       		.byte	0
 3718 0234 2A       		.uleb128 0x2a
 3719 0235 0B       		.uleb128 0xb
 3720 0236 01       		.byte	0x1
 3721 0237 11       		.uleb128 0x11
 3722 0238 01       		.uleb128 0x1
 3723 0239 12       		.uleb128 0x12
 3724 023a 06       		.uleb128 0x6
 3725 023b 01       		.uleb128 0x1
 3726 023c 13       		.uleb128 0x13
 3727 023d 00       		.byte	0
 3728 023e 00       		.byte	0
 3729 023f 2B       		.uleb128 0x2b
 3730 0240 898201   		.uleb128 0x4109
 3731 0243 00       		.byte	0
 3732 0244 11       		.uleb128 0x11
 3733 0245 01       		.uleb128 0x1
 3734 0246 31       		.uleb128 0x31
 3735 0247 13       		.uleb128 0x13
 3736 0248 00       		.byte	0
 3737 0249 00       		.byte	0
 3738 024a 2C       		.uleb128 0x2c
 3739 024b 0B       		.uleb128 0xb
 3740 024c 01       		.byte	0x1
 3741 024d 11       		.uleb128 0x11
ARM GAS  /tmp/ccSGpD6O.s 			page 67


 3742 024e 01       		.uleb128 0x1
 3743 024f 12       		.uleb128 0x12
 3744 0250 06       		.uleb128 0x6
 3745 0251 00       		.byte	0
 3746 0252 00       		.byte	0
 3747 0253 2D       		.uleb128 0x2d
 3748 0254 1D       		.uleb128 0x1d
 3749 0255 01       		.byte	0x1
 3750 0256 31       		.uleb128 0x31
 3751 0257 13       		.uleb128 0x13
 3752 0258 11       		.uleb128 0x11
 3753 0259 01       		.uleb128 0x1
 3754 025a 12       		.uleb128 0x12
 3755 025b 06       		.uleb128 0x6
 3756 025c 58       		.uleb128 0x58
 3757 025d 0B       		.uleb128 0xb
 3758 025e 59       		.uleb128 0x59
 3759 025f 0B       		.uleb128 0xb
 3760 0260 01       		.uleb128 0x1
 3761 0261 13       		.uleb128 0x13
 3762 0262 00       		.byte	0
 3763 0263 00       		.byte	0
 3764 0264 2E       		.uleb128 0x2e
 3765 0265 34       		.uleb128 0x34
 3766 0266 00       		.byte	0
 3767 0267 03       		.uleb128 0x3
 3768 0268 08       		.uleb128 0x8
 3769 0269 3A       		.uleb128 0x3a
 3770 026a 0B       		.uleb128 0xb
 3771 026b 3B       		.uleb128 0x3b
 3772 026c 05       		.uleb128 0x5
 3773 026d 49       		.uleb128 0x49
 3774 026e 13       		.uleb128 0x13
 3775 026f 00       		.byte	0
 3776 0270 00       		.byte	0
 3777 0271 2F       		.uleb128 0x2f
 3778 0272 21       		.uleb128 0x21
 3779 0273 00       		.byte	0
 3780 0274 00       		.byte	0
 3781 0275 00       		.byte	0
 3782 0276 30       		.uleb128 0x30
 3783 0277 34       		.uleb128 0x34
 3784 0278 00       		.byte	0
 3785 0279 03       		.uleb128 0x3
 3786 027a 0E       		.uleb128 0xe
 3787 027b 3A       		.uleb128 0x3a
 3788 027c 0B       		.uleb128 0xb
 3789 027d 3B       		.uleb128 0x3b
 3790 027e 0B       		.uleb128 0xb
 3791 027f 49       		.uleb128 0x49
 3792 0280 13       		.uleb128 0x13
 3793 0281 3F       		.uleb128 0x3f
 3794 0282 19       		.uleb128 0x19
 3795 0283 3C       		.uleb128 0x3c
 3796 0284 19       		.uleb128 0x19
 3797 0285 00       		.byte	0
 3798 0286 00       		.byte	0
ARM GAS  /tmp/ccSGpD6O.s 			page 68


 3799 0287 31       		.uleb128 0x31
 3800 0288 21       		.uleb128 0x21
 3801 0289 00       		.byte	0
 3802 028a 49       		.uleb128 0x49
 3803 028b 13       		.uleb128 0x13
 3804 028c 2F       		.uleb128 0x2f
 3805 028d 05       		.uleb128 0x5
 3806 028e 00       		.byte	0
 3807 028f 00       		.byte	0
 3808 0290 32       		.uleb128 0x32
 3809 0291 34       		.uleb128 0x34
 3810 0292 00       		.byte	0
 3811 0293 03       		.uleb128 0x3
 3812 0294 0E       		.uleb128 0xe
 3813 0295 3A       		.uleb128 0x3a
 3814 0296 0B       		.uleb128 0xb
 3815 0297 3B       		.uleb128 0x3b
 3816 0298 0B       		.uleb128 0xb
 3817 0299 49       		.uleb128 0x49
 3818 029a 13       		.uleb128 0x13
 3819 029b 3F       		.uleb128 0x3f
 3820 029c 19       		.uleb128 0x19
 3821 029d 02       		.uleb128 0x2
 3822 029e 18       		.uleb128 0x18
 3823 029f 00       		.byte	0
 3824 02a0 00       		.byte	0
 3825 02a1 33       		.uleb128 0x33
 3826 02a2 2E       		.uleb128 0x2e
 3827 02a3 01       		.byte	0x1
 3828 02a4 3F       		.uleb128 0x3f
 3829 02a5 19       		.uleb128 0x19
 3830 02a6 03       		.uleb128 0x3
 3831 02a7 0E       		.uleb128 0xe
 3832 02a8 27       		.uleb128 0x27
 3833 02a9 19       		.uleb128 0x19
 3834 02aa 49       		.uleb128 0x49
 3835 02ab 13       		.uleb128 0x13
 3836 02ac 34       		.uleb128 0x34
 3837 02ad 19       		.uleb128 0x19
 3838 02ae 3C       		.uleb128 0x3c
 3839 02af 19       		.uleb128 0x19
 3840 02b0 01       		.uleb128 0x1
 3841 02b1 13       		.uleb128 0x13
 3842 02b2 00       		.byte	0
 3843 02b3 00       		.byte	0
 3844 02b4 34       		.uleb128 0x34
 3845 02b5 05       		.uleb128 0x5
 3846 02b6 00       		.byte	0
 3847 02b7 49       		.uleb128 0x49
 3848 02b8 13       		.uleb128 0x13
 3849 02b9 00       		.byte	0
 3850 02ba 00       		.byte	0
 3851 02bb 35       		.uleb128 0x35
 3852 02bc 2E       		.uleb128 0x2e
 3853 02bd 01       		.byte	0x1
 3854 02be 3F       		.uleb128 0x3f
 3855 02bf 19       		.uleb128 0x19
ARM GAS  /tmp/ccSGpD6O.s 			page 69


 3856 02c0 03       		.uleb128 0x3
 3857 02c1 0E       		.uleb128 0xe
 3858 02c2 3A       		.uleb128 0x3a
 3859 02c3 0B       		.uleb128 0xb
 3860 02c4 3B       		.uleb128 0x3b
 3861 02c5 0B       		.uleb128 0xb
 3862 02c6 27       		.uleb128 0x27
 3863 02c7 19       		.uleb128 0x19
 3864 02c8 3C       		.uleb128 0x3c
 3865 02c9 19       		.uleb128 0x19
 3866 02ca 01       		.uleb128 0x1
 3867 02cb 13       		.uleb128 0x13
 3868 02cc 00       		.byte	0
 3869 02cd 00       		.byte	0
 3870 02ce 36       		.uleb128 0x36
 3871 02cf 2E       		.uleb128 0x2e
 3872 02d0 01       		.byte	0x1
 3873 02d1 3F       		.uleb128 0x3f
 3874 02d2 19       		.uleb128 0x19
 3875 02d3 03       		.uleb128 0x3
 3876 02d4 0E       		.uleb128 0xe
 3877 02d5 3A       		.uleb128 0x3a
 3878 02d6 0B       		.uleb128 0xb
 3879 02d7 3B       		.uleb128 0x3b
 3880 02d8 05       		.uleb128 0x5
 3881 02d9 27       		.uleb128 0x27
 3882 02da 19       		.uleb128 0x19
 3883 02db 49       		.uleb128 0x49
 3884 02dc 13       		.uleb128 0x13
 3885 02dd 3C       		.uleb128 0x3c
 3886 02de 19       		.uleb128 0x19
 3887 02df 01       		.uleb128 0x1
 3888 02e0 13       		.uleb128 0x13
 3889 02e1 00       		.byte	0
 3890 02e2 00       		.byte	0
 3891 02e3 37       		.uleb128 0x37
 3892 02e4 26       		.uleb128 0x26
 3893 02e5 00       		.byte	0
 3894 02e6 00       		.byte	0
 3895 02e7 00       		.byte	0
 3896 02e8 38       		.uleb128 0x38
 3897 02e9 2E       		.uleb128 0x2e
 3898 02ea 01       		.byte	0x1
 3899 02eb 3F       		.uleb128 0x3f
 3900 02ec 19       		.uleb128 0x19
 3901 02ed 03       		.uleb128 0x3
 3902 02ee 0E       		.uleb128 0xe
 3903 02ef 27       		.uleb128 0x27
 3904 02f0 19       		.uleb128 0x19
 3905 02f1 49       		.uleb128 0x49
 3906 02f2 13       		.uleb128 0x13
 3907 02f3 34       		.uleb128 0x34
 3908 02f4 19       		.uleb128 0x19
 3909 02f5 3C       		.uleb128 0x3c
 3910 02f6 19       		.uleb128 0x19
 3911 02f7 00       		.byte	0
 3912 02f8 00       		.byte	0
ARM GAS  /tmp/ccSGpD6O.s 			page 70


 3913 02f9 00       		.byte	0
 3914              		.section	.debug_loc,"",%progbits
 3915              	.Ldebug_loc0:
 3916              	.LLST0:
 3917 0000 00000000 		.4byte	.LVL2
 3918 0004 4E000000 		.4byte	.LVL3
 3919 0008 0100     		.2byte	0x1
 3920 000a 50       		.byte	0x50
 3921 000b 4E000000 		.4byte	.LVL3
 3922 000f 60000000 		.4byte	.LFE98
 3923 0013 0400     		.2byte	0x4
 3924 0015 F3       		.byte	0xf3
 3925 0016 01       		.uleb128 0x1
 3926 0017 50       		.byte	0x50
 3927 0018 9F       		.byte	0x9f
 3928 0019 00000000 		.4byte	0
 3929 001d 00000000 		.4byte	0
 3930              	.LLST1:
 3931 0021 00000000 		.4byte	.LVL4
 3932 0025 52000000 		.4byte	.LVL10
 3933 0029 0100     		.2byte	0x1
 3934 002b 50       		.byte	0x50
 3935 002c 52000000 		.4byte	.LVL10
 3936 0030 54000000 		.4byte	.LVL11
 3937 0034 0400     		.2byte	0x4
 3938 0036 F3       		.byte	0xf3
 3939 0037 01       		.uleb128 0x1
 3940 0038 50       		.byte	0x50
 3941 0039 9F       		.byte	0x9f
 3942 003a 54000000 		.4byte	.LVL11
 3943 003e 56000000 		.4byte	.LVL12
 3944 0042 0100     		.2byte	0x1
 3945 0044 50       		.byte	0x50
 3946 0045 56000000 		.4byte	.LVL12
 3947 0049 7C000000 		.4byte	.LFE99
 3948 004d 0400     		.2byte	0x4
 3949 004f F3       		.byte	0xf3
 3950 0050 01       		.uleb128 0x1
 3951 0051 50       		.byte	0x50
 3952 0052 9F       		.byte	0x9f
 3953 0053 00000000 		.4byte	0
 3954 0057 00000000 		.4byte	0
 3955              	.LLST2:
 3956 005b 00000000 		.4byte	.LVL4
 3957 005f 04000000 		.4byte	.LVL5
 3958 0063 0100     		.2byte	0x1
 3959 0065 52       		.byte	0x52
 3960 0066 04000000 		.4byte	.LVL5
 3961 006a 7C000000 		.4byte	.LFE99
 3962 006e 0400     		.2byte	0x4
 3963 0070 F3       		.byte	0xf3
 3964 0071 01       		.uleb128 0x1
 3965 0072 52       		.byte	0x52
 3966 0073 9F       		.byte	0x9f
 3967 0074 00000000 		.4byte	0
 3968 0078 00000000 		.4byte	0
 3969              	.LLST3:
ARM GAS  /tmp/ccSGpD6O.s 			page 71


 3970 007c 00000000 		.4byte	.LVL4
 3971 0080 0C000000 		.4byte	.LVL7
 3972 0084 0100     		.2byte	0x1
 3973 0086 53       		.byte	0x53
 3974 0087 0C000000 		.4byte	.LVL7
 3975 008b 7C000000 		.4byte	.LFE99
 3976 008f 0400     		.2byte	0x4
 3977 0091 F3       		.byte	0xf3
 3978 0092 01       		.uleb128 0x1
 3979 0093 53       		.byte	0x53
 3980 0094 9F       		.byte	0x9f
 3981 0095 00000000 		.4byte	0
 3982 0099 00000000 		.4byte	0
 3983              	.LLST4:
 3984 009d 00000000 		.4byte	.LVL4
 3985 00a1 04000000 		.4byte	.LVL5
 3986 00a5 0200     		.2byte	0x2
 3987 00a7 91       		.byte	0x91
 3988 00a8 00       		.sleb128 0
 3989 00a9 04000000 		.4byte	.LVL5
 3990 00ad 08000000 		.4byte	.LVL6
 3991 00b1 0200     		.2byte	0x2
 3992 00b3 72       		.byte	0x72
 3993 00b4 00       		.sleb128 0
 3994 00b5 08000000 		.4byte	.LVL6
 3995 00b9 40000000 		.4byte	.LVL9
 3996 00bd 0200     		.2byte	0x2
 3997 00bf 7D       		.byte	0x7d
 3998 00c0 10       		.sleb128 16
 3999 00c1 00000000 		.4byte	0
 4000 00c5 00000000 		.4byte	0
 4001              	.LLST5:
 4002 00c9 00000000 		.4byte	.LVL4
 4003 00cd 04000000 		.4byte	.LVL5
 4004 00d1 0200     		.2byte	0x2
 4005 00d3 91       		.byte	0x91
 4006 00d4 04       		.sleb128 4
 4007 00d5 04000000 		.4byte	.LVL5
 4008 00d9 08000000 		.4byte	.LVL6
 4009 00dd 0200     		.2byte	0x2
 4010 00df 72       		.byte	0x72
 4011 00e0 04       		.sleb128 4
 4012 00e1 08000000 		.4byte	.LVL6
 4013 00e5 40000000 		.4byte	.LVL9
 4014 00e9 0200     		.2byte	0x2
 4015 00eb 7D       		.byte	0x7d
 4016 00ec 14       		.sleb128 20
 4017 00ed 00000000 		.4byte	0
 4018 00f1 00000000 		.4byte	0
 4019              	.LLST6:
 4020 00f5 00000000 		.4byte	.LVL13
 4021 00f9 4C000000 		.4byte	.LVL18
 4022 00fd 0100     		.2byte	0x1
 4023 00ff 50       		.byte	0x50
 4024 0100 4C000000 		.4byte	.LVL18
 4025 0104 70000000 		.4byte	.LFE101
 4026 0108 0400     		.2byte	0x4
ARM GAS  /tmp/ccSGpD6O.s 			page 72


 4027 010a F3       		.byte	0xf3
 4028 010b 01       		.uleb128 0x1
 4029 010c 50       		.byte	0x50
 4030 010d 9F       		.byte	0x9f
 4031 010e 00000000 		.4byte	0
 4032 0112 00000000 		.4byte	0
 4033              	.LLST7:
 4034 0116 00000000 		.4byte	.LVL13
 4035 011a 4E000000 		.4byte	.LVL19
 4036 011e 0100     		.2byte	0x1
 4037 0120 51       		.byte	0x51
 4038 0121 4E000000 		.4byte	.LVL19
 4039 0125 70000000 		.4byte	.LFE101
 4040 0129 0400     		.2byte	0x4
 4041 012b F3       		.byte	0xf3
 4042 012c 01       		.uleb128 0x1
 4043 012d 51       		.byte	0x51
 4044 012e 9F       		.byte	0x9f
 4045 012f 00000000 		.4byte	0
 4046 0133 00000000 		.4byte	0
 4047              	.LLST8:
 4048 0137 00000000 		.4byte	.LVL13
 4049 013b 22000000 		.4byte	.LVL14
 4050 013f 0100     		.2byte	0x1
 4051 0141 52       		.byte	0x52
 4052 0142 22000000 		.4byte	.LVL14
 4053 0146 26000000 		.4byte	.LVL15
 4054 014a 0400     		.2byte	0x4
 4055 014c F3       		.byte	0xf3
 4056 014d 01       		.uleb128 0x1
 4057 014e 52       		.byte	0x52
 4058 014f 9F       		.byte	0x9f
 4059 0150 26000000 		.4byte	.LVL15
 4060 0154 2A000000 		.4byte	.LVL16
 4061 0158 0100     		.2byte	0x1
 4062 015a 53       		.byte	0x53
 4063 015b 2A000000 		.4byte	.LVL16
 4064 015f 3C000000 		.4byte	.LVL17
 4065 0163 0100     		.2byte	0x1
 4066 0165 52       		.byte	0x52
 4067 0166 00000000 		.4byte	0
 4068 016a 00000000 		.4byte	0
 4069              	.LLST9:
 4070 016e 00000000 		.4byte	.LVL20
 4071 0172 42000000 		.4byte	.LVL28
 4072 0176 0100     		.2byte	0x1
 4073 0178 50       		.byte	0x50
 4074 0179 42000000 		.4byte	.LVL28
 4075 017d DA010000 		.4byte	.LVL65
 4076 0181 0400     		.2byte	0x4
 4077 0183 F3       		.byte	0xf3
 4078 0184 01       		.uleb128 0x1
 4079 0185 50       		.byte	0x50
 4080 0186 9F       		.byte	0x9f
 4081 0187 DA010000 		.4byte	.LVL65
 4082 018b DE010000 		.4byte	.LVL66
 4083 018f 0100     		.2byte	0x1
ARM GAS  /tmp/ccSGpD6O.s 			page 73


 4084 0191 50       		.byte	0x50
 4085 0192 DE010000 		.4byte	.LVL66
 4086 0196 BC030000 		.4byte	.LFE100
 4087 019a 0400     		.2byte	0x4
 4088 019c F3       		.byte	0xf3
 4089 019d 01       		.uleb128 0x1
 4090 019e 50       		.byte	0x50
 4091 019f 9F       		.byte	0x9f
 4092 01a0 00000000 		.4byte	0
 4093 01a4 00000000 		.4byte	0
 4094              	.LLST10:
 4095 01a8 00000000 		.4byte	.LVL20
 4096 01ac 46000000 		.4byte	.LVL29
 4097 01b0 0100     		.2byte	0x1
 4098 01b2 51       		.byte	0x51
 4099 01b3 46000000 		.4byte	.LVL29
 4100 01b7 DA010000 		.4byte	.LVL65
 4101 01bb 0200     		.2byte	0x2
 4102 01bd 91       		.byte	0x91
 4103 01be 4C       		.sleb128 -52
 4104 01bf DA010000 		.4byte	.LVL65
 4105 01c3 F0010000 		.4byte	.LVL69
 4106 01c7 0100     		.2byte	0x1
 4107 01c9 51       		.byte	0x51
 4108 01ca F0010000 		.4byte	.LVL69
 4109 01ce BC030000 		.4byte	.LFE100
 4110 01d2 0200     		.2byte	0x2
 4111 01d4 91       		.byte	0x91
 4112 01d5 4C       		.sleb128 -52
 4113 01d6 00000000 		.4byte	0
 4114 01da 00000000 		.4byte	0
 4115              	.LLST11:
 4116 01de 00000000 		.4byte	.LVL20
 4117 01e2 22000000 		.4byte	.LVL23
 4118 01e6 0100     		.2byte	0x1
 4119 01e8 52       		.byte	0x52
 4120 01e9 22000000 		.4byte	.LVL23
 4121 01ed 24000000 		.4byte	.LVL24
 4122 01f1 0400     		.2byte	0x4
 4123 01f3 F3       		.byte	0xf3
 4124 01f4 01       		.uleb128 0x1
 4125 01f5 52       		.byte	0x52
 4126 01f6 9F       		.byte	0x9f
 4127 01f7 24000000 		.4byte	.LVL24
 4128 01fb 26000000 		.4byte	.LVL25
 4129 01ff 0100     		.2byte	0x1
 4130 0201 52       		.byte	0x52
 4131 0202 26000000 		.4byte	.LVL25
 4132 0206 BC030000 		.4byte	.LFE100
 4133 020a 0400     		.2byte	0x4
 4134 020c F3       		.byte	0xf3
 4135 020d 01       		.uleb128 0x1
 4136 020e 52       		.byte	0x52
 4137 020f 9F       		.byte	0x9f
 4138 0210 00000000 		.4byte	0
 4139 0214 00000000 		.4byte	0
 4140              	.LLST12:
ARM GAS  /tmp/ccSGpD6O.s 			page 74


 4141 0218 00000000 		.4byte	.LVL20
 4142 021c 18000000 		.4byte	.LVL21
 4143 0220 0100     		.2byte	0x1
 4144 0222 53       		.byte	0x53
 4145 0223 18000000 		.4byte	.LVL21
 4146 0227 BC030000 		.4byte	.LFE100
 4147 022b 0400     		.2byte	0x4
 4148 022d F3       		.byte	0xf3
 4149 022e 01       		.uleb128 0x1
 4150 022f 53       		.byte	0x53
 4151 0230 9F       		.byte	0x9f
 4152 0231 00000000 		.4byte	0
 4153 0235 00000000 		.4byte	0
 4154              	.LLST13:
 4155 0239 00000000 		.4byte	.LVL20
 4156 023d 18000000 		.4byte	.LVL21
 4157 0241 0200     		.2byte	0x2
 4158 0243 91       		.byte	0x91
 4159 0244 00       		.sleb128 0
 4160 0245 18000000 		.4byte	.LVL21
 4161 0249 1A000000 		.4byte	.LVL22
 4162 024d 0200     		.2byte	0x2
 4163 024f 73       		.byte	0x73
 4164 0250 00       		.sleb128 0
 4165 0251 1A000000 		.4byte	.LVL22
 4166 0255 BC030000 		.4byte	.LFE100
 4167 0259 0200     		.2byte	0x2
 4168 025b 91       		.byte	0x91
 4169 025c 00       		.sleb128 0
 4170 025d 00000000 		.4byte	0
 4171 0261 00000000 		.4byte	0
 4172              	.LLST14:
 4173 0265 30000000 		.4byte	.LVL26
 4174 0269 36000000 		.4byte	.LVL27
 4175 026d 0A00     		.2byte	0xa
 4176 026f 74       		.byte	0x74
 4177 0270 00       		.sleb128 0
 4178 0271 94       		.byte	0x94
 4179 0272 01       		.byte	0x1
 4180 0273 08       		.byte	0x8
 4181 0274 FF       		.byte	0xff
 4182 0275 1A       		.byte	0x1a
 4183 0276 72       		.byte	0x72
 4184 0277 00       		.sleb128 0
 4185 0278 22       		.byte	0x22
 4186 0279 36000000 		.4byte	.LVL27
 4187 027d 42000000 		.4byte	.LVL28
 4188 0281 0A00     		.2byte	0xa
 4189 0283 70       		.byte	0x70
 4190 0284 00       		.sleb128 0
 4191 0285 94       		.byte	0x94
 4192 0286 01       		.byte	0x1
 4193 0287 08       		.byte	0x8
 4194 0288 FF       		.byte	0xff
 4195 0289 1A       		.byte	0x1a
 4196 028a 72       		.byte	0x72
 4197 028b 00       		.sleb128 0
ARM GAS  /tmp/ccSGpD6O.s 			page 75


 4198 028c 22       		.byte	0x22
 4199 028d 42000000 		.4byte	.LVL28
 4200 0291 58000000 		.4byte	.LVL30
 4201 0295 0A00     		.2byte	0xa
 4202 0297 74       		.byte	0x74
 4203 0298 00       		.sleb128 0
 4204 0299 94       		.byte	0x94
 4205 029a 01       		.byte	0x1
 4206 029b 08       		.byte	0x8
 4207 029c FF       		.byte	0xff
 4208 029d 1A       		.byte	0x1a
 4209 029e 72       		.byte	0x72
 4210 029f 00       		.sleb128 0
 4211 02a0 22       		.byte	0x22
 4212 02a1 58000000 		.4byte	.LVL30
 4213 02a5 5C000000 		.4byte	.LVL31
 4214 02a9 0A00     		.2byte	0xa
 4215 02ab 75       		.byte	0x75
 4216 02ac 00       		.sleb128 0
 4217 02ad 94       		.byte	0x94
 4218 02ae 01       		.byte	0x1
 4219 02af 08       		.byte	0x8
 4220 02b0 FF       		.byte	0xff
 4221 02b1 1A       		.byte	0x1a
 4222 02b2 72       		.byte	0x72
 4223 02b3 00       		.sleb128 0
 4224 02b4 22       		.byte	0x22
 4225 02b5 DA010000 		.4byte	.LVL65
 4226 02b9 DE010000 		.4byte	.LVL66
 4227 02bd 0A00     		.2byte	0xa
 4228 02bf 70       		.byte	0x70
 4229 02c0 00       		.sleb128 0
 4230 02c1 94       		.byte	0x94
 4231 02c2 01       		.byte	0x1
 4232 02c3 08       		.byte	0x8
 4233 02c4 FF       		.byte	0xff
 4234 02c5 1A       		.byte	0x1a
 4235 02c6 72       		.byte	0x72
 4236 02c7 00       		.sleb128 0
 4237 02c8 22       		.byte	0x22
 4238 02c9 DE010000 		.4byte	.LVL66
 4239 02cd E2010000 		.4byte	.LVL67
 4240 02d1 0A00     		.2byte	0xa
 4241 02d3 74       		.byte	0x74
 4242 02d4 00       		.sleb128 0
 4243 02d5 94       		.byte	0x94
 4244 02d6 01       		.byte	0x1
 4245 02d7 08       		.byte	0x8
 4246 02d8 FF       		.byte	0xff
 4247 02d9 1A       		.byte	0x1a
 4248 02da 72       		.byte	0x72
 4249 02db 00       		.sleb128 0
 4250 02dc 22       		.byte	0x22
 4251 02dd E2010000 		.4byte	.LVL67
 4252 02e1 54030000 		.4byte	.LVL93
 4253 02e5 0100     		.2byte	0x1
 4254 02e7 59       		.byte	0x59
ARM GAS  /tmp/ccSGpD6O.s 			page 76


 4255 02e8 98030000 		.4byte	.LVL95
 4256 02ec AE030000 		.4byte	.LVL97
 4257 02f0 0100     		.2byte	0x1
 4258 02f2 59       		.byte	0x59
 4259 02f3 00000000 		.4byte	0
 4260 02f7 00000000 		.4byte	0
 4261              	.LLST15:
 4262 02fb 36000000 		.4byte	.LVL27
 4263 02ff 5C000000 		.4byte	.LVL31
 4264 0303 0200     		.2byte	0x2
 4265 0305 30       		.byte	0x30
 4266 0306 9F       		.byte	0x9f
 4267 0307 5C000000 		.4byte	.LVL31
 4268 030b 02010000 		.4byte	.LVL48
 4269 030f 0100     		.2byte	0x1
 4270 0311 5A       		.byte	0x5a
 4271 0312 02010000 		.4byte	.LVL48
 4272 0316 04010000 		.4byte	.LVL49
 4273 031a 0100     		.2byte	0x1
 4274 031c 55       		.byte	0x55
 4275 031d 04010000 		.4byte	.LVL49
 4276 0321 10010000 		.4byte	.LVL50
 4277 0325 0100     		.2byte	0x1
 4278 0327 5A       		.byte	0x5a
 4279 0328 10010000 		.4byte	.LVL50
 4280 032c 30010000 		.4byte	.LVL51
 4281 0330 0200     		.2byte	0x2
 4282 0332 30       		.byte	0x30
 4283 0333 9F       		.byte	0x9f
 4284 0334 30010000 		.4byte	.LVL51
 4285 0338 D4010000 		.4byte	.LVL64
 4286 033c 0100     		.2byte	0x1
 4287 033e 5A       		.byte	0x5a
 4288 033f D4010000 		.4byte	.LVL64
 4289 0343 DA010000 		.4byte	.LVL65
 4290 0347 0100     		.2byte	0x1
 4291 0349 57       		.byte	0x57
 4292 034a E4010000 		.4byte	.LVL68
 4293 034e F8010000 		.4byte	.LVL70
 4294 0352 0200     		.2byte	0x2
 4295 0354 30       		.byte	0x30
 4296 0355 9F       		.byte	0x9f
 4297 0356 F8010000 		.4byte	.LVL70
 4298 035a 92020000 		.4byte	.LVL80
 4299 035e 0100     		.2byte	0x1
 4300 0360 5A       		.byte	0x5a
 4301 0361 92020000 		.4byte	.LVL80
 4302 0365 98020000 		.4byte	.LVL81
 4303 0369 0100     		.2byte	0x1
 4304 036b 54       		.byte	0x54
 4305 036c 98020000 		.4byte	.LVL81
 4306 0370 A0020000 		.4byte	.LVL82
 4307 0374 0100     		.2byte	0x1
 4308 0376 5A       		.byte	0x5a
 4309 0377 A0020000 		.4byte	.LVL82
 4310 037b B0020000 		.4byte	.LVL83
 4311 037f 0200     		.2byte	0x2
ARM GAS  /tmp/ccSGpD6O.s 			page 77


 4312 0381 30       		.byte	0x30
 4313 0382 9F       		.byte	0x9f
 4314 0383 B0020000 		.4byte	.LVL83
 4315 0387 44030000 		.4byte	.LVL90
 4316 038b 0100     		.2byte	0x1
 4317 038d 56       		.byte	0x56
 4318 038e 44030000 		.4byte	.LVL90
 4319 0392 46030000 		.4byte	.LVL91
 4320 0396 0300     		.2byte	0x3
 4321 0398 76       		.byte	0x76
 4322 0399 7F       		.sleb128 -1
 4323 039a 9F       		.byte	0x9f
 4324 039b 46030000 		.4byte	.LVL91
 4325 039f 4C030000 		.4byte	.LVL92
 4326 03a3 0100     		.2byte	0x1
 4327 03a5 56       		.byte	0x56
 4328 03a6 54030000 		.4byte	.LVL93
 4329 03aa A4030000 		.4byte	.LVL96
 4330 03ae 0100     		.2byte	0x1
 4331 03b0 5A       		.byte	0x5a
 4332 03b1 A4030000 		.4byte	.LVL96
 4333 03b5 AE030000 		.4byte	.LVL97
 4334 03b9 0100     		.2byte	0x1
 4335 03bb 56       		.byte	0x56
 4336 03bc 00000000 		.4byte	0
 4337 03c0 00000000 		.4byte	0
 4338              	.LLST16:
 4339 03c4 B6000000 		.4byte	.LVL37
 4340 03c8 C0000000 		.4byte	.LVL38
 4341 03cc 0100     		.2byte	0x1
 4342 03ce 58       		.byte	0x58
 4343 03cf C0000000 		.4byte	.LVL38
 4344 03d3 C6000000 		.4byte	.LVL39
 4345 03d7 0100     		.2byte	0x1
 4346 03d9 57       		.byte	0x57
 4347 03da C6000000 		.4byte	.LVL39
 4348 03de CE000000 		.4byte	.LVL40
 4349 03e2 0100     		.2byte	0x1
 4350 03e4 50       		.byte	0x50
 4351 03e5 CE000000 		.4byte	.LVL40
 4352 03e9 D8000000 		.4byte	.LVL42
 4353 03ed 0100     		.2byte	0x1
 4354 03ef 57       		.byte	0x57
 4355 03f0 D8000000 		.4byte	.LVL42
 4356 03f4 E8000000 		.4byte	.LVL44
 4357 03f8 0100     		.2byte	0x1
 4358 03fa 58       		.byte	0x58
 4359 03fb E8000000 		.4byte	.LVL44
 4360 03ff EE000000 		.4byte	.LVL46
 4361 0403 0100     		.2byte	0x1
 4362 0405 57       		.byte	0x57
 4363 0406 EE000000 		.4byte	.LVL46
 4364 040a 10010000 		.4byte	.LVL50
 4365 040e 0100     		.2byte	0x1
 4366 0410 58       		.byte	0x58
 4367 0411 00000000 		.4byte	0
 4368 0415 00000000 		.4byte	0
ARM GAS  /tmp/ccSGpD6O.s 			page 78


 4369              	.LLST17:
 4370 0419 CE000000 		.4byte	.LVL40
 4371 041d D2000000 		.4byte	.LVL41
 4372 0421 0500     		.2byte	0x5
 4373 0423 72       		.byte	0x72
 4374 0424 00       		.sleb128 0
 4375 0425 73       		.byte	0x73
 4376 0426 00       		.sleb128 0
 4377 0427 22       		.byte	0x22
 4378 0428 E8000000 		.4byte	.LVL44
 4379 042c EC000000 		.4byte	.LVL45
 4380 0430 0500     		.2byte	0x5
 4381 0432 72       		.byte	0x72
 4382 0433 00       		.sleb128 0
 4383 0434 73       		.byte	0x73
 4384 0435 00       		.sleb128 0
 4385 0436 22       		.byte	0x22
 4386 0437 EC000000 		.4byte	.LVL45
 4387 043b F5000000 		.4byte	.LVL47-1
 4388 043f 0100     		.2byte	0x1
 4389 0441 50       		.byte	0x50
 4390 0442 00000000 		.4byte	0
 4391 0446 00000000 		.4byte	0
 4392              	.LLST18:
 4393 044a 80000000 		.4byte	.LVL32
 4394 044e C0000000 		.4byte	.LVL38
 4395 0452 0100     		.2byte	0x1
 4396 0454 58       		.byte	0x58
 4397 0455 C0000000 		.4byte	.LVL38
 4398 0459 C6000000 		.4byte	.LVL39
 4399 045d 0100     		.2byte	0x1
 4400 045f 57       		.byte	0x57
 4401 0460 C6000000 		.4byte	.LVL39
 4402 0464 CE000000 		.4byte	.LVL40
 4403 0468 0100     		.2byte	0x1
 4404 046a 50       		.byte	0x50
 4405 046b CE000000 		.4byte	.LVL40
 4406 046f D8000000 		.4byte	.LVL42
 4407 0473 0100     		.2byte	0x1
 4408 0475 57       		.byte	0x57
 4409 0476 D8000000 		.4byte	.LVL42
 4410 047a E8000000 		.4byte	.LVL44
 4411 047e 0100     		.2byte	0x1
 4412 0480 58       		.byte	0x58
 4413 0481 E8000000 		.4byte	.LVL44
 4414 0485 EE000000 		.4byte	.LVL46
 4415 0489 0100     		.2byte	0x1
 4416 048b 57       		.byte	0x57
 4417 048c EE000000 		.4byte	.LVL46
 4418 0490 10010000 		.4byte	.LVL50
 4419 0494 0100     		.2byte	0x1
 4420 0496 58       		.byte	0x58
 4421 0497 54030000 		.4byte	.LVL93
 4422 049b 8C030000 		.4byte	.LVL94
 4423 049f 0100     		.2byte	0x1
 4424 04a1 58       		.byte	0x58
 4425 04a2 00000000 		.4byte	0
ARM GAS  /tmp/ccSGpD6O.s 			page 79


 4426 04a6 00000000 		.4byte	0
 4427              	.LLST20:
 4428 04aa 98000000 		.4byte	.LVL34
 4429 04ae A6000000 		.4byte	.LVL36
 4430 04b2 0100     		.2byte	0x1
 4431 04b4 58       		.byte	0x58
 4432 04b5 54030000 		.4byte	.LVL93
 4433 04b9 8C030000 		.4byte	.LVL94
 4434 04bd 0100     		.2byte	0x1
 4435 04bf 58       		.byte	0x58
 4436 04c0 00000000 		.4byte	0
 4437 04c4 00000000 		.4byte	0
 4438              	.LLST21:
 4439 04c8 98000000 		.4byte	.LVL34
 4440 04cc 9A000000 		.4byte	.LVL35
 4441 04d0 0100     		.2byte	0x1
 4442 04d2 52       		.byte	0x52
 4443 04d3 00000000 		.4byte	0
 4444 04d7 00000000 		.4byte	0
 4445              	.LLST22:
 4446 04db 86000000 		.4byte	.LVL33
 4447 04df 98000000 		.4byte	.LVL34
 4448 04e3 0100     		.2byte	0x1
 4449 04e5 58       		.byte	0x58
 4450 04e6 00000000 		.4byte	0
 4451 04ea 00000000 		.4byte	0
 4452              	.LLST23:
 4453 04ee 8A010000 		.4byte	.LVL57
 4454 04f2 DA010000 		.4byte	.LVL65
 4455 04f6 0300     		.2byte	0x3
 4456 04f8 91       		.byte	0x91
 4457 04f9 BC7F     		.sleb128 -68
 4458 04fb 00000000 		.4byte	0
 4459 04ff 00000000 		.4byte	0
 4460              	.LLST24:
 4461 0503 A0010000 		.4byte	.LVL58
 4462 0507 A4010000 		.4byte	.LVL59
 4463 050b 0500     		.2byte	0x5
 4464 050d 72       		.byte	0x72
 4465 050e 00       		.sleb128 0
 4466 050f 73       		.byte	0x73
 4467 0510 00       		.sleb128 0
 4468 0511 22       		.byte	0x22
 4469 0512 B8010000 		.4byte	.LVL61
 4470 0516 C0010000 		.4byte	.LVL62
 4471 051a 0500     		.2byte	0x5
 4472 051c 72       		.byte	0x72
 4473 051d 00       		.sleb128 0
 4474 051e 73       		.byte	0x73
 4475 051f 00       		.sleb128 0
 4476 0520 22       		.byte	0x22
 4477 0521 C0010000 		.4byte	.LVL62
 4478 0525 C5010000 		.4byte	.LVL63-1
 4479 0529 0100     		.2byte	0x1
 4480 052b 50       		.byte	0x50
 4481 052c 00000000 		.4byte	0
 4482 0530 00000000 		.4byte	0
ARM GAS  /tmp/ccSGpD6O.s 			page 80


 4483              	.LLST25:
 4484 0534 56010000 		.4byte	.LVL52
 4485 0538 DA010000 		.4byte	.LVL65
 4486 053c 0300     		.2byte	0x3
 4487 053e 91       		.byte	0x91
 4488 053f BC7F     		.sleb128 -68
 4489 0541 8C030000 		.4byte	.LVL94
 4490 0545 98030000 		.4byte	.LVL95
 4491 0549 0300     		.2byte	0x3
 4492 054b 91       		.byte	0x91
 4493 054c BC7F     		.sleb128 -68
 4494 054e 00000000 		.4byte	0
 4495 0552 00000000 		.4byte	0
 4496              	.LLST27:
 4497 0556 6E010000 		.4byte	.LVL54
 4498 055a 7A010000 		.4byte	.LVL56
 4499 055e 0300     		.2byte	0x3
 4500 0560 91       		.byte	0x91
 4501 0561 BC7F     		.sleb128 -68
 4502 0563 8C030000 		.4byte	.LVL94
 4503 0567 98030000 		.4byte	.LVL95
 4504 056b 0300     		.2byte	0x3
 4505 056d 91       		.byte	0x91
 4506 056e BC7F     		.sleb128 -68
 4507 0570 00000000 		.4byte	0
 4508 0574 00000000 		.4byte	0
 4509              	.LLST28:
 4510 0578 6E010000 		.4byte	.LVL54
 4511 057c 70010000 		.4byte	.LVL55
 4512 0580 0100     		.2byte	0x1
 4513 0582 52       		.byte	0x52
 4514 0583 00000000 		.4byte	0
 4515 0587 00000000 		.4byte	0
 4516              	.LLST29:
 4517 058b 5C010000 		.4byte	.LVL53
 4518 058f 6E010000 		.4byte	.LVL54
 4519 0593 0300     		.2byte	0x3
 4520 0595 91       		.byte	0x91
 4521 0596 BC7F     		.sleb128 -68
 4522 0598 00000000 		.4byte	0
 4523 059c 00000000 		.4byte	0
 4524              	.LLST30:
 4525 05a0 02020000 		.4byte	.LVL71
 4526 05a4 26020000 		.4byte	.LVL72
 4527 05a8 0100     		.2byte	0x1
 4528 05aa 58       		.byte	0x58
 4529 05ab 26020000 		.4byte	.LVL72
 4530 05af 48020000 		.4byte	.LVL73
 4531 05b3 0100     		.2byte	0x1
 4532 05b5 55       		.byte	0x55
 4533 05b6 48020000 		.4byte	.LVL73
 4534 05ba 5C020000 		.4byte	.LVL74
 4535 05be 0100     		.2byte	0x1
 4536 05c0 51       		.byte	0x51
 4537 05c1 5C020000 		.4byte	.LVL74
 4538 05c5 A0020000 		.4byte	.LVL82
 4539 05c9 0100     		.2byte	0x1
ARM GAS  /tmp/ccSGpD6O.s 			page 81


 4540 05cb 58       		.byte	0x58
 4541 05cc 98030000 		.4byte	.LVL95
 4542 05d0 A4030000 		.4byte	.LVL96
 4543 05d4 0100     		.2byte	0x1
 4544 05d6 58       		.byte	0x58
 4545 05d7 00000000 		.4byte	0
 4546 05db 00000000 		.4byte	0
 4547              	.LLST31:
 4548 05df 60020000 		.4byte	.LVL75
 4549 05e3 A0020000 		.4byte	.LVL82
 4550 05e7 0100     		.2byte	0x1
 4551 05e9 58       		.byte	0x58
 4552 05ea 98030000 		.4byte	.LVL95
 4553 05ee A4030000 		.4byte	.LVL96
 4554 05f2 0100     		.2byte	0x1
 4555 05f4 58       		.byte	0x58
 4556 05f5 00000000 		.4byte	0
 4557 05f9 00000000 		.4byte	0
 4558              	.LLST33:
 4559 05fd 78020000 		.4byte	.LVL77
 4560 0601 86020000 		.4byte	.LVL79
 4561 0605 0100     		.2byte	0x1
 4562 0607 58       		.byte	0x58
 4563 0608 98030000 		.4byte	.LVL95
 4564 060c A4030000 		.4byte	.LVL96
 4565 0610 0100     		.2byte	0x1
 4566 0612 58       		.byte	0x58
 4567 0613 00000000 		.4byte	0
 4568 0617 00000000 		.4byte	0
 4569              	.LLST34:
 4570 061b 78020000 		.4byte	.LVL77
 4571 061f 7A020000 		.4byte	.LVL78
 4572 0623 0100     		.2byte	0x1
 4573 0625 52       		.byte	0x52
 4574 0626 00000000 		.4byte	0
 4575 062a 00000000 		.4byte	0
 4576              	.LLST35:
 4577 062e 66020000 		.4byte	.LVL76
 4578 0632 78020000 		.4byte	.LVL77
 4579 0636 0100     		.2byte	0x1
 4580 0638 58       		.byte	0x58
 4581 0639 00000000 		.4byte	0
 4582 063d 00000000 		.4byte	0
 4583              	.LLST36:
 4584 0641 BA020000 		.4byte	.LVL84
 4585 0645 4C030000 		.4byte	.LVL92
 4586 0649 0300     		.2byte	0x3
 4587 064b 91       		.byte	0x91
 4588 064c BC7F     		.sleb128 -68
 4589 064e A4030000 		.4byte	.LVL96
 4590 0652 AE030000 		.4byte	.LVL97
 4591 0656 0300     		.2byte	0x3
 4592 0658 91       		.byte	0x91
 4593 0659 BC7F     		.sleb128 -68
 4594 065b 00000000 		.4byte	0
 4595 065f 00000000 		.4byte	0
 4596              	.LLST37:
ARM GAS  /tmp/ccSGpD6O.s 			page 82


 4597 0663 1A030000 		.4byte	.LVL85
 4598 0667 4C030000 		.4byte	.LVL92
 4599 066b 0300     		.2byte	0x3
 4600 066d 91       		.byte	0x91
 4601 066e BC7F     		.sleb128 -68
 4602 0670 A4030000 		.4byte	.LVL96
 4603 0674 AE030000 		.4byte	.LVL97
 4604 0678 0300     		.2byte	0x3
 4605 067a 91       		.byte	0x91
 4606 067b BC7F     		.sleb128 -68
 4607 067d 00000000 		.4byte	0
 4608 0681 00000000 		.4byte	0
 4609              	.LLST39:
 4610 0685 30030000 		.4byte	.LVL87
 4611 0689 3E030000 		.4byte	.LVL89
 4612 068d 0300     		.2byte	0x3
 4613 068f 91       		.byte	0x91
 4614 0690 BC7F     		.sleb128 -68
 4615 0692 A4030000 		.4byte	.LVL96
 4616 0696 AE030000 		.4byte	.LVL97
 4617 069a 0300     		.2byte	0x3
 4618 069c 91       		.byte	0x91
 4619 069d BC7F     		.sleb128 -68
 4620 069f 00000000 		.4byte	0
 4621 06a3 00000000 		.4byte	0
 4622              	.LLST40:
 4623 06a7 30030000 		.4byte	.LVL87
 4624 06ab 32030000 		.4byte	.LVL88
 4625 06af 0100     		.2byte	0x1
 4626 06b1 52       		.byte	0x52
 4627 06b2 00000000 		.4byte	0
 4628 06b6 00000000 		.4byte	0
 4629              	.LLST41:
 4630 06ba 1E030000 		.4byte	.LVL86
 4631 06be 30030000 		.4byte	.LVL87
 4632 06c2 0300     		.2byte	0x3
 4633 06c4 91       		.byte	0x91
 4634 06c5 BC7F     		.sleb128 -68
 4635 06c7 00000000 		.4byte	0
 4636 06cb 00000000 		.4byte	0
 4637              	.LLST42:
 4638 06cf 00000000 		.4byte	.LVL98
 4639 06d3 04000000 		.4byte	.LVL99
 4640 06d7 0100     		.2byte	0x1
 4641 06d9 50       		.byte	0x50
 4642 06da 04000000 		.4byte	.LVL99
 4643 06de 2C000000 		.4byte	.LFE102
 4644 06e2 0400     		.2byte	0x4
 4645 06e4 F3       		.byte	0xf3
 4646 06e5 01       		.uleb128 0x1
 4647 06e6 50       		.byte	0x50
 4648 06e7 9F       		.byte	0x9f
 4649 06e8 00000000 		.4byte	0
 4650 06ec 00000000 		.4byte	0
 4651              	.LLST43:
 4652 06f0 00000000 		.4byte	.LVL98
 4653 06f4 06000000 		.4byte	.LVL100
ARM GAS  /tmp/ccSGpD6O.s 			page 83


 4654 06f8 0100     		.2byte	0x1
 4655 06fa 51       		.byte	0x51
 4656 06fb 06000000 		.4byte	.LVL100
 4657 06ff 0B000000 		.4byte	.LVL101-1
 4658 0703 0100     		.2byte	0x1
 4659 0705 50       		.byte	0x50
 4660 0706 0B000000 		.4byte	.LVL101-1
 4661 070a 2C000000 		.4byte	.LFE102
 4662 070e 0400     		.2byte	0x4
 4663 0710 F3       		.byte	0xf3
 4664 0711 01       		.uleb128 0x1
 4665 0712 51       		.byte	0x51
 4666 0713 9F       		.byte	0x9f
 4667 0714 00000000 		.4byte	0
 4668 0718 00000000 		.4byte	0
 4669              	.LLST44:
 4670 071c 06000000 		.4byte	.LVL102
 4671 0720 0C000000 		.4byte	.LVL104
 4672 0724 0100     		.2byte	0x1
 4673 0726 52       		.byte	0x52
 4674 0727 0C000000 		.4byte	.LVL104
 4675 072b 82010000 		.4byte	.LVL121
 4676 072f 0100     		.2byte	0x1
 4677 0731 54       		.byte	0x54
 4678 0732 00000000 		.4byte	0
 4679 0736 00000000 		.4byte	0
 4680              	.LLST45:
 4681 073a 08000000 		.4byte	.LVL103
 4682 073e 12000000 		.4byte	.LVL105
 4683 0742 0100     		.2byte	0x1
 4684 0744 53       		.byte	0x53
 4685 0745 00000000 		.4byte	0
 4686 0749 00000000 		.4byte	0
 4687              	.LLST46:
 4688 074d 18000000 		.4byte	.LVL106
 4689 0751 60000000 		.4byte	.LVL109
 4690 0755 0100     		.2byte	0x1
 4691 0757 55       		.byte	0x55
 4692 0758 00000000 		.4byte	0
 4693 075c 00000000 		.4byte	0
 4694              	.LLST47:
 4695 0760 70000000 		.4byte	.LVL110
 4696 0764 7C010000 		.4byte	.LVL119
 4697 0768 0100     		.2byte	0x1
 4698 076a 56       		.byte	0x56
 4699 076b 7C010000 		.4byte	.LVL119
 4700 076f 82010000 		.4byte	.LVL120
 4701 0773 0100     		.2byte	0x1
 4702 0775 57       		.byte	0x57
 4703 0776 00000000 		.4byte	0
 4704 077a 00000000 		.4byte	0
 4705              	.LLST48:
 4706 077e 7E000000 		.4byte	.LVL111
 4707 0782 0C010000 		.4byte	.LVL114
 4708 0786 0200     		.2byte	0x2
 4709 0788 30       		.byte	0x30
 4710 0789 9F       		.byte	0x9f
ARM GAS  /tmp/ccSGpD6O.s 			page 84


 4711 078a 00000000 		.4byte	0
 4712 078e 00000000 		.4byte	0
 4713              		.section	.debug_aranges,"",%progbits
 4714 0000 4C000000 		.4byte	0x4c
 4715 0004 0200     		.2byte	0x2
 4716 0006 00000000 		.4byte	.Ldebug_info0
 4717 000a 04       		.byte	0x4
 4718 000b 00       		.byte	0
 4719 000c 0000     		.2byte	0
 4720 000e 0000     		.2byte	0
 4721 0010 00000000 		.4byte	.LFB97
 4722 0014 60000000 		.4byte	.LFE97-.LFB97
 4723 0018 00000000 		.4byte	.LFB98
 4724 001c 60000000 		.4byte	.LFE98-.LFB98
 4725 0020 00000000 		.4byte	.LFB99
 4726 0024 7C000000 		.4byte	.LFE99-.LFB99
 4727 0028 00000000 		.4byte	.LFB101
 4728 002c 70000000 		.4byte	.LFE101-.LFB101
 4729 0030 00000000 		.4byte	.LFB100
 4730 0034 BC030000 		.4byte	.LFE100-.LFB100
 4731 0038 00000000 		.4byte	.LFB102
 4732 003c 2C000000 		.4byte	.LFE102-.LFB102
 4733 0040 00000000 		.4byte	.LFB103
 4734 0044 B8010000 		.4byte	.LFE103-.LFB103
 4735 0048 00000000 		.4byte	0
 4736 004c 00000000 		.4byte	0
 4737              		.section	.debug_ranges,"",%progbits
 4738              	.Ldebug_ranges0:
 4739 0000 48000000 		.4byte	.LBB53
 4740 0004 5C000000 		.4byte	.LBE53
 4741 0008 B6000000 		.4byte	.LBB73
 4742 000c FA000000 		.4byte	.LBE73
 4743 0010 00000000 		.4byte	0
 4744 0014 00000000 		.4byte	0
 4745 0018 5C000000 		.4byte	.LBB56
 4746 001c A6000000 		.4byte	.LBE56
 4747 0020 54030000 		.4byte	.LBB137
 4748 0024 8C030000 		.4byte	.LBE137
 4749 0028 00000000 		.4byte	0
 4750 002c 00000000 		.4byte	0
 4751 0030 5C000000 		.4byte	.LBB58
 4752 0034 74000000 		.4byte	.LBE58
 4753 0038 80000000 		.4byte	.LBB68
 4754 003c 86000000 		.4byte	.LBE68
 4755 0040 00000000 		.4byte	0
 4756 0044 00000000 		.4byte	0
 4757 0048 74000000 		.4byte	.LBB61
 4758 004c 7A000000 		.4byte	.LBE61
 4759 0050 98000000 		.4byte	.LBB70
 4760 0054 A6000000 		.4byte	.LBE70
 4761 0058 54030000 		.4byte	.LBB71
 4762 005c 8C030000 		.4byte	.LBE71
 4763 0060 00000000 		.4byte	0
 4764 0064 00000000 		.4byte	0
 4765 0068 7A000000 		.4byte	.LBB65
 4766 006c 80000000 		.4byte	.LBE65
 4767 0070 86000000 		.4byte	.LBB69
ARM GAS  /tmp/ccSGpD6O.s 			page 85


 4768 0074 98000000 		.4byte	.LBE69
 4769 0078 00000000 		.4byte	0
 4770 007c 00000000 		.4byte	0
 4771 0080 1C010000 		.4byte	.LBB74
 4772 0084 30010000 		.4byte	.LBE74
 4773 0088 8A010000 		.4byte	.LBB94
 4774 008c CC010000 		.4byte	.LBE94
 4775 0090 00000000 		.4byte	0
 4776 0094 00000000 		.4byte	0
 4777 0098 30010000 		.4byte	.LBB77
 4778 009c 7A010000 		.4byte	.LBE77
 4779 00a0 8C030000 		.4byte	.LBB138
 4780 00a4 98030000 		.4byte	.LBE138
 4781 00a8 00000000 		.4byte	0
 4782 00ac 00000000 		.4byte	0
 4783 00b0 30010000 		.4byte	.LBB79
 4784 00b4 46010000 		.4byte	.LBE79
 4785 00b8 56010000 		.4byte	.LBB89
 4786 00bc 5C010000 		.4byte	.LBE89
 4787 00c0 00000000 		.4byte	0
 4788 00c4 00000000 		.4byte	0
 4789 00c8 46010000 		.4byte	.LBB82
 4790 00cc 50010000 		.4byte	.LBE82
 4791 00d0 6E010000 		.4byte	.LBB91
 4792 00d4 7A010000 		.4byte	.LBE91
 4793 00d8 8C030000 		.4byte	.LBB92
 4794 00dc 98030000 		.4byte	.LBE92
 4795 00e0 00000000 		.4byte	0
 4796 00e4 00000000 		.4byte	0
 4797 00e8 50010000 		.4byte	.LBB86
 4798 00ec 56010000 		.4byte	.LBE86
 4799 00f0 5C010000 		.4byte	.LBB90
 4800 00f4 6E010000 		.4byte	.LBE90
 4801 00f8 00000000 		.4byte	0
 4802 00fc 00000000 		.4byte	0
 4803 0100 F2010000 		.4byte	.LBB95
 4804 0104 F8010000 		.4byte	.LBE95
 4805 0108 02020000 		.4byte	.LBB98
 4806 010c 4E020000 		.4byte	.LBE98
 4807 0110 00000000 		.4byte	0
 4808 0114 00000000 		.4byte	0
 4809 0118 4E020000 		.4byte	.LBB99
 4810 011c 86020000 		.4byte	.LBE99
 4811 0120 98030000 		.4byte	.LBB139
 4812 0124 A4030000 		.4byte	.LBE139
 4813 0128 00000000 		.4byte	0
 4814 012c 00000000 		.4byte	0
 4815 0130 4E020000 		.4byte	.LBB101
 4816 0134 54020000 		.4byte	.LBE101
 4817 0138 60020000 		.4byte	.LBB111
 4818 013c 66020000 		.4byte	.LBE111
 4819 0140 00000000 		.4byte	0
 4820 0144 00000000 		.4byte	0
 4821 0148 54020000 		.4byte	.LBB104
 4822 014c 5A020000 		.4byte	.LBE104
 4823 0150 78020000 		.4byte	.LBB113
 4824 0154 86020000 		.4byte	.LBE113
ARM GAS  /tmp/ccSGpD6O.s 			page 86


 4825 0158 98030000 		.4byte	.LBB114
 4826 015c A4030000 		.4byte	.LBE114
 4827 0160 00000000 		.4byte	0
 4828 0164 00000000 		.4byte	0
 4829 0168 5A020000 		.4byte	.LBB108
 4830 016c 60020000 		.4byte	.LBE108
 4831 0170 66020000 		.4byte	.LBB112
 4832 0174 78020000 		.4byte	.LBE112
 4833 0178 00000000 		.4byte	0
 4834 017c 00000000 		.4byte	0
 4835 0180 A8020000 		.4byte	.LBB116
 4836 0184 B0020000 		.4byte	.LBE116
 4837 0188 BA020000 		.4byte	.LBB119
 4838 018c 08030000 		.4byte	.LBE119
 4839 0190 00000000 		.4byte	0
 4840 0194 00000000 		.4byte	0
 4841 0198 08030000 		.4byte	.LBB120
 4842 019c 3E030000 		.4byte	.LBE120
 4843 01a0 A4030000 		.4byte	.LBB140
 4844 01a4 AE030000 		.4byte	.LBE140
 4845 01a8 00000000 		.4byte	0
 4846 01ac 00000000 		.4byte	0
 4847 01b0 08030000 		.4byte	.LBB122
 4848 01b4 0E030000 		.4byte	.LBE122
 4849 01b8 1A030000 		.4byte	.LBB132
 4850 01bc 1E030000 		.4byte	.LBE132
 4851 01c0 00000000 		.4byte	0
 4852 01c4 00000000 		.4byte	0
 4853 01c8 0E030000 		.4byte	.LBB125
 4854 01cc 14030000 		.4byte	.LBE125
 4855 01d0 30030000 		.4byte	.LBB134
 4856 01d4 3E030000 		.4byte	.LBE134
 4857 01d8 A4030000 		.4byte	.LBB135
 4858 01dc AE030000 		.4byte	.LBE135
 4859 01e0 00000000 		.4byte	0
 4860 01e4 00000000 		.4byte	0
 4861 01e8 14030000 		.4byte	.LBB129
 4862 01ec 1A030000 		.4byte	.LBE129
 4863 01f0 1E030000 		.4byte	.LBB133
 4864 01f4 30030000 		.4byte	.LBE133
 4865 01f8 00000000 		.4byte	0
 4866 01fc 00000000 		.4byte	0
 4867 0200 00000000 		.4byte	.LFB97
 4868 0204 60000000 		.4byte	.LFE97
 4869 0208 00000000 		.4byte	.LFB98
 4870 020c 60000000 		.4byte	.LFE98
 4871 0210 00000000 		.4byte	.LFB99
 4872 0214 7C000000 		.4byte	.LFE99
 4873 0218 00000000 		.4byte	.LFB101
 4874 021c 70000000 		.4byte	.LFE101
 4875 0220 00000000 		.4byte	.LFB100
 4876 0224 BC030000 		.4byte	.LFE100
 4877 0228 00000000 		.4byte	.LFB102
 4878 022c 2C000000 		.4byte	.LFE102
 4879 0230 00000000 		.4byte	.LFB103
 4880 0234 B8010000 		.4byte	.LFE103
 4881 0238 00000000 		.4byte	0
ARM GAS  /tmp/ccSGpD6O.s 			page 87


 4882 023c 00000000 		.4byte	0
 4883              		.section	.debug_line,"",%progbits
 4884              	.Ldebug_line0:
 4885 0000 11050000 		.section	.debug_str,"MS",%progbits,1
 4885      0200AA02 
 4885      00000201 
 4885      FB0E0D00 
 4885      01010101 
 4886              	.LASF60:
 4887 0000 53697A65 		.ascii	"Size\000"
 4887      00
 4888              	.LASF62:
 4889 0005 44697265 		.ascii	"Direction\000"
 4889      6374696F 
 4889      6E00
 4890              	.LASF30:
 4891 000f 4550494E 		.ascii	"EPINUSE\000"
 4891      55534500 
 4892              	.LASF79:
 4893 0017 53657475 		.ascii	"SetupPackage\000"
 4893      70506163 
 4893      6B616765 
 4893      00
 4894              	.LASF104:
 4895 0024 456E6470 		.ascii	"Endpoint_Write_Stream_LE\000"
 4895      6F696E74 
 4895      5F577269 
 4895      74655F53 
 4895      74726561 
 4896              	.LASF50:
 4897 003d 636F7265 		.ascii	"corenum\000"
 4897      6E756D00 
 4898              	.LASF67:
 4899 0045 70446174 		.ascii	"pData\000"
 4899      6100
 4900              	.LASF2:
 4901 004b 73686F72 		.ascii	"short int\000"
 4901      7420696E 
 4901      7400
 4902              	.LASF99:
 4903 0055 48414C5F 		.ascii	"HAL_SetDeviceAddress\000"
 4903      53657444 
 4903      65766963 
 4903      65416464 
 4903      72657373 
 4904              	.LASF17:
 4905 006a 73697A65 		.ascii	"sizetype\000"
 4905      74797065 
 4905      00
 4906              	.LASF61:
 4907 0073 4E756D62 		.ascii	"Number\000"
 4907      657200
 4908              	.LASF89:
 4909 007a 656E6470 		.ascii	"endpointselected\000"
 4909      6F696E74 
 4909      73656C65 
 4909      63746564 
ARM GAS  /tmp/ccSGpD6O.s 			page 88


 4909      00
 4910              	.LASF8:
 4911 008b 5F5F7569 		.ascii	"__uint32_t\000"
 4911      6E743332 
 4911      5F7400
 4912              	.LASF93:
 4913 0096 456E6470 		.ascii	"EndpointMaxPacketSize\000"
 4913      6F696E74 
 4913      4D617850 
 4913      61636B65 
 4913      7453697A 
 4914              	.LASF37:
 4915 00ac 4550544F 		.ascii	"EPTOGGLE\000"
 4915      47474C45 
 4915      00
 4916              	.LASF81:
 4917 00b5 7573625F 		.ascii	"usb_data_buffer\000"
 4917      64617461 
 4917      5F627566 
 4917      66657200 
 4918              	.LASF38:
 4919 00c5 4C50435F 		.ascii	"LPC_USB_Type\000"
 4919      5553425F 
 4919      54797065 
 4919      00
 4920              	.LASF4:
 4921 00d2 5F5F7569 		.ascii	"__uint16_t\000"
 4921      6E743136 
 4921      5F7400
 4922              	.LASF105:
 4923 00dd 6D656D63 		.ascii	"memcpy\000"
 4923      707900
 4924              	.LASF59:
 4925 00e4 456E6470 		.ascii	"Endpoint_ConfigureEndpoint\000"
 4925      6F696E74 
 4925      5F436F6E 
 4925      66696775 
 4925      7265456E 
 4926              	.LASF19:
 4927 00ff 44455649 		.ascii	"DEVICE_STATE_Unattached\000"
 4927      43455F53 
 4927      54415445 
 4927      5F556E61 
 4927      74746163 
 4928              	.LASF34:
 4929 0117 494E5453 		.ascii	"INTSETSTAT\000"
 4929      45545354 
 4929      415400
 4930              	.LASF47:
 4931 0122 5553425F 		.ascii	"USB_CMD_STAT\000"
 4931      434D445F 
 4931      53544154 
 4931      00
 4932              	.LASF13:
 4933 012f 75696E74 		.ascii	"uint8_t\000"
 4933      385F7400 
 4934              	.LASF54:
ARM GAS  /tmp/ccSGpD6O.s 			page 89


 4935 0137 50687945 		.ascii	"PhyEP\000"
 4935      5000
 4936              	.LASF82:
 4937 013d 7573625F 		.ascii	"usb_data_buffer_IN\000"
 4937      64617461 
 4937      5F627566 
 4937      6665725F 
 4937      494E00
 4938              	.LASF48:
 4939 0150 456E6470 		.ascii	"Endpoint_GetEndpointDirection\000"
 4939      6F696E74 
 4939      5F476574 
 4939      456E6470 
 4939      6F696E74 
 4940              	.LASF86:
 4941 016e 7573625F 		.ascii	"usb_data_buffer_index\000"
 4941      64617461 
 4941      5F627566 
 4941      6665725F 
 4941      696E6465 
 4942              	.LASF100:
 4943 0184 474E5520 		.ascii	"GNU C 4.8.4 20140526 (release) [ARM/embedded-4_8-br"
 4943      4320342E 
 4943      382E3420 
 4943      32303134 
 4943      30353236 
 4944 01b7 616E6368 		.ascii	"anch revision 211358] -mcpu=cortex-m0 -mno-thumb-in"
 4944      20726576 
 4944      6973696F 
 4944      6E203231 
 4944      31333538 
 4945 01ea 74657277 		.ascii	"terwork -mthumb -ggdb -O1 -fomit-frame-pointer -ffu"
 4945      6F726B20 
 4945      2D6D7468 
 4945      756D6220 
 4945      2D676764 
 4946 021d 6E637469 		.ascii	"nction-sections -fdata-sections -fno-common\000"
 4946      6F6E2D73 
 4946      65637469 
 4946      6F6E7320 
 4946      2D666461 
 4947              	.LASF74:
 4948 0249 456E6470 		.ascii	"Endpoint_GetSetupPackage\000"
 4948      6F696E74 
 4948      5F476574 
 4948      53657475 
 4948      70506163 
 4949              	.LASF10:
 4950 0262 6C6F6E67 		.ascii	"long long int\000"
 4950      206C6F6E 
 4950      6720696E 
 4950      7400
 4951              	.LASF98:
 4952 0270 6D656D73 		.ascii	"memset\000"
 4952      657400
 4953              	.LASF78:
 4954 0277 44657643 		.ascii	"DevCmdStat\000"
ARM GAS  /tmp/ccSGpD6O.s 			page 90


 4954      6D645374 
 4954      617400
 4955              	.LASF95:
 4956 0282 73686F72 		.ascii	"shortpacket\000"
 4956      74706163 
 4956      6B657400 
 4957              	.LASF7:
 4958 028e 6C6F6E67 		.ascii	"long int\000"
 4958      20696E74 
 4958      00
 4959              	.LASF75:
 4960 0297 5553425F 		.ascii	"USB_IRQHandler\000"
 4960      49525148 
 4960      616E646C 
 4960      657200
 4961              	.LASF39:
 4962 02a6 42756666 		.ascii	"BufferAddrOffset\000"
 4962      65724164 
 4962      64724F66 
 4962      66736574 
 4962      00
 4963              	.LASF83:
 4964 02b7 7573625F 		.ascii	"usb_data_buffer_OUT\000"
 4964      64617461 
 4964      5F627566 
 4964      6665725F 
 4964      4F555400 
 4965              	.LASF46:
 4966 02cb 41637469 		.ascii	"Active\000"
 4966      766500
 4967              	.LASF3:
 4968 02d2 5F5F7569 		.ascii	"__uint8_t\000"
 4968      6E74385F 
 4968      7400
 4969              	.LASF35:
 4970 02dc 494E5452 		.ascii	"INTROUTING\000"
 4970      4F555449 
 4970      4E4700
 4971              	.LASF88:
 4972 02e7 7573625F 		.ascii	"usb_data_buffer_OUT_index\000"
 4972      64617461 
 4972      5F627566 
 4972      6665725F 
 4972      4F55545F 
 4973              	.LASF57:
 4974 0301 456E6470 		.ascii	"Endpoint_IsSETUPReceived\000"
 4974      6F696E74 
 4974      5F497353 
 4974      45545550 
 4974      52656365 
 4975              	.LASF65:
 4976 031a 44636444 		.ascii	"DcdDataTransfer\000"
 4976      61746154 
 4976      72616E73 
 4976      66657200 
 4977              	.LASF68:
 4978 032a 6C656E67 		.ascii	"length\000"
ARM GAS  /tmp/ccSGpD6O.s 			page 91


 4978      746800
 4979              	.LASF73:
 4980 0331 64756D6D 		.ascii	"dummypackets\000"
 4980      79706163 
 4980      6B657473 
 4980      00
 4981              	.LASF1:
 4982 033e 756E7369 		.ascii	"unsigned char\000"
 4982      676E6564 
 4982      20636861 
 4982      7200
 4983              	.LASF76:
 4984 034c 496E7453 		.ascii	"IntStat\000"
 4984      74617400 
 4985              	.LASF72:
 4986 0354 746F7461 		.ascii	"totalpackets\000"
 4986      6C706163 
 4986      6B657473 
 4986      00
 4987              	.LASF25:
 4988 0361 44455643 		.ascii	"DEVCMDSTAT\000"
 4988      4D445354 
 4988      415400
 4989              	.LASF80:
 4990 036c 5553425F 		.ascii	"USB_DeviceState\000"
 4990      44657669 
 4990      63655374 
 4990      61746500 
 4991              	.LASF49:
 4992 037c 456E6470 		.ascii	"Endpoint_IsOUTReceived\000"
 4992      6F696E74 
 4992      5F49734F 
 4992      55545265 
 4992      63656976 
 4993              	.LASF0:
 4994 0393 7369676E 		.ascii	"signed char\000"
 4994      65642063 
 4994      68617200 
 4995              	.LASF11:
 4996 039f 6C6F6E67 		.ascii	"long long unsigned int\000"
 4996      206C6F6E 
 4996      6720756E 
 4996      7369676E 
 4996      65642069 
 4997              	.LASF16:
 4998 03b6 75696E74 		.ascii	"uint32_t\000"
 4998      33325F74 
 4998      00
 4999              	.LASF29:
 5000 03bf 4550534B 		.ascii	"EPSKIP\000"
 5000      495000
 5001              	.LASF12:
 5002 03c6 756E7369 		.ascii	"unsigned int\000"
 5002      676E6564 
 5002      20696E74 
 5002      00
 5003              	.LASF14:
ARM GAS  /tmp/ccSGpD6O.s 			page 92


 5004 03d3 75696E74 		.ascii	"uint16_t\000"
 5004      31365F74 
 5004      00
 5005              	.LASF26:
 5006 03dc 494E464F 		.ascii	"INFO\000"
 5006      00
 5007              	.LASF69:
 5008 03e1 456E6470 		.ascii	"Endpoint_Streaming\000"
 5008      6F696E74 
 5008      5F537472 
 5008      65616D69 
 5008      6E6700
 5009              	.LASF77:
 5010 03f4 496E7445 		.ascii	"IntEn\000"
 5010      6E00
 5011              	.LASF42:
 5012 03fa 52617465 		.ascii	"RateFeedback_Toogle\000"
 5012      46656564 
 5012      6261636B 
 5012      5F546F6F 
 5012      676C6500 
 5013              	.LASF55:
 5014 040e 456E6470 		.ascii	"Endpoint_ClearIN\000"
 5014      6F696E74 
 5014      5F436C65 
 5014      6172494E 
 5014      00
 5015              	.LASF5:
 5016 041f 73686F72 		.ascii	"short unsigned int\000"
 5016      7420756E 
 5016      7369676E 
 5016      65642069 
 5016      6E7400
 5017              	.LASF66:
 5018 0432 45504E75 		.ascii	"EPNum\000"
 5018      6D00
 5019              	.LASF63:
 5020 0438 42616E6B 		.ascii	"Banks\000"
 5020      7300
 5021              	.LASF18:
 5022 043e 63686172 		.ascii	"char\000"
 5022      00
 5023              	.LASF94:
 5024 0443 52656D61 		.ascii	"Remain_length\000"
 5024      696E5F6C 
 5024      656E6774 
 5024      6800
 5025              	.LASF32:
 5026 0451 494E5453 		.ascii	"INTSTAT\000"
 5026      54415400 
 5027              	.LASF15:
 5028 0459 696E7433 		.ascii	"int32_t\000"
 5028      325F7400 
 5029              	.LASF84:
 5030 0461 7573625F 		.ascii	"usb_data_buffer_size\000"
 5030      64617461 
 5030      5F627566 
ARM GAS  /tmp/ccSGpD6O.s 			page 93


 5030      6665725F 
 5030      73697A65 
 5031              	.LASF64:
 5032 0476 48414C5F 		.ascii	"HAL_Reset\000"
 5032      52657365 
 5032      7400
 5033              	.LASF51:
 5034 0480 5F426F6F 		.ascii	"_Bool\000"
 5034      6C00
 5035              	.LASF56:
 5036 0486 456E6470 		.ascii	"Endpoint_ClearOUT\000"
 5036      6F696E74 
 5036      5F436C65 
 5036      61724F55 
 5036      5400
 5037              	.LASF91:
 5038 0498 656E6470 		.ascii	"endpointhandle1\000"
 5038      6F696E74 
 5038      68616E64 
 5038      6C653100 
 5039              	.LASF97:
 5040 04a8 73747265 		.ascii	"stream_total_packets\000"
 5040      616D5F74 
 5040      6F74616C 
 5040      5F706163 
 5040      6B657473 
 5041              	.LASF70:
 5042 04bd 62756666 		.ascii	"buffer\000"
 5042      657200
 5043              	.LASF36:
 5044 04c4 52455345 		.ascii	"RESERVED0\000"
 5044      52564544 
 5044      3000
 5045              	.LASF41:
 5046 04ce 54797065 		.ascii	"Type\000"
 5046      00
 5047              	.LASF9:
 5048 04d3 6C6F6E67 		.ascii	"long unsigned int\000"
 5048      20756E73 
 5048      69676E65 
 5048      6420696E 
 5048      7400
 5049              	.LASF103:
 5050 04e5 5553425F 		.ascii	"USB_Device_States_t\000"
 5050      44657669 
 5050      63655F53 
 5050      74617465 
 5050      735F7400 
 5051              	.LASF40:
 5052 04f9 4E427974 		.ascii	"NBytes\000"
 5052      657300
 5053              	.LASF96:
 5054 0500 65706F75 		.ascii	"epout_primed\000"
 5054      745F7072 
 5054      696D6564 
 5054      00
 5055              	.LASF28:
ARM GAS  /tmp/ccSGpD6O.s 			page 94


 5056 050d 44415441 		.ascii	"DATABUFSTART\000"
 5056      42554653 
 5056      54415254 
 5056      00
 5057              	.LASF44:
 5058 051a 5374616C 		.ascii	"Stall\000"
 5058      6C00
 5059              	.LASF87:
 5060 0520 7573625F 		.ascii	"usb_data_buffer_IN_index\000"
 5060      64617461 
 5060      5F627566 
 5060      6665725F 
 5060      494E5F69 
 5061              	.LASF6:
 5062 0539 5F5F696E 		.ascii	"__int32_t\000"
 5062      7433325F 
 5062      7400
 5063              	.LASF31:
 5064 0543 45504255 		.ascii	"EPBUFCFG\000"
 5064      46434647 
 5064      00
 5065              	.LASF20:
 5066 054c 44455649 		.ascii	"DEVICE_STATE_Powered\000"
 5066      43455F53 
 5066      54415445 
 5066      5F506F77 
 5066      65726564 
 5067              	.LASF102:
 5068 0561 2F484444 		.ascii	"/HDD/Projects/workspace_test4/Altimeter/\000"
 5068      2F50726F 
 5068      6A656374 
 5068      732F776F 
 5068      726B7370 
 5069              	.LASF33:
 5070 058a 494E5445 		.ascii	"INTEN\000"
 5070      4E00
 5071              	.LASF22:
 5072 0590 44455649 		.ascii	"DEVICE_STATE_Addressed\000"
 5072      43455F53 
 5072      54415445 
 5072      5F416464 
 5072      72657373 
 5073              	.LASF85:
 5074 05a7 7573625F 		.ascii	"usb_data_buffer_OUT_size\000"
 5074      64617461 
 5074      5F627566 
 5074      6665725F 
 5074      4F55545F 
 5075              	.LASF71:
 5076 05c0 7061636B 		.ascii	"packetsize\000"
 5076      65747369 
 5076      7A6500
 5077              	.LASF23:
 5078 05cb 44455649 		.ascii	"DEVICE_STATE_Configured\000"
 5078      43455F53 
 5078      54415445 
 5078      5F436F6E 
ARM GAS  /tmp/ccSGpD6O.s 			page 95


 5078      66696775 
 5079              	.LASF58:
 5080 05e3 456E6470 		.ascii	"Endpoint_ConfigureEndpointControl\000"
 5080      6F696E74 
 5080      5F436F6E 
 5080      66696775 
 5080      7265456E 
 5081              	.LASF101:
 5082 0605 5553426C 		.ascii	"USBlib_11U14/Drivers/USB/Core/DCD/LPC11UXX/Endpoint"
 5082      69625F31 
 5082      31553134 
 5082      2F447269 
 5082      76657273 
 5083 0638 5F4C5043 		.ascii	"_LPC11Uxx.c\000"
 5083      31315578 
 5083      782E6300 
 5084              	.LASF90:
 5085 0644 656E6470 		.ascii	"endpointhandle0\000"
 5085      6F696E74 
 5085      68616E64 
 5085      6C653000 
 5086              	.LASF52:
 5087 0654 456E6470 		.ascii	"Endpoint_IsINReady\000"
 5087      6F696E74 
 5087      5F497349 
 5087      4E526561 
 5087      647900
 5088              	.LASF53:
 5089 0667 456E6470 		.ascii	"Endpoint_IsReadWriteAllowed\000"
 5089      6F696E74 
 5089      5F497352 
 5089      65616457 
 5089      72697465 
 5090              	.LASF43:
 5091 0683 546F6F67 		.ascii	"ToogleReset\000"
 5091      6C655265 
 5091      73657400 
 5092              	.LASF24:
 5093 068f 44455649 		.ascii	"DEVICE_STATE_Suspended\000"
 5093      43455F53 
 5093      54415445 
 5093      5F537573 
 5093      70656E64 
 5094              	.LASF27:
 5095 06a6 45504C49 		.ascii	"EPLISTSTART\000"
 5095      53545354 
 5095      41525400 
 5096              	.LASF92:
 5097 06b2 456E6450 		.ascii	"EndPointCmdStsList\000"
 5097      6F696E74 
 5097      436D6453 
 5097      74734C69 
 5097      737400
 5098              	.LASF21:
 5099 06c5 44455649 		.ascii	"DEVICE_STATE_Default\000"
 5099      43455F53 
 5099      54415445 
ARM GAS  /tmp/ccSGpD6O.s 			page 96


 5099      5F446566 
 5099      61756C74 
 5100              	.LASF45:
 5101 06da 44697361 		.ascii	"Disabled\000"
 5101      626C6564 
 5101      00
 5102              		.ident	"GCC: (GNU Tools for ARM Embedded Processors) 4.8.4 20140526 (release) [ARM/embedded-4_8-br
ARM GAS  /tmp/ccSGpD6O.s 			page 97


DEFINED SYMBOLS
                            *ABS*:00000000 Endpoint_LPC11Uxx.c
     /tmp/ccSGpD6O.s:18     .text.HAL_Reset:00000000 $t
     /tmp/ccSGpD6O.s:23     .text.HAL_Reset:00000000 HAL_Reset
     /tmp/ccSGpD6O.s:83     .text.HAL_Reset:00000048 $d
     /tmp/ccSGpD6O.s:93     .text.Endpoint_ConfigureEndpointControl:00000000 $t
     /tmp/ccSGpD6O.s:98     .text.Endpoint_ConfigureEndpointControl:00000000 Endpoint_ConfigureEndpointControl
     /tmp/ccSGpD6O.s:162    .text.Endpoint_ConfigureEndpointControl:00000050 $d
     /tmp/ccSGpD6O.s:170    .text.Endpoint_ConfigureEndpoint:00000000 $t
     /tmp/ccSGpD6O.s:175    .text.Endpoint_ConfigureEndpoint:00000000 Endpoint_ConfigureEndpoint
     /tmp/ccSGpD6O.s:262    .text.Endpoint_ConfigureEndpoint:00000068 $d
     /tmp/ccSGpD6O.s:271    .text.DcdDataTransfer:00000000 $t
     /tmp/ccSGpD6O.s:276    .text.DcdDataTransfer:00000000 DcdDataTransfer
     /tmp/ccSGpD6O.s:357    .text.DcdDataTransfer:0000005c $d
     /tmp/ccSGpD6O.s:366    .text.Endpoint_Streaming:00000000 $t
     /tmp/ccSGpD6O.s:371    .text.Endpoint_Streaming:00000000 Endpoint_Streaming
     /tmp/ccSGpD6O.s:1177   .text.Endpoint_Streaming:00000360 $d
     /tmp/ccSGpD6O.s:1198   .text.Endpoint_Streaming:0000038c $t
     /tmp/ccSGpD6O.s:1256   .text.Endpoint_GetSetupPackage:00000000 $t
     /tmp/ccSGpD6O.s:1261   .text.Endpoint_GetSetupPackage:00000000 Endpoint_GetSetupPackage
     /tmp/ccSGpD6O.s:1294   .text.Endpoint_GetSetupPackage:00000020 $d
     /tmp/ccSGpD6O.s:1301   .text.USB_IRQHandler:00000000 $t
     /tmp/ccSGpD6O.s:1306   .text.USB_IRQHandler:00000000 USB_IRQHandler
     /tmp/ccSGpD6O.s:1610   .text.USB_IRQHandler:00000184 $d
     /tmp/ccSGpD6O.s:1650   .bss.stream_total_packets:00000000 stream_total_packets
     /tmp/ccSGpD6O.s:1656   .bss.epout_primed:00000000 epout_primed
     /tmp/ccSGpD6O.s:1636   .bss.shortpacket:00000000 shortpacket
     /tmp/ccSGpD6O.s:1643   .bss.Remain_length:00000000 Remain_length
     /tmp/ccSGpD6O.s:1676   .bss.EndpointMaxPacketSize:00000000 EndpointMaxPacketSize
     /tmp/ccSGpD6O.s:1664   .bss.$RAM2:00000000 EndPointCmdStsList
     /tmp/ccSGpD6O.s:1637   .bss.shortpacket:00000000 $d
     /tmp/ccSGpD6O.s:1639   .bss.Remain_length:00000000 $d
     /tmp/ccSGpD6O.s:1646   .bss.stream_total_packets:00000000 $d
     /tmp/ccSGpD6O.s:1657   .bss.epout_primed:00000000 $d
     /tmp/ccSGpD6O.s:1659   .bss.$RAM2:00000000 $d
     /tmp/ccSGpD6O.s:1669   .bss.$RAM2:00000080 SetupPackage
     /tmp/ccSGpD6O.s:1672   .bss.EndpointMaxPacketSize:00000000 $d
                     .debug_frame:00000010 $d

UNDEFINED SYMBOLS
memset
HAL_SetDeviceAddress
usb_data_buffer
endpointhandle1
endpointhandle0
Endpoint_Write_Stream_LE
endpointselected
usb_data_buffer_IN
usb_data_buffer_index
usb_data_buffer_IN_index
usb_data_buffer_OUT_index
memcpy
USB_DeviceState
usb_data_buffer_OUT
usb_data_buffer_size
usb_data_buffer_OUT_size
