ARM GAS  /tmp/ccSGpD6O.s 			page 1


   1              		.cpu cortex-m0
   2              		.fpu softvfp
   3              		.eabi_attribute 20, 1
   4              		.eabi_attribute 21, 1
   5              		.eabi_attribute 23, 3
   6              		.eabi_attribute 24, 1
   7              		.eabi_attribute 25, 1
   8              		.eabi_attribute 26, 1
   9              		.eabi_attribute 30, 1
  10              		.eabi_attribute 34, 0
  11              		.eabi_attribute 18, 4
  12              		.code	16
  13              		.file	"Endpoint_LPC11Uxx.c"
  14              		.text
  15              	.Ltext0:
  16              		.cfi_sections	.debug_frame
  17              		.section	.text.HAL_Reset,"ax",%progbits
  18              		.align	2
  19              		.global	HAL_Reset
  20              		.code	16
  21              		.thumb_func
  22              		.type	HAL_Reset, %function
  23              	HAL_Reset:
  24              	.LFB97:
  25              		.file 1 "USBlib_11U14/Drivers/USB/Core/DCD/LPC11UXX/Endpoint_LPC11Uxx.c"
  26              		.loc 1 68 0
  27              		.cfi_startproc
  28 0000 10B5     		push	{r4, lr}
  29              		.cfi_def_cfa_offset 8
  30              		.cfi_offset 4, -8
  31              		.cfi_offset 14, -4
  32              		.loc 1 69 0
  33 0002 114B     		ldr	r3, .L2
  34 0004 0024     		mov	r4, #0
  35 0006 9C61     		str	r4, [r3, #24]
  36              		.loc 1 70 0
  37 0008 0122     		mov	r2, #1
  38 000a 5242     		neg	r2, r2
  39 000c 5A61     		str	r2, [r3, #20]
  40              		.loc 1 71 0
  41 000e DC61     		str	r4, [r3, #28]
  42              		.loc 1 73 0
  43 0010 1968     		ldr	r1, [r3]
  44 0012 A122     		mov	r2, #161
  45 0014 D201     		lsl	r2, r2, #7
  46 0016 0A43     		orr	r2, r1
  47 0018 1A60     		str	r2, [r3]
  48              		.loc 1 75 0
  49 001a 0C4A     		ldr	r2, .L2+4
  50 001c 1A62     		str	r2, [r3, #32]
  51              		.loc 1 79 0
  52 001e 8022     		mov	r2, #128
  53 0020 1206     		lsl	r2, r2, #24
  54 0022 5A62     		str	r2, [r3, #36]
  55              		.loc 1 82 0
  56 0024 0A48     		ldr	r0, .L2+8
  57 0026 9860     		str	r0, [r3, #8]
ARM GAS  /tmp/ccSGpD6O.s 			page 2


  58              		.loc 1 83 0
  59 0028 0A4A     		ldr	r2, .L2+12
  60 002a 920D     		lsr	r2, r2, #22
  61 002c 9205     		lsl	r2, r2, #22
  62 002e DA60     		str	r2, [r3, #12]
  63              		.loc 1 85 0
  64 0030 0021     		mov	r1, #0
  65 0032 5022     		mov	r2, #80
  66 0034 FFF7FEFF 		bl	memset
  67              	.LVL0:
  68              		.loc 1 87 0
  69 0038 0020     		mov	r0, #0
  70 003a FFF7FEFF 		bl	HAL_SetDeviceAddress
  71              	.LVL1:
  72              		.loc 1 89 0
  73 003e 064B     		ldr	r3, .L2+16
  74 0040 1C70     		strb	r4, [r3]
  75 0042 064B     		ldr	r3, .L2+20
  76 0044 1C70     		strb	r4, [r3]
  77              		.loc 1 91 0
  78              		@ sp needed
  79 0046 10BD     		pop	{r4, pc}
  80              	.L3:
  81              		.align	2
  82              	.L2:
  83 0048 00000840 		.word	1074266112
  84 004c FF0300C0 		.word	-1073740801
  85 0050 00000000 		.word	.LANCHOR0
  86 0054 00000000 		.word	usb_data_buffer
  87 0058 00000000 		.word	.LANCHOR1
  88 005c 00000000 		.word	.LANCHOR2
  89              		.cfi_endproc
  90              	.LFE97:
  91              		.size	HAL_Reset, .-HAL_Reset
  92              		.section	.text.Endpoint_ConfigureEndpointControl,"ax",%progbits
  93              		.align	2
  94              		.global	Endpoint_ConfigureEndpointControl
  95              		.code	16
  96              		.thumb_func
  97              		.type	Endpoint_ConfigureEndpointControl, %function
  98              	Endpoint_ConfigureEndpointControl:
  99              	.LFB98:
 100              		.loc 1 94 0
 101              		.cfi_startproc
 102              	.LVL2:
 103 0000 10B5     		push	{r4, lr}
 104              		.cfi_def_cfa_offset 8
 105              		.cfi_offset 4, -8
 106              		.cfi_offset 14, -4
 107              		.loc 1 96 0
 108 0002 134B     		ldr	r3, .L5
 109 0004 0022     		mov	r2, #0
 110 0006 1A80     		strh	r2, [r3]
 111              		.loc 1 97 0
 112 0008 5C88     		ldrh	r4, [r3, #2]
 113 000a A40A     		lsr	r4, r4, #10
 114 000c A402     		lsl	r4, r4, #10
ARM GAS  /tmp/ccSGpD6O.s 			page 3


 115 000e 8021     		mov	r1, #128
 116 0010 8900     		lsl	r1, r1, #2
 117 0012 2143     		orr	r1, r4
 118 0014 5980     		strh	r1, [r3, #2]
 119              		.loc 1 98 0
 120 0016 5988     		ldrh	r1, [r3, #2]
 121 0018 4904     		lsl	r1, r1, #17
 122 001a 490C     		lsr	r1, r1, #17
 123 001c 5980     		strh	r1, [r3, #2]
 124              		.loc 1 101 0
 125 001e 0D49     		ldr	r1, .L5+4
 126 0020 8909     		lsr	r1, r1, #6
 127 0022 9980     		strh	r1, [r3, #4]
 128              		.loc 1 104 0
 129 0024 1A81     		strh	r2, [r3, #8]
 130              		.loc 1 105 0
 131 0026 5A89     		ldrh	r2, [r3, #10]
 132 0028 920A     		lsr	r2, r2, #10
 133 002a 9202     		lsl	r2, r2, #10
 134 002c 5A81     		strh	r2, [r3, #10]
 135              		.loc 1 106 0
 136 002e 5A89     		ldrh	r2, [r3, #10]
 137 0030 5204     		lsl	r2, r2, #17
 138 0032 520C     		lsr	r2, r2, #17
 139 0034 5A81     		strh	r2, [r3, #10]
 140              		.loc 1 108 0
 141 0036 084B     		ldr	r3, .L5+8
 142 0038 196A     		ldr	r1, [r3, #32]
 143 003a 0322     		mov	r2, #3
 144 003c 9143     		bic	r1, r2
 145 003e 1962     		str	r1, [r3, #32]
 146              		.loc 1 109 0
 147 0040 596A     		ldr	r1, [r3, #36]
 148 0042 0A43     		orr	r2, r1
 149 0044 5A62     		str	r2, [r3, #36]
 150              		.loc 1 111 0
 151 0046 054B     		ldr	r3, .L5+12
 152 0048 5860     		str	r0, [r3, #4]
 153 004a 1860     		str	r0, [r3]
 154              		.loc 1 114 0
 155 004c 0120     		mov	r0, #1
 156              	.LVL3:
 157              		@ sp needed
 158 004e 10BD     		pop	{r4, pc}
 159              	.L6:
 160              		.align	2
 161              	.L5:
 162 0050 00000000 		.word	.LANCHOR0
 163 0054 80000000 		.word	.LANCHOR3
 164 0058 00000840 		.word	1074266112
 165 005c 00000000 		.word	.LANCHOR4
 166              		.cfi_endproc
 167              	.LFE98:
 168              		.size	Endpoint_ConfigureEndpointControl, .-Endpoint_ConfigureEndpointControl
 169              		.section	.text.Endpoint_ConfigureEndpoint,"ax",%progbits
 170              		.align	2
 171              		.global	Endpoint_ConfigureEndpoint
ARM GAS  /tmp/ccSGpD6O.s 			page 4


 172              		.code	16
 173              		.thumb_func
 174              		.type	Endpoint_ConfigureEndpoint, %function
 175              	Endpoint_ConfigureEndpoint:
 176              	.LFB99:
 177              		.loc 1 118 0
 178              		.cfi_startproc
 179              	.LVL4:
 180 0000 70B5     		push	{r4, r5, r6, lr}
 181              		.cfi_def_cfa_offset 16
 182              		.cfi_offset 4, -16
 183              		.cfi_offset 5, -12
 184              		.cfi_offset 6, -8
 185              		.cfi_offset 14, -4
 186 0002 04AA     		add	r2, sp, #16
 187              	.LVL5:
 188 0004 1588     		ldrh	r5, [r2]
 189              		.loc 1 119 0
 190 0006 4A00     		lsl	r2, r1, #1
 191              	.LVL6:
 192 0008 5C1E     		sub	r4, r3, #1
 193 000a A341     		sbc	r3, r3, r4
 194              	.LVL7:
 195 000c D318     		add	r3, r2, r3
 196              	.LVL8:
 197              		.loc 1 121 0
 198 000e DA00     		lsl	r2, r3, #3
 199 0010 154C     		ldr	r4, .L14
 200 0012 A218     		add	r2, r4, r2
 201 0014 0024     		mov	r4, #0
 202 0016 1460     		str	r4, [r2]
 203 0018 5460     		str	r4, [r2, #4]
 204              		.loc 1 122 0
 205 001a 0126     		mov	r6, #1
 206 001c 1E40     		and	r6, r3
 207 001e 7442     		neg	r4, r6
 208 0020 6641     		adc	r6, r6, r4
 209 0022 DA00     		lsl	r2, r3, #3
 210 0024 104C     		ldr	r4, .L14
 211 0026 A218     		add	r2, r4, r2
 212 0028 7602     		lsl	r6, r6, #9
 213 002a 5488     		ldrh	r4, [r2, #2]
 214 002c A40A     		lsr	r4, r4, #10
 215 002e A402     		lsl	r4, r4, #10
 216 0030 3443     		orr	r4, r6
 217 0032 5480     		strh	r4, [r2, #2]
 218              		.loc 1 124 0
 219 0034 0D4A     		ldr	r2, .L14+4
 220 0036 166A     		ldr	r6, [r2, #32]
 221 0038 0124     		mov	r4, #1
 222 003a 9C40     		lsl	r4, r4, r3
 223 003c A643     		bic	r6, r4
 224 003e 1662     		str	r6, [r2, #32]
 225              	.LVL9:
 226              		.loc 1 125 0
 227 0040 566A     		ldr	r6, [r2, #36]
 228 0042 3443     		orr	r4, r6
ARM GAS  /tmp/ccSGpD6O.s 			page 5


 229 0044 5462     		str	r4, [r2, #36]
 230              		.loc 1 127 0
 231 0046 9C00     		lsl	r4, r3, #2
 232 0048 094A     		ldr	r2, .L14+8
 233 004a A550     		str	r5, [r4, r2]
 234              		.loc 1 128 0
 235 004c 0028     		cmp	r0, #0
 236 004e 01D0     		beq	.L12
 237 0050 0848     		ldr	r0, .L14+12
 238              	.LVL10:
 239 0052 00E0     		b	.L9
 240              	.LVL11:
 241              	.L12:
 242 0054 0848     		ldr	r0, .L14+16
 243              	.LVL12:
 244              	.L9:
 245              		.loc 1 128 0 is_stmt 0 discriminator 3
 246 0056 4018     		add	r0, r0, r1
 247 0058 0022     		mov	r2, #0
 248 005a 0029     		cmp	r1, #0
 249 005c 00D0     		beq	.L10
 250              		.loc 1 128 0 discriminator 1
 251 005e DAB2     		uxtb	r2, r3
 252              	.L10:
 253              		.loc 1 128 0 discriminator 3
 254 0060 0270     		strb	r2, [r0]
 255              		.loc 1 131 0 is_stmt 1 discriminator 3
 256 0062 0120     		mov	r0, #1
 257              		@ sp needed
 258 0064 70BD     		pop	{r4, r5, r6, pc}
 259              	.L15:
 260 0066 C046     		.align	2
 261              	.L14:
 262 0068 00000000 		.word	.LANCHOR0
 263 006c 00000840 		.word	1074266112
 264 0070 00000000 		.word	.LANCHOR4
 265 0074 00000000 		.word	endpointhandle1
 266 0078 00000000 		.word	endpointhandle0
 267              		.cfi_endproc
 268              	.LFE99:
 269              		.size	Endpoint_ConfigureEndpoint, .-Endpoint_ConfigureEndpoint
 270              		.section	.text.DcdDataTransfer,"ax",%progbits
 271              		.align	2
 272              		.global	DcdDataTransfer
 273              		.code	16
 274              		.thumb_func
 275              		.type	DcdDataTransfer, %function
 276              	DcdDataTransfer:
 277              	.LFB101:
 278              		.loc 1 168 0
 279              		.cfi_startproc
 280              	.LVL13:
 281 0000 30B5     		push	{r4, r5, lr}
 282              		.cfi_def_cfa_offset 12
 283              		.cfi_offset 4, -12
 284              		.cfi_offset 5, -8
 285              		.cfi_offset 14, -4
ARM GAS  /tmp/ccSGpD6O.s 			page 6


 286              		.loc 1 169 0
 287 0002 C307     		lsl	r3, r0, #31
 288 0004 20D5     		bpl	.L17
 289              		.loc 1 170 0
 290 0006 8300     		lsl	r3, r0, #2
 291 0008 144C     		ldr	r4, .L21
 292 000a 1B59     		ldr	r3, [r3, r4]
 293 000c 9342     		cmp	r3, r2
 294 000e 0CD8     		bhi	.L18
 295              		.loc 1 171 0
 296 0010 04D1     		bne	.L19
 297              		.loc 1 171 0 is_stmt 0 discriminator 1
 298 0012 0128     		cmp	r0, #1
 299 0014 02D1     		bne	.L19
 300              		.loc 1 172 0 is_stmt 1
 301 0016 0125     		mov	r5, #1
 302 0018 114C     		ldr	r4, .L21+4
 303 001a 2570     		strb	r5, [r4]
 304              	.L19:
 305              		.loc 1 174 0
 306 001c 4508     		lsr	r5, r0, #1
 307 001e AD00     		lsl	r5, r5, #2
 308 0020 D21A     		sub	r2, r2, r3
 309              	.LVL14:
 310 0022 104C     		ldr	r4, .L21+8
 311 0024 2A51     		str	r2, [r5, r4]
 312              	.LVL15:
 313              		.loc 1 175 0
 314 0026 1A1C     		mov	r2, r3
 315 0028 04E0     		b	.L20
 316              	.LVL16:
 317              	.L18:
 318              		.loc 1 178 0
 319 002a 4408     		lsr	r4, r0, #1
 320 002c A400     		lsl	r4, r4, #2
 321 002e 0025     		mov	r5, #0
 322 0030 0C4B     		ldr	r3, .L21+8
 323 0032 E550     		str	r5, [r4, r3]
 324              	.L20:
 325              		.loc 1 180 0
 326 0034 C300     		lsl	r3, r0, #3
 327 0036 0C4C     		ldr	r4, .L21+12
 328 0038 E318     		add	r3, r4, r3
 329 003a 9205     		lsl	r2, r2, #22
 330              	.LVL17:
 331 003c 940D     		lsr	r4, r2, #22
 332 003e 5A88     		ldrh	r2, [r3, #2]
 333 0040 920A     		lsr	r2, r2, #10
 334 0042 9202     		lsl	r2, r2, #10
 335 0044 2243     		orr	r2, r4
 336 0046 5A80     		strh	r2, [r3, #2]
 337              	.L17:
 338              		.loc 1 182 0
 339 0048 074B     		ldr	r3, .L21+12
 340 004a C000     		lsl	r0, r0, #3
 341              	.LVL18:
 342 004c 8909     		lsr	r1, r1, #6
ARM GAS  /tmp/ccSGpD6O.s 			page 7


 343              	.LVL19:
 344 004e C152     		strh	r1, [r0, r3]
 345              		.loc 1 184 0
 346 0050 1818     		add	r0, r3, r0
 347 0052 4388     		ldrh	r3, [r0, #2]
 348 0054 054A     		ldr	r2, .L21+16
 349 0056 1343     		orr	r3, r2
 350 0058 4380     		strh	r3, [r0, #2]
 351              		.loc 1 185 0
 352              		@ sp needed
 353 005a 30BD     		pop	{r4, r5, pc}
 354              	.L22:
 355              		.align	2
 356              	.L21:
 357 005c 00000000 		.word	.LANCHOR4
 358 0060 00000000 		.word	.LANCHOR2
 359 0064 00000000 		.word	.LANCHOR5
 360 0068 00000000 		.word	.LANCHOR0
 361 006c 0080FFFF 		.word	-32768
 362              		.cfi_endproc
 363              	.LFE101:
 364              		.size	DcdDataTransfer, .-DcdDataTransfer
 365              		.section	.text.Endpoint_Streaming,"ax",%progbits
 366              		.align	2
 367              		.global	Endpoint_Streaming
 368              		.code	16
 369              		.thumb_func
 370              		.type	Endpoint_Streaming, %function
 371              	Endpoint_Streaming:
 372              	.LFB100:
 373              		.loc 1 135 0
 374              		.cfi_startproc
 375              	.LVL20:
 376 0000 F0B5     		push	{r4, r5, r6, r7, lr}
 377              		.cfi_def_cfa_offset 20
 378              		.cfi_offset 4, -20
 379              		.cfi_offset 5, -16
 380              		.cfi_offset 6, -12
 381              		.cfi_offset 7, -8
 382              		.cfi_offset 14, -4
 383 0002 5F46     		mov	r7, fp
 384 0004 5646     		mov	r6, r10
 385 0006 4D46     		mov	r5, r9
 386 0008 4446     		mov	r4, r8
 387 000a F0B4     		push	{r4, r5, r6, r7}
 388              		.cfi_def_cfa_offset 36
 389              		.cfi_offset 8, -36
 390              		.cfi_offset 9, -32
 391              		.cfi_offset 10, -28
 392              		.cfi_offset 11, -24
 393 000c 89B0     		sub	sp, sp, #36
 394              		.cfi_def_cfa_offset 72
 395 000e 051C     		mov	r5, r0
 396 0010 0591     		str	r1, [sp, #20]
 397 0012 0392     		str	r2, [sp, #12]
 398 0014 0193     		str	r3, [sp, #4]
 399 0016 12AB     		add	r3, sp, #72
ARM GAS  /tmp/ccSGpD6O.s 			page 8


 400              	.LVL21:
 401 0018 1B88     		ldrh	r3, [r3]
 402              	.LVL22:
 403 001a 0693     		str	r3, [sp, #24]
 404              		.loc 1 136 0
 405 001c 0028     		cmp	r0, #0
 406 001e 01D0     		beq	.L80
 407 0020 CF4A     		ldr	r2, .L85
 408              	.LVL23:
 409 0022 00E0     		b	.L24
 410              	.LVL24:
 411              	.L80:
 412 0024 CF4A     		ldr	r2, .L85+4
 413              	.LVL25:
 414              	.L24:
 415              		.loc 1 136 0 is_stmt 0 discriminator 3
 416 0026 2C1C     		mov	r4, r5
 417 0028 CF4B     		ldr	r3, .L85+8
 418 002a 5B5D     		ldrb	r3, [r3, r5]
 419 002c D35C     		ldrb	r3, [r2, r3]
 420 002e 9946     		mov	r9, r3
 421              	.LVL26:
 422              		.loc 1 139 0 is_stmt 1 discriminator 3
 423 0030 DB07     		lsl	r3, r3, #31
 424 0032 00D4     		bmi	.LCB391
 425 0034 D1E0     		b	.L25	@long jump
 426              	.LCB391:
 427              	.LVL27:
 428              		.loc 1 140 0 discriminator 1
 429 0036 019F     		ldr	r7, [sp, #4]
 430 0038 002F     		cmp	r7, #0
 431 003a 69D0     		beq	.L26
 432 003c 039F     		ldr	r7, [sp, #12]
 433 003e 0297     		str	r7, [sp, #8]
 434 0040 0598     		ldr	r0, [sp, #20]
 435              	.LVL28:
 436 0042 8046     		mov	r8, r0
 437              		.loc 1 140 0 is_stmt 0
 438 0044 0021     		mov	r1, #0
 439              	.LVL29:
 440 0046 8A46     		mov	r10, r1
 441              	.LBB53:
 442              	.LBB54:
 443              		.file 2 "USBlib_11U14/Drivers/USB/Core/DCD/LPC11UXX/../../DCD/LPC11UXX/Endpoint_LPC11Uxx.h"
 444              		.loc 2 329 0 is_stmt 1
 445 0048 6B02     		lsl	r3, r5, #9
 446 004a C84F     		ldr	r7, .L85+12
 447 004c DF19     		add	r7, r3, r7
 448 004e 0797     		str	r7, [sp, #28]
 449              		.loc 2 333 0
 450 0050 C748     		ldr	r0, .L85+16
 451 0052 1B18     		add	r3, r3, r0
 452 0054 0493     		str	r3, [sp, #16]
 453 0056 4446     		mov	r4, r8
 454              	.LVL30:
 455 0058 A946     		mov	r9, r5
 456 005a A846     		mov	r8, r5
ARM GAS  /tmp/ccSGpD6O.s 			page 9


 457              	.LVL31:
 458              	.L37:
 459              	.LBE54:
 460              	.LBE53:
 461              	.LBB56:
 462              	.LBB57:
 463              	.LBB58:
 464              	.LBB59:
 465              		.file 3 "USBlib_11U14/Drivers/USB/Core/DCD/LPC11UXX/../../Endpoint.h"
 466              		.loc 3 246 0 discriminator 1
 467 005c C24D     		ldr	r5, .L85+8
 468 005e 4046     		mov	r0, r8
 469 0060 2F5C     		ldrb	r7, [r5, r0]
 470 0062 4946     		mov	r1, r9
 471 0064 0029     		cmp	r1, #0
 472 0066 01D0     		beq	.L27
 473 0068 BD4B     		ldr	r3, .L85
 474 006a 00E0     		b	.L28
 475              	.L27:
 476 006c BD4B     		ldr	r3, .L85+4
 477              	.L28:
 478 006e DE5D     		ldrb	r6, [r3, r7]
 479 0070 0123     		mov	r3, #1
 480 0072 3340     		and	r3, r6
 481              	.LBE59:
 482              	.LBE58:
 483              	.LBB61:
 484              	.LBB62:
 485              		.loc 2 291 0 discriminator 1
 486 0074 0122     		mov	r2, #1
 487 0076 9346     		mov	fp, r2
 488              		.loc 2 293 0 discriminator 1
 489 0078 0120     		mov	r0, #1
 490              	.LBE62:
 491              	.LBE61:
 492              	.LBB65:
 493              	.LBB66:
 494              		.loc 2 302 0 discriminator 1
 495 007a F100     		lsl	r1, r6, #3
 496 007c BD4D     		ldr	r5, .L85+20
 497 007e 6918     		add	r1, r5, r1
 498              	.L32:
 499              	.LVL32:
 500              	.LBE66:
 501              	.LBE65:
 502              	.LBB68:
 503              	.LBB60:
 504              		.loc 3 246 0 discriminator 1
 505 0080 002B     		cmp	r3, #0
 506 0082 00D0     		beq	.LCB477
 507 0084 66E1     		b	.L29	@long jump
 508              	.LCB477:
 509              	.LVL33:
 510              	.LBE60:
 511              	.LBE68:
 512              	.LBB69:
 513              	.LBB67:
ARM GAS  /tmp/ccSGpD6O.s 			page 10


 514              		.loc 2 302 0
 515 0086 4A88     		ldrh	r2, [r1, #2]
 516 0088 9205     		lsl	r2, r2, #22
 517 008a 920D     		lsr	r2, r2, #22
 518              		.loc 2 301 0
 519 008c BA4D     		ldr	r5, .L85+24
 520 008e 5219     		add	r2, r2, r5
 521 0090 551E     		sub	r5, r2, #1
 522 0092 AA41     		sbc	r2, r2, r5
 523 0094 D2B2     		uxtb	r2, r2
 524 0096 06E0     		b	.L30
 525              	.LVL34:
 526              	.L73:
 527              	.LBE67:
 528              	.LBE69:
 529              	.LBB70:
 530              	.LBB63:
 531              		.loc 2 293 0
 532 0098 D200     		lsl	r2, r2, #3
 533              	.LVL35:
 534 009a B64D     		ldr	r5, .L85+20
 535 009c AA18     		add	r2, r5, r2
 536 009e 5288     		ldrh	r2, [r2, #2]
 537 00a0 D20B     		lsr	r2, r2, #15
 538 00a2 4240     		eor	r2, r0
 539 00a4 D2B2     		uxtb	r2, r2
 540              	.LVL36:
 541              	.L30:
 542              	.LBE63:
 543              	.LBE70:
 544              	.LBE57:
 545              	.LBE56:
 546              		.loc 1 141 0
 547 00a6 002A     		cmp	r2, #0
 548 00a8 EAD0     		beq	.L32
 549              		.loc 1 142 0
 550 00aa 4846     		mov	r0, r9
 551 00ac 211C     		mov	r1, r4
 552 00ae 039A     		ldr	r2, [sp, #12]
 553 00b0 0023     		mov	r3, #0
 554 00b2 FFF7FEFF 		bl	Endpoint_Write_Stream_LE
 555              	.LVL37:
 556              	.LBB73:
 557              	.LBB55:
 558              		.loc 2 327 0
 559 00b6 AC4B     		ldr	r3, .L85+8
 560 00b8 4746     		mov	r7, r8
 561 00ba DB5D     		ldrb	r3, [r3, r7]
 562 00bc 002B     		cmp	r3, #0
 563 00be 08D0     		beq	.L33
 564              	.LVL38:
 565 00c0 4846     		mov	r0, r9
 566 00c2 0028     		cmp	r0, #0
 567 00c4 01D0     		beq	.L81
 568              	.LVL39:
 569 00c6 A64A     		ldr	r2, .L85
 570 00c8 00E0     		b	.L34
ARM GAS  /tmp/ccSGpD6O.s 			page 11


 571              	.L81:
 572 00ca A64A     		ldr	r2, .L85+4
 573              	.L34:
 574 00cc D05C     		ldrb	r0, [r2, r3]
 575              	.LVL40:
 576              		.loc 2 328 0
 577 00ce 0128     		cmp	r0, #1
 578 00d0 0AD1     		bne	.L35
 579              	.LVL41:
 580              	.L33:
 581              		.loc 2 329 0
 582 00d2 AA4E     		ldr	r6, .L85+28
 583 00d4 4146     		mov	r1, r8
 584 00d6 8F00     		lsl	r7, r1, #2
 585              	.LVL42:
 586 00d8 BA59     		ldr	r2, [r7, r6]
 587 00da 0120     		mov	r0, #1
 588 00dc 0799     		ldr	r1, [sp, #28]
 589 00de FFF7FEFF 		bl	DcdDataTransfer
 590              	.LVL43:
 591              		.loc 2 330 0
 592 00e2 0023     		mov	r3, #0
 593 00e4 BB51     		str	r3, [r7, r6]
 594 00e6 08E0     		b	.L36
 595              	.LVL44:
 596              	.L35:
 597              		.loc 2 333 0
 598 00e8 A54E     		ldr	r6, .L85+32
 599 00ea 4246     		mov	r2, r8
 600              	.LVL45:
 601 00ec 9700     		lsl	r7, r2, #2
 602              	.LVL46:
 603 00ee BA59     		ldr	r2, [r7, r6]
 604 00f0 0499     		ldr	r1, [sp, #16]
 605 00f2 FFF7FEFF 		bl	DcdDataTransfer
 606              	.LVL47:
 607              		.loc 2 334 0
 608 00f6 0023     		mov	r3, #0
 609 00f8 BB51     		str	r3, [r7, r6]
 610              	.L36:
 611              	.LBE55:
 612              	.LBE73:
 613              		.loc 1 140 0
 614 00fa 5546     		mov	r5, r10
 615 00fc 0135     		add	r5, r5, #1
 616 00fe ADB2     		uxth	r5, r5
 617 0100 AA46     		mov	r10, r5
 618              	.LVL48:
 619 0102 029D     		ldr	r5, [sp, #8]
 620              	.LVL49:
 621 0104 6419     		add	r4, r4, r5
 622 0106 019F     		ldr	r7, [sp, #4]
 623 0108 BA45     		cmp	r10, r7
 624 010a A7D1     		bne	.L37
 625 010c 4446     		mov	r4, r8
 626 010e 4D46     		mov	r5, r9
 627              	.LVL50:
ARM GAS  /tmp/ccSGpD6O.s 			page 12


 628              	.L26:
 629              		.loc 1 145 0 discriminator 1
 630 0110 0698     		ldr	r0, [sp, #24]
 631 0112 0028     		cmp	r0, #0
 632 0114 00D1     		bne	.LCB632
 633 0116 4AE1     		b	.L23	@long jump
 634              	.LCB632:
 635              		.loc 1 145 0 is_stmt 0
 636 0118 0021     		mov	r1, #0
 637 011a 8A46     		mov	r10, r1
 638              	.LBB74:
 639              	.LBB75:
 640              		.loc 2 329 0 is_stmt 1
 641 011c 6302     		lsl	r3, r4, #9
 642 011e 934F     		ldr	r7, .L85+12
 643 0120 DF19     		add	r7, r3, r7
 644 0122 0497     		str	r7, [sp, #16]
 645              		.loc 2 333 0
 646 0124 9248     		ldr	r0, .L85+16
 647 0126 1B18     		add	r3, r3, r0
 648 0128 0293     		str	r3, [sp, #8]
 649 012a 0195     		str	r5, [sp, #4]
 650 012c 0699     		ldr	r1, [sp, #24]
 651 012e 8846     		mov	r8, r1
 652              	.LVL51:
 653              	.L49:
 654              	.LBE75:
 655              	.LBE74:
 656              	.LBB77:
 657              	.LBB78:
 658              	.LBB79:
 659              	.LBB80:
 660              		.loc 3 246 0 discriminator 1
 661 0130 8D4D     		ldr	r5, .L85+8
 662 0132 2E5D     		ldrb	r6, [r5, r4]
 663 0134 019D     		ldr	r5, [sp, #4]
 664 0136 002D     		cmp	r5, #0
 665 0138 01D0     		beq	.L39
 666 013a 894B     		ldr	r3, .L85
 667 013c 00E0     		b	.L40
 668              	.L39:
 669 013e 894B     		ldr	r3, .L85+4
 670              	.L40:
 671 0140 995D     		ldrb	r1, [r3, r6]
 672 0142 0123     		mov	r3, #1
 673 0144 0B40     		and	r3, r1
 674              	.LBE80:
 675              	.LBE79:
 676              	.LBB82:
 677              	.LBB83:
 678              		.loc 2 291 0 discriminator 1
 679 0146 0127     		mov	r7, #1
 680 0148 BB46     		mov	fp, r7
 681              		.loc 2 293 0 discriminator 1
 682 014a 8A48     		ldr	r0, .L85+20
 683 014c 8146     		mov	r9, r0
 684 014e 0125     		mov	r5, #1
ARM GAS  /tmp/ccSGpD6O.s 			page 13


 685              	.LBE83:
 686              	.LBE82:
 687              	.LBB86:
 688              	.LBB87:
 689              		.loc 2 302 0 discriminator 1
 690 0150 C800     		lsl	r0, r1, #3
 691 0152 4A46     		mov	r2, r9
 692 0154 1018     		add	r0, r2, r0
 693              	.L44:
 694              	.LVL52:
 695              	.LBE87:
 696              	.LBE86:
 697              	.LBB89:
 698              	.LBB81:
 699              		.loc 3 246 0 discriminator 1
 700 0156 002B     		cmp	r3, #0
 701 0158 00D0     		beq	.LCB703
 702 015a 17E1     		b	.L41	@long jump
 703              	.LCB703:
 704              	.LVL53:
 705              	.LBE81:
 706              	.LBE89:
 707              	.LBB90:
 708              	.LBB88:
 709              		.loc 2 302 0
 710 015c 4288     		ldrh	r2, [r0, #2]
 711 015e 9205     		lsl	r2, r2, #22
 712 0160 920D     		lsr	r2, r2, #22
 713              		.loc 2 301 0
 714 0162 854F     		ldr	r7, .L85+24
 715 0164 D219     		add	r2, r2, r7
 716 0166 571E     		sub	r7, r2, #1
 717 0168 BA41     		sbc	r2, r2, r7
 718 016a D2B2     		uxtb	r2, r2
 719 016c 05E0     		b	.L42
 720              	.LVL54:
 721              	.L75:
 722              	.LBE88:
 723              	.LBE90:
 724              	.LBB91:
 725              	.LBB84:
 726              		.loc 2 293 0
 727 016e D200     		lsl	r2, r2, #3
 728              	.LVL55:
 729 0170 4A44     		add	r2, r2, r9
 730 0172 5288     		ldrh	r2, [r2, #2]
 731 0174 D20B     		lsr	r2, r2, #15
 732 0176 6A40     		eor	r2, r5
 733 0178 D2B2     		uxtb	r2, r2
 734              	.LVL56:
 735              	.L42:
 736              	.LBE84:
 737              	.LBE91:
 738              	.LBE78:
 739              	.LBE77:
 740              		.loc 1 146 0
 741 017a 002A     		cmp	r2, #0
ARM GAS  /tmp/ccSGpD6O.s 			page 14


 742 017c EBD0     		beq	.L44
 743              		.loc 1 147 0
 744 017e 0198     		ldr	r0, [sp, #4]
 745 0180 0599     		ldr	r1, [sp, #20]
 746 0182 039A     		ldr	r2, [sp, #12]
 747 0184 0023     		mov	r3, #0
 748 0186 FFF7FEFF 		bl	Endpoint_Write_Stream_LE
 749              	.LVL57:
 750              	.LBB94:
 751              	.LBB76:
 752              		.loc 2 327 0
 753 018a 774B     		ldr	r3, .L85+8
 754 018c 1B5D     		ldrb	r3, [r3, r4]
 755 018e 002B     		cmp	r3, #0
 756 0190 08D0     		beq	.L45
 757 0192 019D     		ldr	r5, [sp, #4]
 758 0194 002D     		cmp	r5, #0
 759 0196 01D0     		beq	.L82
 760 0198 714A     		ldr	r2, .L85
 761 019a 00E0     		b	.L46
 762              	.L82:
 763 019c 714A     		ldr	r2, .L85+4
 764              	.L46:
 765 019e D05C     		ldrb	r0, [r2, r3]
 766              	.LVL58:
 767              		.loc 2 328 0
 768 01a0 0128     		cmp	r0, #1
 769 01a2 09D1     		bne	.L47
 770              	.LVL59:
 771              	.L45:
 772              		.loc 2 329 0
 773 01a4 754E     		ldr	r6, .L85+28
 774 01a6 A700     		lsl	r7, r4, #2
 775 01a8 BA59     		ldr	r2, [r7, r6]
 776 01aa 0120     		mov	r0, #1
 777 01ac 0499     		ldr	r1, [sp, #16]
 778 01ae FFF7FEFF 		bl	DcdDataTransfer
 779              	.LVL60:
 780              		.loc 2 330 0
 781 01b2 0023     		mov	r3, #0
 782 01b4 BB51     		str	r3, [r7, r6]
 783 01b6 09E0     		b	.L48
 784              	.LVL61:
 785              	.L47:
 786              		.loc 2 333 0
 787 01b8 714E     		ldr	r6, .L85+32
 788 01ba A100     		lsl	r1, r4, #2
 789 01bc 8946     		mov	r9, r1
 790 01be 8A59     		ldr	r2, [r1, r6]
 791              	.LVL62:
 792 01c0 0299     		ldr	r1, [sp, #8]
 793 01c2 FFF7FEFF 		bl	DcdDataTransfer
 794              	.LVL63:
 795              		.loc 2 334 0
 796 01c6 0023     		mov	r3, #0
 797 01c8 4A46     		mov	r2, r9
 798 01ca 9351     		str	r3, [r2, r6]
ARM GAS  /tmp/ccSGpD6O.s 			page 15


 799              	.L48:
 800              	.LBE76:
 801              	.LBE94:
 802              		.loc 1 145 0
 803 01cc 5746     		mov	r7, r10
 804 01ce 0137     		add	r7, r7, #1
 805 01d0 BFB2     		uxth	r7, r7
 806 01d2 BA46     		mov	r10, r7
 807              	.LVL64:
 808 01d4 4745     		cmp	r7, r8
 809 01d6 ABD1     		bne	.L49
 810 01d8 E9E0     		b	.L23
 811              	.LVL65:
 812              	.L25:
 813              		.loc 1 152 0
 814 01da 019F     		ldr	r7, [sp, #4]
 815 01dc 0698     		ldr	r0, [sp, #24]
 816              	.LVL66:
 817 01de 3B18     		add	r3, r7, r0
 818 01e0 684A     		ldr	r2, .L85+36
 819              	.LVL67:
 820 01e2 1380     		strh	r3, [r2]
 821              	.LVL68:
 822              		.loc 1 153 0
 823 01e4 002F     		cmp	r7, #0
 824 01e6 5BD0     		beq	.L50
 825 01e8 039F     		ldr	r7, [sp, #12]
 826 01ea 0497     		str	r7, [sp, #16]
 827 01ec 0598     		ldr	r0, [sp, #20]
 828 01ee 0021     		mov	r1, #0
 829              	.LVL69:
 830 01f0 8A46     		mov	r10, r1
 831              	.LBB95:
 832              	.LBB96:
 833              		.loc 2 344 0
 834 01f2 0295     		str	r5, [sp, #8]
 835 01f4 071C     		mov	r7, r0
 836 01f6 A846     		mov	r8, r5
 837              	.LVL70:
 838              	.L60:
 839              	.LBE96:
 840              	.LBE95:
 841              		.loc 1 154 0
 842 01f8 4846     		mov	r0, r9
 843 01fa 391C     		mov	r1, r7
 844 01fc 049A     		ldr	r2, [sp, #16]
 845 01fe FFF7FEFF 		bl	DcdDataTransfer
 846              	.LVL71:
 847              	.LBB98:
 848              	.LBB97:
 849              		.loc 2 343 0
 850 0202 594C     		ldr	r4, .L85+8
 851 0204 029D     		ldr	r5, [sp, #8]
 852 0206 605D     		ldrb	r0, [r4, r5]
 853 0208 0028     		cmp	r0, #0
 854 020a 04D1     		bne	.L51
 855              		.loc 2 344 0
ARM GAS  /tmp/ccSGpD6O.s 			page 16


 856 020c AB00     		lsl	r3, r5, #2
 857 020e 0022     		mov	r2, #0
 858 0210 5A4C     		ldr	r4, .L85+28
 859 0212 1A51     		str	r2, [r3, r4]
 860 0214 04E0     		b	.L52
 861              	.L51:
 862              		.loc 2 346 0
 863 0216 029D     		ldr	r5, [sp, #8]
 864 0218 AB00     		lsl	r3, r5, #2
 865 021a 0022     		mov	r2, #0
 866 021c 5A4C     		ldr	r4, .L85+40
 867 021e 1A51     		str	r2, [r3, r4]
 868              	.L52:
 869              		.loc 2 348 0
 870 0220 4546     		mov	r5, r8
 871 0222 002D     		cmp	r5, #0
 872 0224 01D0     		beq	.L83
 873              	.LVL72:
 874 0226 4E4B     		ldr	r3, .L85
 875 0228 00E0     		b	.L53
 876              	.L83:
 877 022a 4E4B     		ldr	r3, .L85+4
 878              	.L53:
 879 022c 1B5C     		ldrb	r3, [r3, r0]
 880 022e DB00     		lsl	r3, r3, #3
 881 0230 504A     		ldr	r2, .L85+20
 882 0232 D318     		add	r3, r2, r3
 883 0234 5988     		ldrh	r1, [r3, #2]
 884 0236 890A     		lsr	r1, r1, #10
 885 0238 8902     		lsl	r1, r1, #10
 886 023a 8022     		mov	r2, #128
 887 023c 9200     		lsl	r2, r2, #2
 888 023e 0A43     		orr	r2, r1
 889 0240 5A80     		strh	r2, [r3, #2]
 890 0242 4146     		mov	r1, r8
 891 0244 0029     		cmp	r1, #0
 892 0246 01D0     		beq	.L54
 893              	.LVL73:
 894 0248 454B     		ldr	r3, .L85
 895 024a 00E0     		b	.L55
 896              	.L54:
 897 024c 454B     		ldr	r3, .L85+4
 898              	.L55:
 899              	.LBE97:
 900              	.LBE98:
 901              	.LBB99:
 902              	.LBB100:
 903              	.LBB101:
 904              	.LBB102:
 905              		.loc 3 246 0
 906 024e 1E5C     		ldrb	r6, [r3, r0]
 907 0250 0123     		mov	r3, #1
 908 0252 3340     		and	r3, r6
 909              	.LBE102:
 910              	.LBE101:
 911              	.LBB104:
 912              	.LBB105:
ARM GAS  /tmp/ccSGpD6O.s 			page 17


 913              		.loc 2 291 0
 914 0254 0122     		mov	r2, #1
 915 0256 9346     		mov	fp, r2
 916              		.loc 2 293 0
 917 0258 0125     		mov	r5, #1
 918              	.LBE105:
 919              	.LBE104:
 920              	.LBB108:
 921              	.LBB109:
 922              		.loc 2 302 0
 923 025a F100     		lsl	r1, r6, #3
 924              	.LVL74:
 925 025c 454C     		ldr	r4, .L85+20
 926 025e 6118     		add	r1, r4, r1
 927              	.L59:
 928              	.LVL75:
 929              	.LBE109:
 930              	.LBE108:
 931              	.LBB111:
 932              	.LBB103:
 933              		.loc 3 246 0 discriminator 1
 934 0260 002B     		cmp	r3, #0
 935 0262 00D0     		beq	.LCB960
 936 0264 98E0     		b	.L56	@long jump
 937              	.LCB960:
 938              	.LVL76:
 939              	.LBE103:
 940              	.LBE111:
 941              	.LBB112:
 942              	.LBB110:
 943              		.loc 2 302 0
 944 0266 4A88     		ldrh	r2, [r1, #2]
 945 0268 9205     		lsl	r2, r2, #22
 946 026a 920D     		lsr	r2, r2, #22
 947              		.loc 2 301 0
 948 026c 424C     		ldr	r4, .L85+24
 949 026e 1219     		add	r2, r2, r4
 950 0270 541E     		sub	r4, r2, #1
 951 0272 A241     		sbc	r2, r2, r4
 952 0274 D2B2     		uxtb	r2, r2
 953 0276 06E0     		b	.L57
 954              	.LVL77:
 955              	.L77:
 956              	.LBE110:
 957              	.LBE112:
 958              	.LBB113:
 959              	.LBB106:
 960              		.loc 2 293 0
 961 0278 D200     		lsl	r2, r2, #3
 962              	.LVL78:
 963 027a 3E4C     		ldr	r4, .L85+20
 964 027c A218     		add	r2, r4, r2
 965 027e 5288     		ldrh	r2, [r2, #2]
 966 0280 D20B     		lsr	r2, r2, #15
 967 0282 6A40     		eor	r2, r5
 968 0284 D2B2     		uxtb	r2, r2
 969              	.LVL79:
ARM GAS  /tmp/ccSGpD6O.s 			page 18


 970              	.L57:
 971              	.LBE106:
 972              	.LBE113:
 973              	.LBE100:
 974              	.LBE99:
 975              		.loc 1 156 0
 976 0286 002A     		cmp	r2, #0
 977 0288 EAD0     		beq	.L59
 978              		.loc 1 153 0
 979 028a 5446     		mov	r4, r10
 980 028c 0134     		add	r4, r4, #1
 981 028e A4B2     		uxth	r4, r4
 982 0290 A246     		mov	r10, r4
 983              	.LVL80:
 984 0292 049D     		ldr	r5, [sp, #16]
 985 0294 7F19     		add	r7, r7, r5
 986 0296 019C     		ldr	r4, [sp, #4]
 987              	.LVL81:
 988 0298 A245     		cmp	r10, r4
 989 029a ADD1     		bne	.L60
 990 029c 029C     		ldr	r4, [sp, #8]
 991 029e 4546     		mov	r5, r8
 992              	.LVL82:
 993              	.L50:
 994              		.loc 1 158 0 discriminator 1
 995 02a0 069F     		ldr	r7, [sp, #24]
 996 02a2 002F     		cmp	r7, #0
 997 02a4 52D0     		beq	.L61
 998              		.loc 1 158 0 is_stmt 0
 999 02a6 0026     		mov	r6, #0
 1000              	.LBB116:
 1001              	.LBB117:
 1002              		.loc 2 343 0 is_stmt 1
 1003 02a8 2F48     		ldr	r0, .L85+8
 1004 02aa 8046     		mov	r8, r0
 1005              		.loc 2 344 0
 1006 02ac A246     		mov	r10, r4
 1007 02ae 0195     		str	r5, [sp, #4]
 1008              	.LVL83:
 1009              	.L71:
 1010              	.LBE117:
 1011              	.LBE116:
 1012              		.loc 1 159 0
 1013 02b0 4846     		mov	r0, r9
 1014 02b2 0599     		ldr	r1, [sp, #20]
 1015 02b4 039A     		ldr	r2, [sp, #12]
 1016 02b6 FFF7FEFF 		bl	DcdDataTransfer
 1017              	.LVL84:
 1018              	.LBB119:
 1019              	.LBB118:
 1020              		.loc 2 343 0
 1021 02ba 4246     		mov	r2, r8
 1022 02bc 5244     		add	r2, r2, r10
 1023 02be 1178     		ldrb	r1, [r2]
 1024 02c0 0029     		cmp	r1, #0
 1025 02c2 05D1     		bne	.L62
 1026              		.loc 2 344 0
ARM GAS  /tmp/ccSGpD6O.s 			page 19


 1027 02c4 5446     		mov	r4, r10
 1028 02c6 A300     		lsl	r3, r4, #2
 1029 02c8 0022     		mov	r2, #0
 1030 02ca 2C4D     		ldr	r5, .L85+28
 1031 02cc 5A51     		str	r2, [r3, r5]
 1032 02ce 04E0     		b	.L63
 1033              	.L62:
 1034              		.loc 2 346 0
 1035 02d0 5746     		mov	r7, r10
 1036 02d2 BB00     		lsl	r3, r7, #2
 1037 02d4 0022     		mov	r2, #0
 1038 02d6 2C4C     		ldr	r4, .L85+40
 1039 02d8 1A51     		str	r2, [r3, r4]
 1040              	.L63:
 1041              		.loc 2 348 0
 1042 02da 019D     		ldr	r5, [sp, #4]
 1043 02dc 002D     		cmp	r5, #0
 1044 02de 01D0     		beq	.L84
 1045 02e0 1F4B     		ldr	r3, .L85
 1046 02e2 00E0     		b	.L64
 1047              	.L84:
 1048 02e4 1F4B     		ldr	r3, .L85+4
 1049              	.L64:
 1050 02e6 5B5C     		ldrb	r3, [r3, r1]
 1051 02e8 DB00     		lsl	r3, r3, #3
 1052 02ea 224A     		ldr	r2, .L85+20
 1053 02ec D318     		add	r3, r2, r3
 1054 02ee 5888     		ldrh	r0, [r3, #2]
 1055 02f0 800A     		lsr	r0, r0, #10
 1056 02f2 8002     		lsl	r0, r0, #10
 1057 02f4 8022     		mov	r2, #128
 1058 02f6 9200     		lsl	r2, r2, #2
 1059 02f8 0243     		orr	r2, r0
 1060 02fa 5A80     		strh	r2, [r3, #2]
 1061 02fc 019C     		ldr	r4, [sp, #4]
 1062 02fe 002C     		cmp	r4, #0
 1063 0300 01D0     		beq	.L65
 1064 0302 174B     		ldr	r3, .L85
 1065 0304 00E0     		b	.L66
 1066              	.L65:
 1067 0306 174B     		ldr	r3, .L85+4
 1068              	.L66:
 1069              	.LBE118:
 1070              	.LBE119:
 1071              	.LBB120:
 1072              	.LBB121:
 1073              	.LBB122:
 1074              	.LBB123:
 1075              		.loc 3 246 0
 1076 0308 585C     		ldrb	r0, [r3, r1]
 1077 030a 0123     		mov	r3, #1
 1078 030c 0340     		and	r3, r0
 1079              	.LBE123:
 1080              	.LBE122:
 1081              	.LBB125:
 1082              	.LBB126:
 1083              		.loc 2 291 0
ARM GAS  /tmp/ccSGpD6O.s 			page 20


 1084 030e 0125     		mov	r5, #1
 1085 0310 AB46     		mov	fp, r5
 1086              		.loc 2 293 0
 1087 0312 0124     		mov	r4, #1
 1088              	.LBE126:
 1089              	.LBE125:
 1090              	.LBB129:
 1091              	.LBB130:
 1092              		.loc 2 302 0
 1093 0314 C700     		lsl	r7, r0, #3
 1094 0316 174A     		ldr	r2, .L85+20
 1095 0318 D719     		add	r7, r2, r7
 1096              	.L70:
 1097              	.LVL85:
 1098              	.LBE130:
 1099              	.LBE129:
 1100              	.LBB132:
 1101              	.LBB124:
 1102              		.loc 3 246 0 discriminator 1
 1103 031a 002B     		cmp	r3, #0
 1104 031c 42D1     		bne	.L67
 1105              	.LVL86:
 1106              	.LBE124:
 1107              	.LBE132:
 1108              	.LBB133:
 1109              	.LBB131:
 1110              		.loc 2 302 0
 1111 031e 7A88     		ldrh	r2, [r7, #2]
 1112 0320 9205     		lsl	r2, r2, #22
 1113 0322 920D     		lsr	r2, r2, #22
 1114              		.loc 2 301 0
 1115 0324 144D     		ldr	r5, .L85+24
 1116 0326 5219     		add	r2, r2, r5
 1117 0328 551E     		sub	r5, r2, #1
 1118 032a AA41     		sbc	r2, r2, r5
 1119 032c D2B2     		uxtb	r2, r2
 1120 032e 06E0     		b	.L68
 1121              	.LVL87:
 1122              	.L79:
 1123              	.LBE131:
 1124              	.LBE133:
 1125              	.LBB134:
 1126              	.LBB127:
 1127              		.loc 2 293 0
 1128 0330 D200     		lsl	r2, r2, #3
 1129              	.LVL88:
 1130 0332 104D     		ldr	r5, .L85+20
 1131 0334 AA18     		add	r2, r5, r2
 1132 0336 5288     		ldrh	r2, [r2, #2]
 1133 0338 D20B     		lsr	r2, r2, #15
 1134 033a 6240     		eor	r2, r4
 1135 033c D2B2     		uxtb	r2, r2
 1136              	.LVL89:
 1137              	.L68:
 1138              	.LBE127:
 1139              	.LBE134:
 1140              	.LBE121:
ARM GAS  /tmp/ccSGpD6O.s 			page 21


 1141              	.LBE120:
 1142              		.loc 1 161 0
 1143 033e 002A     		cmp	r2, #0
 1144 0340 EBD0     		beq	.L70
 1145              		.loc 1 158 0
 1146 0342 0136     		add	r6, r6, #1
 1147              	.LVL90:
 1148 0344 B6B2     		uxth	r6, r6
 1149              	.LVL91:
 1150 0346 069C     		ldr	r4, [sp, #24]
 1151 0348 A642     		cmp	r6, r4
 1152 034a B1D1     		bne	.L71
 1153              	.LVL92:
 1154              	.L61:
 1155              		.loc 1 163 0
 1156 034c 0022     		mov	r2, #0
 1157 034e 0D4B     		ldr	r3, .L85+36
 1158 0350 1A80     		strh	r2, [r3]
 1159 0352 2CE0     		b	.L23
 1160              	.LVL93:
 1161              	.L29:
 1162              	.LBB137:
 1163              	.LBB72:
 1164              	.LBB71:
 1165              	.LBB64:
 1166              		.loc 2 291 0
 1167 0354 321C     		mov	r2, r6
 1168 0356 002F     		cmp	r7, #0
 1169 0358 00D0     		beq	.LCB1225
 1170 035a 9DE6     		b	.L73	@long jump
 1171              	.LCB1225:
 1172 035c 5A46     		mov	r2, fp
 1173 035e 9BE6     		b	.L73
 1174              	.L86:
 1175              		.align	2
 1176              	.L85:
 1177 0360 00000000 		.word	endpointhandle1
 1178 0364 00000000 		.word	endpointhandle0
 1179 0368 00000000 		.word	endpointselected
 1180 036c 00000000 		.word	usb_data_buffer
 1181 0370 00000000 		.word	usb_data_buffer_IN
 1182 0374 00000000 		.word	.LANCHOR0
 1183 0378 00FEFFFF 		.word	-512
 1184 037c 00000000 		.word	usb_data_buffer_index
 1185 0380 00000000 		.word	usb_data_buffer_IN_index
 1186 0384 00000000 		.word	.LANCHOR6
 1187 0388 00000000 		.word	usb_data_buffer_OUT_index
 1188              	.LVL94:
 1189              	.L41:
 1190              	.LBE64:
 1191              	.LBE71:
 1192              	.LBE72:
 1193              	.LBE137:
 1194              	.LBB138:
 1195              	.LBB93:
 1196              	.LBB92:
 1197              	.LBB85:
ARM GAS  /tmp/ccSGpD6O.s 			page 22


 1198 038c 0A1C     		mov	r2, r1
 1199 038e 002E     		cmp	r6, #0
 1200 0390 00D0     		beq	.LCB1264
 1201 0392 ECE6     		b	.L75	@long jump
 1202              	.LCB1264:
 1203 0394 5A46     		mov	r2, fp
 1204 0396 EAE6     		b	.L75
 1205              	.LVL95:
 1206              	.L56:
 1207              	.LBE85:
 1208              	.LBE92:
 1209              	.LBE93:
 1210              	.LBE138:
 1211              	.LBB139:
 1212              	.LBB115:
 1213              	.LBB114:
 1214              	.LBB107:
 1215 0398 321C     		mov	r2, r6
 1216 039a 0028     		cmp	r0, #0
 1217 039c 00D0     		beq	.LCB1289
 1218 039e 6BE7     		b	.L77	@long jump
 1219              	.LCB1289:
 1220 03a0 5A46     		mov	r2, fp
 1221 03a2 69E7     		b	.L77
 1222              	.LVL96:
 1223              	.L67:
 1224              	.LBE107:
 1225              	.LBE114:
 1226              	.LBE115:
 1227              	.LBE139:
 1228              	.LBB140:
 1229              	.LBB136:
 1230              	.LBB135:
 1231              	.LBB128:
 1232 03a4 021C     		mov	r2, r0
 1233 03a6 0029     		cmp	r1, #0
 1234 03a8 C2D1     		bne	.L79
 1235 03aa 5A46     		mov	r2, fp
 1236 03ac C0E7     		b	.L79
 1237              	.LVL97:
 1238              	.L23:
 1239              	.LBE128:
 1240              	.LBE135:
 1241              	.LBE136:
 1242              	.LBE140:
 1243              		.loc 1 165 0
 1244 03ae 09B0     		add	sp, sp, #36
 1245              		@ sp needed
 1246 03b0 3CBC     		pop	{r2, r3, r4, r5}
 1247 03b2 9046     		mov	r8, r2
 1248 03b4 9946     		mov	r9, r3
 1249 03b6 A246     		mov	r10, r4
 1250 03b8 AB46     		mov	fp, r5
 1251 03ba F0BD     		pop	{r4, r5, r6, r7, pc}
 1252              		.cfi_endproc
 1253              	.LFE100:
 1254              		.size	Endpoint_Streaming, .-Endpoint_Streaming
ARM GAS  /tmp/ccSGpD6O.s 			page 23


 1255              		.section	.text.Endpoint_GetSetupPackage,"ax",%progbits
 1256              		.align	2
 1257              		.global	Endpoint_GetSetupPackage
 1258              		.code	16
 1259              		.thumb_func
 1260              		.type	Endpoint_GetSetupPackage, %function
 1261              	Endpoint_GetSetupPackage:
 1262              	.LFB102:
 1263              		.loc 1 188 0
 1264              		.cfi_startproc
 1265              	.LVL98:
 1266 0000 08B5     		push	{r3, lr}
 1267              		.cfi_def_cfa_offset 8
 1268              		.cfi_offset 3, -8
 1269              		.cfi_offset 14, -4
 1270              		.loc 1 189 0
 1271 0002 081C     		mov	r0, r1
 1272              	.LVL99:
 1273 0004 0649     		ldr	r1, .L88
 1274              	.LVL100:
 1275 0006 0822     		mov	r2, #8
 1276 0008 FFF7FEFF 		bl	memcpy
 1277              	.LVL101:
 1278              		.loc 1 191 0
 1279 000c 054B     		ldr	r3, .L88+4
 1280 000e 5988     		ldrh	r1, [r3, #2]
 1281 0010 054A     		ldr	r2, .L88+8
 1282 0012 1140     		and	r1, r2
 1283 0014 5980     		strh	r1, [r3, #2]
 1284              		.loc 1 192 0
 1285 0016 5989     		ldrh	r1, [r3, #10]
 1286 0018 0A40     		and	r2, r1
 1287 001a 5A81     		strh	r2, [r3, #10]
 1288              		.loc 1 193 0
 1289              		@ sp needed
 1290 001c 08BD     		pop	{r3, pc}
 1291              	.L89:
 1292 001e C046     		.align	2
 1293              	.L88:
 1294 0020 80000000 		.word	.LANCHOR3
 1295 0024 00000000 		.word	.LANCHOR0
 1296 0028 FFDFFFFF 		.word	-8193
 1297              		.cfi_endproc
 1298              	.LFE102:
 1299              		.size	Endpoint_GetSetupPackage, .-Endpoint_GetSetupPackage
 1300              		.section	.text.USB_IRQHandler,"ax",%progbits
 1301              		.align	2
 1302              		.global	USB_IRQHandler
 1303              		.code	16
 1304              		.thumb_func
 1305              		.type	USB_IRQHandler, %function
 1306              	USB_IRQHandler:
 1307              	.LFB103:
 1308              		.loc 1 196 0
 1309              		.cfi_startproc
 1310 0000 F8B5     		push	{r3, r4, r5, r6, r7, lr}
 1311              		.cfi_def_cfa_offset 24
ARM GAS  /tmp/ccSGpD6O.s 			page 24


 1312              		.cfi_offset 3, -24
 1313              		.cfi_offset 4, -20
 1314              		.cfi_offset 5, -16
 1315              		.cfi_offset 6, -12
 1316              		.cfi_offset 7, -8
 1317              		.cfi_offset 14, -4
 1318              		.loc 1 201 0
 1319 0002 604B     		ldr	r3, .L110
 1320 0004 1A6A     		ldr	r2, [r3, #32]
 1321              	.LVL102:
 1322              		.loc 1 202 0
 1323 0006 5B6A     		ldr	r3, [r3, #36]
 1324              	.LVL103:
 1325              		.loc 1 204 0
 1326 0008 141C     		mov	r4, r2
 1327 000a 1C40     		and	r4, r3
 1328              	.LVL104:
 1329              		.loc 1 206 0
 1330 000c 00D1     		bne	.LCB1406
 1331 000e B8E0     		b	.L90	@long jump
 1332              	.LCB1406:
 1333              		.loc 1 210 0
 1334 0010 5C4B     		ldr	r3, .L110
 1335              	.LVL105:
 1336 0012 1C62     		str	r4, [r3, #32]
 1337              		.loc 1 216 0
 1338 0014 24D5     		bpl	.L92
 1339              	.LBB141:
 1340              		.loc 1 217 0
 1341 0016 1D68     		ldr	r5, [r3]
 1342              	.LVL106:
 1343              		.loc 1 219 0
 1344 0018 6901     		lsl	r1, r5, #5
 1345 001a 0CD5     		bpl	.L93
 1346              		.loc 1 220 0
 1347 001c 1968     		ldr	r1, [r3]
 1348 001e 8022     		mov	r2, #128
 1349 0020 D204     		lsl	r2, r2, #19
 1350 0022 0A43     		orr	r2, r1
 1351 0024 1A60     		str	r2, [r3]
 1352              		.loc 1 221 0
 1353 0026 FFF7FEFF 		bl	HAL_Reset
 1354              	.LVL107:
 1355              		.loc 1 222 0
 1356 002a 0222     		mov	r2, #2
 1357 002c 564B     		ldr	r3, .L110+4
 1358 002e 1A70     		strb	r2, [r3]
 1359              		.loc 1 223 0
 1360 0030 4020     		mov	r0, #64
 1361 0032 FFF7FEFF 		bl	Endpoint_ConfigureEndpointControl
 1362              	.LVL108:
 1363              	.L93:
 1364              		.loc 1 226 0
 1365 0036 EA01     		lsl	r2, r5, #7
 1366 0038 05D5     		bpl	.L94
 1367              		.loc 1 227 0
 1368 003a 524B     		ldr	r3, .L110
ARM GAS  /tmp/ccSGpD6O.s 			page 25


 1369 003c 1968     		ldr	r1, [r3]
 1370 003e 8022     		mov	r2, #128
 1371 0040 5204     		lsl	r2, r2, #17
 1372 0042 0A43     		orr	r2, r1
 1373 0044 1A60     		str	r2, [r3]
 1374              	.L94:
 1375              		.loc 1 230 0
 1376 0046 AB01     		lsl	r3, r5, #6
 1377 0048 0AD5     		bpl	.L92
 1378              		.loc 1 231 0
 1379 004a 4E4B     		ldr	r3, .L110
 1380 004c 1968     		ldr	r1, [r3]
 1381 004e 8022     		mov	r2, #128
 1382 0050 9204     		lsl	r2, r2, #18
 1383 0052 0A43     		orr	r2, r1
 1384 0054 1A60     		str	r2, [r3]
 1385              		.loc 1 232 0
 1386 0056 A903     		lsl	r1, r5, #14
 1387 0058 02D5     		bpl	.L92
 1388              		.loc 1 233 0
 1389 005a 0522     		mov	r2, #5
 1390 005c 4A4B     		ldr	r3, .L110+4
 1391 005e 1A70     		strb	r2, [r3]
 1392              	.LVL109:
 1393              	.L92:
 1394              	.LBE141:
 1395              		.loc 1 241 0
 1396 0060 A305     		lsl	r3, r4, #22
 1397 0062 00D1     		bne	.LCB1470
 1398 0064 8DE0     		b	.L90	@long jump
 1399              	.LCB1470:
 1400 0066 0127     		mov	r7, #1
 1401 0068 0026     		mov	r6, #0
 1402 006a 01E0     		b	.L95
 1403              	.L109:
 1404 006c 0137     		add	r7, r7, #1
 1405 006e 0136     		add	r6, r6, #1
 1406              	.L95:
 1407              	.LVL110:
 1408              	.LBB142:
 1409              		.loc 1 244 0
 1410 0070 0123     		mov	r3, #1
 1411 0072 B340     		lsl	r3, r3, r6
 1412 0074 1C42     		tst	r4, r3
 1413 0076 00D1     		bne	.LCB1491
 1414 0078 80E0     		b	.L96	@long jump
 1415              	.LCB1491:
 1416              		.loc 1 245 0
 1417 007a F207     		lsl	r2, r6, #31
 1418 007c 46D4     		bmi	.L97
 1419              	.LVL111:
 1420              	.LBB143:
 1421              	.LBB144:
 1422              		.loc 2 310 0
 1423 007e 414B     		ldr	r3, .L110
 1424 0080 1B68     		ldr	r3, [r3]
 1425              	.LBE144:
ARM GAS  /tmp/ccSGpD6O.s 			page 26


 1426              	.LBE143:
 1427              		.loc 1 246 0
 1428 0082 D905     		lsl	r1, r3, #23
 1429 0084 7AD4     		bmi	.L96
 1430              		.loc 1 247 0
 1431 0086 F300     		lsl	r3, r6, #3
 1432 0088 404A     		ldr	r2, .L110+8
 1433 008a D318     		add	r3, r2, r3
 1434 008c 5A88     		ldrh	r2, [r3, #2]
 1435 008e 9205     		lsl	r2, r2, #22
 1436 0090 920D     		lsr	r2, r2, #22
 1437 0092 8023     		mov	r3, #128
 1438 0094 9B00     		lsl	r3, r3, #2
 1439 0096 9A42     		cmp	r2, r3
 1440 0098 19D1     		bne	.L98
 1441              		.loc 1 248 0
 1442 009a 002E     		cmp	r6, #0
 1443 009c 05D1     		bne	.L99
 1444              		.loc 1 249 0
 1445 009e 0020     		mov	r0, #0
 1446 00a0 3B49     		ldr	r1, .L110+12
 1447 00a2 1A1C     		mov	r2, r3
 1448 00a4 FFF7FEFF 		bl	DcdDataTransfer
 1449              	.LVL112:
 1450 00a8 0DE0     		b	.L100
 1451              	.L99:
 1452              		.loc 1 251 0
 1453 00aa 3A4B     		ldr	r3, .L110+16
 1454 00ac 1B88     		ldrh	r3, [r3]
 1455 00ae 002B     		cmp	r3, #0
 1456 00b0 64D1     		bne	.L96
 1457              		.loc 1 252 0
 1458 00b2 F0B2     		uxtb	r0, r6
 1459 00b4 3849     		ldr	r1, .L110+20
 1460 00b6 8022     		mov	r2, #128
 1461 00b8 9200     		lsl	r2, r2, #2
 1462 00ba FFF7FEFF 		bl	DcdDataTransfer
 1463              	.LVL113:
 1464              		.loc 1 254 0
 1465 00be 354B     		ldr	r3, .L110+16
 1466 00c0 1B88     		ldrh	r3, [r3]
 1467 00c2 002B     		cmp	r3, #0
 1468 00c4 5AD1     		bne	.L96
 1469              	.L100:
 1470              		.loc 1 255 0
 1471 00c6 0122     		mov	r2, #1
 1472 00c8 344B     		ldr	r3, .L110+24
 1473 00ca 1A70     		strb	r2, [r3]
 1474 00cc 56E0     		b	.L96
 1475              	.L98:
 1476              		.loc 1 259 0
 1477 00ce 334B     		ldr	r3, .L110+24
 1478 00d0 1B78     		ldrb	r3, [r3]
 1479 00d2 002B     		cmp	r3, #0
 1480 00d4 52D0     		beq	.L96
 1481              		.loc 1 260 0
 1482 00d6 0022     		mov	r2, #0
ARM GAS  /tmp/ccSGpD6O.s 			page 27


 1483 00d8 304B     		ldr	r3, .L110+24
 1484 00da 1A70     		strb	r2, [r3]
 1485              		.loc 1 261 0
 1486 00dc 002E     		cmp	r6, #0
 1487 00de 09D1     		bne	.L101
 1488              		.loc 1 262 0
 1489 00e0 2A4B     		ldr	r3, .L110+8
 1490 00e2 5B88     		ldrh	r3, [r3, #2]
 1491 00e4 9B05     		lsl	r3, r3, #22
 1492 00e6 9B0D     		lsr	r3, r3, #22
 1493 00e8 8022     		mov	r2, #128
 1494 00ea 9200     		lsl	r2, r2, #2
 1495 00ec D21A     		sub	r2, r2, r3
 1496 00ee 2C4B     		ldr	r3, .L110+28
 1497 00f0 1A60     		str	r2, [r3]
 1498 00f2 BBE7     		b	.L109
 1499              	.L101:
 1500              		.loc 1 265 0
 1501 00f4 F300     		lsl	r3, r6, #3
 1502 00f6 254A     		ldr	r2, .L110+8
 1503 00f8 D318     		add	r3, r2, r3
 1504 00fa 5B88     		ldrh	r3, [r3, #2]
 1505 00fc 9B05     		lsl	r3, r3, #22
 1506 00fe 9B0D     		lsr	r3, r3, #22
 1507 0100 8022     		mov	r2, #128
 1508 0102 9200     		lsl	r2, r2, #2
 1509 0104 D21A     		sub	r2, r2, r3
 1510 0106 274B     		ldr	r3, .L110+32
 1511 0108 1A60     		str	r2, [r3]
 1512 010a 37E0     		b	.L96
 1513              	.LVL114:
 1514              	.L97:
 1515              		.loc 1 272 0
 1516 010c 7308     		lsr	r3, r6, #1
 1517 010e 9B00     		lsl	r3, r3, #2
 1518 0110 2549     		ldr	r1, .L110+36
 1519 0112 5A58     		ldr	r2, [r3, r1]
 1520 0114 002A     		cmp	r2, #0
 1521 0116 22D0     		beq	.L103
 1522              	.LBB145:
 1523              		.loc 1 274 0
 1524 0118 012E     		cmp	r6, #1
 1525 011a 0FD1     		bne	.L104
 1526              		.loc 1 276 0
 1527 011c 234B     		ldr	r3, .L110+40
 1528 011e 5968     		ldr	r1, [r3, #4]
 1529 0120 1B4B     		ldr	r3, .L110+12
 1530 0122 CB18     		add	r3, r1, r3
 1531 0124 9818     		add	r0, r3, r2
 1532 0126 4942     		neg	r1, r1
 1533              	.L106:
 1534              		.loc 1 276 0 is_stmt 0 discriminator 2
 1535 0128 1D78     		ldrb	r5, [r3]
 1536 012a 5D54     		strb	r5, [r3, r1]
 1537              	.LVL115:
 1538 012c 0133     		add	r3, r3, #1
 1539              		.loc 1 275 0 is_stmt 1 discriminator 2
ARM GAS  /tmp/ccSGpD6O.s 			page 28


 1540 012e 8342     		cmp	r3, r0
 1541 0130 FAD1     		bne	.L106
 1542              		.loc 1 277 0
 1543 0132 0120     		mov	r0, #1
 1544 0134 1649     		ldr	r1, .L110+12
 1545 0136 FFF7FEFF 		bl	DcdDataTransfer
 1546              	.LVL116:
 1547 013a 97E7     		b	.L109
 1548              	.L104:
 1549 013c B300     		lsl	r3, r6, #2
 1550              		.loc 1 281 0
 1551 013e 1B49     		ldr	r1, .L110+40
 1552 0140 5858     		ldr	r0, [r3, r1]
 1553 0142 1B4B     		ldr	r3, .L110+44
 1554 0144 C318     		add	r3, r0, r3
 1555 0146 9D18     		add	r5, r3, r2
 1556 0148 4042     		neg	r0, r0
 1557              	.L108:
 1558              		.loc 1 281 0 is_stmt 0 discriminator 2
 1559 014a 1978     		ldrb	r1, [r3]
 1560 014c 1954     		strb	r1, [r3, r0]
 1561 014e 0133     		add	r3, r3, #1
 1562              		.loc 1 280 0 is_stmt 1 discriminator 2
 1563 0150 AB42     		cmp	r3, r5
 1564 0152 FAD1     		bne	.L108
 1565              		.loc 1 282 0
 1566 0154 F0B2     		uxtb	r0, r6
 1567 0156 1649     		ldr	r1, .L110+44
 1568 0158 FFF7FEFF 		bl	DcdDataTransfer
 1569              	.LVL117:
 1570 015c 0EE0     		b	.L96
 1571              	.L103:
 1572              	.LBE145:
 1573              		.loc 1 286 0
 1574 015e 012E     		cmp	r6, #1
 1575 0160 0CD1     		bne	.L96
 1576              		.loc 1 287 0
 1577 0162 144A     		ldr	r2, .L110+48
 1578 0164 1378     		ldrb	r3, [r2]
 1579 0166 002B     		cmp	r3, #0
 1580 0168 00D1     		bne	.LCB1655
 1581 016a 7FE7     		b	.L109	@long jump
 1582              	.LCB1655:
 1583              		.loc 1 288 0
 1584 016c 0023     		mov	r3, #0
 1585 016e 1370     		strb	r3, [r2]
 1586              		.loc 1 289 0
 1587 0170 0120     		mov	r0, #1
 1588 0172 0749     		ldr	r1, .L110+12
 1589 0174 0022     		mov	r2, #0
 1590 0176 FFF7FEFF 		bl	DcdDataTransfer
 1591              	.LVL118:
 1592 017a 77E7     		b	.L109
 1593              	.L96:
 1594              	.LVL119:
 1595              		.loc 1 243 0
 1596 017c 092F     		cmp	r7, #9
ARM GAS  /tmp/ccSGpD6O.s 			page 29


 1597 017e 00D8     		bhi	.LCB1670
 1598 0180 74E7     		b	.L109	@long jump
 1599              	.LCB1670:
 1600              	.LVL120:
 1601              	.L90:
 1602              	.LBE142:
 1603              		.loc 1 297 0
 1604              		@ sp needed
 1605              	.LVL121:
 1606 0182 F8BD     		pop	{r3, r4, r5, r6, r7, pc}
 1607              	.L111:
 1608              		.align	2
 1609              	.L110:
 1610 0184 00000840 		.word	1074266112
 1611 0188 00000000 		.word	USB_DeviceState
 1612 018c 00000000 		.word	.LANCHOR0
 1613 0190 00000000 		.word	usb_data_buffer
 1614 0194 00000000 		.word	.LANCHOR6
 1615 0198 00000000 		.word	usb_data_buffer_OUT
 1616 019c 00000000 		.word	.LANCHOR1
 1617 01a0 00000000 		.word	usb_data_buffer_size
 1618 01a4 00000000 		.word	usb_data_buffer_OUT_size
 1619 01a8 00000000 		.word	.LANCHOR5
 1620 01ac 00000000 		.word	.LANCHOR4
 1621 01b0 00000000 		.word	usb_data_buffer_IN
 1622 01b4 00000000 		.word	.LANCHOR2
 1623              		.cfi_endproc
 1624              	.LFE103:
 1625              		.size	USB_IRQHandler, .-USB_IRQHandler
 1626              		.global	stream_total_packets
 1627              		.global	epout_primed
 1628              		.global	shortpacket
 1629              		.global	Remain_length
 1630              		.global	EndpointMaxPacketSize
 1631              		.global	EndPointCmdStsList
 1632              		.section	.bss.shortpacket,"aw",%nobits
 1633              		.set	.LANCHOR2,. + 0
 1634              		.type	shortpacket, %object
 1635              		.size	shortpacket, 1
 1636              	shortpacket:
 1637 0000 00       		.space	1
 1638              		.section	.bss.Remain_length,"aw",%nobits
 1639              		.align	2
 1640              		.set	.LANCHOR5,. + 0
 1641              		.type	Remain_length, %object
 1642              		.size	Remain_length, 20
 1643              	Remain_length:
 1644 0000 00000000 		.space	20
 1644      00000000 
 1644      00000000 
 1644      00000000 
 1644      00000000 
 1645              		.section	.bss.stream_total_packets,"aw",%nobits
 1646              		.align	1
 1647              		.set	.LANCHOR6,. + 0
 1648              		.type	stream_total_packets, %object
 1649              		.size	stream_total_packets, 2
ARM GAS  /tmp/ccSGpD6O.s 			page 30


 1650              	stream_total_packets:
 1651 0000 0000     		.space	2
 1652              		.section	.bss.epout_primed,"aw",%nobits
 1653              		.set	.LANCHOR1,. + 0
 1654              		.type	epout_primed, %object
 1655              		.size	epout_primed, 1
 1656              	epout_primed:
 1657 0000 00       		.space	1
 1658              		.section	.bss.$RAM2,"aw",%nobits
 1659              		.align	8
 1660              		.set	.LANCHOR0,. + 0
 1661              		.set	.LANCHOR3,. + 128
 1662              		.type	EndPointCmdStsList, %object
 1663              		.size	EndPointCmdStsList, 80
 1664              	EndPointCmdStsList:
 1665 0000 00000000 		.space	80
 1665      00000000 
 1665      00000000 
 1665      00000000 
 1665      00000000 
 1666 0050 00000000 		.space	48
 1666      00000000 
 1666      00000000 
 1666      00000000 
 1666      00000000 
 1667              		.type	SetupPackage, %object
 1668              		.size	SetupPackage, 8
 1669              	SetupPackage:
 1670 0080 00000000 		.space	8
 1670      00000000 
 1671 0088 00000000 		.section	.bss.EndpointMaxPacketSize,"aw",%nobits
 1671      00000000 
 1671      00000000 
 1671      00000000 
 1671      00000000 
 1672              		.align	2
 1673              		.set	.LANCHOR4,. + 0
 1674              		.type	EndpointMaxPacketSize, %object
 1675              		.size	EndpointMaxPacketSize, 40
 1676              	EndpointMaxPacketSize:
 1677 0000 00000000 		.space	40
 1677      00000000 
 1677      00000000 
 1677      00000000 
 1677      00000000 
 1678              		.text
 1679              	.Letext0:
 1680              		.file 4 "/usr/local/lpcxpresso_7.3.0_186/lpcxpresso/tools/arm-none-eabi/include/machine/_default_t
 1681              		.file 5 "/usr/local/lpcxpresso_7.3.0_186/lpcxpresso/tools/arm-none-eabi/include/stdint.h"
 1682              		.file 6 "CMSIS_CORE_LPC11Uxx/inc/LPC11Uxx.h"
 1683              		.file 7 "USBlib_11U14/Drivers/USB/Core/DCD/LPC11UXX/../../DCD/LPC11UXX/../../HAL/LPC11UXX/HAL_LPC1
 1684              		.file 8 "USBlib_11U14/Drivers/USB/Core/DCD/LPC11UXX/../../USBTask.h"
 1685              		.file 9 "USBlib_11U14/Drivers/USB/Core/DCD/LPC11UXX/../../DCD/LPC11UXX/../EndpointCommon.h"
 1686              		.file 10 "USBlib_11U14/Drivers/USB/Core/DCD/LPC11UXX/../../Device.h"
 1687              		.file 11 "USBlib_11U14/Drivers/USB/Core/DCD/LPC11UXX/../../EndpointStream.h"