ARM GAS  /tmp/cc7uHROk.s 			page 1


   1              		.cpu cortex-m0
   2              		.fpu softvfp
   3              		.eabi_attribute 20, 1
   4              		.eabi_attribute 21, 1
   5              		.eabi_attribute 23, 3
   6              		.eabi_attribute 24, 1
   7              		.eabi_attribute 25, 1
   8              		.eabi_attribute 26, 1
   9              		.eabi_attribute 30, 1
  10              		.eabi_attribute 34, 0
  11              		.eabi_attribute 18, 4
  12              		.code	16
  13              		.file	"Endpoint.c"
  14              		.text
  15              	.Ltext0:
  16              		.cfi_sections	.debug_frame
  17              		.section	.text.Endpoint_ConfigureEndpoint_Prv,"ax",%progbits
  18              		.align	2
  19              		.global	Endpoint_ConfigureEndpoint_Prv
  20              		.code	16
  21              		.thumb_func
  22              		.type	Endpoint_ConfigureEndpoint_Prv, %function
  23              	Endpoint_ConfigureEndpoint_Prv:
  24              	.LFB97:
  25              		.file 1 "USBlib_11U14/Drivers/USB/Core/Endpoint.c"
  26              		.loc 1 61 0
  27              		.cfi_startproc
  28              	.LVL0:
  29              		.loc 1 73 0
  30 0000 0429     		cmp	r1, #4
  31 0002 04DC     		bgt	.L2
  32 0004 0B1C     		mov	r3, r1
  33              	.LVL1:
  34              	.L4:
  35 0006 0133     		add	r3, r3, #1
  36              	.LVL2:
  37 0008 DBB2     		uxtb	r3, r3
  38              	.LVL3:
  39 000a 042B     		cmp	r3, #4
  40 000c FBDD     		ble	.L4
  41              	.LVL4:
  42              	.L2:
  43              	.LBB20:
  44              	.LBB21:
  45              		.file 2 "USBlib_11U14/Drivers/USB/Core/Endpoint.h"
  46              		.loc 2 205 0
  47 000e 024B     		ldr	r3, .L5
  48 0010 1954     		strb	r1, [r3, r0]
  49              	.LBE21:
  50              	.LBE20:
  51              		.loc 1 110 0
  52 0012 0120     		mov	r0, #1
  53              	.LVL5:
  54              		@ sp needed
  55 0014 7047     		bx	lr
  56              	.L6:
  57 0016 C046     		.align	2
ARM GAS  /tmp/cc7uHROk.s 			page 2


  58              	.L5:
  59 0018 00000000 		.word	.LANCHOR0
  60              		.cfi_endproc
  61              	.LFE97:
  62              		.size	Endpoint_ConfigureEndpoint_Prv, .-Endpoint_ConfigureEndpoint_Prv
  63              		.section	.text.Endpoint_ClearEndpoints,"ax",%progbits
  64              		.align	2
  65              		.global	Endpoint_ClearEndpoints
  66              		.code	16
  67              		.thumb_func
  68              		.type	Endpoint_ClearEndpoints, %function
  69              	Endpoint_ClearEndpoints:
  70              	.LFB98:
  71              		.loc 1 113 0
  72              		.cfi_startproc
  73              	.LVL6:
  74 0000 0422     		mov	r2, #4
  75 0002 014B     		ldr	r3, .L8
  76 0004 1A54     		strb	r2, [r3, r0]
  77              		.loc 1 123 0
  78              		@ sp needed
  79 0006 7047     		bx	lr
  80              	.L9:
  81              		.align	2
  82              	.L8:
  83 0008 00000000 		.word	.LANCHOR0
  84              		.cfi_endproc
  85              	.LFE98:
  86              		.size	Endpoint_ClearEndpoints, .-Endpoint_ClearEndpoints
  87              		.section	.text.Endpoint_ClearStatusStage,"ax",%progbits
  88              		.align	2
  89              		.global	Endpoint_ClearStatusStage
  90              		.code	16
  91              		.thumb_func
  92              		.type	Endpoint_ClearStatusStage, %function
  93              	Endpoint_ClearStatusStage:
  94              	.LFB99:
  95              		.loc 1 126 0
  96              		.cfi_startproc
  97              	.LVL7:
  98 0000 38B5     		push	{r3, r4, r5, lr}
  99              		.cfi_def_cfa_offset 16
 100              		.cfi_offset 3, -16
 101              		.cfi_offset 4, -12
 102              		.cfi_offset 5, -8
 103              		.cfi_offset 14, -4
 104              		.loc 1 127 0
 105 0002 234B     		ldr	r3, .L21
 106 0004 1B78     		ldrb	r3, [r3]
 107 0006 7F2B     		cmp	r3, #127
 108 0008 1DD9     		bls	.L11
 109              	.LVL8:
 110              	.LBB22:
 111              	.LBB23:
 112              		.file 3 "USBlib_11U14/Drivers/USB/Core/DCD/LPC11UXX/Endpoint_LPC11Uxx.h"
 113              		.loc 3 343 0
 114 000a 224B     		ldr	r3, .L21+4
ARM GAS  /tmp/cc7uHROk.s 			page 3


 115 000c 1B5C     		ldrb	r3, [r3, r0]
 116 000e 002B     		cmp	r3, #0
 117 0010 04D1     		bne	.L12
 118              		.loc 3 344 0
 119 0012 8200     		lsl	r2, r0, #2
 120 0014 0024     		mov	r4, #0
 121 0016 2049     		ldr	r1, .L21+8
 122 0018 5450     		str	r4, [r2, r1]
 123 001a 03E0     		b	.L13
 124              	.L12:
 125              		.loc 3 346 0
 126 001c 8200     		lsl	r2, r0, #2
 127 001e 0024     		mov	r4, #0
 128 0020 1E49     		ldr	r1, .L21+12
 129 0022 5450     		str	r4, [r2, r1]
 130              	.L13:
 131              		.loc 3 348 0
 132 0024 0028     		cmp	r0, #0
 133 0026 01D0     		beq	.L19
 134 0028 1D4A     		ldr	r2, .L21+16
 135 002a 00E0     		b	.L14
 136              	.L19:
 137 002c 1D4A     		ldr	r2, .L21+20
 138              	.L14:
 139 002e D35C     		ldrb	r3, [r2, r3]
 140 0030 DB00     		lsl	r3, r3, #3
 141 0032 1D4A     		ldr	r2, .L21+24
 142 0034 D318     		add	r3, r2, r3
 143 0036 5988     		ldrh	r1, [r3, #2]
 144 0038 890A     		lsr	r1, r1, #10
 145 003a 8902     		lsl	r1, r1, #10
 146 003c 8022     		mov	r2, #128
 147 003e 9200     		lsl	r2, r2, #2
 148 0040 0A43     		orr	r2, r1
 149 0042 5A80     		strh	r2, [r3, #2]
 150 0044 22E0     		b	.L10
 151              	.LVL9:
 152              	.L11:
 153              	.LBE23:
 154              	.LBE22:
 155              	.LBB24:
 156              	.LBB25:
 157              		.loc 3 327 0
 158 0046 134B     		ldr	r3, .L21+4
 159 0048 1B5C     		ldrb	r3, [r3, r0]
 160 004a 002B     		cmp	r3, #0
 161 004c 07D0     		beq	.L16
 162 004e 0028     		cmp	r0, #0
 163 0050 01D0     		beq	.L20
 164 0052 134A     		ldr	r2, .L21+16
 165 0054 00E0     		b	.L17
 166              	.L20:
 167 0056 134A     		ldr	r2, .L21+20
 168              	.L17:
 169 0058 D35C     		ldrb	r3, [r2, r3]
 170              	.LVL10:
 171              		.loc 3 328 0
ARM GAS  /tmp/cc7uHROk.s 			page 4


 172 005a 012B     		cmp	r3, #1
 173 005c 0BD1     		bne	.L18
 174              	.LVL11:
 175              	.L16:
 176              		.loc 3 329 0
 177 005e 0E4C     		ldr	r4, .L21+8
 178 0060 8500     		lsl	r5, r0, #2
 179 0062 2A59     		ldr	r2, [r5, r4]
 180 0064 4002     		lsl	r0, r0, #9
 181              	.LVL12:
 182 0066 1149     		ldr	r1, .L21+28
 183 0068 0918     		add	r1, r1, r0
 184 006a 0120     		mov	r0, #1
 185 006c FFF7FEFF 		bl	DcdDataTransfer
 186              	.LVL13:
 187              		.loc 3 330 0
 188 0070 0023     		mov	r3, #0
 189 0072 2B51     		str	r3, [r5, r4]
 190 0074 0AE0     		b	.L10
 191              	.LVL14:
 192              	.L18:
 193              		.loc 3 333 0
 194 0076 0E4C     		ldr	r4, .L21+32
 195 0078 8500     		lsl	r5, r0, #2
 196 007a 2A59     		ldr	r2, [r5, r4]
 197              	.LVL15:
 198 007c 4002     		lsl	r0, r0, #9
 199              	.LVL16:
 200 007e 0D49     		ldr	r1, .L21+36
 201 0080 0918     		add	r1, r1, r0
 202 0082 181C     		mov	r0, r3
 203 0084 FFF7FEFF 		bl	DcdDataTransfer
 204              	.LVL17:
 205              		.loc 3 334 0
 206 0088 0023     		mov	r3, #0
 207 008a 2B51     		str	r3, [r5, r4]
 208              	.L10:
 209              	.LBE25:
 210              	.LBE24:
 211              		.loc 1 133 0
 212              		@ sp needed
 213 008c 38BD     		pop	{r3, r4, r5, pc}
 214              	.L22:
 215 008e C046     		.align	2
 216              	.L21:
 217 0090 00000000 		.word	USB_ControlRequest
 218 0094 00000000 		.word	.LANCHOR0
 219 0098 00000000 		.word	.LANCHOR3
 220 009c 00000000 		.word	.LANCHOR4
 221 00a0 00000000 		.word	.LANCHOR1
 222 00a4 00000000 		.word	.LANCHOR2
 223 00a8 00000000 		.word	EndPointCmdStsList
 224 00ac 00000000 		.word	.LANCHOR5
 225 00b0 00000000 		.word	.LANCHOR6
 226 00b4 00020000 		.word	.LANCHOR7
 227              		.cfi_endproc
 228              	.LFE99:
ARM GAS  /tmp/cc7uHROk.s 			page 5


 229              		.size	Endpoint_ClearStatusStage, .-Endpoint_ClearStatusStage
 230              		.section	.text.Endpoint_WaitUntilReady,"ax",%progbits
 231              		.align	2
 232              		.global	Endpoint_WaitUntilReady
 233              		.code	16
 234              		.thumb_func
 235              		.type	Endpoint_WaitUntilReady, %function
 236              	Endpoint_WaitUntilReady:
 237              	.LFB100:
 238              		.loc 1 137 0
 239              		.cfi_startproc
 240              		.loc 1 139 0
 241 0000 0020     		mov	r0, #0
 242              		@ sp needed
 243 0002 7047     		bx	lr
 244              		.cfi_endproc
 245              	.LFE100:
 246              		.size	Endpoint_WaitUntilReady, .-Endpoint_WaitUntilReady
 247              		.global	endpointhandle1
 248              		.global	endpointhandle0
 249              		.global	endpointselected
 250              		.global	usb_data_buffer_IN_index
 251              		.global	usb_data_buffer_IN
 252              		.global	usb_data_buffer_OUT_index
 253              		.global	usb_data_buffer_OUT_size
 254              		.global	usb_data_buffer_OUT
 255              		.global	usb_data_buffer_index
 256              		.global	usb_data_buffer_size
 257              		.global	usb_data_buffer
 258              		.section	.bss.usb_data_buffer_size,"aw",%nobits
 259              		.align	2
 260              		.type	usb_data_buffer_size, %object
 261              		.size	usb_data_buffer_size, 4
 262              	usb_data_buffer_size:
 263 0000 00000000 		.space	4
 264              		.section	.bss.endpointhandle0,"aw",%nobits
 265              		.align	2
 266              		.set	.LANCHOR2,. + 0
 267              		.type	endpointhandle0, %object
 268              		.size	endpointhandle0, 5
 269              	endpointhandle0:
 270 0000 00000000 		.space	5
 270      00
 271 0005 000000   		.section	.bss.endpointhandle1,"aw",%nobits
 272              		.align	2
 273              		.set	.LANCHOR1,. + 0
 274              		.type	endpointhandle1, %object
 275              		.size	endpointhandle1, 5
 276              	endpointhandle1:
 277 0000 00000000 		.space	5
 277      00
 278 0005 000000   		.section	.bss.usb_data_buffer_index,"aw",%nobits
 279              		.align	2
 280              		.set	.LANCHOR3,. + 0
 281              		.type	usb_data_buffer_index, %object
 282              		.size	usb_data_buffer_index, 4
 283              	usb_data_buffer_index:
ARM GAS  /tmp/cc7uHROk.s 			page 6


 284 0000 00000000 		.space	4
 285              		.section	.bss.usb_data_buffer_OUT_index,"aw",%nobits
 286              		.align	2
 287              		.set	.LANCHOR4,. + 0
 288              		.type	usb_data_buffer_OUT_index, %object
 289              		.size	usb_data_buffer_OUT_index, 4
 290              	usb_data_buffer_OUT_index:
 291 0000 00000000 		.space	4
 292              		.section	.bss.usb_data_buffer_OUT_size,"aw",%nobits
 293              		.align	2
 294              		.type	usb_data_buffer_OUT_size, %object
 295              		.size	usb_data_buffer_OUT_size, 4
 296              	usb_data_buffer_OUT_size:
 297 0000 00000000 		.space	4
 298              		.section	.bss.endpointselected,"aw",%nobits
 299              		.align	2
 300              		.set	.LANCHOR0,. + 0
 301              		.type	endpointselected, %object
 302              		.size	endpointselected, 1
 303              	endpointselected:
 304 0000 00       		.space	1
 305 0001 000000   		.section	.bss.$RAM2,"aw",%nobits
 306              		.align	6
 307              		.set	.LANCHOR5,. + 0
 308              		.set	.LANCHOR7,. + 512
 309              		.type	usb_data_buffer, %object
 310              		.size	usb_data_buffer, 512
 311              	usb_data_buffer:
 312 0000 00000000 		.space	512
 312      00000000 
 312      00000000 
 312      00000000 
 312      00000000 
 313              		.type	usb_data_buffer_IN, %object
 314              		.size	usb_data_buffer_IN, 512
 315              	usb_data_buffer_IN:
 316 0200 00000000 		.space	512
 316      00000000 
 316      00000000 
 316      00000000 
 316      00000000 
 317              		.type	usb_data_buffer_OUT, %object
 318              		.size	usb_data_buffer_OUT, 512
 319              	usb_data_buffer_OUT:
 320 0400 00000000 		.space	512
 320      00000000 
 320      00000000 
 320      00000000 
 320      00000000 
 321              		.section	.bss.usb_data_buffer_IN_index,"aw",%nobits
 322              		.align	2
 323              		.set	.LANCHOR6,. + 0
 324              		.type	usb_data_buffer_IN_index, %object
 325              		.size	usb_data_buffer_IN_index, 4
 326              	usb_data_buffer_IN_index:
 327 0000 00000000 		.space	4
 328              		.text
ARM GAS  /tmp/cc7uHROk.s 			page 7


 329              	.Letext0:
 330              		.file 4 "/usr/local/lpcxpresso_7.3.0_186/lpcxpresso/tools/arm-none-eabi/include/machine/_default_t
 331              		.file 5 "/usr/local/lpcxpresso_7.3.0_186/lpcxpresso/tools/arm-none-eabi/include/stdint.h"
 332              		.file 6 "USBlib_11U14/Drivers/USB/Core/DCD/LPC11UXX/../../HAL/LPC11UXX/HAL_LPC11Uxx.h"
 333              		.file 7 "USBlib_11U14/Drivers/USB/Core/StdRequestType.h"
 334              		.file 8 "USBlib_11U14/Drivers/USB/Core/USBTask.h"
 335              		.section	.debug_info,"",%progbits
 336              	.Ldebug_info0:
 337 0000 29050000 		.4byte	0x529
 338 0004 0400     		.2byte	0x4
 339 0006 00000000 		.4byte	.Ldebug_abbrev0
 340 000a 04       		.byte	0x4
 341 000b 01       		.uleb128 0x1
 342 000c 01010000 		.4byte	.LASF66
 343 0010 01       		.byte	0x1
 344 0011 D8000000 		.4byte	.LASF67
 345 0015 AD030000 		.4byte	.LASF68
 346 0019 00000000 		.4byte	.Ldebug_ranges0+0
 347 001d 00000000 		.4byte	0
 348 0021 00000000 		.4byte	.Ldebug_line0
 349 0025 02       		.uleb128 0x2
 350 0026 01       		.byte	0x1
 351 0027 06       		.byte	0x6
 352 0028 2E020000 		.4byte	.LASF0
 353 002c 03       		.uleb128 0x3
 354 002d 69020000 		.4byte	.LASF3
 355 0031 04       		.byte	0x4
 356 0032 1C       		.byte	0x1c
 357 0033 37000000 		.4byte	0x37
 358 0037 02       		.uleb128 0x2
 359 0038 01       		.byte	0x1
 360 0039 08       		.byte	0x8
 361 003a EF020000 		.4byte	.LASF1
 362 003e 02       		.uleb128 0x2
 363 003f 02       		.byte	0x2
 364 0040 05       		.byte	0x5
 365 0041 73000000 		.4byte	.LASF2
 366 0045 03       		.uleb128 0x3
 367 0046 C6010000 		.4byte	.LASF4
 368 004a 04       		.byte	0x4
 369 004b 26       		.byte	0x26
 370 004c 50000000 		.4byte	0x50
 371 0050 02       		.uleb128 0x2
 372 0051 02       		.byte	0x2
 373 0052 07       		.byte	0x7
 374 0053 94030000 		.4byte	.LASF5
 375 0057 03       		.uleb128 0x3
 376 0058 7E040000 		.4byte	.LASF6
 377 005c 04       		.byte	0x4
 378 005d 37       		.byte	0x37
 379 005e 62000000 		.4byte	0x62
 380 0062 02       		.uleb128 0x2
 381 0063 04       		.byte	0x4
 382 0064 05       		.byte	0x5
 383 0065 48020000 		.4byte	.LASF7
 384 0069 03       		.uleb128 0x3
 385 006a CD000000 		.4byte	.LASF8
ARM GAS  /tmp/cc7uHROk.s 			page 8


 386 006e 04       		.byte	0x4
 387 006f 38       		.byte	0x38
 388 0070 74000000 		.4byte	0x74
 389 0074 02       		.uleb128 0x2
 390 0075 04       		.byte	0x4
 391 0076 07       		.byte	0x7
 392 0077 3F040000 		.4byte	.LASF9
 393 007b 02       		.uleb128 0x2
 394 007c 08       		.byte	0x8
 395 007d 05       		.byte	0x5
 396 007e 3A020000 		.4byte	.LASF10
 397 0082 02       		.uleb128 0x2
 398 0083 08       		.byte	0x8
 399 0084 07       		.byte	0x7
 400 0085 21030000 		.4byte	.LASF11
 401 0089 04       		.uleb128 0x4
 402 008a 04       		.byte	0x4
 403 008b 05       		.byte	0x5
 404 008c 696E7400 		.ascii	"int\000"
 405 0090 02       		.uleb128 0x2
 406 0091 04       		.byte	0x4
 407 0092 07       		.byte	0x7
 408 0093 55030000 		.4byte	.LASF12
 409 0097 03       		.uleb128 0x3
 410 0098 F7010000 		.4byte	.LASF13
 411 009c 05       		.byte	0x5
 412 009d 2A       		.byte	0x2a
 413 009e 2C000000 		.4byte	0x2c
 414 00a2 03       		.uleb128 0x3
 415 00a3 62030000 		.4byte	.LASF14
 416 00a7 05       		.byte	0x5
 417 00a8 36       		.byte	0x36
 418 00a9 45000000 		.4byte	0x45
 419 00ad 03       		.uleb128 0x3
 420 00ae E7030000 		.4byte	.LASF15
 421 00b2 05       		.byte	0x5
 422 00b3 41       		.byte	0x41
 423 00b4 57000000 		.4byte	0x57
 424 00b8 03       		.uleb128 0x3
 425 00b9 38030000 		.4byte	.LASF16
 426 00bd 05       		.byte	0x5
 427 00be 42       		.byte	0x42
 428 00bf 69000000 		.4byte	0x69
 429 00c3 02       		.uleb128 0x2
 430 00c4 04       		.byte	0x4
 431 00c5 07       		.byte	0x7
 432 00c6 9C000000 		.4byte	.LASF17
 433 00ca 02       		.uleb128 0x2
 434 00cb 01       		.byte	0x1
 435 00cc 08       		.byte	0x8
 436 00cd E2030000 		.4byte	.LASF18
 437 00d1 05       		.uleb128 0x5
 438 00d2 B8000000 		.4byte	0xb8
 439 00d6 E1000000 		.4byte	0xe1
 440 00da 06       		.uleb128 0x6
 441 00db C3000000 		.4byte	0xc3
 442 00df 00       		.byte	0
ARM GAS  /tmp/cc7uHROk.s 			page 9


 443 00e0 00       		.byte	0
 444 00e1 07       		.uleb128 0x7
 445 00e2 04       		.byte	0x4
 446 00e3 06       		.byte	0x6
 447 00e4 3B       		.byte	0x3b
 448 00e5 5F010000 		.4byte	0x15f
 449 00e9 08       		.uleb128 0x8
 450 00ea 51020000 		.4byte	.LASF27
 451 00ee 06       		.byte	0x6
 452 00ef 3C       		.byte	0x3c
 453 00f0 A2000000 		.4byte	0xa2
 454 00f4 00       		.byte	0
 455 00f5 09       		.uleb128 0x9
 456 00f6 6B040000 		.4byte	.LASF19
 457 00fa 06       		.byte	0x6
 458 00fb 3E       		.byte	0x3e
 459 00fc 5F010000 		.4byte	0x15f
 460 0100 02       		.byte	0x2
 461 0101 0A       		.byte	0xa
 462 0102 06       		.byte	0x6
 463 0103 02       		.byte	0x2
 464 0104 09       		.uleb128 0x9
 465 0105 3A040000 		.4byte	.LASF20
 466 0109 06       		.byte	0x6
 467 010a 3F       		.byte	0x3f
 468 010b A2000000 		.4byte	0xa2
 469 010f 02       		.byte	0x2
 470 0110 01       		.byte	0x1
 471 0111 05       		.byte	0x5
 472 0112 02       		.byte	0x2
 473 0113 09       		.uleb128 0x9
 474 0114 FD020000 		.4byte	.LASF21
 475 0118 06       		.byte	0x6
 476 0119 40       		.byte	0x40
 477 011a A2000000 		.4byte	0xa2
 478 011e 02       		.byte	0x2
 479 011f 01       		.byte	0x1
 480 0120 04       		.byte	0x4
 481 0121 02       		.byte	0x2
 482 0122 09       		.uleb128 0x9
 483 0123 A3040000 		.4byte	.LASF22
 484 0127 06       		.byte	0x6
 485 0128 41       		.byte	0x41
 486 0129 A2000000 		.4byte	0xa2
 487 012d 02       		.byte	0x2
 488 012e 01       		.byte	0x1
 489 012f 03       		.byte	0x3
 490 0130 02       		.byte	0x2
 491 0131 09       		.uleb128 0x9
 492 0132 78040000 		.4byte	.LASF23
 493 0136 06       		.byte	0x6
 494 0137 42       		.byte	0x42
 495 0138 5F010000 		.4byte	0x15f
 496 013c 02       		.byte	0x2
 497 013d 01       		.byte	0x1
 498 013e 02       		.byte	0x2
 499 013f 02       		.byte	0x2
ARM GAS  /tmp/cc7uHROk.s 			page 10


 500 0140 09       		.uleb128 0x9
 501 0141 9A050000 		.4byte	.LASF24
 502 0145 06       		.byte	0x6
 503 0146 43       		.byte	0x43
 504 0147 A2000000 		.4byte	0xa2
 505 014b 02       		.byte	0x2
 506 014c 01       		.byte	0x1
 507 014d 01       		.byte	0x1
 508 014e 02       		.byte	0x2
 509 014f 09       		.uleb128 0x9
 510 0150 62020000 		.4byte	.LASF25
 511 0154 06       		.byte	0x6
 512 0155 44       		.byte	0x44
 513 0156 5F010000 		.4byte	0x15f
 514 015a 02       		.byte	0x2
 515 015b 01       		.byte	0x1
 516 015c 00       		.byte	0
 517 015d 02       		.byte	0x2
 518 015e 00       		.byte	0
 519 015f 0A       		.uleb128 0xa
 520 0160 A2000000 		.4byte	0xa2
 521 0164 03       		.uleb128 0x3
 522 0165 EA010000 		.4byte	.LASF26
 523 0169 06       		.byte	0x6
 524 016a 46       		.byte	0x46
 525 016b E1000000 		.4byte	0xe1
 526 016f 07       		.uleb128 0x7
 527 0170 08       		.byte	0x8
 528 0171 07       		.byte	0x7
 529 0172 9E       		.byte	0x9e
 530 0173 B4010000 		.4byte	0x1b4
 531 0177 08       		.uleb128 0x8
 532 0178 0A040000 		.4byte	.LASF28
 533 017c 07       		.byte	0x7
 534 017d A0       		.byte	0xa0
 535 017e 97000000 		.4byte	0x97
 536 0182 00       		.byte	0
 537 0183 08       		.uleb128 0x8
 538 0184 5F050000 		.4byte	.LASF29
 539 0188 07       		.byte	0x7
 540 0189 A1       		.byte	0xa1
 541 018a 97000000 		.4byte	0x97
 542 018e 01       		.byte	0x1
 543 018f 08       		.uleb128 0x8
 544 0190 86020000 		.4byte	.LASF30
 545 0194 07       		.byte	0x7
 546 0195 A2       		.byte	0xa2
 547 0196 A2000000 		.4byte	0xa2
 548 019a 02       		.byte	0x2
 549 019b 08       		.uleb128 0x8
 550 019c 68050000 		.4byte	.LASF31
 551 01a0 07       		.byte	0x7
 552 01a1 A3       		.byte	0xa3
 553 01a2 A2000000 		.4byte	0xa2
 554 01a6 04       		.byte	0x4
 555 01a7 08       		.uleb128 0x8
 556 01a8 37050000 		.4byte	.LASF32
ARM GAS  /tmp/cc7uHROk.s 			page 11


 557 01ac 07       		.byte	0x7
 558 01ad A4       		.byte	0xa4
 559 01ae A2000000 		.4byte	0xa2
 560 01b2 06       		.byte	0x6
 561 01b3 00       		.byte	0
 562 01b4 03       		.uleb128 0x3
 563 01b5 CA020000 		.4byte	.LASF33
 564 01b9 07       		.byte	0x7
 565 01ba A5       		.byte	0xa5
 566 01bb 6F010000 		.4byte	0x16f
 567 01bf 0B       		.uleb128 0xb
 568 01c0 8D020000 		.4byte	.LASF69
 569 01c4 01       		.byte	0x1
 570 01c5 02       		.byte	0x2
 571 01c6 9B       		.byte	0x9b
 572 01c7 EA010000 		.4byte	0x1ea
 573 01cb 0C       		.uleb128 0xc
 574 01cc 1C050000 		.4byte	.LASF34
 575 01d0 00       		.sleb128 0
 576 01d1 0C       		.uleb128 0xc
 577 01d2 38000000 		.4byte	.LASF35
 578 01d6 01       		.sleb128 1
 579 01d7 0C       		.uleb128 0xc
 580 01d8 DB040000 		.4byte	.LASF36
 581 01dc 02       		.sleb128 2
 582 01dd 0C       		.uleb128 0xc
 583 01de 3F050000 		.4byte	.LASF37
 584 01e2 03       		.sleb128 3
 585 01e3 0C       		.uleb128 0xc
 586 01e4 88040000 		.4byte	.LASF38
 587 01e8 04       		.sleb128 4
 588 01e9 00       		.byte	0
 589 01ea 0D       		.uleb128 0xd
 590 01eb 6B030000 		.4byte	.LASF44
 591 01ef 02       		.byte	0x2
 592 01f0 CB       		.byte	0xcb
 593 01f1 03       		.byte	0x3
 594 01f2 0D020000 		.4byte	0x20d
 595 01f6 0E       		.uleb128 0xe
 596 01f7 30000000 		.4byte	.LASF39
 597 01fb 02       		.byte	0x2
 598 01fc CB       		.byte	0xcb
 599 01fd 97000000 		.4byte	0x97
 600 0201 0E       		.uleb128 0xe
 601 0202 01050000 		.4byte	.LASF40
 602 0206 02       		.byte	0x2
 603 0207 CB       		.byte	0xcb
 604 0208 0D020000 		.4byte	0x20d
 605 020c 00       		.byte	0
 606 020d 0F       		.uleb128 0xf
 607 020e 97000000 		.4byte	0x97
 608 0212 10       		.uleb128 0x10
 609 0213 FF010000 		.4byte	.LASF41
 610 0217 03       		.byte	0x3
 611 0218 E1       		.byte	0xe1
 612 0219 03       		.byte	0x3
 613 021a 10       		.uleb128 0x10
ARM GAS  /tmp/cc7uHROk.s 			page 12


 614 021b 82050000 		.4byte	.LASF42
 615 021f 03       		.byte	0x3
 616 0220 DB       		.byte	0xdb
 617 0221 03       		.byte	0x3
 618 0222 11       		.uleb128 0x11
 619 0223 1A000000 		.4byte	.LASF70
 620 0227 03       		.byte	0x3
 621 0228 FA       		.byte	0xfa
 622 0229 2E020000 		.4byte	0x22e
 623 022d 03       		.byte	0x3
 624 022e 02       		.uleb128 0x2
 625 022f 01       		.byte	0x1
 626 0230 02       		.byte	0x2
 627 0231 04040000 		.4byte	.LASF43
 628 0235 12       		.uleb128 0x12
 629 0236 18040000 		.4byte	.LASF45
 630 023a 03       		.byte	0x3
 631 023b 5501     		.2byte	0x155
 632 023d 03       		.byte	0x3
 633 023e 4F020000 		.4byte	0x24f
 634 0242 13       		.uleb128 0x13
 635 0243 30000000 		.4byte	.LASF39
 636 0247 03       		.byte	0x3
 637 0248 5501     		.2byte	0x155
 638 024a 97000000 		.4byte	0x97
 639 024e 00       		.byte	0
 640 024f 12       		.uleb128 0x12
 641 0250 83030000 		.4byte	.LASF46
 642 0254 03       		.byte	0x3
 643 0255 4501     		.2byte	0x145
 644 0257 03       		.byte	0x3
 645 0258 75020000 		.4byte	0x275
 646 025c 13       		.uleb128 0x13
 647 025d 30000000 		.4byte	.LASF39
 648 0261 03       		.byte	0x3
 649 0262 4501     		.2byte	0x145
 650 0264 97000000 		.4byte	0x97
 651 0268 14       		.uleb128 0x14
 652 0269 72040000 		.4byte	.LASF71
 653 026d 03       		.byte	0x3
 654 026e 4701     		.2byte	0x147
 655 0270 97000000 		.4byte	0x97
 656 0274 00       		.byte	0
 657 0275 15       		.uleb128 0x15
 658 0276 7D000000 		.4byte	.LASF72
 659 027a 01       		.byte	0x1
 660 027b 39       		.byte	0x39
 661 027c 2E020000 		.4byte	0x22e
 662 0280 00000000 		.4byte	.LFB97
 663 0284 1C000000 		.4byte	.LFE97-.LFB97
 664 0288 01       		.uleb128 0x1
 665 0289 9C       		.byte	0x9c
 666 028a F6020000 		.4byte	0x2f6
 667 028e 16       		.uleb128 0x16
 668 028f 30000000 		.4byte	.LASF39
 669 0293 01       		.byte	0x1
 670 0294 39       		.byte	0x39
ARM GAS  /tmp/cc7uHROk.s 			page 13


 671 0295 97000000 		.4byte	0x97
 672 0299 00000000 		.4byte	.LLST0
 673 029d 17       		.uleb128 0x17
 674 029e A5000000 		.4byte	.LASF47
 675 02a2 01       		.byte	0x1
 676 02a3 3A       		.byte	0x3a
 677 02a4 0D020000 		.4byte	0x20d
 678 02a8 01       		.uleb128 0x1
 679 02a9 51       		.byte	0x51
 680 02aa 17       		.uleb128 0x17
 681 02ab D6030000 		.4byte	.LASF48
 682 02af 01       		.byte	0x1
 683 02b0 3B       		.byte	0x3b
 684 02b1 0D020000 		.4byte	0x20d
 685 02b5 01       		.uleb128 0x1
 686 02b6 52       		.byte	0x52
 687 02b7 16       		.uleb128 0x16
 688 02b8 10050000 		.4byte	.LASF49
 689 02bc 01       		.byte	0x1
 690 02bd 3C       		.byte	0x3c
 691 02be 0D020000 		.4byte	0x20d
 692 02c2 21000000 		.4byte	.LLST1
 693 02c6 18       		.uleb128 0x18
 694 02c7 A7030000 		.4byte	.LASF50
 695 02cb 01       		.byte	0x1
 696 02cc 48       		.byte	0x48
 697 02cd 97000000 		.4byte	0x97
 698 02d1 42000000 		.4byte	.LLST2
 699 02d5 19       		.uleb128 0x19
 700 02d6 EA010000 		.4byte	0x1ea
 701 02da 0E000000 		.4byte	.LBB20
 702 02de 04000000 		.4byte	.LBE20-.LBB20
 703 02e2 01       		.byte	0x1
 704 02e3 6B       		.byte	0x6b
 705 02e4 1A       		.uleb128 0x1a
 706 02e5 01020000 		.4byte	0x201
 707 02e9 01       		.uleb128 0x1
 708 02ea 51       		.byte	0x51
 709 02eb 1B       		.uleb128 0x1b
 710 02ec F6010000 		.4byte	0x1f6
 711 02f0 78000000 		.4byte	.LLST3
 712 02f4 00       		.byte	0
 713 02f5 00       		.byte	0
 714 02f6 1C       		.uleb128 0x1c
 715 02f7 B2020000 		.4byte	.LASF51
 716 02fb 01       		.byte	0x1
 717 02fc 70       		.byte	0x70
 718 02fd 00000000 		.4byte	.LFB98
 719 0301 0C000000 		.4byte	.LFE98-.LFB98
 720 0305 01       		.uleb128 0x1
 721 0306 9C       		.byte	0x9c
 722 0307 25030000 		.4byte	0x325
 723 030b 17       		.uleb128 0x17
 724 030c 30000000 		.4byte	.LASF39
 725 0310 01       		.byte	0x1
 726 0311 70       		.byte	0x70
 727 0312 97000000 		.4byte	0x97
ARM GAS  /tmp/cc7uHROk.s 			page 14


 728 0316 01       		.uleb128 0x1
 729 0317 50       		.byte	0x50
 730 0318 1D       		.uleb128 0x1d
 731 0319 A7030000 		.4byte	.LASF50
 732 031d 01       		.byte	0x1
 733 031e 73       		.byte	0x73
 734 031f 97000000 		.4byte	0x97
 735 0323 05       		.byte	0x5
 736 0324 00       		.byte	0
 737 0325 1C       		.uleb128 0x1c
 738 0326 51040000 		.4byte	.LASF52
 739 032a 01       		.byte	0x1
 740 032b 7D       		.byte	0x7d
 741 032c 00000000 		.4byte	.LFB99
 742 0330 B8000000 		.4byte	.LFE99-.LFB99
 743 0334 01       		.uleb128 0x1
 744 0335 9C       		.byte	0x9c
 745 0336 AF030000 		.4byte	0x3af
 746 033a 16       		.uleb128 0x16
 747 033b 30000000 		.4byte	.LASF39
 748 033f 01       		.byte	0x1
 749 0340 7D       		.byte	0x7d
 750 0341 97000000 		.4byte	0x97
 751 0345 8B000000 		.4byte	.LLST4
 752 0349 1E       		.uleb128 0x1e
 753 034a 35020000 		.4byte	0x235
 754 034e 0A000000 		.4byte	.LBB22
 755 0352 3C000000 		.4byte	.LBE22-.LBB22
 756 0356 01       		.byte	0x1
 757 0357 80       		.byte	0x80
 758 0358 66030000 		.4byte	0x366
 759 035c 1B       		.uleb128 0x1b
 760 035d 42020000 		.4byte	0x242
 761 0361 C5000000 		.4byte	.LLST5
 762 0365 00       		.byte	0
 763 0366 19       		.uleb128 0x19
 764 0367 4F020000 		.4byte	0x24f
 765 036b 46000000 		.4byte	.LBB24
 766 036f 46000000 		.4byte	.LBE24-.LBB24
 767 0373 01       		.byte	0x1
 768 0374 83       		.byte	0x83
 769 0375 1B       		.uleb128 0x1b
 770 0376 5C020000 		.4byte	0x25c
 771 037a D8000000 		.4byte	.LLST6
 772 037e 1F       		.uleb128 0x1f
 773 037f 46000000 		.4byte	.LBB25
 774 0383 46000000 		.4byte	.LBE25-.LBB25
 775 0387 20       		.uleb128 0x20
 776 0388 68020000 		.4byte	0x268
 777 038c F6000000 		.4byte	.LLST7
 778 0390 21       		.uleb128 0x21
 779 0391 70000000 		.4byte	.LVL13
 780 0395 0B050000 		.4byte	0x50b
 781 0399 A3030000 		.4byte	0x3a3
 782 039d 22       		.uleb128 0x22
 783 039e 01       		.uleb128 0x1
 784 039f 50       		.byte	0x50
ARM GAS  /tmp/cc7uHROk.s 			page 15


 785 03a0 01       		.uleb128 0x1
 786 03a1 31       		.byte	0x31
 787 03a2 00       		.byte	0
 788 03a3 23       		.uleb128 0x23
 789 03a4 88000000 		.4byte	.LVL17
 790 03a8 0B050000 		.4byte	0x50b
 791 03ac 00       		.byte	0
 792 03ad 00       		.byte	0
 793 03ae 00       		.byte	0
 794 03af 24       		.uleb128 0x24
 795 03b0 5B000000 		.4byte	.LASF73
 796 03b4 01       		.byte	0x1
 797 03b5 88       		.byte	0x88
 798 03b6 97000000 		.4byte	0x97
 799 03ba 00000000 		.4byte	.LFB100
 800 03be 04000000 		.4byte	.LFE100-.LFB100
 801 03c2 01       		.uleb128 0x1
 802 03c3 9C       		.byte	0x9c
 803 03c4 25       		.uleb128 0x25
 804 03c5 AF040000 		.4byte	.LASF53
 805 03c9 08       		.byte	0x8
 806 03ca 54       		.byte	0x54
 807 03cb B4010000 		.4byte	0x1b4
 808 03cf 05       		.uleb128 0x5
 809 03d0 97000000 		.4byte	0x97
 810 03d4 E6030000 		.4byte	0x3e6
 811 03d8 06       		.uleb128 0x6
 812 03d9 C3000000 		.4byte	0xc3
 813 03dd 00       		.byte	0
 814 03de 26       		.uleb128 0x26
 815 03df C3000000 		.4byte	0xc3
 816 03e3 FF01     		.2byte	0x1ff
 817 03e5 00       		.byte	0
 818 03e6 27       		.uleb128 0x27
 819 03e7 11030000 		.4byte	.LASF54
 820 03eb 01       		.byte	0x1
 821 03ec 2B       		.byte	0x2b
 822 03ed CF030000 		.4byte	0x3cf
 823 03f1 05       		.uleb128 0x5
 824 03f2 03       		.byte	0x3
 825 03f3 00000000 		.4byte	usb_data_buffer
 826 03f7 27       		.uleb128 0x27
 827 03f8 73020000 		.4byte	.LASF55
 828 03fc 01       		.byte	0x1
 829 03fd 32       		.byte	0x32
 830 03fe CF030000 		.4byte	0x3cf
 831 0402 05       		.uleb128 0x5
 832 0403 03       		.byte	0x3
 833 0404 00000000 		.4byte	usb_data_buffer_IN
 834 0408 27       		.uleb128 0x27
 835 0409 41030000 		.4byte	.LASF56
 836 040d 01       		.byte	0x1
 837 040e 2F       		.byte	0x2f
 838 040f CF030000 		.4byte	0x3cf
 839 0413 05       		.uleb128 0x5
 840 0414 03       		.byte	0x3
 841 0415 00000000 		.4byte	usb_data_buffer_OUT
ARM GAS  /tmp/cc7uHROk.s 			page 16


 842 0419 05       		.uleb128 0x5
 843 041a AD000000 		.4byte	0xad
 844 041e 29040000 		.4byte	0x429
 845 0422 06       		.uleb128 0x6
 846 0423 C3000000 		.4byte	0xc3
 847 0427 00       		.byte	0
 848 0428 00       		.byte	0
 849 0429 27       		.uleb128 0x27
 850 042a EF030000 		.4byte	.LASF57
 851 042e 01       		.byte	0x1
 852 042f 2D       		.byte	0x2d
 853 0430 3A040000 		.4byte	0x43a
 854 0434 05       		.uleb128 0x5
 855 0435 03       		.byte	0x3
 856 0436 00000000 		.4byte	usb_data_buffer_size
 857 043a 0A       		.uleb128 0xa
 858 043b 19040000 		.4byte	0x419
 859 043f 27       		.uleb128 0x27
 860 0440 C2040000 		.4byte	.LASF58
 861 0444 01       		.byte	0x1
 862 0445 30       		.byte	0x30
 863 0446 50040000 		.4byte	0x450
 864 044a 05       		.uleb128 0x5
 865 044b 03       		.byte	0x3
 866 044c 00000000 		.4byte	usb_data_buffer_OUT_size
 867 0450 0A       		.uleb128 0xa
 868 0451 D1000000 		.4byte	0xd1
 869 0455 27       		.uleb128 0x27
 870 0456 18020000 		.4byte	.LASF59
 871 045a 01       		.byte	0x1
 872 045b 2E       		.byte	0x2e
 873 045c 66040000 		.4byte	0x466
 874 0460 05       		.uleb128 0x5
 875 0461 03       		.byte	0x3
 876 0462 00000000 		.4byte	usb_data_buffer_index
 877 0466 0A       		.uleb128 0xa
 878 0467 D1000000 		.4byte	0xd1
 879 046b 27       		.uleb128 0x27
 880 046c D1010000 		.4byte	.LASF60
 881 0470 01       		.byte	0x1
 882 0471 33       		.byte	0x33
 883 0472 7C040000 		.4byte	0x47c
 884 0476 05       		.uleb128 0x5
 885 0477 03       		.byte	0x3
 886 0478 00000000 		.4byte	usb_data_buffer_IN_index
 887 047c 0A       		.uleb128 0xa
 888 047d D1000000 		.4byte	0xd1
 889 0481 27       		.uleb128 0x27
 890 0482 00000000 		.4byte	.LASF61
 891 0486 01       		.byte	0x1
 892 0487 31       		.byte	0x31
 893 0488 92040000 		.4byte	0x492
 894 048c 05       		.uleb128 0x5
 895 048d 03       		.byte	0x3
 896 048e 00000000 		.4byte	usb_data_buffer_OUT_index
 897 0492 0A       		.uleb128 0xa
 898 0493 D1000000 		.4byte	0xd1
ARM GAS  /tmp/cc7uHROk.s 			page 17


 899 0497 05       		.uleb128 0x5
 900 0498 97000000 		.4byte	0x97
 901 049c A7040000 		.4byte	0x4a7
 902 04a0 06       		.uleb128 0x6
 903 04a1 C3000000 		.4byte	0xc3
 904 04a5 00       		.byte	0
 905 04a6 00       		.byte	0
 906 04a7 27       		.uleb128 0x27
 907 04a8 BC000000 		.4byte	.LASF62
 908 04ac 01       		.byte	0x1
 909 04ad 35       		.byte	0x35
 910 04ae 97040000 		.4byte	0x497
 911 04b2 05       		.uleb128 0x5
 912 04b3 03       		.byte	0x3
 913 04b4 00000000 		.4byte	endpointselected
 914 04b8 05       		.uleb128 0x5
 915 04b9 97000000 		.4byte	0x97
 916 04bd C8040000 		.4byte	0x4c8
 917 04c1 06       		.uleb128 0x6
 918 04c2 C3000000 		.4byte	0xc3
 919 04c6 04       		.byte	0x4
 920 04c7 00       		.byte	0
 921 04c8 27       		.uleb128 0x27
 922 04c9 AC000000 		.4byte	.LASF63
 923 04cd 01       		.byte	0x1
 924 04ce 36       		.byte	0x36
 925 04cf B8040000 		.4byte	0x4b8
 926 04d3 05       		.uleb128 0x5
 927 04d4 03       		.byte	0x3
 928 04d5 00000000 		.4byte	endpointhandle0
 929 04d9 27       		.uleb128 0x27
 930 04da 2A040000 		.4byte	.LASF64
 931 04de 01       		.byte	0x1
 932 04df 37       		.byte	0x37
 933 04e0 B8040000 		.4byte	0x4b8
 934 04e4 05       		.uleb128 0x5
 935 04e5 03       		.byte	0x3
 936 04e6 00000000 		.4byte	endpointhandle1
 937 04ea 05       		.uleb128 0x5
 938 04eb 64010000 		.4byte	0x164
 939 04ef 00050000 		.4byte	0x500
 940 04f3 06       		.uleb128 0x6
 941 04f4 C3000000 		.4byte	0xc3
 942 04f8 09       		.byte	0x9
 943 04f9 06       		.uleb128 0x6
 944 04fa C3000000 		.4byte	0xc3
 945 04fe 01       		.byte	0x1
 946 04ff 00       		.byte	0
 947 0500 25       		.uleb128 0x25
 948 0501 6F050000 		.4byte	.LASF65
 949 0505 03       		.byte	0x3
 950 0506 C9       		.byte	0xc9
 951 0507 EA040000 		.4byte	0x4ea
 952 050b 28       		.uleb128 0x28
 953 050c DF020000 		.4byte	.LASF74
 954 0510 03       		.byte	0x3
 955 0511 C4       		.byte	0xc4
ARM GAS  /tmp/cc7uHROk.s 			page 18


 956 0512 26050000 		.4byte	0x526
 957 0516 29       		.uleb128 0x29
 958 0517 97000000 		.4byte	0x97
 959 051b 29       		.uleb128 0x29
 960 051c 26050000 		.4byte	0x526
 961 0520 29       		.uleb128 0x29
 962 0521 B8000000 		.4byte	0xb8
 963 0525 00       		.byte	0
 964 0526 2A       		.uleb128 0x2a
 965 0527 04       		.byte	0x4
 966 0528 97000000 		.4byte	0x97
 967 052c 00       		.byte	0
 968              		.section	.debug_abbrev,"",%progbits
 969              	.Ldebug_abbrev0:
 970 0000 01       		.uleb128 0x1
 971 0001 11       		.uleb128 0x11
 972 0002 01       		.byte	0x1
 973 0003 25       		.uleb128 0x25
 974 0004 0E       		.uleb128 0xe
 975 0005 13       		.uleb128 0x13
 976 0006 0B       		.uleb128 0xb
 977 0007 03       		.uleb128 0x3
 978 0008 0E       		.uleb128 0xe
 979 0009 1B       		.uleb128 0x1b
 980 000a 0E       		.uleb128 0xe
 981 000b 55       		.uleb128 0x55
 982 000c 17       		.uleb128 0x17
 983 000d 11       		.uleb128 0x11
 984 000e 01       		.uleb128 0x1
 985 000f 10       		.uleb128 0x10
 986 0010 17       		.uleb128 0x17
 987 0011 00       		.byte	0
 988 0012 00       		.byte	0
 989 0013 02       		.uleb128 0x2
 990 0014 24       		.uleb128 0x24
 991 0015 00       		.byte	0
 992 0016 0B       		.uleb128 0xb
 993 0017 0B       		.uleb128 0xb
 994 0018 3E       		.uleb128 0x3e
 995 0019 0B       		.uleb128 0xb
 996 001a 03       		.uleb128 0x3
 997 001b 0E       		.uleb128 0xe
 998 001c 00       		.byte	0
 999 001d 00       		.byte	0
 1000 001e 03       		.uleb128 0x3
 1001 001f 16       		.uleb128 0x16
 1002 0020 00       		.byte	0
 1003 0021 03       		.uleb128 0x3
 1004 0022 0E       		.uleb128 0xe
 1005 0023 3A       		.uleb128 0x3a
 1006 0024 0B       		.uleb128 0xb
 1007 0025 3B       		.uleb128 0x3b
 1008 0026 0B       		.uleb128 0xb
 1009 0027 49       		.uleb128 0x49
 1010 0028 13       		.uleb128 0x13
 1011 0029 00       		.byte	0
 1012 002a 00       		.byte	0
ARM GAS  /tmp/cc7uHROk.s 			page 19


 1013 002b 04       		.uleb128 0x4
 1014 002c 24       		.uleb128 0x24
 1015 002d 00       		.byte	0
 1016 002e 0B       		.uleb128 0xb
 1017 002f 0B       		.uleb128 0xb
 1018 0030 3E       		.uleb128 0x3e
 1019 0031 0B       		.uleb128 0xb
 1020 0032 03       		.uleb128 0x3
 1021 0033 08       		.uleb128 0x8
 1022 0034 00       		.byte	0
 1023 0035 00       		.byte	0
 1024 0036 05       		.uleb128 0x5
 1025 0037 01       		.uleb128 0x1
 1026 0038 01       		.byte	0x1
 1027 0039 49       		.uleb128 0x49
 1028 003a 13       		.uleb128 0x13
 1029 003b 01       		.uleb128 0x1
 1030 003c 13       		.uleb128 0x13
 1031 003d 00       		.byte	0
 1032 003e 00       		.byte	0
 1033 003f 06       		.uleb128 0x6
 1034 0040 21       		.uleb128 0x21
 1035 0041 00       		.byte	0
 1036 0042 49       		.uleb128 0x49
 1037 0043 13       		.uleb128 0x13
 1038 0044 2F       		.uleb128 0x2f
 1039 0045 0B       		.uleb128 0xb
 1040 0046 00       		.byte	0
 1041 0047 00       		.byte	0
 1042 0048 07       		.uleb128 0x7
 1043 0049 13       		.uleb128 0x13
 1044 004a 01       		.byte	0x1
 1045 004b 0B       		.uleb128 0xb
 1046 004c 0B       		.uleb128 0xb
 1047 004d 3A       		.uleb128 0x3a
 1048 004e 0B       		.uleb128 0xb
 1049 004f 3B       		.uleb128 0x3b
 1050 0050 0B       		.uleb128 0xb
 1051 0051 01       		.uleb128 0x1
 1052 0052 13       		.uleb128 0x13
 1053 0053 00       		.byte	0
 1054 0054 00       		.byte	0
 1055 0055 08       		.uleb128 0x8
 1056 0056 0D       		.uleb128 0xd
 1057 0057 00       		.byte	0
 1058 0058 03       		.uleb128 0x3
 1059 0059 0E       		.uleb128 0xe
 1060 005a 3A       		.uleb128 0x3a
 1061 005b 0B       		.uleb128 0xb
 1062 005c 3B       		.uleb128 0x3b
 1063 005d 0B       		.uleb128 0xb
 1064 005e 49       		.uleb128 0x49
 1065 005f 13       		.uleb128 0x13
 1066 0060 38       		.uleb128 0x38
 1067 0061 0B       		.uleb128 0xb
 1068 0062 00       		.byte	0
 1069 0063 00       		.byte	0
ARM GAS  /tmp/cc7uHROk.s 			page 20


 1070 0064 09       		.uleb128 0x9
 1071 0065 0D       		.uleb128 0xd
 1072 0066 00       		.byte	0
 1073 0067 03       		.uleb128 0x3
 1074 0068 0E       		.uleb128 0xe
 1075 0069 3A       		.uleb128 0x3a
 1076 006a 0B       		.uleb128 0xb
 1077 006b 3B       		.uleb128 0x3b
 1078 006c 0B       		.uleb128 0xb
 1079 006d 49       		.uleb128 0x49
 1080 006e 13       		.uleb128 0x13
 1081 006f 0B       		.uleb128 0xb
 1082 0070 0B       		.uleb128 0xb
 1083 0071 0D       		.uleb128 0xd
 1084 0072 0B       		.uleb128 0xb
 1085 0073 0C       		.uleb128 0xc
 1086 0074 0B       		.uleb128 0xb
 1087 0075 38       		.uleb128 0x38
 1088 0076 0B       		.uleb128 0xb
 1089 0077 00       		.byte	0
 1090 0078 00       		.byte	0
 1091 0079 0A       		.uleb128 0xa
 1092 007a 35       		.uleb128 0x35
 1093 007b 00       		.byte	0
 1094 007c 49       		.uleb128 0x49
 1095 007d 13       		.uleb128 0x13
 1096 007e 00       		.byte	0
 1097 007f 00       		.byte	0
 1098 0080 0B       		.uleb128 0xb
 1099 0081 04       		.uleb128 0x4
 1100 0082 01       		.byte	0x1
 1101 0083 03       		.uleb128 0x3
 1102 0084 0E       		.uleb128 0xe
 1103 0085 0B       		.uleb128 0xb
 1104 0086 0B       		.uleb128 0xb
 1105 0087 3A       		.uleb128 0x3a
 1106 0088 0B       		.uleb128 0xb
 1107 0089 3B       		.uleb128 0x3b
 1108 008a 0B       		.uleb128 0xb
 1109 008b 01       		.uleb128 0x1
 1110 008c 13       		.uleb128 0x13
 1111 008d 00       		.byte	0
 1112 008e 00       		.byte	0
 1113 008f 0C       		.uleb128 0xc
 1114 0090 28       		.uleb128 0x28
 1115 0091 00       		.byte	0
 1116 0092 03       		.uleb128 0x3
 1117 0093 0E       		.uleb128 0xe
 1118 0094 1C       		.uleb128 0x1c
 1119 0095 0D       		.uleb128 0xd
 1120 0096 00       		.byte	0
 1121 0097 00       		.byte	0
 1122 0098 0D       		.uleb128 0xd
 1123 0099 2E       		.uleb128 0x2e
 1124 009a 01       		.byte	0x1
 1125 009b 03       		.uleb128 0x3
 1126 009c 0E       		.uleb128 0xe
ARM GAS  /tmp/cc7uHROk.s 			page 21


 1127 009d 3A       		.uleb128 0x3a
 1128 009e 0B       		.uleb128 0xb
 1129 009f 3B       		.uleb128 0x3b
 1130 00a0 0B       		.uleb128 0xb
 1131 00a1 27       		.uleb128 0x27
 1132 00a2 19       		.uleb128 0x19
 1133 00a3 20       		.uleb128 0x20
 1134 00a4 0B       		.uleb128 0xb
 1135 00a5 01       		.uleb128 0x1
 1136 00a6 13       		.uleb128 0x13
 1137 00a7 00       		.byte	0
 1138 00a8 00       		.byte	0
 1139 00a9 0E       		.uleb128 0xe
 1140 00aa 05       		.uleb128 0x5
 1141 00ab 00       		.byte	0
 1142 00ac 03       		.uleb128 0x3
 1143 00ad 0E       		.uleb128 0xe
 1144 00ae 3A       		.uleb128 0x3a
 1145 00af 0B       		.uleb128 0xb
 1146 00b0 3B       		.uleb128 0x3b
 1147 00b1 0B       		.uleb128 0xb
 1148 00b2 49       		.uleb128 0x49
 1149 00b3 13       		.uleb128 0x13
 1150 00b4 00       		.byte	0
 1151 00b5 00       		.byte	0
 1152 00b6 0F       		.uleb128 0xf
 1153 00b7 26       		.uleb128 0x26
 1154 00b8 00       		.byte	0
 1155 00b9 49       		.uleb128 0x49
 1156 00ba 13       		.uleb128 0x13
 1157 00bb 00       		.byte	0
 1158 00bc 00       		.byte	0
 1159 00bd 10       		.uleb128 0x10
 1160 00be 2E       		.uleb128 0x2e
 1161 00bf 00       		.byte	0
 1162 00c0 03       		.uleb128 0x3
 1163 00c1 0E       		.uleb128 0xe
 1164 00c2 3A       		.uleb128 0x3a
 1165 00c3 0B       		.uleb128 0xb
 1166 00c4 3B       		.uleb128 0x3b
 1167 00c5 0B       		.uleb128 0xb
 1168 00c6 27       		.uleb128 0x27
 1169 00c7 19       		.uleb128 0x19
 1170 00c8 20       		.uleb128 0x20
 1171 00c9 0B       		.uleb128 0xb
 1172 00ca 00       		.byte	0
 1173 00cb 00       		.byte	0
 1174 00cc 11       		.uleb128 0x11
 1175 00cd 2E       		.uleb128 0x2e
 1176 00ce 00       		.byte	0
 1177 00cf 03       		.uleb128 0x3
 1178 00d0 0E       		.uleb128 0xe
 1179 00d1 3A       		.uleb128 0x3a
 1180 00d2 0B       		.uleb128 0xb
 1181 00d3 3B       		.uleb128 0x3b
 1182 00d4 0B       		.uleb128 0xb
 1183 00d5 27       		.uleb128 0x27
ARM GAS  /tmp/cc7uHROk.s 			page 22


 1184 00d6 19       		.uleb128 0x19
 1185 00d7 49       		.uleb128 0x49
 1186 00d8 13       		.uleb128 0x13
 1187 00d9 20       		.uleb128 0x20
 1188 00da 0B       		.uleb128 0xb
 1189 00db 00       		.byte	0
 1190 00dc 00       		.byte	0
 1191 00dd 12       		.uleb128 0x12
 1192 00de 2E       		.uleb128 0x2e
 1193 00df 01       		.byte	0x1
 1194 00e0 03       		.uleb128 0x3
 1195 00e1 0E       		.uleb128 0xe
 1196 00e2 3A       		.uleb128 0x3a
 1197 00e3 0B       		.uleb128 0xb
 1198 00e4 3B       		.uleb128 0x3b
 1199 00e5 05       		.uleb128 0x5
 1200 00e6 27       		.uleb128 0x27
 1201 00e7 19       		.uleb128 0x19
 1202 00e8 20       		.uleb128 0x20
 1203 00e9 0B       		.uleb128 0xb
 1204 00ea 01       		.uleb128 0x1
 1205 00eb 13       		.uleb128 0x13
 1206 00ec 00       		.byte	0
 1207 00ed 00       		.byte	0
 1208 00ee 13       		.uleb128 0x13
 1209 00ef 05       		.uleb128 0x5
 1210 00f0 00       		.byte	0
 1211 00f1 03       		.uleb128 0x3
 1212 00f2 0E       		.uleb128 0xe
 1213 00f3 3A       		.uleb128 0x3a
 1214 00f4 0B       		.uleb128 0xb
 1215 00f5 3B       		.uleb128 0x3b
 1216 00f6 05       		.uleb128 0x5
 1217 00f7 49       		.uleb128 0x49
 1218 00f8 13       		.uleb128 0x13
 1219 00f9 00       		.byte	0
 1220 00fa 00       		.byte	0
 1221 00fb 14       		.uleb128 0x14
 1222 00fc 34       		.uleb128 0x34
 1223 00fd 00       		.byte	0
 1224 00fe 03       		.uleb128 0x3
 1225 00ff 0E       		.uleb128 0xe
 1226 0100 3A       		.uleb128 0x3a
 1227 0101 0B       		.uleb128 0xb
 1228 0102 3B       		.uleb128 0x3b
 1229 0103 05       		.uleb128 0x5
 1230 0104 49       		.uleb128 0x49
 1231 0105 13       		.uleb128 0x13
 1232 0106 00       		.byte	0
 1233 0107 00       		.byte	0
 1234 0108 15       		.uleb128 0x15
 1235 0109 2E       		.uleb128 0x2e
 1236 010a 01       		.byte	0x1
 1237 010b 3F       		.uleb128 0x3f
 1238 010c 19       		.uleb128 0x19
 1239 010d 03       		.uleb128 0x3
 1240 010e 0E       		.uleb128 0xe
ARM GAS  /tmp/cc7uHROk.s 			page 23


 1241 010f 3A       		.uleb128 0x3a
 1242 0110 0B       		.uleb128 0xb
 1243 0111 3B       		.uleb128 0x3b
 1244 0112 0B       		.uleb128 0xb
 1245 0113 27       		.uleb128 0x27
 1246 0114 19       		.uleb128 0x19
 1247 0115 49       		.uleb128 0x49
 1248 0116 13       		.uleb128 0x13
 1249 0117 11       		.uleb128 0x11
 1250 0118 01       		.uleb128 0x1
 1251 0119 12       		.uleb128 0x12
 1252 011a 06       		.uleb128 0x6
 1253 011b 40       		.uleb128 0x40
 1254 011c 18       		.uleb128 0x18
 1255 011d 9742     		.uleb128 0x2117
 1256 011f 19       		.uleb128 0x19
 1257 0120 01       		.uleb128 0x1
 1258 0121 13       		.uleb128 0x13
 1259 0122 00       		.byte	0
 1260 0123 00       		.byte	0
 1261 0124 16       		.uleb128 0x16
 1262 0125 05       		.uleb128 0x5
 1263 0126 00       		.byte	0
 1264 0127 03       		.uleb128 0x3
 1265 0128 0E       		.uleb128 0xe
 1266 0129 3A       		.uleb128 0x3a
 1267 012a 0B       		.uleb128 0xb
 1268 012b 3B       		.uleb128 0x3b
 1269 012c 0B       		.uleb128 0xb
 1270 012d 49       		.uleb128 0x49
 1271 012e 13       		.uleb128 0x13
 1272 012f 02       		.uleb128 0x2
 1273 0130 17       		.uleb128 0x17
 1274 0131 00       		.byte	0
 1275 0132 00       		.byte	0
 1276 0133 17       		.uleb128 0x17
 1277 0134 05       		.uleb128 0x5
 1278 0135 00       		.byte	0
 1279 0136 03       		.uleb128 0x3
 1280 0137 0E       		.uleb128 0xe
 1281 0138 3A       		.uleb128 0x3a
 1282 0139 0B       		.uleb128 0xb
 1283 013a 3B       		.uleb128 0x3b
 1284 013b 0B       		.uleb128 0xb
 1285 013c 49       		.uleb128 0x49
 1286 013d 13       		.uleb128 0x13
 1287 013e 02       		.uleb128 0x2
 1288 013f 18       		.uleb128 0x18
 1289 0140 00       		.byte	0
 1290 0141 00       		.byte	0
 1291 0142 18       		.uleb128 0x18
 1292 0143 34       		.uleb128 0x34
 1293 0144 00       		.byte	0
 1294 0145 03       		.uleb128 0x3
 1295 0146 0E       		.uleb128 0xe
 1296 0147 3A       		.uleb128 0x3a
 1297 0148 0B       		.uleb128 0xb
ARM GAS  /tmp/cc7uHROk.s 			page 24


 1298 0149 3B       		.uleb128 0x3b
 1299 014a 0B       		.uleb128 0xb
 1300 014b 49       		.uleb128 0x49
 1301 014c 13       		.uleb128 0x13
 1302 014d 02       		.uleb128 0x2
 1303 014e 17       		.uleb128 0x17
 1304 014f 00       		.byte	0
 1305 0150 00       		.byte	0
 1306 0151 19       		.uleb128 0x19
 1307 0152 1D       		.uleb128 0x1d
 1308 0153 01       		.byte	0x1
 1309 0154 31       		.uleb128 0x31
 1310 0155 13       		.uleb128 0x13
 1311 0156 11       		.uleb128 0x11
 1312 0157 01       		.uleb128 0x1
 1313 0158 12       		.uleb128 0x12
 1314 0159 06       		.uleb128 0x6
 1315 015a 58       		.uleb128 0x58
 1316 015b 0B       		.uleb128 0xb
 1317 015c 59       		.uleb128 0x59
 1318 015d 0B       		.uleb128 0xb
 1319 015e 00       		.byte	0
 1320 015f 00       		.byte	0
 1321 0160 1A       		.uleb128 0x1a
 1322 0161 05       		.uleb128 0x5
 1323 0162 00       		.byte	0
 1324 0163 31       		.uleb128 0x31
 1325 0164 13       		.uleb128 0x13
 1326 0165 02       		.uleb128 0x2
 1327 0166 18       		.uleb128 0x18
 1328 0167 00       		.byte	0
 1329 0168 00       		.byte	0
 1330 0169 1B       		.uleb128 0x1b
 1331 016a 05       		.uleb128 0x5
 1332 016b 00       		.byte	0
 1333 016c 31       		.uleb128 0x31
 1334 016d 13       		.uleb128 0x13
 1335 016e 02       		.uleb128 0x2
 1336 016f 17       		.uleb128 0x17
 1337 0170 00       		.byte	0
 1338 0171 00       		.byte	0
 1339 0172 1C       		.uleb128 0x1c
 1340 0173 2E       		.uleb128 0x2e
 1341 0174 01       		.byte	0x1
 1342 0175 3F       		.uleb128 0x3f
 1343 0176 19       		.uleb128 0x19
 1344 0177 03       		.uleb128 0x3
 1345 0178 0E       		.uleb128 0xe
 1346 0179 3A       		.uleb128 0x3a
 1347 017a 0B       		.uleb128 0xb
 1348 017b 3B       		.uleb128 0x3b
 1349 017c 0B       		.uleb128 0xb
 1350 017d 27       		.uleb128 0x27
 1351 017e 19       		.uleb128 0x19
 1352 017f 11       		.uleb128 0x11
 1353 0180 01       		.uleb128 0x1
 1354 0181 12       		.uleb128 0x12
ARM GAS  /tmp/cc7uHROk.s 			page 25


 1355 0182 06       		.uleb128 0x6
 1356 0183 40       		.uleb128 0x40
 1357 0184 18       		.uleb128 0x18
 1358 0185 9742     		.uleb128 0x2117
 1359 0187 19       		.uleb128 0x19
 1360 0188 01       		.uleb128 0x1
 1361 0189 13       		.uleb128 0x13
 1362 018a 00       		.byte	0
 1363 018b 00       		.byte	0
 1364 018c 1D       		.uleb128 0x1d
 1365 018d 34       		.uleb128 0x34
 1366 018e 00       		.byte	0
 1367 018f 03       		.uleb128 0x3
 1368 0190 0E       		.uleb128 0xe
 1369 0191 3A       		.uleb128 0x3a
 1370 0192 0B       		.uleb128 0xb
 1371 0193 3B       		.uleb128 0x3b
 1372 0194 0B       		.uleb128 0xb
 1373 0195 49       		.uleb128 0x49
 1374 0196 13       		.uleb128 0x13
 1375 0197 1C       		.uleb128 0x1c
 1376 0198 0B       		.uleb128 0xb
 1377 0199 00       		.byte	0
 1378 019a 00       		.byte	0
 1379 019b 1E       		.uleb128 0x1e
 1380 019c 1D       		.uleb128 0x1d
 1381 019d 01       		.byte	0x1
 1382 019e 31       		.uleb128 0x31
 1383 019f 13       		.uleb128 0x13
 1384 01a0 11       		.uleb128 0x11
 1385 01a1 01       		.uleb128 0x1
 1386 01a2 12       		.uleb128 0x12
 1387 01a3 06       		.uleb128 0x6
 1388 01a4 58       		.uleb128 0x58
 1389 01a5 0B       		.uleb128 0xb
 1390 01a6 59       		.uleb128 0x59
 1391 01a7 0B       		.uleb128 0xb
 1392 01a8 01       		.uleb128 0x1
 1393 01a9 13       		.uleb128 0x13
 1394 01aa 00       		.byte	0
 1395 01ab 00       		.byte	0
 1396 01ac 1F       		.uleb128 0x1f
 1397 01ad 0B       		.uleb128 0xb
 1398 01ae 01       		.byte	0x1
 1399 01af 11       		.uleb128 0x11
 1400 01b0 01       		.uleb128 0x1
 1401 01b1 12       		.uleb128 0x12
 1402 01b2 06       		.uleb128 0x6
 1403 01b3 00       		.byte	0
 1404 01b4 00       		.byte	0
 1405 01b5 20       		.uleb128 0x20
 1406 01b6 34       		.uleb128 0x34
 1407 01b7 00       		.byte	0
 1408 01b8 31       		.uleb128 0x31
 1409 01b9 13       		.uleb128 0x13
 1410 01ba 02       		.uleb128 0x2
 1411 01bb 17       		.uleb128 0x17
ARM GAS  /tmp/cc7uHROk.s 			page 26


 1412 01bc 00       		.byte	0
 1413 01bd 00       		.byte	0
 1414 01be 21       		.uleb128 0x21
 1415 01bf 898201   		.uleb128 0x4109
 1416 01c2 01       		.byte	0x1
 1417 01c3 11       		.uleb128 0x11
 1418 01c4 01       		.uleb128 0x1
 1419 01c5 31       		.uleb128 0x31
 1420 01c6 13       		.uleb128 0x13
 1421 01c7 01       		.uleb128 0x1
 1422 01c8 13       		.uleb128 0x13
 1423 01c9 00       		.byte	0
 1424 01ca 00       		.byte	0
 1425 01cb 22       		.uleb128 0x22
 1426 01cc 8A8201   		.uleb128 0x410a
 1427 01cf 00       		.byte	0
 1428 01d0 02       		.uleb128 0x2
 1429 01d1 18       		.uleb128 0x18
 1430 01d2 9142     		.uleb128 0x2111
 1431 01d4 18       		.uleb128 0x18
 1432 01d5 00       		.byte	0
 1433 01d6 00       		.byte	0
 1434 01d7 23       		.uleb128 0x23
 1435 01d8 898201   		.uleb128 0x4109
 1436 01db 00       		.byte	0
 1437 01dc 11       		.uleb128 0x11
 1438 01dd 01       		.uleb128 0x1
 1439 01de 31       		.uleb128 0x31
 1440 01df 13       		.uleb128 0x13
 1441 01e0 00       		.byte	0
 1442 01e1 00       		.byte	0
 1443 01e2 24       		.uleb128 0x24
 1444 01e3 2E       		.uleb128 0x2e
 1445 01e4 00       		.byte	0
 1446 01e5 3F       		.uleb128 0x3f
 1447 01e6 19       		.uleb128 0x19
 1448 01e7 03       		.uleb128 0x3
 1449 01e8 0E       		.uleb128 0xe
 1450 01e9 3A       		.uleb128 0x3a
 1451 01ea 0B       		.uleb128 0xb
 1452 01eb 3B       		.uleb128 0x3b
 1453 01ec 0B       		.uleb128 0xb
 1454 01ed 27       		.uleb128 0x27
 1455 01ee 19       		.uleb128 0x19
 1456 01ef 49       		.uleb128 0x49
 1457 01f0 13       		.uleb128 0x13
 1458 01f1 11       		.uleb128 0x11
 1459 01f2 01       		.uleb128 0x1
 1460 01f3 12       		.uleb128 0x12
 1461 01f4 06       		.uleb128 0x6
 1462 01f5 40       		.uleb128 0x40
 1463 01f6 18       		.uleb128 0x18
 1464 01f7 9742     		.uleb128 0x2117
 1465 01f9 19       		.uleb128 0x19
 1466 01fa 00       		.byte	0
 1467 01fb 00       		.byte	0
 1468 01fc 25       		.uleb128 0x25
ARM GAS  /tmp/cc7uHROk.s 			page 27


 1469 01fd 34       		.uleb128 0x34
 1470 01fe 00       		.byte	0
 1471 01ff 03       		.uleb128 0x3
 1472 0200 0E       		.uleb128 0xe
 1473 0201 3A       		.uleb128 0x3a
 1474 0202 0B       		.uleb128 0xb
 1475 0203 3B       		.uleb128 0x3b
 1476 0204 0B       		.uleb128 0xb
 1477 0205 49       		.uleb128 0x49
 1478 0206 13       		.uleb128 0x13
 1479 0207 3F       		.uleb128 0x3f
 1480 0208 19       		.uleb128 0x19
 1481 0209 3C       		.uleb128 0x3c
 1482 020a 19       		.uleb128 0x19
 1483 020b 00       		.byte	0
 1484 020c 00       		.byte	0
 1485 020d 26       		.uleb128 0x26
 1486 020e 21       		.uleb128 0x21
 1487 020f 00       		.byte	0
 1488 0210 49       		.uleb128 0x49
 1489 0211 13       		.uleb128 0x13
 1490 0212 2F       		.uleb128 0x2f
 1491 0213 05       		.uleb128 0x5
 1492 0214 00       		.byte	0
 1493 0215 00       		.byte	0
 1494 0216 27       		.uleb128 0x27
 1495 0217 34       		.uleb128 0x34
 1496 0218 00       		.byte	0
 1497 0219 03       		.uleb128 0x3
 1498 021a 0E       		.uleb128 0xe
 1499 021b 3A       		.uleb128 0x3a
 1500 021c 0B       		.uleb128 0xb
 1501 021d 3B       		.uleb128 0x3b
 1502 021e 0B       		.uleb128 0xb
 1503 021f 49       		.uleb128 0x49
 1504 0220 13       		.uleb128 0x13
 1505 0221 3F       		.uleb128 0x3f
 1506 0222 19       		.uleb128 0x19
 1507 0223 02       		.uleb128 0x2
 1508 0224 18       		.uleb128 0x18
 1509 0225 00       		.byte	0
 1510 0226 00       		.byte	0
 1511 0227 28       		.uleb128 0x28
 1512 0228 2E       		.uleb128 0x2e
 1513 0229 01       		.byte	0x1
 1514 022a 3F       		.uleb128 0x3f
 1515 022b 19       		.uleb128 0x19
 1516 022c 03       		.uleb128 0x3
 1517 022d 0E       		.uleb128 0xe
 1518 022e 3A       		.uleb128 0x3a
 1519 022f 0B       		.uleb128 0xb
 1520 0230 3B       		.uleb128 0x3b
 1521 0231 0B       		.uleb128 0xb
 1522 0232 27       		.uleb128 0x27
 1523 0233 19       		.uleb128 0x19
 1524 0234 3C       		.uleb128 0x3c
 1525 0235 19       		.uleb128 0x19
ARM GAS  /tmp/cc7uHROk.s 			page 28


 1526 0236 01       		.uleb128 0x1
 1527 0237 13       		.uleb128 0x13
 1528 0238 00       		.byte	0
 1529 0239 00       		.byte	0
 1530 023a 29       		.uleb128 0x29
 1531 023b 05       		.uleb128 0x5
 1532 023c 00       		.byte	0
 1533 023d 49       		.uleb128 0x49
 1534 023e 13       		.uleb128 0x13
 1535 023f 00       		.byte	0
 1536 0240 00       		.byte	0
 1537 0241 2A       		.uleb128 0x2a
 1538 0242 0F       		.uleb128 0xf
 1539 0243 00       		.byte	0
 1540 0244 0B       		.uleb128 0xb
 1541 0245 0B       		.uleb128 0xb
 1542 0246 49       		.uleb128 0x49
 1543 0247 13       		.uleb128 0x13
 1544 0248 00       		.byte	0
 1545 0249 00       		.byte	0
 1546 024a 00       		.byte	0
 1547              		.section	.debug_loc,"",%progbits
 1548              	.Ldebug_loc0:
 1549              	.LLST0:
 1550 0000 00000000 		.4byte	.LVL0
 1551 0004 14000000 		.4byte	.LVL5
 1552 0008 0100     		.2byte	0x1
 1553 000a 50       		.byte	0x50
 1554 000b 14000000 		.4byte	.LVL5
 1555 000f 1C000000 		.4byte	.LFE97
 1556 0013 0400     		.2byte	0x4
 1557 0015 F3       		.byte	0xf3
 1558 0016 01       		.uleb128 0x1
 1559 0017 50       		.byte	0x50
 1560 0018 9F       		.byte	0x9f
 1561 0019 00000000 		.4byte	0
 1562 001d 00000000 		.4byte	0
 1563              	.LLST1:
 1564 0021 00000000 		.4byte	.LVL0
 1565 0025 06000000 		.4byte	.LVL1
 1566 0029 0100     		.2byte	0x1
 1567 002b 53       		.byte	0x53
 1568 002c 06000000 		.4byte	.LVL1
 1569 0030 1C000000 		.4byte	.LFE97
 1570 0034 0400     		.2byte	0x4
 1571 0036 F3       		.byte	0xf3
 1572 0037 01       		.uleb128 0x1
 1573 0038 53       		.byte	0x53
 1574 0039 9F       		.byte	0x9f
 1575 003a 00000000 		.4byte	0
 1576 003e 00000000 		.4byte	0
 1577              	.LLST2:
 1578 0042 00000000 		.4byte	.LVL0
 1579 0046 06000000 		.4byte	.LVL1
 1580 004a 0100     		.2byte	0x1
 1581 004c 51       		.byte	0x51
 1582 004d 06000000 		.4byte	.LVL1
ARM GAS  /tmp/cc7uHROk.s 			page 29


 1583 0051 08000000 		.4byte	.LVL2
 1584 0055 0100     		.2byte	0x1
 1585 0057 53       		.byte	0x53
 1586 0058 08000000 		.4byte	.LVL2
 1587 005c 0A000000 		.4byte	.LVL3
 1588 0060 0300     		.2byte	0x3
 1589 0062 73       		.byte	0x73
 1590 0063 7F       		.sleb128 -1
 1591 0064 9F       		.byte	0x9f
 1592 0065 0A000000 		.4byte	.LVL3
 1593 0069 0E000000 		.4byte	.LVL4
 1594 006d 0100     		.2byte	0x1
 1595 006f 53       		.byte	0x53
 1596 0070 00000000 		.4byte	0
 1597 0074 00000000 		.4byte	0
 1598              	.LLST3:
 1599 0078 0E000000 		.4byte	.LVL4
 1600 007c 14000000 		.4byte	.LVL5
 1601 0080 0100     		.2byte	0x1
 1602 0082 50       		.byte	0x50
 1603 0083 00000000 		.4byte	0
 1604 0087 00000000 		.4byte	0
 1605              	.LLST4:
 1606 008b 00000000 		.4byte	.LVL7
 1607 008f 66000000 		.4byte	.LVL12
 1608 0093 0100     		.2byte	0x1
 1609 0095 50       		.byte	0x50
 1610 0096 66000000 		.4byte	.LVL12
 1611 009a 76000000 		.4byte	.LVL14
 1612 009e 0400     		.2byte	0x4
 1613 00a0 F3       		.byte	0xf3
 1614 00a1 01       		.uleb128 0x1
 1615 00a2 50       		.byte	0x50
 1616 00a3 9F       		.byte	0x9f
 1617 00a4 76000000 		.4byte	.LVL14
 1618 00a8 7E000000 		.4byte	.LVL16
 1619 00ac 0100     		.2byte	0x1
 1620 00ae 50       		.byte	0x50
 1621 00af 7E000000 		.4byte	.LVL16
 1622 00b3 B8000000 		.4byte	.LFE99
 1623 00b7 0400     		.2byte	0x4
 1624 00b9 F3       		.byte	0xf3
 1625 00ba 01       		.uleb128 0x1
 1626 00bb 50       		.byte	0x50
 1627 00bc 9F       		.byte	0x9f
 1628 00bd 00000000 		.4byte	0
 1629 00c1 00000000 		.4byte	0
 1630              	.LLST5:
 1631 00c5 0A000000 		.4byte	.LVL8
 1632 00c9 46000000 		.4byte	.LVL9
 1633 00cd 0100     		.2byte	0x1
 1634 00cf 50       		.byte	0x50
 1635 00d0 00000000 		.4byte	0
 1636 00d4 00000000 		.4byte	0
 1637              	.LLST6:
 1638 00d8 46000000 		.4byte	.LVL9
 1639 00dc 66000000 		.4byte	.LVL12
ARM GAS  /tmp/cc7uHROk.s 			page 30


 1640 00e0 0100     		.2byte	0x1
 1641 00e2 50       		.byte	0x50
 1642 00e3 76000000 		.4byte	.LVL14
 1643 00e7 7E000000 		.4byte	.LVL16
 1644 00eb 0100     		.2byte	0x1
 1645 00ed 50       		.byte	0x50
 1646 00ee 00000000 		.4byte	0
 1647 00f2 00000000 		.4byte	0
 1648              	.LLST7:
 1649 00f6 5A000000 		.4byte	.LVL10
 1650 00fa 5E000000 		.4byte	.LVL11
 1651 00fe 1000     		.2byte	0x10
 1652 0100 70       		.byte	0x70
 1653 0101 00       		.sleb128 0
 1654 0102 03       		.byte	0x3
 1655 0103 00000000 		.4byte	.LANCHOR0
 1656 0107 22       		.byte	0x22
 1657 0108 94       		.byte	0x94
 1658 0109 01       		.byte	0x1
 1659 010a 08       		.byte	0x8
 1660 010b FF       		.byte	0xff
 1661 010c 1A       		.byte	0x1a
 1662 010d 72       		.byte	0x72
 1663 010e 00       		.sleb128 0
 1664 010f 22       		.byte	0x22
 1665 0110 76000000 		.4byte	.LVL14
 1666 0114 7C000000 		.4byte	.LVL15
 1667 0118 1000     		.2byte	0x10
 1668 011a 70       		.byte	0x70
 1669 011b 00       		.sleb128 0
 1670 011c 03       		.byte	0x3
 1671 011d 00000000 		.4byte	.LANCHOR0
 1672 0121 22       		.byte	0x22
 1673 0122 94       		.byte	0x94
 1674 0123 01       		.byte	0x1
 1675 0124 08       		.byte	0x8
 1676 0125 FF       		.byte	0xff
 1677 0126 1A       		.byte	0x1a
 1678 0127 72       		.byte	0x72
 1679 0128 00       		.sleb128 0
 1680 0129 22       		.byte	0x22
 1681 012a 7C000000 		.4byte	.LVL15
 1682 012e 87000000 		.4byte	.LVL17-1
 1683 0132 0100     		.2byte	0x1
 1684 0134 53       		.byte	0x53
 1685 0135 00000000 		.4byte	0
 1686 0139 00000000 		.4byte	0
 1687              		.section	.debug_aranges,"",%progbits
 1688 0000 34000000 		.4byte	0x34
 1689 0004 0200     		.2byte	0x2
 1690 0006 00000000 		.4byte	.Ldebug_info0
 1691 000a 04       		.byte	0x4
 1692 000b 00       		.byte	0
 1693 000c 0000     		.2byte	0
 1694 000e 0000     		.2byte	0
 1695 0010 00000000 		.4byte	.LFB97
 1696 0014 1C000000 		.4byte	.LFE97-.LFB97
ARM GAS  /tmp/cc7uHROk.s 			page 31


 1697 0018 00000000 		.4byte	.LFB98
 1698 001c 0C000000 		.4byte	.LFE98-.LFB98
 1699 0020 00000000 		.4byte	.LFB99
 1700 0024 B8000000 		.4byte	.LFE99-.LFB99
 1701 0028 00000000 		.4byte	.LFB100
 1702 002c 04000000 		.4byte	.LFE100-.LFB100
 1703 0030 00000000 		.4byte	0
 1704 0034 00000000 		.4byte	0
 1705              		.section	.debug_ranges,"",%progbits
 1706              	.Ldebug_ranges0:
 1707 0000 00000000 		.4byte	.LFB97
 1708 0004 1C000000 		.4byte	.LFE97
 1709 0008 00000000 		.4byte	.LFB98
 1710 000c 0C000000 		.4byte	.LFE98
 1711 0010 00000000 		.4byte	.LFB99
 1712 0014 B8000000 		.4byte	.LFE99
 1713 0018 00000000 		.4byte	.LFB100
 1714 001c 04000000 		.4byte	.LFE100
 1715 0020 00000000 		.4byte	0
 1716 0024 00000000 		.4byte	0
 1717              		.section	.debug_line,"",%progbits
 1718              	.Ldebug_line0:
 1719 0000 27020000 		.section	.debug_str,"MS",%progbits,1
 1719      0200B601 
 1719      00000201 
 1719      FB0E0D00 
 1719      01010101 
 1720              	.LASF61:
 1721 0000 7573625F 		.ascii	"usb_data_buffer_OUT_index\000"
 1721      64617461 
 1721      5F627566 
 1721      6665725F 
 1721      4F55545F 
 1722              	.LASF70:
 1723 001a 456E6470 		.ascii	"Endpoint_IsConfigured\000"
 1723      6F696E74 
 1723      5F497343 
 1723      6F6E6669 
 1723      67757265 
 1724              	.LASF39:
 1725 0030 636F7265 		.ascii	"corenum\000"
 1725      6E756D00 
 1726              	.LASF35:
 1727 0038 454E4450 		.ascii	"ENDPOINT_READYWAIT_EndpointStalled\000"
 1727      4F494E54 
 1727      5F524541 
 1727      44595741 
 1727      49545F45 
 1728              	.LASF73:
 1729 005b 456E6470 		.ascii	"Endpoint_WaitUntilReady\000"
 1729      6F696E74 
 1729      5F576169 
 1729      74556E74 
 1729      696C5265 
 1730              	.LASF2:
 1731 0073 73686F72 		.ascii	"short int\000"
 1731      7420696E 
ARM GAS  /tmp/cc7uHROk.s 			page 32


 1731      7400
 1732              	.LASF72:
 1733 007d 456E6470 		.ascii	"Endpoint_ConfigureEndpoint_Prv\000"
 1733      6F696E74 
 1733      5F436F6E 
 1733      66696775 
 1733      7265456E 
 1734              	.LASF17:
 1735 009c 73697A65 		.ascii	"sizetype\000"
 1735      74797065 
 1735      00
 1736              	.LASF47:
 1737 00a5 4E756D62 		.ascii	"Number\000"
 1737      657200
 1738              	.LASF63:
 1739 00ac 656E6470 		.ascii	"endpointhandle0\000"
 1739      6F696E74 
 1739      68616E64 
 1739      6C653000 
 1740              	.LASF62:
 1741 00bc 656E6470 		.ascii	"endpointselected\000"
 1741      6F696E74 
 1741      73656C65 
 1741      63746564 
 1741      00
 1742              	.LASF8:
 1743 00cd 5F5F7569 		.ascii	"__uint32_t\000"
 1743      6E743332 
 1743      5F7400
 1744              	.LASF67:
 1745 00d8 5553426C 		.ascii	"USBlib_11U14/Drivers/USB/Core/Endpoint.c\000"
 1745      69625F31 
 1745      31553134 
 1745      2F447269 
 1745      76657273 
 1746              	.LASF66:
 1747 0101 474E5520 		.ascii	"GNU C 4.8.4 20140526 (release) [ARM/embedded-4_8-br"
 1747      4320342E 
 1747      382E3420 
 1747      32303134 
 1747      30353236 
 1748 0134 616E6368 		.ascii	"anch revision 211358] -mcpu=cortex-m0 -mno-thumb-in"
 1748      20726576 
 1748      6973696F 
 1748      6E203231 
 1748      31333538 
 1749 0167 74657277 		.ascii	"terwork -mthumb -ggdb -O1 -fomit-frame-pointer -ffu"
 1749      6F726B20 
 1749      2D6D7468 
 1749      756D6220 
 1749      2D676764 
 1750 019a 6E637469 		.ascii	"nction-sections -fdata-sections -fno-common\000"
 1750      6F6E2D73 
 1750      65637469 
 1750      6F6E7320 
 1750      2D666461 
 1751              	.LASF4:
ARM GAS  /tmp/cc7uHROk.s 			page 33


 1752 01c6 5F5F7569 		.ascii	"__uint16_t\000"
 1752      6E743136 
 1752      5F7400
 1753              	.LASF60:
 1754 01d1 7573625F 		.ascii	"usb_data_buffer_IN_index\000"
 1754      64617461 
 1754      5F627566 
 1754      6665725F 
 1754      494E5F69 
 1755              	.LASF26:
 1756 01ea 5553425F 		.ascii	"USB_CMD_STAT\000"
 1756      434D445F 
 1756      53544154 
 1756      00
 1757              	.LASF13:
 1758 01f7 75696E74 		.ascii	"uint8_t\000"
 1758      385F7400 
 1759              	.LASF41:
 1760 01ff 456E6470 		.ascii	"Endpoint_DisableEndpoint\000"
 1760      6F696E74 
 1760      5F446973 
 1760      61626C65 
 1760      456E6470 
 1761              	.LASF59:
 1762 0218 7573625F 		.ascii	"usb_data_buffer_index\000"
 1762      64617461 
 1762      5F627566 
 1762      6665725F 
 1762      696E6465 
 1763              	.LASF0:
 1764 022e 7369676E 		.ascii	"signed char\000"
 1764      65642063 
 1764      68617200 
 1765              	.LASF10:
 1766 023a 6C6F6E67 		.ascii	"long long int\000"
 1766      206C6F6E 
 1766      6720696E 
 1766      7400
 1767              	.LASF7:
 1768 0248 6C6F6E67 		.ascii	"long int\000"
 1768      20696E74 
 1768      00
 1769              	.LASF27:
 1770 0251 42756666 		.ascii	"BufferAddrOffset\000"
 1770      65724164 
 1770      64724F66 
 1770      66736574 
 1770      00
 1771              	.LASF25:
 1772 0262 41637469 		.ascii	"Active\000"
 1772      766500
 1773              	.LASF3:
 1774 0269 5F5F7569 		.ascii	"__uint8_t\000"
 1774      6E74385F 
 1774      7400
 1775              	.LASF55:
 1776 0273 7573625F 		.ascii	"usb_data_buffer_IN\000"
ARM GAS  /tmp/cc7uHROk.s 			page 34


 1776      64617461 
 1776      5F627566 
 1776      6665725F 
 1776      494E00
 1777              	.LASF30:
 1778 0286 7756616C 		.ascii	"wValue\000"
 1778      756500
 1779              	.LASF69:
 1780 028d 456E6470 		.ascii	"Endpoint_WaitUntilReady_ErrorCodes_t\000"
 1780      6F696E74 
 1780      5F576169 
 1780      74556E74 
 1780      696C5265 
 1781              	.LASF51:
 1782 02b2 456E6470 		.ascii	"Endpoint_ClearEndpoints\000"
 1782      6F696E74 
 1782      5F436C65 
 1782      6172456E 
 1782      64706F69 
 1783              	.LASF33:
 1784 02ca 5553425F 		.ascii	"USB_Request_Header_t\000"
 1784      52657175 
 1784      6573745F 
 1784      48656164 
 1784      65725F74 
 1785              	.LASF74:
 1786 02df 44636444 		.ascii	"DcdDataTransfer\000"
 1786      61746154 
 1786      72616E73 
 1786      66657200 
 1787              	.LASF1:
 1788 02ef 756E7369 		.ascii	"unsigned char\000"
 1788      676E6564 
 1788      20636861 
 1788      7200
 1789              	.LASF21:
 1790 02fd 52617465 		.ascii	"RateFeedback_Toogle\000"
 1790      46656564 
 1790      6261636B 
 1790      5F546F6F 
 1790      676C6500 
 1791              	.LASF54:
 1792 0311 7573625F 		.ascii	"usb_data_buffer\000"
 1792      64617461 
 1792      5F627566 
 1792      66657200 
 1793              	.LASF11:
 1794 0321 6C6F6E67 		.ascii	"long long unsigned int\000"
 1794      206C6F6E 
 1794      6720756E 
 1794      7369676E 
 1794      65642069 
 1795              	.LASF16:
 1796 0338 75696E74 		.ascii	"uint32_t\000"
 1796      33325F74 
 1796      00
 1797              	.LASF56:
ARM GAS  /tmp/cc7uHROk.s 			page 35


 1798 0341 7573625F 		.ascii	"usb_data_buffer_OUT\000"
 1798      64617461 
 1798      5F627566 
 1798      6665725F 
 1798      4F555400 
 1799              	.LASF12:
 1800 0355 756E7369 		.ascii	"unsigned int\000"
 1800      676E6564 
 1800      20696E74 
 1800      00
 1801              	.LASF14:
 1802 0362 75696E74 		.ascii	"uint16_t\000"
 1802      31365F74 
 1802      00
 1803              	.LASF44:
 1804 036b 456E6470 		.ascii	"Endpoint_SelectEndpoint\000"
 1804      6F696E74 
 1804      5F53656C 
 1804      65637445 
 1804      6E64706F 
 1805              	.LASF46:
 1806 0383 456E6470 		.ascii	"Endpoint_ClearIN\000"
 1806      6F696E74 
 1806      5F436C65 
 1806      6172494E 
 1806      00
 1807              	.LASF5:
 1808 0394 73686F72 		.ascii	"short unsigned int\000"
 1808      7420756E 
 1808      7369676E 
 1808      65642069 
 1808      6E7400
 1809              	.LASF50:
 1810 03a7 45504E75 		.ascii	"EPNum\000"
 1810      6D00
 1811              	.LASF68:
 1812 03ad 2F484444 		.ascii	"/HDD/Projects/workspace_test4/Altimeter/\000"
 1812      2F50726F 
 1812      6A656374 
 1812      732F776F 
 1812      726B7370 
 1813              	.LASF48:
 1814 03d6 55454346 		.ascii	"UECFG0XData\000"
 1814      47305844 
 1814      61746100 
 1815              	.LASF18:
 1816 03e2 63686172 		.ascii	"char\000"
 1816      00
 1817              	.LASF15:
 1818 03e7 696E7433 		.ascii	"int32_t\000"
 1818      325F7400 
 1819              	.LASF57:
 1820 03ef 7573625F 		.ascii	"usb_data_buffer_size\000"
 1820      64617461 
 1820      5F627566 
 1820      6665725F 
 1820      73697A65 
ARM GAS  /tmp/cc7uHROk.s 			page 36


 1821              	.LASF43:
 1822 0404 5F426F6F 		.ascii	"_Bool\000"
 1822      6C00
 1823              	.LASF28:
 1824 040a 626D5265 		.ascii	"bmRequestType\000"
 1824      71756573 
 1824      74547970 
 1824      6500
 1825              	.LASF45:
 1826 0418 456E6470 		.ascii	"Endpoint_ClearOUT\000"
 1826      6F696E74 
 1826      5F436C65 
 1826      61724F55 
 1826      5400
 1827              	.LASF64:
 1828 042a 656E6470 		.ascii	"endpointhandle1\000"
 1828      6F696E74 
 1828      68616E64 
 1828      6C653100 
 1829              	.LASF20:
 1830 043a 54797065 		.ascii	"Type\000"
 1830      00
 1831              	.LASF9:
 1832 043f 6C6F6E67 		.ascii	"long unsigned int\000"
 1832      20756E73 
 1832      69676E65 
 1832      6420696E 
 1832      7400
 1833              	.LASF52:
 1834 0451 456E6470 		.ascii	"Endpoint_ClearStatusStage\000"
 1834      6F696E74 
 1834      5F436C65 
 1834      61725374 
 1834      61747573 
 1835              	.LASF19:
 1836 046b 4E427974 		.ascii	"NBytes\000"
 1836      657300
 1837              	.LASF71:
 1838 0472 50687945 		.ascii	"PhyEP\000"
 1838      5000
 1839              	.LASF23:
 1840 0478 5374616C 		.ascii	"Stall\000"
 1840      6C00
 1841              	.LASF6:
 1842 047e 5F5F696E 		.ascii	"__int32_t\000"
 1842      7433325F 
 1842      7400
 1843              	.LASF38:
 1844 0488 454E4450 		.ascii	"ENDPOINT_READYWAIT_Timeout\000"
 1844      4F494E54 
 1844      5F524541 
 1844      44595741 
 1844      49545F54 
 1845              	.LASF22:
 1846 04a3 546F6F67 		.ascii	"ToogleReset\000"
 1846      6C655265 
 1846      73657400 
ARM GAS  /tmp/cc7uHROk.s 			page 37


 1847              	.LASF53:
 1848 04af 5553425F 		.ascii	"USB_ControlRequest\000"
 1848      436F6E74 
 1848      726F6C52 
 1848      65717565 
 1848      737400
 1849              	.LASF58:
 1850 04c2 7573625F 		.ascii	"usb_data_buffer_OUT_size\000"
 1850      64617461 
 1850      5F627566 
 1850      6665725F 
 1850      4F55545F 
 1851              	.LASF36:
 1852 04db 454E4450 		.ascii	"ENDPOINT_READYWAIT_DeviceDisconnected\000"
 1852      4F494E54 
 1852      5F524541 
 1852      44595741 
 1852      49545F44 
 1853              	.LASF40:
 1854 0501 456E6470 		.ascii	"EndpointNumber\000"
 1854      6F696E74 
 1854      4E756D62 
 1854      657200
 1855              	.LASF49:
 1856 0510 55454346 		.ascii	"UECFG1XData\000"
 1856      47315844 
 1856      61746100 
 1857              	.LASF34:
 1858 051c 454E4450 		.ascii	"ENDPOINT_READYWAIT_NoError\000"
 1858      4F494E54 
 1858      5F524541 
 1858      44595741 
 1858      49545F4E 
 1859              	.LASF32:
 1860 0537 774C656E 		.ascii	"wLength\000"
 1860      67746800 
 1861              	.LASF37:
 1862 053f 454E4450 		.ascii	"ENDPOINT_READYWAIT_BusSuspended\000"
 1862      4F494E54 
 1862      5F524541 
 1862      44595741 
 1862      49545F42 
 1863              	.LASF29:
 1864 055f 62526571 		.ascii	"bRequest\000"
 1864      75657374 
 1864      00
 1865              	.LASF31:
 1866 0568 77496E64 		.ascii	"wIndex\000"
 1866      657800
 1867              	.LASF65:
 1868 056f 456E6450 		.ascii	"EndPointCmdStsList\000"
 1868      6F696E74 
 1868      436D6453 
 1868      74734C69 
 1868      737400
 1869              	.LASF42:
 1870 0582 456E6470 		.ascii	"Endpoint_EnableEndpoint\000"
ARM GAS  /tmp/cc7uHROk.s 			page 38


 1870      6F696E74 
 1870      5F456E61 
 1870      626C6545 
 1870      6E64706F 
 1871              	.LASF24:
 1872 059a 44697361 		.ascii	"Disabled\000"
 1872      626C6564 
 1872      00
 1873              		.ident	"GCC: (GNU Tools for ARM Embedded Processors) 4.8.4 20140526 (release) [ARM/embedded-4_8-br
ARM GAS  /tmp/cc7uHROk.s 			page 39


DEFINED SYMBOLS
                            *ABS*:00000000 Endpoint.c
     /tmp/cc7uHROk.s:18     .text.Endpoint_ConfigureEndpoint_Prv:00000000 $t
     /tmp/cc7uHROk.s:23     .text.Endpoint_ConfigureEndpoint_Prv:00000000 Endpoint_ConfigureEndpoint_Prv
     /tmp/cc7uHROk.s:59     .text.Endpoint_ConfigureEndpoint_Prv:00000018 $d
     /tmp/cc7uHROk.s:64     .text.Endpoint_ClearEndpoints:00000000 $t
     /tmp/cc7uHROk.s:69     .text.Endpoint_ClearEndpoints:00000000 Endpoint_ClearEndpoints
     /tmp/cc7uHROk.s:83     .text.Endpoint_ClearEndpoints:00000008 $d
     /tmp/cc7uHROk.s:88     .text.Endpoint_ClearStatusStage:00000000 $t
     /tmp/cc7uHROk.s:93     .text.Endpoint_ClearStatusStage:00000000 Endpoint_ClearStatusStage
     /tmp/cc7uHROk.s:217    .text.Endpoint_ClearStatusStage:00000090 $d
     /tmp/cc7uHROk.s:231    .text.Endpoint_WaitUntilReady:00000000 $t
     /tmp/cc7uHROk.s:236    .text.Endpoint_WaitUntilReady:00000000 Endpoint_WaitUntilReady
     /tmp/cc7uHROk.s:276    .bss.endpointhandle1:00000000 endpointhandle1
     /tmp/cc7uHROk.s:269    .bss.endpointhandle0:00000000 endpointhandle0
     /tmp/cc7uHROk.s:303    .bss.endpointselected:00000000 endpointselected
     /tmp/cc7uHROk.s:326    .bss.usb_data_buffer_IN_index:00000000 usb_data_buffer_IN_index
     /tmp/cc7uHROk.s:315    .bss.$RAM2:00000200 usb_data_buffer_IN
     /tmp/cc7uHROk.s:290    .bss.usb_data_buffer_OUT_index:00000000 usb_data_buffer_OUT_index
     /tmp/cc7uHROk.s:296    .bss.usb_data_buffer_OUT_size:00000000 usb_data_buffer_OUT_size
     /tmp/cc7uHROk.s:319    .bss.$RAM2:00000400 usb_data_buffer_OUT
     /tmp/cc7uHROk.s:283    .bss.usb_data_buffer_index:00000000 usb_data_buffer_index
     /tmp/cc7uHROk.s:262    .bss.usb_data_buffer_size:00000000 usb_data_buffer_size
     /tmp/cc7uHROk.s:311    .bss.$RAM2:00000000 usb_data_buffer
     /tmp/cc7uHROk.s:259    .bss.usb_data_buffer_size:00000000 $d
     /tmp/cc7uHROk.s:265    .bss.endpointhandle0:00000000 $d
     /tmp/cc7uHROk.s:272    .bss.endpointhandle1:00000000 $d
     /tmp/cc7uHROk.s:279    .bss.usb_data_buffer_index:00000000 $d
     /tmp/cc7uHROk.s:286    .bss.usb_data_buffer_OUT_index:00000000 $d
     /tmp/cc7uHROk.s:293    .bss.usb_data_buffer_OUT_size:00000000 $d
     /tmp/cc7uHROk.s:299    .bss.endpointselected:00000000 $d
     /tmp/cc7uHROk.s:306    .bss.$RAM2:00000000 $d
     /tmp/cc7uHROk.s:322    .bss.usb_data_buffer_IN_index:00000000 $d
                     .debug_frame:00000010 $d

UNDEFINED SYMBOLS
DcdDataTransfer
USB_ControlRequest
EndPointCmdStsList
