ARM GAS  /tmp/cc7uHROk.s 			page 1


   1              		.cpu cortex-m0
   2              		.fpu softvfp
   3              		.eabi_attribute 20, 1
   4              		.eabi_attribute 21, 1
   5              		.eabi_attribute 23, 3
   6              		.eabi_attribute 24, 1
   7              		.eabi_attribute 25, 1
   8              		.eabi_attribute 26, 1
   9              		.eabi_attribute 30, 1
  10              		.eabi_attribute 34, 0
  11              		.eabi_attribute 18, 4
  12              		.code	16
  13              		.file	"Endpoint.c"
  14              		.text
  15              	.Ltext0:
  16              		.cfi_sections	.debug_frame
  17              		.section	.text.Endpoint_ConfigureEndpoint_Prv,"ax",%progbits
  18              		.align	2
  19              		.global	Endpoint_ConfigureEndpoint_Prv
  20              		.code	16
  21              		.thumb_func
  22              		.type	Endpoint_ConfigureEndpoint_Prv, %function
  23              	Endpoint_ConfigureEndpoint_Prv:
  24              	.LFB97:
  25              		.file 1 "USBlib_11U14/Drivers/USB/Core/Endpoint.c"
  26              		.loc 1 61 0
  27              		.cfi_startproc
  28              	.LVL0:
  29              		.loc 1 73 0
  30 0000 0429     		cmp	r1, #4
  31 0002 04DC     		bgt	.L2
  32 0004 0B1C     		mov	r3, r1
  33              	.LVL1:
  34              	.L4:
  35 0006 0133     		add	r3, r3, #1
  36              	.LVL2:
  37 0008 DBB2     		uxtb	r3, r3
  38              	.LVL3:
  39 000a 042B     		cmp	r3, #4
  40 000c FBDD     		ble	.L4
  41              	.LVL4:
  42              	.L2:
  43              	.LBB20:
  44              	.LBB21:
  45              		.file 2 "USBlib_11U14/Drivers/USB/Core/Endpoint.h"
  46              		.loc 2 205 0
  47 000e 024B     		ldr	r3, .L5
  48 0010 1954     		strb	r1, [r3, r0]
  49              	.LBE21:
  50              	.LBE20:
  51              		.loc 1 110 0
  52 0012 0120     		mov	r0, #1
  53              	.LVL5:
  54              		@ sp needed
  55 0014 7047     		bx	lr
  56              	.L6:
  57 0016 C046     		.align	2
ARM GAS  /tmp/cc7uHROk.s 			page 2


  58              	.L5:
  59 0018 00000000 		.word	.LANCHOR0
  60              		.cfi_endproc
  61              	.LFE97:
  62              		.size	Endpoint_ConfigureEndpoint_Prv, .-Endpoint_ConfigureEndpoint_Prv
  63              		.section	.text.Endpoint_ClearEndpoints,"ax",%progbits
  64              		.align	2
  65              		.global	Endpoint_ClearEndpoints
  66              		.code	16
  67              		.thumb_func
  68              		.type	Endpoint_ClearEndpoints, %function
  69              	Endpoint_ClearEndpoints:
  70              	.LFB98:
  71              		.loc 1 113 0
  72              		.cfi_startproc
  73              	.LVL6:
  74 0000 0422     		mov	r2, #4
  75 0002 014B     		ldr	r3, .L8
  76 0004 1A54     		strb	r2, [r3, r0]
  77              		.loc 1 123 0
  78              		@ sp needed
  79 0006 7047     		bx	lr
  80              	.L9:
  81              		.align	2
  82              	.L8:
  83 0008 00000000 		.word	.LANCHOR0
  84              		.cfi_endproc
  85              	.LFE98:
  86              		.size	Endpoint_ClearEndpoints, .-Endpoint_ClearEndpoints
  87              		.section	.text.Endpoint_ClearStatusStage,"ax",%progbits
  88              		.align	2
  89              		.global	Endpoint_ClearStatusStage
  90              		.code	16
  91              		.thumb_func
  92              		.type	Endpoint_ClearStatusStage, %function
  93              	Endpoint_ClearStatusStage:
  94              	.LFB99:
  95              		.loc 1 126 0
  96              		.cfi_startproc
  97              	.LVL7:
  98 0000 38B5     		push	{r3, r4, r5, lr}
  99              		.cfi_def_cfa_offset 16
 100              		.cfi_offset 3, -16
 101              		.cfi_offset 4, -12
 102              		.cfi_offset 5, -8
 103              		.cfi_offset 14, -4
 104              		.loc 1 127 0
 105 0002 234B     		ldr	r3, .L21
 106 0004 1B78     		ldrb	r3, [r3]
 107 0006 7F2B     		cmp	r3, #127
 108 0008 1DD9     		bls	.L11
 109              	.LVL8:
 110              	.LBB22:
 111              	.LBB23:
 112              		.file 3 "USBlib_11U14/Drivers/USB/Core/DCD/LPC11UXX/Endpoint_LPC11Uxx.h"
 113              		.loc 3 343 0
 114 000a 224B     		ldr	r3, .L21+4
ARM GAS  /tmp/cc7uHROk.s 			page 3


 115 000c 1B5C     		ldrb	r3, [r3, r0]
 116 000e 002B     		cmp	r3, #0
 117 0010 04D1     		bne	.L12
 118              		.loc 3 344 0
 119 0012 8200     		lsl	r2, r0, #2
 120 0014 0024     		mov	r4, #0
 121 0016 2049     		ldr	r1, .L21+8
 122 0018 5450     		str	r4, [r2, r1]
 123 001a 03E0     		b	.L13
 124              	.L12:
 125              		.loc 3 346 0
 126 001c 8200     		lsl	r2, r0, #2
 127 001e 0024     		mov	r4, #0
 128 0020 1E49     		ldr	r1, .L21+12
 129 0022 5450     		str	r4, [r2, r1]
 130              	.L13:
 131              		.loc 3 348 0
 132 0024 0028     		cmp	r0, #0
 133 0026 01D0     		beq	.L19
 134 0028 1D4A     		ldr	r2, .L21+16
 135 002a 00E0     		b	.L14
 136              	.L19:
 137 002c 1D4A     		ldr	r2, .L21+20
 138              	.L14:
 139 002e D35C     		ldrb	r3, [r2, r3]
 140 0030 DB00     		lsl	r3, r3, #3
 141 0032 1D4A     		ldr	r2, .L21+24
 142 0034 D318     		add	r3, r2, r3
 143 0036 5988     		ldrh	r1, [r3, #2]
 144 0038 890A     		lsr	r1, r1, #10
 145 003a 8902     		lsl	r1, r1, #10
 146 003c 8022     		mov	r2, #128
 147 003e 9200     		lsl	r2, r2, #2
 148 0040 0A43     		orr	r2, r1
 149 0042 5A80     		strh	r2, [r3, #2]
 150 0044 22E0     		b	.L10
 151              	.LVL9:
 152              	.L11:
 153              	.LBE23:
 154              	.LBE22:
 155              	.LBB24:
 156              	.LBB25:
 157              		.loc 3 327 0
 158 0046 134B     		ldr	r3, .L21+4
 159 0048 1B5C     		ldrb	r3, [r3, r0]
 160 004a 002B     		cmp	r3, #0
 161 004c 07D0     		beq	.L16
 162 004e 0028     		cmp	r0, #0
 163 0050 01D0     		beq	.L20
 164 0052 134A     		ldr	r2, .L21+16
 165 0054 00E0     		b	.L17
 166              	.L20:
 167 0056 134A     		ldr	r2, .L21+20
 168              	.L17:
 169 0058 D35C     		ldrb	r3, [r2, r3]
 170              	.LVL10:
 171              		.loc 3 328 0
ARM GAS  /tmp/cc7uHROk.s 			page 4


 172 005a 012B     		cmp	r3, #1
 173 005c 0BD1     		bne	.L18
 174              	.LVL11:
 175              	.L16:
 176              		.loc 3 329 0
 177 005e 0E4C     		ldr	r4, .L21+8
 178 0060 8500     		lsl	r5, r0, #2
 179 0062 2A59     		ldr	r2, [r5, r4]
 180 0064 4002     		lsl	r0, r0, #9
 181              	.LVL12:
 182 0066 1149     		ldr	r1, .L21+28
 183 0068 0918     		add	r1, r1, r0
 184 006a 0120     		mov	r0, #1
 185 006c FFF7FEFF 		bl	DcdDataTransfer
 186              	.LVL13:
 187              		.loc 3 330 0
 188 0070 0023     		mov	r3, #0
 189 0072 2B51     		str	r3, [r5, r4]
 190 0074 0AE0     		b	.L10
 191              	.LVL14:
 192              	.L18:
 193              		.loc 3 333 0
 194 0076 0E4C     		ldr	r4, .L21+32
 195 0078 8500     		lsl	r5, r0, #2
 196 007a 2A59     		ldr	r2, [r5, r4]
 197              	.LVL15:
 198 007c 4002     		lsl	r0, r0, #9
 199              	.LVL16:
 200 007e 0D49     		ldr	r1, .L21+36
 201 0080 0918     		add	r1, r1, r0
 202 0082 181C     		mov	r0, r3
 203 0084 FFF7FEFF 		bl	DcdDataTransfer
 204              	.LVL17:
 205              		.loc 3 334 0
 206 0088 0023     		mov	r3, #0
 207 008a 2B51     		str	r3, [r5, r4]
 208              	.L10:
 209              	.LBE25:
 210              	.LBE24:
 211              		.loc 1 133 0
 212              		@ sp needed
 213 008c 38BD     		pop	{r3, r4, r5, pc}
 214              	.L22:
 215 008e C046     		.align	2
 216              	.L21:
 217 0090 00000000 		.word	USB_ControlRequest
 218 0094 00000000 		.word	.LANCHOR0
 219 0098 00000000 		.word	.LANCHOR3
 220 009c 00000000 		.word	.LANCHOR4
 221 00a0 00000000 		.word	.LANCHOR1
 222 00a4 00000000 		.word	.LANCHOR2
 223 00a8 00000000 		.word	EndPointCmdStsList
 224 00ac 00000000 		.word	.LANCHOR5
 225 00b0 00000000 		.word	.LANCHOR6
 226 00b4 00020000 		.word	.LANCHOR7
 227              		.cfi_endproc
 228              	.LFE99:
ARM GAS  /tmp/cc7uHROk.s 			page 5


 229              		.size	Endpoint_ClearStatusStage, .-Endpoint_ClearStatusStage
 230              		.section	.text.Endpoint_WaitUntilReady,"ax",%progbits
 231              		.align	2
 232              		.global	Endpoint_WaitUntilReady
 233              		.code	16
 234              		.thumb_func
 235              		.type	Endpoint_WaitUntilReady, %function
 236              	Endpoint_WaitUntilReady:
 237              	.LFB100:
 238              		.loc 1 137 0
 239              		.cfi_startproc
 240              		.loc 1 139 0
 241 0000 0020     		mov	r0, #0
 242              		@ sp needed
 243 0002 7047     		bx	lr
 244              		.cfi_endproc
 245              	.LFE100:
 246              		.size	Endpoint_WaitUntilReady, .-Endpoint_WaitUntilReady
 247              		.global	endpointhandle1
 248              		.global	endpointhandle0
 249              		.global	endpointselected
 250              		.global	usb_data_buffer_IN_index
 251              		.global	usb_data_buffer_IN
 252              		.global	usb_data_buffer_OUT_index
 253              		.global	usb_data_buffer_OUT_size
 254              		.global	usb_data_buffer_OUT
 255              		.global	usb_data_buffer_index
 256              		.global	usb_data_buffer_size
 257              		.global	usb_data_buffer
 258              		.section	.bss.usb_data_buffer_size,"aw",%nobits
 259              		.align	2
 260              		.type	usb_data_buffer_size, %object
 261              		.size	usb_data_buffer_size, 4
 262              	usb_data_buffer_size:
 263 0000 00000000 		.space	4
 264              		.section	.bss.endpointhandle0,"aw",%nobits
 265              		.align	2
 266              		.set	.LANCHOR2,. + 0
 267              		.type	endpointhandle0, %object
 268              		.size	endpointhandle0, 5
 269              	endpointhandle0:
 270 0000 00000000 		.space	5
 270      00
 271 0005 000000   		.section	.bss.endpointhandle1,"aw",%nobits
 272              		.align	2
 273              		.set	.LANCHOR1,. + 0
 274              		.type	endpointhandle1, %object
 275              		.size	endpointhandle1, 5
 276              	endpointhandle1:
 277 0000 00000000 		.space	5
 277      00
 278 0005 000000   		.section	.bss.usb_data_buffer_index,"aw",%nobits
 279              		.align	2
 280              		.set	.LANCHOR3,. + 0
 281              		.type	usb_data_buffer_index, %object
 282              		.size	usb_data_buffer_index, 4
 283              	usb_data_buffer_index:
ARM GAS  /tmp/cc7uHROk.s 			page 6


 284 0000 00000000 		.space	4
 285              		.section	.bss.usb_data_buffer_OUT_index,"aw",%nobits
 286              		.align	2
 287              		.set	.LANCHOR4,. + 0
 288              		.type	usb_data_buffer_OUT_index, %object
 289              		.size	usb_data_buffer_OUT_index, 4
 290              	usb_data_buffer_OUT_index:
 291 0000 00000000 		.space	4
 292              		.section	.bss.usb_data_buffer_OUT_size,"aw",%nobits
 293              		.align	2
 294              		.type	usb_data_buffer_OUT_size, %object
 295              		.size	usb_data_buffer_OUT_size, 4
 296              	usb_data_buffer_OUT_size:
 297 0000 00000000 		.space	4
 298              		.section	.bss.endpointselected,"aw",%nobits
 299              		.align	2
 300              		.set	.LANCHOR0,. + 0
 301              		.type	endpointselected, %object
 302              		.size	endpointselected, 1
 303              	endpointselected:
 304 0000 00       		.space	1
 305 0001 000000   		.section	.bss.$RAM2,"aw",%nobits
 306              		.align	6
 307              		.set	.LANCHOR5,. + 0
 308              		.set	.LANCHOR7,. + 512
 309              		.type	usb_data_buffer, %object
 310              		.size	usb_data_buffer, 512
 311              	usb_data_buffer:
 312 0000 00000000 		.space	512
 312      00000000 
 312      00000000 
 312      00000000 
 312      00000000 
 313              		.type	usb_data_buffer_IN, %object
 314              		.size	usb_data_buffer_IN, 512
 315              	usb_data_buffer_IN:
 316 0200 00000000 		.space	512
 316      00000000 
 316      00000000 
 316      00000000 
 316      00000000 
 317              		.type	usb_data_buffer_OUT, %object
 318              		.size	usb_data_buffer_OUT, 512
 319              	usb_data_buffer_OUT:
 320 0400 00000000 		.space	512
 320      00000000 
 320      00000000 
 320      00000000 
 320      00000000 
 321              		.section	.bss.usb_data_buffer_IN_index,"aw",%nobits
 322              		.align	2
 323              		.set	.LANCHOR6,. + 0
 324              		.type	usb_data_buffer_IN_index, %object
 325              		.size	usb_data_buffer_IN_index, 4
 326              	usb_data_buffer_IN_index:
 327 0000 00000000 		.space	4
 328              		.text
ARM GAS  /tmp/cc7uHROk.s 			page 7


 329              	.Letext0:
 330              		.file 4 "/usr/local/lpcxpresso_7.3.0_186/lpcxpresso/tools/arm-none-eabi/include/machine/_default_t
 331              		.file 5 "/usr/local/lpcxpresso_7.3.0_186/lpcxpresso/tools/arm-none-eabi/include/stdint.h"
 332              		.file 6 "USBlib_11U14/Drivers/USB/Core/DCD/LPC11UXX/../../HAL/LPC11UXX/HAL_LPC11Uxx.h"
 333              		.file 7 "USBlib_11U14/Drivers/USB/Core/StdRequestType.h"
 334              		.file 8 "USBlib_11U14/Drivers/USB/Core/USBTask.h"