ARM GAS  /tmp/ccGyIUFk.s 			page 1


   1              		.cpu cortex-m0
   2              		.fpu softvfp
   3              		.eabi_attribute 20, 1
   4              		.eabi_attribute 21, 1
   5              		.eabi_attribute 23, 3
   6              		.eabi_attribute 24, 1
   7              		.eabi_attribute 25, 1
   8              		.eabi_attribute 26, 1
   9              		.eabi_attribute 30, 1
  10              		.eabi_attribute 34, 0
  11              		.eabi_attribute 18, 4
  12              		.code	16
  13              		.file	"hal_lld.c"
  14              		.text
  15              	.Ltext0:
  16              		.cfi_sections	.debug_frame
  17              		.section	.text.hal_lld_init,"ax",%progbits
  18              		.align	2
  19              		.global	hal_lld_init
  20              		.code	16
  21              		.thumb_func
  22              		.type	hal_lld_init, %function
  23              	hal_lld_init:
  24              	.LFB39:
  25              		.file 1 "ChibiOS_2.6.5/os/hal/platforms/LPC11Uxx/hal_lld.c"
  26              		.loc 1 53 0
  27              		.cfi_startproc
  28 0000 08B5     		push	{r3, lr}
  29              		.cfi_def_cfa_offset 8
  30              		.cfi_offset 3, -8
  31              		.cfi_offset 14, -4
  32              		.loc 1 56 0
  33 0002 0B20     		mov	r0, #11
  34 0004 0221     		mov	r1, #2
  35 0006 FFF7FEFF 		bl	nvicSetSystemHandlerPriority
  36              	.LVL0:
  37              		.loc 1 57 0
  38 000a 044B     		ldr	r3, .L2
  39 000c 044A     		ldr	r2, .L2+4
  40 000e 5A60     		str	r2, [r3, #4]
  41              		.loc 1 58 0
  42 0010 0022     		mov	r2, #0
  43 0012 9A60     		str	r2, [r3, #8]
  44              		.loc 1 59 0
  45 0014 0722     		mov	r2, #7
  46 0016 1A60     		str	r2, [r3]
  47              		.loc 1 62 0
  48              		@ sp needed
  49 0018 08BD     		pop	{r3, pc}
  50              	.L3:
  51 001a C046     		.align	2
  52              	.L2:
  53 001c 10E000E0 		.word	-536813552
  54 0020 7FBB0000 		.word	47999
  55              		.cfi_endproc
  56              	.LFE39:
  57              		.size	hal_lld_init, .-hal_lld_init
ARM GAS  /tmp/ccGyIUFk.s 			page 2


  58              		.section	.text.lpc_clock_init,"ax",%progbits
  59              		.align	2
  60              		.global	lpc_clock_init
  61              		.code	16
  62              		.thumb_func
  63              		.type	lpc_clock_init, %function
  64              	lpc_clock_init:
  65              	.LFB40:
  66              		.loc 1 71 0
  67              		.cfi_startproc
  68              		.loc 1 75 0
  69 0000 1E4B     		ldr	r3, .L11
  70 0002 1A69     		ldr	r2, [r3, #16]
  71 0004 0321     		mov	r1, #3
  72 0006 8A43     		bic	r2, r1
  73 0008 0221     		mov	r1, #2
  74 000a 0A43     		orr	r2, r1
  75 000c 1A61     		str	r2, [r3, #16]
  76              		.loc 1 81 0
  77 000e 1C4B     		ldr	r3, .L11+4
  78 0010 0022     		mov	r2, #0
  79 0012 1A62     		str	r2, [r3, #32]
  80              		.loc 1 82 0
  81 0014 8E22     		mov	r2, #142
  82 0016 9200     		lsl	r2, r2, #2
  83 0018 9958     		ldr	r1, [r3, r2]
  84 001a 2020     		mov	r0, #32
  85 001c 8143     		bic	r1, r0
  86 001e 9950     		str	r1, [r3, r2]
  87              	.LVL1:
  88 0020 C823     		mov	r3, #200
  89              	.LVL2:
  90              	.L6:
  91              	.LBB4:
  92              	.LBB5:
  93              		.file 2 "CMSIS_CORE_LPC11Uxx/inc/core_cmInstr.h"
  94              		.loc 2 461 0
  95              	@ 461 "CMSIS_CORE_LPC11Uxx/inc/core_cmInstr.h" 1
  96 0022 C046     		nop
  97              	@ 0 "" 2
  98              	.LVL3:
  99              		.code	16
 100 0024 013B     		sub	r3, r3, #1
 101              	.LVL4:
 102              	.LBE5:
 103              	.LBE4:
 104              		.loc 1 83 0
 105 0026 002B     		cmp	r3, #0
 106 0028 FBD1     		bne	.L6
 107              		.loc 1 88 0
 108 002a 154B     		ldr	r3, .L11+4
 109              	.LVL5:
 110 002c 0122     		mov	r2, #1
 111 002e 1A64     		str	r2, [r3, #64]
 112              		.loc 1 89 0
 113 0030 5A64     		str	r2, [r3, #68]
 114              		.loc 1 90 0
ARM GAS  /tmp/ccGyIUFk.s 			page 3


 115 0032 0021     		mov	r1, #0
 116 0034 5964     		str	r1, [r3, #68]
 117              		.loc 1 91 0
 118 0036 5A64     		str	r2, [r3, #68]
 119              		.loc 1 92 0
 120 0038 2322     		mov	r2, #35
 121 003a 9A60     		str	r2, [r3, #8]
 122              		.loc 1 93 0
 123 003c 8E22     		mov	r2, #142
 124 003e 9200     		lsl	r2, r2, #2
 125 0040 9958     		ldr	r1, [r3, r2]
 126 0042 8020     		mov	r0, #128
 127 0044 8143     		bic	r1, r0
 128 0046 9950     		str	r1, [r3, r2]
 129              		.loc 1 94 0
 130 0048 191C     		mov	r1, r3
 131 004a 0122     		mov	r2, #1
 132              	.L8:
 133              		.loc 1 94 0 is_stmt 0 discriminator 1
 134 004c CB68     		ldr	r3, [r1, #12]
 135 004e 1A42     		tst	r2, r3
 136 0050 FCD0     		beq	.L8
 137              		.loc 1 99 0 is_stmt 1
 138 0052 0B4B     		ldr	r3, .L11+4
 139 0054 0322     		mov	r2, #3
 140 0056 1A67     		str	r2, [r3, #112]
 141              		.loc 1 100 0
 142 0058 0122     		mov	r2, #1
 143 005a 5A67     		str	r2, [r3, #116]
 144              		.loc 1 101 0
 145 005c 0021     		mov	r1, #0
 146 005e 5967     		str	r1, [r3, #116]
 147              		.loc 1 102 0
 148 0060 5A67     		str	r2, [r3, #116]
 149              		.loc 1 103 0
 150 0062 191C     		mov	r1, r3
 151              	.L10:
 152              		.loc 1 103 0 is_stmt 0 discriminator 1
 153 0064 4B6F     		ldr	r3, [r1, #116]
 154 0066 1A42     		tst	r2, r3
 155 0068 FCD0     		beq	.L10
 156              		.loc 1 109 0 is_stmt 1
 157 006a 054B     		ldr	r3, .L11+4
 158 006c 0122     		mov	r2, #1
 159 006e 9A67     		str	r2, [r3, #120]
 160              		.loc 1 110 0
 161 0070 0449     		ldr	r1, .L11+8
 162 0072 8022     		mov	r2, #128
 163 0074 9950     		str	r1, [r3, r2]
 164              		.loc 1 113 0
 165 0076 0222     		mov	r2, #2
 166 0078 1A60     		str	r2, [r3]
 167              		.loc 1 114 0
 168              		@ sp needed
 169 007a 7047     		bx	lr
 170              	.L12:
 171              		.align	2
ARM GAS  /tmp/ccGyIUFk.s 			page 4


 172              	.L11:
 173 007c 00C00340 		.word	1073987584
 174 0080 00800440 		.word	1074036736
 175 0084 5F000100 		.word	65631
 176              		.cfi_endproc
 177              	.LFE40:
 178              		.size	lpc_clock_init, .-lpc_clock_init
 179              		.text
 180              	.Letext0:
 181              		.file 3 "/usr/local/lpcxpresso_7.3.0_186/lpcxpresso/tools/arm-none-eabi/include/machine/_default_t
 182              		.file 4 "/usr/local/lpcxpresso_7.3.0_186/lpcxpresso/tools/arm-none-eabi/include/stdint.h"
 183              		.file 5 "CMSIS_CORE_LPC11Uxx/inc/core_cm0.h"
 184              		.file 6 "CMSIS_CORE_LPC11Uxx/inc/LPC11Uxx.h"
 185              		.file 7 "CMSIS_CORE_LPC11Uxx/inc/nvic.h"
 186              		.section	.debug_info,"",%progbits
 187              	.Ldebug_info0:
 188 0000 B1060000 		.4byte	0x6b1
 189 0004 0400     		.2byte	0x4
 190 0006 00000000 		.4byte	.Ldebug_abbrev0
 191 000a 04       		.byte	0x4
 192 000b 01       		.uleb128 0x1
 193 000c CD000000 		.4byte	.LASF87
 194 0010 01       		.byte	0x1
 195 0011 6C000000 		.4byte	.LASF88
 196 0015 B7010000 		.4byte	.LASF89
 197 0019 00000000 		.4byte	.Ldebug_ranges0+0
 198 001d 00000000 		.4byte	0
 199 0021 00000000 		.4byte	.Ldebug_line0
 200 0025 02       		.uleb128 0x2
 201 0026 04       		.byte	0x4
 202 0027 05       		.byte	0x5
 203 0028 696E7400 		.ascii	"int\000"
 204 002c 03       		.uleb128 0x3
 205 002d 04       		.byte	0x4
 206 002e 07       		.byte	0x7
 207 002f 47030000 		.4byte	.LASF0
 208 0033 03       		.uleb128 0x3
 209 0034 01       		.byte	0x1
 210 0035 06       		.byte	0x6
 211 0036 0F020000 		.4byte	.LASF1
 212 003a 03       		.uleb128 0x3
 213 003b 01       		.byte	0x1
 214 003c 08       		.byte	0x8
 215 003d B7020000 		.4byte	.LASF2
 216 0041 03       		.uleb128 0x3
 217 0042 02       		.byte	0x2
 218 0043 05       		.byte	0x5
 219 0044 4E000000 		.4byte	.LASF3
 220 0048 03       		.uleb128 0x3
 221 0049 02       		.byte	0x2
 222 004a 07       		.byte	0x7
 223 004b 88030000 		.4byte	.LASF4
 224 004f 03       		.uleb128 0x3
 225 0050 04       		.byte	0x4
 226 0051 05       		.byte	0x5
 227 0052 CB030000 		.4byte	.LASF5
 228 0056 04       		.uleb128 0x4
ARM GAS  /tmp/ccGyIUFk.s 			page 5


 229 0057 C2000000 		.4byte	.LASF9
 230 005b 03       		.byte	0x3
 231 005c 38       		.byte	0x38
 232 005d 61000000 		.4byte	0x61
 233 0061 03       		.uleb128 0x3
 234 0062 04       		.byte	0x4
 235 0063 07       		.byte	0x7
 236 0064 5F030000 		.4byte	.LASF6
 237 0068 03       		.uleb128 0x3
 238 0069 08       		.byte	0x8
 239 006a 05       		.byte	0x5
 240 006b B4000000 		.4byte	.LASF7
 241 006f 03       		.uleb128 0x3
 242 0070 08       		.byte	0x8
 243 0071 07       		.byte	0x7
 244 0072 27030000 		.4byte	.LASF8
 245 0076 04       		.uleb128 0x4
 246 0077 3E030000 		.4byte	.LASF10
 247 007b 04       		.byte	0x4
 248 007c 42       		.byte	0x42
 249 007d 56000000 		.4byte	0x56
 250 0081 03       		.uleb128 0x3
 251 0082 01       		.byte	0x1
 252 0083 02       		.byte	0x2
 253 0084 02040000 		.4byte	.LASF11
 254 0088 05       		.uleb128 0x5
 255 0089 76000000 		.4byte	0x76
 256 008d 03       		.uleb128 0x3
 257 008e 04       		.byte	0x4
 258 008f 07       		.byte	0x7
 259 0090 58000000 		.4byte	.LASF12
 260 0094 03       		.uleb128 0x3
 261 0095 01       		.byte	0x1
 262 0096 08       		.byte	0x8
 263 0097 C6030000 		.4byte	.LASF13
 264 009b 06       		.uleb128 0x6
 265 009c 76000000 		.4byte	0x76
 266 00a0 AB000000 		.4byte	0xab
 267 00a4 07       		.uleb128 0x7
 268 00a5 8D000000 		.4byte	0x8d
 269 00a9 00       		.byte	0
 270 00aa 00       		.byte	0
 271 00ab 06       		.uleb128 0x6
 272 00ac 76000000 		.4byte	0x76
 273 00b0 BB000000 		.4byte	0xbb
 274 00b4 07       		.uleb128 0x7
 275 00b5 8D000000 		.4byte	0x8d
 276 00b9 07       		.byte	0x7
 277 00ba 00       		.byte	0
 278 00bb 08       		.uleb128 0x8
 279 00bc 88000000 		.4byte	0x88
 280 00c0 06       		.uleb128 0x6
 281 00c1 76000000 		.4byte	0x76
 282 00c5 D0000000 		.4byte	0xd0
 283 00c9 07       		.uleb128 0x7
 284 00ca 8D000000 		.4byte	0x8d
 285 00ce 01       		.byte	0x1
ARM GAS  /tmp/ccGyIUFk.s 			page 6


 286 00cf 00       		.byte	0
 287 00d0 09       		.uleb128 0x9
 288 00d1 10       		.byte	0x10
 289 00d2 05       		.byte	0x5
 290 00d3 5C01     		.2byte	0x15c
 291 00d5 0E010000 		.4byte	0x10e
 292 00d9 0A       		.uleb128 0xa
 293 00da A8010000 		.4byte	.LASF14
 294 00de 05       		.byte	0x5
 295 00df 5E01     		.2byte	0x15e
 296 00e1 88000000 		.4byte	0x88
 297 00e5 00       		.byte	0
 298 00e6 0A       		.uleb128 0xa
 299 00e7 88040000 		.4byte	.LASF15
 300 00eb 05       		.byte	0x5
 301 00ec 5F01     		.2byte	0x15f
 302 00ee 88000000 		.4byte	0x88
 303 00f2 04       		.byte	0x4
 304 00f3 0B       		.uleb128 0xb
 305 00f4 56414C00 		.ascii	"VAL\000"
 306 00f8 05       		.byte	0x5
 307 00f9 6001     		.2byte	0x160
 308 00fb 88000000 		.4byte	0x88
 309 00ff 08       		.byte	0x8
 310 0100 0A       		.uleb128 0xa
 311 0101 25020000 		.4byte	.LASF16
 312 0105 05       		.byte	0x5
 313 0106 6101     		.2byte	0x161
 314 0108 BB000000 		.4byte	0xbb
 315 010c 0C       		.byte	0xc
 316 010d 00       		.byte	0
 317 010e 0C       		.uleb128 0xc
 318 010f 7B030000 		.4byte	.LASF17
 319 0113 05       		.byte	0x5
 320 0114 6201     		.2byte	0x162
 321 0116 D0000000 		.4byte	0xd0
 322 011a 06       		.uleb128 0x6
 323 011b 76000000 		.4byte	0x76
 324 011f 2A010000 		.4byte	0x12a
 325 0123 07       		.uleb128 0x7
 326 0124 8D000000 		.4byte	0x8d
 327 0128 03       		.byte	0x3
 328 0129 00       		.byte	0
 329 012a 06       		.uleb128 0x6
 330 012b 76000000 		.4byte	0x76
 331 012f 3A010000 		.4byte	0x13a
 332 0133 07       		.uleb128 0x7
 333 0134 8D000000 		.4byte	0x8d
 334 0138 02       		.byte	0x2
 335 0139 00       		.byte	0
 336 013a 0D       		.uleb128 0xd
 337 013b EC0F     		.2byte	0xfec
 338 013d 06       		.byte	0x6
 339 013e 3C01     		.2byte	0x13c
 340 0140 FE010000 		.4byte	0x1fe
 341 0144 0A       		.uleb128 0xa
 342 0145 AD010000 		.4byte	.LASF18
ARM GAS  /tmp/ccGyIUFk.s 			page 7


 343 0149 06       		.byte	0x6
 344 014a 3D01     		.2byte	0x13d
 345 014c FE010000 		.4byte	0x1fe
 346 0150 00       		.byte	0
 347 0151 0A       		.uleb128 0xa
 348 0152 E5020000 		.4byte	.LASF19
 349 0156 06       		.byte	0x6
 350 0157 3E01     		.2byte	0x13e
 351 0159 88000000 		.4byte	0x88
 352 015d 10       		.byte	0x10
 353 015e 0A       		.uleb128 0xa
 354 015f 13040000 		.4byte	.LASF20
 355 0163 06       		.byte	0x6
 356 0164 3F01     		.2byte	0x13f
 357 0166 08020000 		.4byte	0x208
 358 016a 14       		.byte	0x14
 359 016b 0A       		.uleb128 0xa
 360 016c 0F030000 		.4byte	.LASF21
 361 0170 06       		.byte	0x6
 362 0171 4001     		.2byte	0x140
 363 0173 88000000 		.4byte	0x88
 364 0177 20       		.byte	0x20
 365 0178 0A       		.uleb128 0xa
 366 0179 E9010000 		.4byte	.LASF22
 367 017d 06       		.byte	0x6
 368 017e 4101     		.2byte	0x141
 369 0180 88000000 		.4byte	0x88
 370 0184 24       		.byte	0x24
 371 0185 0A       		.uleb128 0xa
 372 0186 D6010000 		.4byte	.LASF23
 373 018a 06       		.byte	0x6
 374 018b 4201     		.2byte	0x142
 375 018d 12020000 		.4byte	0x212
 376 0191 28       		.byte	0x28
 377 0192 0A       		.uleb128 0xa
 378 0193 3D020000 		.4byte	.LASF24
 379 0197 06       		.byte	0x6
 380 0198 4301     		.2byte	0x143
 381 019a BB000000 		.4byte	0xbb
 382 019e 2C       		.byte	0x2c
 383 019f 0A       		.uleb128 0xa
 384 01a0 43020000 		.4byte	.LASF25
 385 01a4 06       		.byte	0x6
 386 01a5 4401     		.2byte	0x144
 387 01a7 BB000000 		.4byte	0xbb
 388 01ab 30       		.byte	0x30
 389 01ac 0A       		.uleb128 0xa
 390 01ad 49020000 		.4byte	.LASF26
 391 01b1 06       		.byte	0x6
 392 01b2 4501     		.2byte	0x145
 393 01b4 BB000000 		.4byte	0xbb
 394 01b8 34       		.byte	0x34
 395 01b9 0A       		.uleb128 0xa
 396 01ba 4F020000 		.4byte	.LASF27
 397 01be 06       		.byte	0x6
 398 01bf 4601     		.2byte	0x146
 399 01c1 BB000000 		.4byte	0xbb
ARM GAS  /tmp/ccGyIUFk.s 			page 8


 400 01c5 38       		.byte	0x38
 401 01c6 0A       		.uleb128 0xa
 402 01c7 28040000 		.4byte	.LASF28
 403 01cb 06       		.byte	0x6
 404 01cc 4701     		.2byte	0x147
 405 01ce 2D020000 		.4byte	0x22d
 406 01d2 3C       		.byte	0x3c
 407 01d3 0E       		.uleb128 0xe
 408 01d4 81040000 		.4byte	.LASF29
 409 01d8 06       		.byte	0x6
 410 01d9 4801     		.2byte	0x148
 411 01db BB000000 		.4byte	0xbb
 412 01df E00F     		.2byte	0xfe0
 413 01e1 0E       		.uleb128 0xe
 414 01e2 32040000 		.4byte	.LASF30
 415 01e6 06       		.byte	0x6
 416 01e7 4901     		.2byte	0x149
 417 01e9 37020000 		.4byte	0x237
 418 01ed E40F     		.2byte	0xfe4
 419 01ef 0E       		.uleb128 0xe
 420 01f0 AD020000 		.4byte	.LASF31
 421 01f4 06       		.byte	0x6
 422 01f5 4A01     		.2byte	0x14a
 423 01f7 88000000 		.4byte	0x88
 424 01fb E80F     		.2byte	0xfe8
 425 01fd 00       		.byte	0
 426 01fe 08       		.uleb128 0x8
 427 01ff 03020000 		.4byte	0x203
 428 0203 05       		.uleb128 0x5
 429 0204 1A010000 		.4byte	0x11a
 430 0208 08       		.uleb128 0x8
 431 0209 0D020000 		.4byte	0x20d
 432 020d 05       		.uleb128 0x5
 433 020e 2A010000 		.4byte	0x12a
 434 0212 08       		.uleb128 0x8
 435 0213 17020000 		.4byte	0x217
 436 0217 05       		.uleb128 0x5
 437 0218 9B000000 		.4byte	0x9b
 438 021c 06       		.uleb128 0x6
 439 021d 76000000 		.4byte	0x76
 440 0221 2D020000 		.4byte	0x22d
 441 0225 0F       		.uleb128 0xf
 442 0226 8D000000 		.4byte	0x8d
 443 022a E803     		.2byte	0x3e8
 444 022c 00       		.byte	0
 445 022d 08       		.uleb128 0x8
 446 022e 32020000 		.4byte	0x232
 447 0232 05       		.uleb128 0x5
 448 0233 1C020000 		.4byte	0x21c
 449 0237 08       		.uleb128 0x8
 450 0238 3C020000 		.4byte	0x23c
 451 023c 05       		.uleb128 0x5
 452 023d 9B000000 		.4byte	0x9b
 453 0241 0C       		.uleb128 0xc
 454 0242 B3030000 		.4byte	.LASF32
 455 0246 06       		.byte	0x6
 456 0247 4B01     		.2byte	0x14b
ARM GAS  /tmp/ccGyIUFk.s 			page 9


 457 0249 3A010000 		.4byte	0x13a
 458 024d 0D       		.uleb128 0xd
 459 024e F803     		.2byte	0x3f8
 460 0250 06       		.byte	0x6
 461 0251 B301     		.2byte	0x1b3
 462 0253 45050000 		.4byte	0x545
 463 0257 0A       		.uleb128 0xa
 464 0258 2B020000 		.4byte	.LASF33
 465 025c 06       		.byte	0x6
 466 025d B401     		.2byte	0x1b4
 467 025f 88000000 		.4byte	0x88
 468 0263 00       		.byte	0
 469 0264 0A       		.uleb128 0xa
 470 0265 9A040000 		.4byte	.LASF34
 471 0269 06       		.byte	0x6
 472 026a B501     		.2byte	0x1b5
 473 026c 88000000 		.4byte	0x88
 474 0270 04       		.byte	0x4
 475 0271 0A       		.uleb128 0xa
 476 0272 92010000 		.4byte	.LASF35
 477 0276 06       		.byte	0x6
 478 0277 B601     		.2byte	0x1b6
 479 0279 88000000 		.4byte	0x88
 480 027d 08       		.byte	0x8
 481 027e 0A       		.uleb128 0xa
 482 027f 76040000 		.4byte	.LASF36
 483 0283 06       		.byte	0x6
 484 0284 B701     		.2byte	0x1b7
 485 0286 BB000000 		.4byte	0xbb
 486 028a 0C       		.byte	0xc
 487 028b 0A       		.uleb128 0xa
 488 028c 55020000 		.4byte	.LASF37
 489 0290 06       		.byte	0x6
 490 0291 B801     		.2byte	0x1b8
 491 0293 88000000 		.4byte	0x88
 492 0297 10       		.byte	0x10
 493 0298 0A       		.uleb128 0xa
 494 0299 15000000 		.4byte	.LASF38
 495 029d 06       		.byte	0x6
 496 029e B901     		.2byte	0x1b9
 497 02a0 BB000000 		.4byte	0xbb
 498 02a4 14       		.byte	0x14
 499 02a5 0A       		.uleb128 0xa
 500 02a6 AD010000 		.4byte	.LASF18
 501 02aa 06       		.byte	0x6
 502 02ab BA01     		.2byte	0x1ba
 503 02ad 45050000 		.4byte	0x545
 504 02b1 18       		.byte	0x18
 505 02b2 0A       		.uleb128 0xa
 506 02b3 AD040000 		.4byte	.LASF39
 507 02b7 06       		.byte	0x6
 508 02b8 BB01     		.2byte	0x1bb
 509 02ba 88000000 		.4byte	0x88
 510 02be 20       		.byte	0x20
 511 02bf 0A       		.uleb128 0xa
 512 02c0 61000000 		.4byte	.LASF40
 513 02c4 06       		.byte	0x6
ARM GAS  /tmp/ccGyIUFk.s 			page 10


 514 02c5 BC01     		.2byte	0x1bc
 515 02c7 88000000 		.4byte	0x88
 516 02cb 24       		.byte	0x24
 517 02cc 0A       		.uleb128 0xa
 518 02cd 13040000 		.4byte	.LASF20
 519 02d1 06       		.byte	0x6
 520 02d2 BD01     		.2byte	0x1bd
 521 02d4 4F050000 		.4byte	0x54f
 522 02d8 28       		.byte	0x28
 523 02d9 0A       		.uleb128 0xa
 524 02da A8030000 		.4byte	.LASF41
 525 02de 06       		.byte	0x6
 526 02df BE01     		.2byte	0x1be
 527 02e1 88000000 		.4byte	0x88
 528 02e5 30       		.byte	0x30
 529 02e6 0A       		.uleb128 0xa
 530 02e7 D6010000 		.4byte	.LASF23
 531 02eb 06       		.byte	0x6
 532 02ec BF01     		.2byte	0x1bf
 533 02ee 59050000 		.4byte	0x559
 534 02f2 34       		.byte	0x34
 535 02f3 0A       		.uleb128 0xa
 536 02f4 CB040000 		.4byte	.LASF42
 537 02f8 06       		.byte	0x6
 538 02f9 C001     		.2byte	0x1c0
 539 02fb 88000000 		.4byte	0x88
 540 02ff 40       		.byte	0x40
 541 0300 0A       		.uleb128 0xa
 542 0301 9B030000 		.4byte	.LASF43
 543 0305 06       		.byte	0x6
 544 0306 C101     		.2byte	0x1c1
 545 0308 88000000 		.4byte	0x88
 546 030c 44       		.byte	0x44
 547 030d 0A       		.uleb128 0xa
 548 030e F5030000 		.4byte	.LASF44
 549 0312 06       		.byte	0x6
 550 0313 C201     		.2byte	0x1c2
 551 0315 88000000 		.4byte	0x88
 552 0319 48       		.byte	0x48
 553 031a 0A       		.uleb128 0xa
 554 031b 76020000 		.4byte	.LASF45
 555 031f 06       		.byte	0x6
 556 0320 C301     		.2byte	0x1c3
 557 0322 88000000 		.4byte	0x88
 558 0326 4C       		.byte	0x4c
 559 0327 0A       		.uleb128 0xa
 560 0328 28040000 		.4byte	.LASF28
 561 032c 06       		.byte	0x6
 562 032d C401     		.2byte	0x1c4
 563 032f 63050000 		.4byte	0x563
 564 0333 50       		.byte	0x50
 565 0334 0A       		.uleb128 0xa
 566 0335 D4030000 		.4byte	.LASF46
 567 0339 06       		.byte	0x6
 568 033a C501     		.2byte	0x1c5
 569 033c 88000000 		.4byte	0x88
 570 0340 70       		.byte	0x70
ARM GAS  /tmp/ccGyIUFk.s 			page 11


 571 0341 0A       		.uleb128 0xa
 572 0342 6B020000 		.4byte	.LASF47
 573 0346 06       		.byte	0x6
 574 0347 C601     		.2byte	0x1c6
 575 0349 88000000 		.4byte	0x88
 576 034d 74       		.byte	0x74
 577 034e 0A       		.uleb128 0xa
 578 034f 8D040000 		.4byte	.LASF48
 579 0353 06       		.byte	0x6
 580 0354 C701     		.2byte	0x1c7
 581 0356 88000000 		.4byte	0x88
 582 035a 78       		.byte	0x78
 583 035b 0A       		.uleb128 0xa
 584 035c 32040000 		.4byte	.LASF30
 585 0360 06       		.byte	0x6
 586 0361 C801     		.2byte	0x1c8
 587 0363 6D050000 		.4byte	0x56d
 588 0367 7C       		.byte	0x7c
 589 0368 0A       		.uleb128 0xa
 590 0369 E7030000 		.4byte	.LASF49
 591 036d 06       		.byte	0x6
 592 036e C901     		.2byte	0x1c9
 593 0370 88000000 		.4byte	0x88
 594 0374 80       		.byte	0x80
 595 0375 0A       		.uleb128 0xa
 596 0376 3C040000 		.4byte	.LASF50
 597 037a 06       		.byte	0x6
 598 037b CA01     		.2byte	0x1ca
 599 037d 77050000 		.4byte	0x577
 600 0381 84       		.byte	0x84
 601 0382 0A       		.uleb128 0xa
 602 0383 04030000 		.4byte	.LASF51
 603 0387 06       		.byte	0x6
 604 0388 CB01     		.2byte	0x1cb
 605 038a 88000000 		.4byte	0x88
 606 038e 94       		.byte	0x94
 607 038f 0A       		.uleb128 0xa
 608 0390 54030000 		.4byte	.LASF52
 609 0394 06       		.byte	0x6
 610 0395 CC01     		.2byte	0x1cc
 611 0397 88000000 		.4byte	0x88
 612 039b 98       		.byte	0x98
 613 039c 0A       		.uleb128 0xa
 614 039d 08040000 		.4byte	.LASF53
 615 03a1 06       		.byte	0x6
 616 03a2 CD01     		.2byte	0x1cd
 617 03a4 88000000 		.4byte	0x88
 618 03a8 9C       		.byte	0x9c
 619 03a9 0A       		.uleb128 0xa
 620 03aa 46040000 		.4byte	.LASF54
 621 03ae 06       		.byte	0x6
 622 03af CE01     		.2byte	0x1ce
 623 03b1 81050000 		.4byte	0x581
 624 03b5 A0       		.byte	0xa0
 625 03b6 0A       		.uleb128 0xa
 626 03b7 F1010000 		.4byte	.LASF55
 627 03bb 06       		.byte	0x6
ARM GAS  /tmp/ccGyIUFk.s 			page 12


 628 03bc CF01     		.2byte	0x1cf
 629 03be 88000000 		.4byte	0x88
 630 03c2 C0       		.byte	0xc0
 631 03c3 0A       		.uleb128 0xa
 632 03c4 0B000000 		.4byte	.LASF56
 633 03c8 06       		.byte	0x6
 634 03c9 D001     		.2byte	0x1d0
 635 03cb 88000000 		.4byte	0x88
 636 03cf C4       		.byte	0xc4
 637 03d0 0A       		.uleb128 0xa
 638 03d1 44000000 		.4byte	.LASF57
 639 03d5 06       		.byte	0x6
 640 03d6 D101     		.2byte	0x1d1
 641 03d8 88000000 		.4byte	0x88
 642 03dc C8       		.byte	0xc8
 643 03dd 0A       		.uleb128 0xa
 644 03de FB010000 		.4byte	.LASF58
 645 03e2 06       		.byte	0x6
 646 03e3 D201     		.2byte	0x1d2
 647 03e5 9B050000 		.4byte	0x59b
 648 03e9 CC       		.byte	0xcc
 649 03ea 0A       		.uleb128 0xa
 650 03eb C5020000 		.4byte	.LASF59
 651 03ef 06       		.byte	0x6
 652 03f0 D301     		.2byte	0x1d3
 653 03f2 88000000 		.4byte	0x88
 654 03f6 E0       		.byte	0xe0
 655 03f7 0A       		.uleb128 0xa
 656 03f8 05020000 		.4byte	.LASF60
 657 03fc 06       		.byte	0x6
 658 03fd D401     		.2byte	0x1d4
 659 03ff 88000000 		.4byte	0x88
 660 0403 E4       		.byte	0xe4
 661 0404 0A       		.uleb128 0xa
 662 0405 1B020000 		.4byte	.LASF61
 663 0409 06       		.byte	0x6
 664 040a D501     		.2byte	0x1d5
 665 040c 88000000 		.4byte	0x88
 666 0410 E8       		.byte	0xe8
 667 0411 0A       		.uleb128 0xa
 668 0412 57040000 		.4byte	.LASF62
 669 0416 06       		.byte	0x6
 670 0417 D601     		.2byte	0x1d6
 671 0419 A5050000 		.4byte	0x5a5
 672 041d EC       		.byte	0xec
 673 041e 0E       		.uleb128 0xe
 674 041f 9E000000 		.4byte	.LASF63
 675 0423 06       		.byte	0x6
 676 0424 D701     		.2byte	0x1d7
 677 0426 BB000000 		.4byte	0xbb
 678 042a 0001     		.2byte	0x100
 679 042c 0E       		.uleb128 0xe
 680 042d A9000000 		.4byte	.LASF64
 681 0431 06       		.byte	0x6
 682 0432 D801     		.2byte	0x1d8
 683 0434 BB000000 		.4byte	0xbb
 684 0438 0401     		.2byte	0x104
ARM GAS  /tmp/ccGyIUFk.s 			page 13


 685 043a 0E       		.uleb128 0xe
 686 043b 61040000 		.4byte	.LASF65
 687 043f 06       		.byte	0x6
 688 0440 D901     		.2byte	0x1d9
 689 0442 BF050000 		.4byte	0x5bf
 690 0446 0801     		.2byte	0x108
 691 0448 0E       		.uleb128 0xe
 692 0449 A5040000 		.4byte	.LASF66
 693 044d 06       		.byte	0x6
 694 044e DA01     		.2byte	0x1da
 695 0450 88000000 		.4byte	0x88
 696 0454 5001     		.2byte	0x150
 697 0456 0E       		.uleb128 0xe
 698 0457 C1040000 		.4byte	.LASF67
 699 045b 06       		.byte	0x6
 700 045c DB01     		.2byte	0x1db
 701 045e 88000000 		.4byte	0x88
 702 0462 5401     		.2byte	0x154
 703 0464 0E       		.uleb128 0xe
 704 0465 CF020000 		.4byte	.LASF68
 705 0469 06       		.byte	0x6
 706 046a DC01     		.2byte	0x1dc
 707 046c D9050000 		.4byte	0x5d9
 708 0470 5801     		.2byte	0x158
 709 0472 0E       		.uleb128 0xe
 710 0473 9D010000 		.4byte	.LASF69
 711 0477 06       		.byte	0x6
 712 0478 DD01     		.2byte	0x1dd
 713 047a 88000000 		.4byte	0x88
 714 047e 7001     		.2byte	0x170
 715 0480 0E       		.uleb128 0xe
 716 0481 50040000 		.4byte	.LASF70
 717 0485 06       		.byte	0x6
 718 0486 DE01     		.2byte	0x1de
 719 0488 88000000 		.4byte	0x88
 720 048c 7401     		.2byte	0x174
 721 048e 0E       		.uleb128 0xe
 722 048f DF030000 		.4byte	.LASF71
 723 0493 06       		.byte	0x6
 724 0494 DF01     		.2byte	0x1df
 725 0496 E3050000 		.4byte	0x5e3
 726 049a 7801     		.2byte	0x178
 727 049c 0E       		.uleb128 0xe
 728 049d 00000000 		.4byte	.LASF72
 729 04a1 06       		.byte	0x6
 730 04a2 E001     		.2byte	0x1e0
 731 04a4 88000000 		.4byte	0x88
 732 04a8 9801     		.2byte	0x198
 733 04aa 0E       		.uleb128 0xe
 734 04ab B8040000 		.4byte	.LASF73
 735 04af 06       		.byte	0x6
 736 04b0 E101     		.2byte	0x1e1
 737 04b2 BB000000 		.4byte	0xbb
 738 04b6 9C01     		.2byte	0x19c
 739 04b8 0E       		.uleb128 0xe
 740 04b9 DA020000 		.4byte	.LASF74
 741 04bd 06       		.byte	0x6
ARM GAS  /tmp/ccGyIUFk.s 			page 14


 742 04be E201     		.2byte	0x1e2
 743 04c0 F8050000 		.4byte	0x5f8
 744 04c4 A001     		.2byte	0x1a0
 745 04c6 0E       		.uleb128 0xe
 746 04c7 20000000 		.4byte	.LASF75
 747 04cb 06       		.byte	0x6
 748 04cc E301     		.2byte	0x1e3
 749 04ce 88000000 		.4byte	0x88
 750 04d2 0402     		.2byte	0x204
 751 04d4 0E       		.uleb128 0xe
 752 04d5 60020000 		.4byte	.LASF76
 753 04d9 06       		.byte	0x6
 754 04da E401     		.2byte	0x1e4
 755 04dc 02060000 		.4byte	0x602
 756 04e0 0802     		.2byte	0x208
 757 04e2 0E       		.uleb128 0xe
 758 04e3 2A000000 		.4byte	.LASF77
 759 04e7 06       		.byte	0x6
 760 04e8 E501     		.2byte	0x1e5
 761 04ea 88000000 		.4byte	0x88
 762 04ee 1402     		.2byte	0x214
 763 04f0 0E       		.uleb128 0xe
 764 04f1 EE020000 		.4byte	.LASF78
 765 04f5 06       		.byte	0x6
 766 04f6 E601     		.2byte	0x1e6
 767 04f8 0C060000 		.4byte	0x60c
 768 04fc 1802     		.2byte	0x218
 769 04fe 0E       		.uleb128 0xe
 770 04ff 1D040000 		.4byte	.LASF79
 771 0503 06       		.byte	0x6
 772 0504 E701     		.2byte	0x1e7
 773 0506 88000000 		.4byte	0x88
 774 050a 3002     		.2byte	0x230
 775 050c 0E       		.uleb128 0xe
 776 050d 6B040000 		.4byte	.LASF80
 777 0511 06       		.byte	0x6
 778 0512 E801     		.2byte	0x1e8
 779 0514 88000000 		.4byte	0x88
 780 0518 3402     		.2byte	0x234
 781 051a 0E       		.uleb128 0xe
 782 051b E0010000 		.4byte	.LASF81
 783 051f 06       		.byte	0x6
 784 0520 E901     		.2byte	0x1e9
 785 0522 88000000 		.4byte	0x88
 786 0526 3802     		.2byte	0x238
 787 0528 0E       		.uleb128 0xe
 788 0529 F9020000 		.4byte	.LASF82
 789 052d 06       		.byte	0x6
 790 052e EA01     		.2byte	0x1ea
 791 0530 26060000 		.4byte	0x626
 792 0534 3C02     		.2byte	0x23c
 793 0536 0E       		.uleb128 0xe
 794 0537 71030000 		.4byte	.LASF83
 795 053b 06       		.byte	0x6
 796 053c EB01     		.2byte	0x1eb
 797 053e BB000000 		.4byte	0xbb
 798 0542 F403     		.2byte	0x3f4
ARM GAS  /tmp/ccGyIUFk.s 			page 15


 799 0544 00       		.byte	0
 800 0545 08       		.uleb128 0x8
 801 0546 4A050000 		.4byte	0x54a
 802 054a 05       		.uleb128 0x5
 803 054b C0000000 		.4byte	0xc0
 804 054f 08       		.uleb128 0x8
 805 0550 54050000 		.4byte	0x554
 806 0554 05       		.uleb128 0x5
 807 0555 C0000000 		.4byte	0xc0
 808 0559 08       		.uleb128 0x8
 809 055a 5E050000 		.4byte	0x55e
 810 055e 05       		.uleb128 0x5
 811 055f 2A010000 		.4byte	0x12a
 812 0563 08       		.uleb128 0x8
 813 0564 68050000 		.4byte	0x568
 814 0568 05       		.uleb128 0x5
 815 0569 AB000000 		.4byte	0xab
 816 056d 08       		.uleb128 0x8
 817 056e 72050000 		.4byte	0x572
 818 0572 05       		.uleb128 0x5
 819 0573 9B000000 		.4byte	0x9b
 820 0577 08       		.uleb128 0x8
 821 0578 7C050000 		.4byte	0x57c
 822 057c 05       		.uleb128 0x5
 823 057d 1A010000 		.4byte	0x11a
 824 0581 08       		.uleb128 0x8
 825 0582 86050000 		.4byte	0x586
 826 0586 05       		.uleb128 0x5
 827 0587 AB000000 		.4byte	0xab
 828 058b 06       		.uleb128 0x6
 829 058c 76000000 		.4byte	0x76
 830 0590 9B050000 		.4byte	0x59b
 831 0594 07       		.uleb128 0x7
 832 0595 8D000000 		.4byte	0x8d
 833 0599 04       		.byte	0x4
 834 059a 00       		.byte	0
 835 059b 08       		.uleb128 0x8
 836 059c A0050000 		.4byte	0x5a0
 837 05a0 05       		.uleb128 0x5
 838 05a1 8B050000 		.4byte	0x58b
 839 05a5 08       		.uleb128 0x8
 840 05a6 AA050000 		.4byte	0x5aa
 841 05aa 05       		.uleb128 0x5
 842 05ab 8B050000 		.4byte	0x58b
 843 05af 06       		.uleb128 0x6
 844 05b0 76000000 		.4byte	0x76
 845 05b4 BF050000 		.4byte	0x5bf
 846 05b8 07       		.uleb128 0x7
 847 05b9 8D000000 		.4byte	0x8d
 848 05bd 11       		.byte	0x11
 849 05be 00       		.byte	0
 850 05bf 08       		.uleb128 0x8
 851 05c0 C4050000 		.4byte	0x5c4
 852 05c4 05       		.uleb128 0x5
 853 05c5 AF050000 		.4byte	0x5af
 854 05c9 06       		.uleb128 0x6
 855 05ca 76000000 		.4byte	0x76
ARM GAS  /tmp/ccGyIUFk.s 			page 16


 856 05ce D9050000 		.4byte	0x5d9
 857 05d2 07       		.uleb128 0x7
 858 05d3 8D000000 		.4byte	0x8d
 859 05d7 05       		.byte	0x5
 860 05d8 00       		.byte	0
 861 05d9 08       		.uleb128 0x8
 862 05da DE050000 		.4byte	0x5de
 863 05de 05       		.uleb128 0x5
 864 05df C9050000 		.4byte	0x5c9
 865 05e3 05       		.uleb128 0x5
 866 05e4 AB000000 		.4byte	0xab
 867 05e8 06       		.uleb128 0x6
 868 05e9 76000000 		.4byte	0x76
 869 05ed F8050000 		.4byte	0x5f8
 870 05f1 07       		.uleb128 0x7
 871 05f2 8D000000 		.4byte	0x8d
 872 05f6 18       		.byte	0x18
 873 05f7 00       		.byte	0
 874 05f8 08       		.uleb128 0x8
 875 05f9 FD050000 		.4byte	0x5fd
 876 05fd 05       		.uleb128 0x5
 877 05fe E8050000 		.4byte	0x5e8
 878 0602 08       		.uleb128 0x8
 879 0603 07060000 		.4byte	0x607
 880 0607 05       		.uleb128 0x5
 881 0608 2A010000 		.4byte	0x12a
 882 060c 08       		.uleb128 0x8
 883 060d 11060000 		.4byte	0x611
 884 0611 05       		.uleb128 0x5
 885 0612 C9050000 		.4byte	0x5c9
 886 0616 06       		.uleb128 0x6
 887 0617 76000000 		.4byte	0x76
 888 061b 26060000 		.4byte	0x626
 889 061f 07       		.uleb128 0x7
 890 0620 8D000000 		.4byte	0x8d
 891 0624 6D       		.byte	0x6d
 892 0625 00       		.byte	0
 893 0626 08       		.uleb128 0x8
 894 0627 2B060000 		.4byte	0x62b
 895 062b 05       		.uleb128 0x5
 896 062c 16060000 		.4byte	0x616
 897 0630 0C       		.uleb128 0xc
 898 0631 34000000 		.4byte	.LASF84
 899 0635 06       		.byte	0x6
 900 0636 EC01     		.2byte	0x1ec
 901 0638 4D020000 		.4byte	0x24d
 902 063c 10       		.uleb128 0x10
 903 063d 37020000 		.4byte	.LASF90
 904 0641 02       		.byte	0x2
 905 0642 CB01     		.2byte	0x1cb
 906 0644 03       		.byte	0x3
 907 0645 11       		.uleb128 0x11
 908 0646 83020000 		.4byte	.LASF85
 909 064a 01       		.byte	0x1
 910 064b 35       		.byte	0x35
 911 064c 00000000 		.4byte	.LFB39
 912 0650 24000000 		.4byte	.LFE39-.LFB39
ARM GAS  /tmp/ccGyIUFk.s 			page 17


 913 0654 01       		.uleb128 0x1
 914 0655 9C       		.byte	0x9c
 915 0656 6F060000 		.4byte	0x66f
 916 065a 12       		.uleb128 0x12
 917 065b 0A000000 		.4byte	.LVL0
 918 065f A1060000 		.4byte	0x6a1
 919 0663 13       		.uleb128 0x13
 920 0664 01       		.uleb128 0x1
 921 0665 51       		.byte	0x51
 922 0666 01       		.uleb128 0x1
 923 0667 32       		.byte	0x32
 924 0668 13       		.uleb128 0x13
 925 0669 01       		.uleb128 0x1
 926 066a 50       		.byte	0x50
 927 066b 01       		.uleb128 0x1
 928 066c 3B       		.byte	0x3b
 929 066d 00       		.byte	0
 930 066e 00       		.byte	0
 931 066f 11       		.uleb128 0x11
 932 0670 18030000 		.4byte	.LASF86
 933 0674 01       		.byte	0x1
 934 0675 47       		.byte	0x47
 935 0676 00000000 		.4byte	.LFB40
 936 067a 88000000 		.4byte	.LFE40-.LFB40
 937 067e 01       		.uleb128 0x1
 938 067f 9C       		.byte	0x9c
 939 0680 A1060000 		.4byte	0x6a1
 940 0684 14       		.uleb128 0x14
 941 0685 6900     		.ascii	"i\000"
 942 0687 01       		.byte	0x1
 943 0688 48       		.byte	0x48
 944 0689 2C000000 		.4byte	0x2c
 945 068d 00000000 		.4byte	.LLST0
 946 0691 15       		.uleb128 0x15
 947 0692 3C060000 		.4byte	0x63c
 948 0696 22000000 		.4byte	.LBB4
 949 069a 04000000 		.4byte	.LBE4-.LBB4
 950 069e 01       		.byte	0x1
 951 069f 54       		.byte	0x54
 952 06a0 00       		.byte	0
 953 06a1 16       		.uleb128 0x16
 954 06a2 90020000 		.4byte	.LASF91
 955 06a6 07       		.byte	0x7
 956 06a7 2501     		.2byte	0x125
 957 06a9 17       		.uleb128 0x17
 958 06aa 76000000 		.4byte	0x76
 959 06ae 17       		.uleb128 0x17
 960 06af 76000000 		.4byte	0x76
 961 06b3 00       		.byte	0
 962 06b4 00       		.byte	0
 963              		.section	.debug_abbrev,"",%progbits
 964              	.Ldebug_abbrev0:
 965 0000 01       		.uleb128 0x1
 966 0001 11       		.uleb128 0x11
 967 0002 01       		.byte	0x1
 968 0003 25       		.uleb128 0x25
 969 0004 0E       		.uleb128 0xe
ARM GAS  /tmp/ccGyIUFk.s 			page 18


 970 0005 13       		.uleb128 0x13
 971 0006 0B       		.uleb128 0xb
 972 0007 03       		.uleb128 0x3
 973 0008 0E       		.uleb128 0xe
 974 0009 1B       		.uleb128 0x1b
 975 000a 0E       		.uleb128 0xe
 976 000b 55       		.uleb128 0x55
 977 000c 17       		.uleb128 0x17
 978 000d 11       		.uleb128 0x11
 979 000e 01       		.uleb128 0x1
 980 000f 10       		.uleb128 0x10
 981 0010 17       		.uleb128 0x17
 982 0011 00       		.byte	0
 983 0012 00       		.byte	0
 984 0013 02       		.uleb128 0x2
 985 0014 24       		.uleb128 0x24
 986 0015 00       		.byte	0
 987 0016 0B       		.uleb128 0xb
 988 0017 0B       		.uleb128 0xb
 989 0018 3E       		.uleb128 0x3e
 990 0019 0B       		.uleb128 0xb
 991 001a 03       		.uleb128 0x3
 992 001b 08       		.uleb128 0x8
 993 001c 00       		.byte	0
 994 001d 00       		.byte	0
 995 001e 03       		.uleb128 0x3
 996 001f 24       		.uleb128 0x24
 997 0020 00       		.byte	0
 998 0021 0B       		.uleb128 0xb
 999 0022 0B       		.uleb128 0xb
 1000 0023 3E       		.uleb128 0x3e
 1001 0024 0B       		.uleb128 0xb
 1002 0025 03       		.uleb128 0x3
 1003 0026 0E       		.uleb128 0xe
 1004 0027 00       		.byte	0
 1005 0028 00       		.byte	0
 1006 0029 04       		.uleb128 0x4
 1007 002a 16       		.uleb128 0x16
 1008 002b 00       		.byte	0
 1009 002c 03       		.uleb128 0x3
 1010 002d 0E       		.uleb128 0xe
 1011 002e 3A       		.uleb128 0x3a
 1012 002f 0B       		.uleb128 0xb
 1013 0030 3B       		.uleb128 0x3b
 1014 0031 0B       		.uleb128 0xb
 1015 0032 49       		.uleb128 0x49
 1016 0033 13       		.uleb128 0x13
 1017 0034 00       		.byte	0
 1018 0035 00       		.byte	0
 1019 0036 05       		.uleb128 0x5
 1020 0037 35       		.uleb128 0x35
 1021 0038 00       		.byte	0
 1022 0039 49       		.uleb128 0x49
 1023 003a 13       		.uleb128 0x13
 1024 003b 00       		.byte	0
 1025 003c 00       		.byte	0
 1026 003d 06       		.uleb128 0x6
ARM GAS  /tmp/ccGyIUFk.s 			page 19


 1027 003e 01       		.uleb128 0x1
 1028 003f 01       		.byte	0x1
 1029 0040 49       		.uleb128 0x49
 1030 0041 13       		.uleb128 0x13
 1031 0042 01       		.uleb128 0x1
 1032 0043 13       		.uleb128 0x13
 1033 0044 00       		.byte	0
 1034 0045 00       		.byte	0
 1035 0046 07       		.uleb128 0x7
 1036 0047 21       		.uleb128 0x21
 1037 0048 00       		.byte	0
 1038 0049 49       		.uleb128 0x49
 1039 004a 13       		.uleb128 0x13
 1040 004b 2F       		.uleb128 0x2f
 1041 004c 0B       		.uleb128 0xb
 1042 004d 00       		.byte	0
 1043 004e 00       		.byte	0
 1044 004f 08       		.uleb128 0x8
 1045 0050 26       		.uleb128 0x26
 1046 0051 00       		.byte	0
 1047 0052 49       		.uleb128 0x49
 1048 0053 13       		.uleb128 0x13
 1049 0054 00       		.byte	0
 1050 0055 00       		.byte	0
 1051 0056 09       		.uleb128 0x9
 1052 0057 13       		.uleb128 0x13
 1053 0058 01       		.byte	0x1
 1054 0059 0B       		.uleb128 0xb
 1055 005a 0B       		.uleb128 0xb
 1056 005b 3A       		.uleb128 0x3a
 1057 005c 0B       		.uleb128 0xb
 1058 005d 3B       		.uleb128 0x3b
 1059 005e 05       		.uleb128 0x5
 1060 005f 01       		.uleb128 0x1
 1061 0060 13       		.uleb128 0x13
 1062 0061 00       		.byte	0
 1063 0062 00       		.byte	0
 1064 0063 0A       		.uleb128 0xa
 1065 0064 0D       		.uleb128 0xd
 1066 0065 00       		.byte	0
 1067 0066 03       		.uleb128 0x3
 1068 0067 0E       		.uleb128 0xe
 1069 0068 3A       		.uleb128 0x3a
 1070 0069 0B       		.uleb128 0xb
 1071 006a 3B       		.uleb128 0x3b
 1072 006b 05       		.uleb128 0x5
 1073 006c 49       		.uleb128 0x49
 1074 006d 13       		.uleb128 0x13
 1075 006e 38       		.uleb128 0x38
 1076 006f 0B       		.uleb128 0xb
 1077 0070 00       		.byte	0
 1078 0071 00       		.byte	0
 1079 0072 0B       		.uleb128 0xb
 1080 0073 0D       		.uleb128 0xd
 1081 0074 00       		.byte	0
 1082 0075 03       		.uleb128 0x3
 1083 0076 08       		.uleb128 0x8
ARM GAS  /tmp/ccGyIUFk.s 			page 20


 1084 0077 3A       		.uleb128 0x3a
 1085 0078 0B       		.uleb128 0xb
 1086 0079 3B       		.uleb128 0x3b
 1087 007a 05       		.uleb128 0x5
 1088 007b 49       		.uleb128 0x49
 1089 007c 13       		.uleb128 0x13
 1090 007d 38       		.uleb128 0x38
 1091 007e 0B       		.uleb128 0xb
 1092 007f 00       		.byte	0
 1093 0080 00       		.byte	0
 1094 0081 0C       		.uleb128 0xc
 1095 0082 16       		.uleb128 0x16
 1096 0083 00       		.byte	0
 1097 0084 03       		.uleb128 0x3
 1098 0085 0E       		.uleb128 0xe
 1099 0086 3A       		.uleb128 0x3a
 1100 0087 0B       		.uleb128 0xb
 1101 0088 3B       		.uleb128 0x3b
 1102 0089 05       		.uleb128 0x5
 1103 008a 49       		.uleb128 0x49
 1104 008b 13       		.uleb128 0x13
 1105 008c 00       		.byte	0
 1106 008d 00       		.byte	0
 1107 008e 0D       		.uleb128 0xd
 1108 008f 13       		.uleb128 0x13
 1109 0090 01       		.byte	0x1
 1110 0091 0B       		.uleb128 0xb
 1111 0092 05       		.uleb128 0x5
 1112 0093 3A       		.uleb128 0x3a
 1113 0094 0B       		.uleb128 0xb
 1114 0095 3B       		.uleb128 0x3b
 1115 0096 05       		.uleb128 0x5
 1116 0097 01       		.uleb128 0x1
 1117 0098 13       		.uleb128 0x13
 1118 0099 00       		.byte	0
 1119 009a 00       		.byte	0
 1120 009b 0E       		.uleb128 0xe
 1121 009c 0D       		.uleb128 0xd
 1122 009d 00       		.byte	0
 1123 009e 03       		.uleb128 0x3
 1124 009f 0E       		.uleb128 0xe
 1125 00a0 3A       		.uleb128 0x3a
 1126 00a1 0B       		.uleb128 0xb
 1127 00a2 3B       		.uleb128 0x3b
 1128 00a3 05       		.uleb128 0x5
 1129 00a4 49       		.uleb128 0x49
 1130 00a5 13       		.uleb128 0x13
 1131 00a6 38       		.uleb128 0x38
 1132 00a7 05       		.uleb128 0x5
 1133 00a8 00       		.byte	0
 1134 00a9 00       		.byte	0
 1135 00aa 0F       		.uleb128 0xf
 1136 00ab 21       		.uleb128 0x21
 1137 00ac 00       		.byte	0
 1138 00ad 49       		.uleb128 0x49
 1139 00ae 13       		.uleb128 0x13
 1140 00af 2F       		.uleb128 0x2f
ARM GAS  /tmp/ccGyIUFk.s 			page 21


 1141 00b0 05       		.uleb128 0x5
 1142 00b1 00       		.byte	0
 1143 00b2 00       		.byte	0
 1144 00b3 10       		.uleb128 0x10
 1145 00b4 2E       		.uleb128 0x2e
 1146 00b5 00       		.byte	0
 1147 00b6 03       		.uleb128 0x3
 1148 00b7 0E       		.uleb128 0xe
 1149 00b8 3A       		.uleb128 0x3a
 1150 00b9 0B       		.uleb128 0xb
 1151 00ba 3B       		.uleb128 0x3b
 1152 00bb 05       		.uleb128 0x5
 1153 00bc 27       		.uleb128 0x27
 1154 00bd 19       		.uleb128 0x19
 1155 00be 20       		.uleb128 0x20
 1156 00bf 0B       		.uleb128 0xb
 1157 00c0 00       		.byte	0
 1158 00c1 00       		.byte	0
 1159 00c2 11       		.uleb128 0x11
 1160 00c3 2E       		.uleb128 0x2e
 1161 00c4 01       		.byte	0x1
 1162 00c5 3F       		.uleb128 0x3f
 1163 00c6 19       		.uleb128 0x19
 1164 00c7 03       		.uleb128 0x3
 1165 00c8 0E       		.uleb128 0xe
 1166 00c9 3A       		.uleb128 0x3a
 1167 00ca 0B       		.uleb128 0xb
 1168 00cb 3B       		.uleb128 0x3b
 1169 00cc 0B       		.uleb128 0xb
 1170 00cd 27       		.uleb128 0x27
 1171 00ce 19       		.uleb128 0x19
 1172 00cf 11       		.uleb128 0x11
 1173 00d0 01       		.uleb128 0x1
 1174 00d1 12       		.uleb128 0x12
 1175 00d2 06       		.uleb128 0x6
 1176 00d3 40       		.uleb128 0x40
 1177 00d4 18       		.uleb128 0x18
 1178 00d5 9742     		.uleb128 0x2117
 1179 00d7 19       		.uleb128 0x19
 1180 00d8 01       		.uleb128 0x1
 1181 00d9 13       		.uleb128 0x13
 1182 00da 00       		.byte	0
 1183 00db 00       		.byte	0
 1184 00dc 12       		.uleb128 0x12
 1185 00dd 898201   		.uleb128 0x4109
 1186 00e0 01       		.byte	0x1
 1187 00e1 11       		.uleb128 0x11
 1188 00e2 01       		.uleb128 0x1
 1189 00e3 31       		.uleb128 0x31
 1190 00e4 13       		.uleb128 0x13
 1191 00e5 00       		.byte	0
 1192 00e6 00       		.byte	0
 1193 00e7 13       		.uleb128 0x13
 1194 00e8 8A8201   		.uleb128 0x410a
 1195 00eb 00       		.byte	0
 1196 00ec 02       		.uleb128 0x2
 1197 00ed 18       		.uleb128 0x18
ARM GAS  /tmp/ccGyIUFk.s 			page 22


 1198 00ee 9142     		.uleb128 0x2111
 1199 00f0 18       		.uleb128 0x18
 1200 00f1 00       		.byte	0
 1201 00f2 00       		.byte	0
 1202 00f3 14       		.uleb128 0x14
 1203 00f4 34       		.uleb128 0x34
 1204 00f5 00       		.byte	0
 1205 00f6 03       		.uleb128 0x3
 1206 00f7 08       		.uleb128 0x8
 1207 00f8 3A       		.uleb128 0x3a
 1208 00f9 0B       		.uleb128 0xb
 1209 00fa 3B       		.uleb128 0x3b
 1210 00fb 0B       		.uleb128 0xb
 1211 00fc 49       		.uleb128 0x49
 1212 00fd 13       		.uleb128 0x13
 1213 00fe 02       		.uleb128 0x2
 1214 00ff 17       		.uleb128 0x17
 1215 0100 00       		.byte	0
 1216 0101 00       		.byte	0
 1217 0102 15       		.uleb128 0x15
 1218 0103 1D       		.uleb128 0x1d
 1219 0104 00       		.byte	0
 1220 0105 31       		.uleb128 0x31
 1221 0106 13       		.uleb128 0x13
 1222 0107 11       		.uleb128 0x11
 1223 0108 01       		.uleb128 0x1
 1224 0109 12       		.uleb128 0x12
 1225 010a 06       		.uleb128 0x6
 1226 010b 58       		.uleb128 0x58
 1227 010c 0B       		.uleb128 0xb
 1228 010d 59       		.uleb128 0x59
 1229 010e 0B       		.uleb128 0xb
 1230 010f 00       		.byte	0
 1231 0110 00       		.byte	0
 1232 0111 16       		.uleb128 0x16
 1233 0112 2E       		.uleb128 0x2e
 1234 0113 01       		.byte	0x1
 1235 0114 3F       		.uleb128 0x3f
 1236 0115 19       		.uleb128 0x19
 1237 0116 03       		.uleb128 0x3
 1238 0117 0E       		.uleb128 0xe
 1239 0118 3A       		.uleb128 0x3a
 1240 0119 0B       		.uleb128 0xb
 1241 011a 3B       		.uleb128 0x3b
 1242 011b 05       		.uleb128 0x5
 1243 011c 27       		.uleb128 0x27
 1244 011d 19       		.uleb128 0x19
 1245 011e 3C       		.uleb128 0x3c
 1246 011f 19       		.uleb128 0x19
 1247 0120 00       		.byte	0
 1248 0121 00       		.byte	0
 1249 0122 17       		.uleb128 0x17
 1250 0123 05       		.uleb128 0x5
 1251 0124 00       		.byte	0
 1252 0125 49       		.uleb128 0x49
 1253 0126 13       		.uleb128 0x13
 1254 0127 00       		.byte	0
ARM GAS  /tmp/ccGyIUFk.s 			page 23


 1255 0128 00       		.byte	0
 1256 0129 00       		.byte	0
 1257              		.section	.debug_loc,"",%progbits
 1258              	.Ldebug_loc0:
 1259              	.LLST0:
 1260 0000 20000000 		.4byte	.LVL1
 1261 0004 22000000 		.4byte	.LVL2
 1262 0008 0200     		.2byte	0x2
 1263 000a 30       		.byte	0x30
 1264 000b 9F       		.byte	0x9f
 1265 000c 22000000 		.4byte	.LVL2
 1266 0010 24000000 		.4byte	.LVL3
 1267 0014 0600     		.2byte	0x6
 1268 0016 08       		.byte	0x8
 1269 0017 C8       		.byte	0xc8
 1270 0018 73       		.byte	0x73
 1271 0019 00       		.sleb128 0
 1272 001a 1C       		.byte	0x1c
 1273 001b 9F       		.byte	0x9f
 1274 001c 24000000 		.4byte	.LVL3
 1275 0020 26000000 		.4byte	.LVL4
 1276 0024 0600     		.2byte	0x6
 1277 0026 08       		.byte	0x8
 1278 0027 C9       		.byte	0xc9
 1279 0028 73       		.byte	0x73
 1280 0029 00       		.sleb128 0
 1281 002a 1C       		.byte	0x1c
 1282 002b 9F       		.byte	0x9f
 1283 002c 26000000 		.4byte	.LVL4
 1284 0030 2C000000 		.4byte	.LVL5
 1285 0034 0600     		.2byte	0x6
 1286 0036 08       		.byte	0x8
 1287 0037 C8       		.byte	0xc8
 1288 0038 73       		.byte	0x73
 1289 0039 00       		.sleb128 0
 1290 003a 1C       		.byte	0x1c
 1291 003b 9F       		.byte	0x9f
 1292 003c 00000000 		.4byte	0
 1293 0040 00000000 		.4byte	0
 1294              		.section	.debug_aranges,"",%progbits
 1295 0000 24000000 		.4byte	0x24
 1296 0004 0200     		.2byte	0x2
 1297 0006 00000000 		.4byte	.Ldebug_info0
 1298 000a 04       		.byte	0x4
 1299 000b 00       		.byte	0
 1300 000c 0000     		.2byte	0
 1301 000e 0000     		.2byte	0
 1302 0010 00000000 		.4byte	.LFB39
 1303 0014 24000000 		.4byte	.LFE39-.LFB39
 1304 0018 00000000 		.4byte	.LFB40
 1305 001c 88000000 		.4byte	.LFE40-.LFB40
 1306 0020 00000000 		.4byte	0
 1307 0024 00000000 		.4byte	0
 1308              		.section	.debug_ranges,"",%progbits
 1309              	.Ldebug_ranges0:
 1310 0000 00000000 		.4byte	.LFB39
 1311 0004 24000000 		.4byte	.LFE39
ARM GAS  /tmp/ccGyIUFk.s 			page 24


 1312 0008 00000000 		.4byte	.LFB40
 1313 000c 88000000 		.4byte	.LFE40
 1314 0010 00000000 		.4byte	0
 1315 0014 00000000 		.4byte	0
 1316              		.section	.debug_line,"",%progbits
 1317              	.Ldebug_line0:
 1318 0000 A5010000 		.section	.debug_str,"MS",%progbits,1
 1318      02004E01 
 1318      00000201 
 1318      FB0E0D00 
 1318      01010101 
 1319              	.LASF72:
 1320 0000 55534243 		.ascii	"USBCLKCTRL\000"
 1320      4C4B4354 
 1320      524C00
 1321              	.LASF56:
 1322 000b 55534243 		.ascii	"USBCLKUEN\000"
 1322      4C4B5545 
 1322      4E00
 1323              	.LASF38:
 1324 0015 55534250 		.ascii	"USBPLLSTAT\000"
 1324      4C4C5354 
 1324      415400
 1325              	.LASF75:
 1326 0020 53544152 		.ascii	"STARTERP0\000"
 1326      54455250 
 1326      3000
 1327              	.LASF77:
 1328 002a 53544152 		.ascii	"STARTERP1\000"
 1328      54455250 
 1328      3100
 1329              	.LASF84:
 1330 0034 4C50435F 		.ascii	"LPC_SYSCON_Type\000"
 1330      53595343 
 1330      4F4E5F54 
 1330      79706500 
 1331              	.LASF57:
 1332 0044 55534243 		.ascii	"USBCLKDIV\000"
 1332      4C4B4449 
 1332      5600
 1333              	.LASF3:
 1334 004e 73686F72 		.ascii	"short int\000"
 1334      7420696E 
 1334      7400
 1335              	.LASF12:
 1336 0058 73697A65 		.ascii	"sizetype\000"
 1336      74797065 
 1336      00
 1337              	.LASF40:
 1338 0061 5744544F 		.ascii	"WDTOSCCTRL\000"
 1338      53434354 
 1338      524C00
 1339              	.LASF88:
 1340 006c 43686962 		.ascii	"ChibiOS_2.6.5/os/hal/platforms/LPC11Uxx/hal_lld.c\000"
 1340      694F535F 
 1340      322E362E 
 1340      352F6F73 
ARM GAS  /tmp/ccGyIUFk.s 			page 25


 1340      2F68616C 
 1341              	.LASF63:
 1342 009e 50494F50 		.ascii	"PIOPORCAP0\000"
 1342      4F524341 
 1342      503000
 1343              	.LASF64:
 1344 00a9 50494F50 		.ascii	"PIOPORCAP1\000"
 1344      4F524341 
 1344      503100
 1345              	.LASF7:
 1346 00b4 6C6F6E67 		.ascii	"long long int\000"
 1346      206C6F6E 
 1346      6720696E 
 1346      7400
 1347              	.LASF9:
 1348 00c2 5F5F7569 		.ascii	"__uint32_t\000"
 1348      6E743332 
 1348      5F7400
 1349              	.LASF87:
 1350 00cd 474E5520 		.ascii	"GNU C 4.8.4 20140526 (release) [ARM/embedded-4_8-br"
 1350      4320342E 
 1350      382E3420 
 1350      32303134 
 1350      30353236 
 1351 0100 616E6368 		.ascii	"anch revision 211358] -mcpu=cortex-m0 -mno-thumb-in"
 1351      20726576 
 1351      6973696F 
 1351      6E203231 
 1351      31333538 
 1352 0133 74657277 		.ascii	"terwork -mthumb -ggdb -O1 -fomit-frame-pointer -ffu"
 1352      6F726B20 
 1352      2D6D7468 
 1352      756D6220 
 1352      2D676764 
 1353 0166 6E637469 		.ascii	"nction-sections -fdata-sections -fno-common\000"
 1353      6F6E2D73 
 1353      65637469 
 1353      6F6E7320 
 1353      2D666461 
 1354              	.LASF35:
 1355 0192 53595350 		.ascii	"SYSPLLCTRL\000"
 1355      4C4C4354 
 1355      524C00
 1356              	.LASF69:
 1357 019d 4952514C 		.ascii	"IRQLATENCY\000"
 1357      4154454E 
 1357      435900
 1358              	.LASF14:
 1359 01a8 4354524C 		.ascii	"CTRL\000"
 1359      00
 1360              	.LASF18:
 1361 01ad 52455345 		.ascii	"RESERVED0\000"
 1361      52564544 
 1361      3000
 1362              	.LASF89:
 1363 01b7 2F484444 		.ascii	"/HDD/GIT/variometer/Altimeter/\000"
 1363      2F474954 
ARM GAS  /tmp/ccGyIUFk.s 			page 26


 1363      2F766172 
 1363      696F6D65 
 1363      7465722F 
 1364              	.LASF23:
 1365 01d6 52455345 		.ascii	"RESERVED2\000"
 1365      52564544 
 1365      3200
 1366              	.LASF81:
 1367 01e0 50445255 		.ascii	"PDRUNCFG\000"
 1367      4E434647 
 1367      00
 1368              	.LASF22:
 1369 01e9 464D5353 		.ascii	"FMSSTOP\000"
 1369      544F5000 
 1370              	.LASF55:
 1371 01f1 55534243 		.ascii	"USBCLKSEL\000"
 1371      4C4B5345 
 1371      4C00
 1372              	.LASF58:
 1373 01fb 52455345 		.ascii	"RESERVED7\000"
 1373      52564544 
 1373      3700
 1374              	.LASF60:
 1375 0205 434C4B4F 		.ascii	"CLKOUTUEN\000"
 1375      55545545 
 1375      4E00
 1376              	.LASF1:
 1377 020f 7369676E 		.ascii	"signed char\000"
 1377      65642063 
 1377      68617200 
 1378              	.LASF61:
 1379 021b 434C4B4F 		.ascii	"CLKOUTDIV\000"
 1379      55544449 
 1379      5600
 1380              	.LASF16:
 1381 0225 43414C49 		.ascii	"CALIB\000"
 1381      4200
 1382              	.LASF33:
 1383 022b 5359534D 		.ascii	"SYSMEMREMAP\000"
 1383      454D5245 
 1383      4D415000 
 1384              	.LASF90:
 1385 0237 5F5F4E4F 		.ascii	"__NOP\000"
 1385      5000
 1386              	.LASF24:
 1387 023d 464D5357 		.ascii	"FMSW0\000"
 1387      3000
 1388              	.LASF25:
 1389 0243 464D5357 		.ascii	"FMSW1\000"
 1389      3100
 1390              	.LASF26:
 1391 0249 464D5357 		.ascii	"FMSW2\000"
 1391      3200
 1392              	.LASF27:
 1393 024f 464D5357 		.ascii	"FMSW3\000"
 1393      3300
 1394              	.LASF37:
ARM GAS  /tmp/ccGyIUFk.s 			page 27


 1395 0255 55534250 		.ascii	"USBPLLCTRL\000"
 1395      4C4C4354 
 1395      524C00
 1396              	.LASF76:
 1397 0260 52455345 		.ascii	"RESERVED12\000"
 1397      52564544 
 1397      313200
 1398              	.LASF47:
 1399 026b 4D41494E 		.ascii	"MAINCLKUEN\000"
 1399      434C4B55 
 1399      454E00
 1400              	.LASF45:
 1401 0276 55534250 		.ascii	"USBPLLCLKUEN\000"
 1401      4C4C434C 
 1401      4B55454E 
 1401      00
 1402              	.LASF85:
 1403 0283 68616C5F 		.ascii	"hal_lld_init\000"
 1403      6C6C645F 
 1403      696E6974 
 1403      00
 1404              	.LASF91:
 1405 0290 6E766963 		.ascii	"nvicSetSystemHandlerPriority\000"
 1405      53657453 
 1405      79737465 
 1405      6D48616E 
 1405      646C6572 
 1406              	.LASF31:
 1407 02ad 464D5354 		.ascii	"FMSTATCLR\000"
 1407      4154434C 
 1407      5200
 1408              	.LASF2:
 1409 02b7 756E7369 		.ascii	"unsigned char\000"
 1409      676E6564 
 1409      20636861 
 1409      7200
 1410              	.LASF59:
 1411 02c5 434C4B4F 		.ascii	"CLKOUTSEL\000"
 1411      55545345 
 1411      4C00
 1412              	.LASF68:
 1413 02cf 52455345 		.ascii	"RESERVED10\000"
 1413      52564544 
 1413      313000
 1414              	.LASF74:
 1415 02da 52455345 		.ascii	"RESERVED11\000"
 1415      52564544 
 1415      313100
 1416              	.LASF19:
 1417 02e5 464C4153 		.ascii	"FLASHCFG\000"
 1417      48434647 
 1417      00
 1418              	.LASF78:
 1419 02ee 52455345 		.ascii	"RESERVED13\000"
 1419      52564544 
 1419      313300
 1420              	.LASF82:
ARM GAS  /tmp/ccGyIUFk.s 			page 28


 1421 02f9 52455345 		.ascii	"RESERVED14\000"
 1421      52564544 
 1421      313400
 1422              	.LASF51:
 1423 0304 53535030 		.ascii	"SSP0CLKDIV\000"
 1423      434C4B44 
 1423      495600
 1424              	.LASF21:
 1425 030f 464D5353 		.ascii	"FMSSTART\000"
 1425      54415254 
 1425      00
 1426              	.LASF86:
 1427 0318 6C70635F 		.ascii	"lpc_clock_init\000"
 1427      636C6F63 
 1427      6B5F696E 
 1427      697400
 1428              	.LASF8:
 1429 0327 6C6F6E67 		.ascii	"long long unsigned int\000"
 1429      206C6F6E 
 1429      6720756E 
 1429      7369676E 
 1429      65642069 
 1430              	.LASF10:
 1431 033e 75696E74 		.ascii	"uint32_t\000"
 1431      33325F74 
 1431      00
 1432              	.LASF0:
 1433 0347 756E7369 		.ascii	"unsigned int\000"
 1433      676E6564 
 1433      20696E74 
 1433      00
 1434              	.LASF52:
 1435 0354 55415254 		.ascii	"UARTCLKDIV\000"
 1435      434C4B44 
 1435      495600
 1436              	.LASF6:
 1437 035f 6C6F6E67 		.ascii	"long unsigned int\000"
 1437      20756E73 
 1437      69676E65 
 1437      6420696E 
 1437      7400
 1438              	.LASF83:
 1439 0371 44455649 		.ascii	"DEVICE_ID\000"
 1439      43455F49 
 1439      4400
 1440              	.LASF17:
 1441 037b 53797354 		.ascii	"SysTick_Type\000"
 1441      69636B5F 
 1441      54797065 
 1441      00
 1442              	.LASF4:
 1443 0388 73686F72 		.ascii	"short unsigned int\000"
 1443      7420756E 
 1443      7369676E 
 1443      65642069 
 1443      6E7400
 1444              	.LASF43:
ARM GAS  /tmp/ccGyIUFk.s 			page 29


 1445 039b 53595350 		.ascii	"SYSPLLCLKUEN\000"
 1445      4C4C434C 
 1445      4B55454E 
 1445      00
 1446              	.LASF41:
 1447 03a8 53595352 		.ascii	"SYSRSTSTAT\000"
 1447      53545354 
 1447      415400
 1448              	.LASF32:
 1449 03b3 4C50435F 		.ascii	"LPC_FLASHCTRL_Type\000"
 1449      464C4153 
 1449      48435452 
 1449      4C5F5479 
 1449      706500
 1450              	.LASF13:
 1451 03c6 63686172 		.ascii	"char\000"
 1451      00
 1452              	.LASF5:
 1453 03cb 6C6F6E67 		.ascii	"long int\000"
 1453      20696E74 
 1453      00
 1454              	.LASF46:
 1455 03d4 4D41494E 		.ascii	"MAINCLKSEL\000"
 1455      434C4B53 
 1455      454C00
 1456              	.LASF71:
 1457 03df 50494E54 		.ascii	"PINTSEL\000"
 1457      53454C00 
 1458              	.LASF49:
 1459 03e7 53595341 		.ascii	"SYSAHBCLKCTRL\000"
 1459      4842434C 
 1459      4B435452 
 1459      4C00
 1460              	.LASF44:
 1461 03f5 55534250 		.ascii	"USBPLLCLKSEL\000"
 1461      4C4C434C 
 1461      4B53454C 
 1461      00
 1462              	.LASF11:
 1463 0402 5F426F6F 		.ascii	"_Bool\000"
 1463      6C00
 1464              	.LASF53:
 1465 0408 53535031 		.ascii	"SSP1CLKDIV\000"
 1465      434C4B44 
 1465      495600
 1466              	.LASF20:
 1467 0413 52455345 		.ascii	"RESERVED1\000"
 1467      52564544 
 1467      3100
 1468              	.LASF79:
 1469 041d 5044534C 		.ascii	"PDSLEEPCFG\000"
 1469      45455043 
 1469      464700
 1470              	.LASF28:
 1471 0428 52455345 		.ascii	"RESERVED3\000"
 1471      52564544 
 1471      3300
ARM GAS  /tmp/ccGyIUFk.s 			page 30


 1472              	.LASF30:
 1473 0432 52455345 		.ascii	"RESERVED4\000"
 1473      52564544 
 1473      3400
 1474              	.LASF50:
 1475 043c 52455345 		.ascii	"RESERVED5\000"
 1475      52564544 
 1475      3500
 1476              	.LASF54:
 1477 0446 52455345 		.ascii	"RESERVED6\000"
 1477      52564544 
 1477      3600
 1478              	.LASF70:
 1479 0450 4E4D4953 		.ascii	"NMISRC\000"
 1479      524300
 1480              	.LASF62:
 1481 0457 52455345 		.ascii	"RESERVED8\000"
 1481      52564544 
 1481      3800
 1482              	.LASF65:
 1483 0461 52455345 		.ascii	"RESERVED9\000"
 1483      52564544 
 1483      3900
 1484              	.LASF80:
 1485 046b 50444157 		.ascii	"PDAWAKECFG\000"
 1485      414B4543 
 1485      464700
 1486              	.LASF36:
 1487 0476 53595350 		.ascii	"SYSPLLSTAT\000"
 1487      4C4C5354 
 1487      415400
 1488              	.LASF29:
 1489 0481 464D5354 		.ascii	"FMSTAT\000"
 1489      415400
 1490              	.LASF15:
 1491 0488 4C4F4144 		.ascii	"LOAD\000"
 1491      00
 1492              	.LASF48:
 1493 048d 53595341 		.ascii	"SYSAHBCLKDIV\000"
 1493      4842434C 
 1493      4B444956 
 1493      00
 1494              	.LASF34:
 1495 049a 50524553 		.ascii	"PRESETCTRL\000"
 1495      45544354 
 1495      524C00
 1496              	.LASF66:
 1497 04a5 424F4443 		.ascii	"BODCTRL\000"
 1497      54524C00 
 1498              	.LASF39:
 1499 04ad 5359534F 		.ascii	"SYSOSCCTRL\000"
 1499      53434354 
 1499      524C00
 1500              	.LASF73:
 1501 04b8 55534243 		.ascii	"USBCLKST\000"
 1501      4C4B5354 
 1501      00
ARM GAS  /tmp/ccGyIUFk.s 			page 31


 1502              	.LASF67:
 1503 04c1 53595354 		.ascii	"SYSTCKCAL\000"
 1503      434B4341 
 1503      4C00
 1504              	.LASF42:
 1505 04cb 53595350 		.ascii	"SYSPLLCLKSEL\000"
 1505      4C4C434C 
 1505      4B53454C 
 1505      00
 1506              		.ident	"GCC: (GNU Tools for ARM Embedded Processors) 4.8.4 20140526 (release) [ARM/embedded-4_8-br
ARM GAS  /tmp/ccGyIUFk.s 			page 32


DEFINED SYMBOLS
                            *ABS*:00000000 hal_lld.c
     /tmp/ccGyIUFk.s:18     .text.hal_lld_init:00000000 $t
     /tmp/ccGyIUFk.s:23     .text.hal_lld_init:00000000 hal_lld_init
     /tmp/ccGyIUFk.s:53     .text.hal_lld_init:0000001c $d
     /tmp/ccGyIUFk.s:59     .text.lpc_clock_init:00000000 $t
     /tmp/ccGyIUFk.s:64     .text.lpc_clock_init:00000000 lpc_clock_init
     /tmp/ccGyIUFk.s:173    .text.lpc_clock_init:0000007c $d
                     .debug_frame:00000010 $d

UNDEFINED SYMBOLS
nvicSetSystemHandlerPriority
