ARM GAS  /tmp/cc2cN3ho.s 			page 1


   1              		.cpu cortex-m0
   2              		.fpu softvfp
   3              		.eabi_attribute 20, 1
   4              		.eabi_attribute 21, 1
   5              		.eabi_attribute 23, 3
   6              		.eabi_attribute 24, 1
   7              		.eabi_attribute 25, 1
   8              		.eabi_attribute 26, 1
   9              		.eabi_attribute 30, 1
  10              		.eabi_attribute 34, 0
  11              		.eabi_attribute 18, 4
  12              		.code	16
  13              		.file	"i2c.c"
  14              		.text
  15              	.Ltext0:
  16              		.cfi_sections	.debug_frame
  17              		.section	.text.i2cInit,"ax",%progbits
  18              		.align	2
  19              		.global	i2cInit
  20              		.code	16
  21              		.thumb_func
  22              		.type	i2cInit, %function
  23              	i2cInit:
  24              	.LFB39:
  25              		.file 1 "ChibiOS_2.6.5/os/hal/src/i2c.c"
  26              		.loc 1 71 0
  27              		.cfi_startproc
  28 0000 08B5     		push	{r3, lr}
  29              		.cfi_def_cfa_offset 8
  30              		.cfi_offset 3, -8
  31              		.cfi_offset 14, -4
  32              		.loc 1 72 0
  33 0002 FFF7FEFF 		bl	i2c_lld_init
  34              	.LVL0:
  35              		.loc 1 73 0
  36              		@ sp needed
  37 0006 08BD     		pop	{r3, pc}
  38              		.cfi_endproc
  39              	.LFE39:
  40              		.size	i2cInit, .-i2cInit
  41              		.section	.text.i2cObjectInit,"ax",%progbits
  42              		.align	2
  43              		.global	i2cObjectInit
  44              		.code	16
  45              		.thumb_func
  46              		.type	i2cObjectInit, %function
  47              	i2cObjectInit:
  48              	.LFB40:
  49              		.loc 1 82 0
  50              		.cfi_startproc
  51              	.LVL1:
  52 0000 08B5     		push	{r3, lr}
  53              		.cfi_def_cfa_offset 8
  54              		.cfi_offset 3, -8
  55              		.cfi_offset 14, -4
  56              		.loc 1 84 0
  57 0002 0123     		mov	r3, #1
ARM GAS  /tmp/cc2cN3ho.s 			page 2


  58 0004 0370     		strb	r3, [r0]
  59              		.loc 1 85 0
  60 0006 0023     		mov	r3, #0
  61 0008 4360     		str	r3, [r0, #4]
  62              		.loc 1 89 0
  63 000a 0C30     		add	r0, r0, #12
  64              	.LVL2:
  65 000c FFF7FEFF 		bl	chMtxInit
  66              	.LVL3:
  67              		.loc 1 98 0
  68              		@ sp needed
  69 0010 08BD     		pop	{r3, pc}
  70              		.cfi_endproc
  71              	.LFE40:
  72              		.size	i2cObjectInit, .-i2cObjectInit
  73 0012 C046     		.section	.text.i2cStart,"ax",%progbits
  74              		.align	2
  75              		.global	i2cStart
  76              		.code	16
  77              		.thumb_func
  78              		.type	i2cStart, %function
  79              	i2cStart:
  80              	.LFB41:
  81              		.loc 1 108 0
  82              		.cfi_startproc
  83              	.LVL4:
  84 0000 10B5     		push	{r4, lr}
  85              		.cfi_def_cfa_offset 8
  86              		.cfi_offset 4, -8
  87              		.cfi_offset 14, -4
  88 0002 041C     		mov	r4, r0
  89              		.loc 1 116 0
  90              	@ 116 "ChibiOS_2.6.5/os/hal/src/i2c.c" 1
  91 0004 72B6     		cpsid   i
  92              	@ 0 "" 2
  93              		.loc 1 117 0
  94              		.code	16
  95 0006 4160     		str	r1, [r0, #4]
  96              		.loc 1 118 0
  97 0008 FFF7FEFF 		bl	i2c_lld_start
  98              	.LVL5:
  99              		.loc 1 119 0
 100 000c 0223     		mov	r3, #2
 101 000e 2370     		strb	r3, [r4]
 102              		.loc 1 120 0
 103              	@ 120 "ChibiOS_2.6.5/os/hal/src/i2c.c" 1
 104 0010 62B6     		cpsie   i
 105              	@ 0 "" 2
 106              		.loc 1 121 0
 107              		.code	16
 108              		@ sp needed
 109              	.LVL6:
 110 0012 10BD     		pop	{r4, pc}
 111              		.cfi_endproc
 112              	.LFE41:
 113              		.size	i2cStart, .-i2cStart
 114              		.section	.text.i2cStop,"ax",%progbits
ARM GAS  /tmp/cc2cN3ho.s 			page 3


 115              		.align	2
 116              		.global	i2cStop
 117              		.code	16
 118              		.thumb_func
 119              		.type	i2cStop, %function
 120              	i2cStop:
 121              	.LFB42:
 122              		.loc 1 130 0
 123              		.cfi_startproc
 124              	.LVL7:
 125 0000 10B5     		push	{r4, lr}
 126              		.cfi_def_cfa_offset 8
 127              		.cfi_offset 4, -8
 128              		.cfi_offset 14, -4
 129 0002 041C     		mov	r4, r0
 130              		.loc 1 138 0
 131              	@ 138 "ChibiOS_2.6.5/os/hal/src/i2c.c" 1
 132 0004 72B6     		cpsid   i
 133              	@ 0 "" 2
 134              		.loc 1 139 0
 135              		.code	16
 136 0006 FFF7FEFF 		bl	i2c_lld_stop
 137              	.LVL8:
 138              		.loc 1 140 0
 139 000a 0123     		mov	r3, #1
 140 000c 2370     		strb	r3, [r4]
 141              		.loc 1 141 0
 142              	@ 141 "ChibiOS_2.6.5/os/hal/src/i2c.c" 1
 143 000e 62B6     		cpsie   i
 144              	@ 0 "" 2
 145              		.loc 1 142 0
 146              		.code	16
 147              		@ sp needed
 148              	.LVL9:
 149 0010 10BD     		pop	{r4, pc}
 150              		.cfi_endproc
 151              	.LFE42:
 152              		.size	i2cStop, .-i2cStop
 153 0012 C046     		.section	.text.i2cGetErrors,"ax",%progbits
 154              		.align	2
 155              		.global	i2cGetErrors
 156              		.code	16
 157              		.thumb_func
 158              		.type	i2cGetErrors, %function
 159              	i2cGetErrors:
 160              	.LFB43:
 161              		.loc 1 152 0
 162              		.cfi_startproc
 163              	.LVL10:
 164              		.loc 1 156 0
 165 0000 8068     		ldr	r0, [r0, #8]
 166              	.LVL11:
 167              		.loc 1 157 0
 168              		@ sp needed
 169 0002 7047     		bx	lr
 170              		.cfi_endproc
 171              	.LFE43:
ARM GAS  /tmp/cc2cN3ho.s 			page 4


 172              		.size	i2cGetErrors, .-i2cGetErrors
 173              		.section	.text.i2cMasterTransmitTimeout,"ax",%progbits
 174              		.align	2
 175              		.global	i2cMasterTransmitTimeout
 176              		.code	16
 177              		.thumb_func
 178              		.type	i2cMasterTransmitTimeout, %function
 179              	i2cMasterTransmitTimeout:
 180              	.LFB44:
 181              		.loc 1 191 0
 182              		.cfi_startproc
 183              	.LVL12:
 184 0000 10B5     		push	{r4, lr}
 185              		.cfi_def_cfa_offset 8
 186              		.cfi_offset 4, -8
 187              		.cfi_offset 14, -4
 188 0002 84B0     		sub	sp, sp, #16
 189              		.cfi_def_cfa_offset 24
 190 0004 041C     		mov	r4, r0
 191              		.loc 1 203 0
 192              	@ 203 "ChibiOS_2.6.5/os/hal/src/i2c.c" 1
 193 0006 72B6     		cpsid   i
 194              	@ 0 "" 2
 195              		.loc 1 204 0
 196              		.code	16
 197 0008 0020     		mov	r0, #0
 198              	.LVL13:
 199 000a A060     		str	r0, [r4, #8]
 200              		.loc 1 205 0
 201 000c 0320     		mov	r0, #3
 202 000e 2070     		strb	r0, [r4]
 203              		.loc 1 206 0
 204 0010 0698     		ldr	r0, [sp, #24]
 205 0012 0090     		str	r0, [sp]
 206 0014 0798     		ldr	r0, [sp, #28]
 207 0016 0190     		str	r0, [sp, #4]
 208 0018 0898     		ldr	r0, [sp, #32]
 209 001a 0290     		str	r0, [sp, #8]
 210 001c 201C     		mov	r0, r4
 211 001e FFF7FEFF 		bl	i2c_lld_master_transmit_timeout
 212              	.LVL14:
 213              		.loc 1 208 0
 214 0022 431C     		add	r3, r0, #1
 215 0024 02D1     		bne	.L7
 216              		.loc 1 209 0
 217 0026 0523     		mov	r3, #5
 218 0028 2370     		strb	r3, [r4]
 219 002a 01E0     		b	.L8
 220              	.L7:
 221              		.loc 1 211 0
 222 002c 0223     		mov	r3, #2
 223 002e 2370     		strb	r3, [r4]
 224              	.L8:
 225              		.loc 1 212 0
 226              	@ 212 "ChibiOS_2.6.5/os/hal/src/i2c.c" 1
 227 0030 62B6     		cpsie   i
 228              	@ 0 "" 2
ARM GAS  /tmp/cc2cN3ho.s 			page 5


 229              		.loc 1 214 0
 230              		.code	16
 231 0032 04B0     		add	sp, sp, #16
 232              		@ sp needed
 233              	.LVL15:
 234 0034 10BD     		pop	{r4, pc}
 235              		.cfi_endproc
 236              	.LFE44:
 237              		.size	i2cMasterTransmitTimeout, .-i2cMasterTransmitTimeout
 238 0036 C046     		.section	.text.i2cMasterReceiveTimeout,"ax",%progbits
 239              		.align	2
 240              		.global	i2cMasterReceiveTimeout
 241              		.code	16
 242              		.thumb_func
 243              		.type	i2cMasterReceiveTimeout, %function
 244              	i2cMasterReceiveTimeout:
 245              	.LFB45:
 246              		.loc 1 240 0
 247              		.cfi_startproc
 248              	.LVL16:
 249 0000 10B5     		push	{r4, lr}
 250              		.cfi_def_cfa_offset 8
 251              		.cfi_offset 4, -8
 252              		.cfi_offset 14, -4
 253 0002 82B0     		sub	sp, sp, #8
 254              		.cfi_def_cfa_offset 16
 255 0004 041C     		mov	r4, r0
 256              		.loc 1 252 0
 257              	@ 252 "ChibiOS_2.6.5/os/hal/src/i2c.c" 1
 258 0006 72B6     		cpsid   i
 259              	@ 0 "" 2
 260              		.loc 1 253 0
 261              		.code	16
 262 0008 0020     		mov	r0, #0
 263              	.LVL17:
 264 000a A060     		str	r0, [r4, #8]
 265              		.loc 1 254 0
 266 000c 0420     		mov	r0, #4
 267 000e 2070     		strb	r0, [r4]
 268              		.loc 1 255 0
 269 0010 0498     		ldr	r0, [sp, #16]
 270 0012 0090     		str	r0, [sp]
 271 0014 201C     		mov	r0, r4
 272 0016 FFF7FEFF 		bl	i2c_lld_master_receive_timeout
 273              	.LVL18:
 274              		.loc 1 256 0
 275 001a 431C     		add	r3, r0, #1
 276 001c 02D1     		bne	.L10
 277              		.loc 1 257 0
 278 001e 0523     		mov	r3, #5
 279 0020 2370     		strb	r3, [r4]
 280 0022 01E0     		b	.L11
 281              	.L10:
 282              		.loc 1 259 0
 283 0024 0223     		mov	r3, #2
 284 0026 2370     		strb	r3, [r4]
 285              	.L11:
ARM GAS  /tmp/cc2cN3ho.s 			page 6


 286              		.loc 1 260 0
 287              	@ 260 "ChibiOS_2.6.5/os/hal/src/i2c.c" 1
 288 0028 62B6     		cpsie   i
 289              	@ 0 "" 2
 290              		.loc 1 262 0
 291              		.code	16
 292 002a 02B0     		add	sp, sp, #8
 293              		@ sp needed
 294              	.LVL19:
 295 002c 10BD     		pop	{r4, pc}
 296              		.cfi_endproc
 297              	.LFE45:
 298              		.size	i2cMasterReceiveTimeout, .-i2cMasterReceiveTimeout
 299 002e C046     		.section	.text.i2cAcquireBus,"ax",%progbits
 300              		.align	2
 301              		.global	i2cAcquireBus
 302              		.code	16
 303              		.thumb_func
 304              		.type	i2cAcquireBus, %function
 305              	i2cAcquireBus:
 306              	.LFB46:
 307              		.loc 1 276 0
 308              		.cfi_startproc
 309              	.LVL20:
 310 0000 08B5     		push	{r3, lr}
 311              		.cfi_def_cfa_offset 8
 312              		.cfi_offset 3, -8
 313              		.cfi_offset 14, -4
 314              		.loc 1 281 0
 315 0002 0C30     		add	r0, r0, #12
 316              	.LVL21:
 317 0004 FFF7FEFF 		bl	chMtxLock
 318              	.LVL22:
 319              		.loc 1 285 0
 320              		@ sp needed
 321 0008 08BD     		pop	{r3, pc}
 322              		.cfi_endproc
 323              	.LFE46:
 324              		.size	i2cAcquireBus, .-i2cAcquireBus
 325 000a C046     		.section	.text.i2cReleaseBus,"ax",%progbits
 326              		.align	2
 327              		.global	i2cReleaseBus
 328              		.code	16
 329              		.thumb_func
 330              		.type	i2cReleaseBus, %function
 331              	i2cReleaseBus:
 332              	.LFB47:
 333              		.loc 1 296 0
 334              		.cfi_startproc
 335              	.LVL23:
 336 0000 08B5     		push	{r3, lr}
 337              		.cfi_def_cfa_offset 8
 338              		.cfi_offset 3, -8
 339              		.cfi_offset 14, -4
 340              		.loc 1 301 0
 341 0002 FFF7FEFF 		bl	chMtxUnlock
 342              	.LVL24:
ARM GAS  /tmp/cc2cN3ho.s 			page 7


 343              		.loc 1 305 0
 344              		@ sp needed
 345 0006 08BD     		pop	{r3, pc}
 346              		.cfi_endproc
 347              	.LFE47:
 348              		.size	i2cReleaseBus, .-i2cReleaseBus
 349              		.text
 350              	.Letext0:
 351              		.file 2 "/usr/local/lpcxpresso_7.3.0_186/lpcxpresso/tools/lib/gcc/arm-none-eabi/4.8.4/include/stdd
 352              		.file 3 "/usr/local/lpcxpresso_7.3.0_186/lpcxpresso/tools/arm-none-eabi/include/machine/_default_t
 353              		.file 4 "/usr/local/lpcxpresso_7.3.0_186/lpcxpresso/tools/arm-none-eabi/include/stdint.h"
 354              		.file 5 "ChibiOS_2.6.5/os/ports/GCC/ARMCMx/chtypes.h"
 355              		.file 6 "ChibiOS_2.6.5/os/kernel/include/chlists.h"
 356              		.file 7 "ChibiOS_2.6.5/os/kernel/include/chthreads.h"
 357              		.file 8 "ChibiOS_2.6.5/os/ports/GCC/ARMCMx/chcore_v6m.h"
 358              		.file 9 "ChibiOS_2.6.5/os/kernel/include/chmtx.h"
 359              		.file 10 "CMSIS_CORE_LPC11Uxx/inc/LPC11Uxx.h"
 360              		.file 11 "ChibiOS_2.6.5/os/hal/include/i2c.h"
 361              		.file 12 "ChibiOS_2.6.5/os/hal/platforms/LPC11Uxx/i2c_lld.h"