ARM GAS  /tmp/cc2cN3ho.s 			page 1


   1              		.cpu cortex-m0
   2              		.fpu softvfp
   3              		.eabi_attribute 20, 1
   4              		.eabi_attribute 21, 1
   5              		.eabi_attribute 23, 3
   6              		.eabi_attribute 24, 1
   7              		.eabi_attribute 25, 1
   8              		.eabi_attribute 26, 1
   9              		.eabi_attribute 30, 1
  10              		.eabi_attribute 34, 0
  11              		.eabi_attribute 18, 4
  12              		.code	16
  13              		.file	"i2c.c"
  14              		.text
  15              	.Ltext0:
  16              		.cfi_sections	.debug_frame
  17              		.section	.text.i2cInit,"ax",%progbits
  18              		.align	2
  19              		.global	i2cInit
  20              		.code	16
  21              		.thumb_func
  22              		.type	i2cInit, %function
  23              	i2cInit:
  24              	.LFB39:
  25              		.file 1 "ChibiOS_2.6.5/os/hal/src/i2c.c"
  26              		.loc 1 71 0
  27              		.cfi_startproc
  28 0000 08B5     		push	{r3, lr}
  29              		.cfi_def_cfa_offset 8
  30              		.cfi_offset 3, -8
  31              		.cfi_offset 14, -4
  32              		.loc 1 72 0
  33 0002 FFF7FEFF 		bl	i2c_lld_init
  34              	.LVL0:
  35              		.loc 1 73 0
  36              		@ sp needed
  37 0006 08BD     		pop	{r3, pc}
  38              		.cfi_endproc
  39              	.LFE39:
  40              		.size	i2cInit, .-i2cInit
  41              		.section	.text.i2cObjectInit,"ax",%progbits
  42              		.align	2
  43              		.global	i2cObjectInit
  44              		.code	16
  45              		.thumb_func
  46              		.type	i2cObjectInit, %function
  47              	i2cObjectInit:
  48              	.LFB40:
  49              		.loc 1 82 0
  50              		.cfi_startproc
  51              	.LVL1:
  52 0000 08B5     		push	{r3, lr}
  53              		.cfi_def_cfa_offset 8
  54              		.cfi_offset 3, -8
  55              		.cfi_offset 14, -4
  56              		.loc 1 84 0
  57 0002 0123     		mov	r3, #1
ARM GAS  /tmp/cc2cN3ho.s 			page 2


  58 0004 0370     		strb	r3, [r0]
  59              		.loc 1 85 0
  60 0006 0023     		mov	r3, #0
  61 0008 4360     		str	r3, [r0, #4]
  62              		.loc 1 89 0
  63 000a 0C30     		add	r0, r0, #12
  64              	.LVL2:
  65 000c FFF7FEFF 		bl	chMtxInit
  66              	.LVL3:
  67              		.loc 1 98 0
  68              		@ sp needed
  69 0010 08BD     		pop	{r3, pc}
  70              		.cfi_endproc
  71              	.LFE40:
  72              		.size	i2cObjectInit, .-i2cObjectInit
  73 0012 C046     		.section	.text.i2cStart,"ax",%progbits
  74              		.align	2
  75              		.global	i2cStart
  76              		.code	16
  77              		.thumb_func
  78              		.type	i2cStart, %function
  79              	i2cStart:
  80              	.LFB41:
  81              		.loc 1 108 0
  82              		.cfi_startproc
  83              	.LVL4:
  84 0000 10B5     		push	{r4, lr}
  85              		.cfi_def_cfa_offset 8
  86              		.cfi_offset 4, -8
  87              		.cfi_offset 14, -4
  88 0002 041C     		mov	r4, r0
  89              		.loc 1 116 0
  90              	@ 116 "ChibiOS_2.6.5/os/hal/src/i2c.c" 1
  91 0004 72B6     		cpsid   i
  92              	@ 0 "" 2
  93              		.loc 1 117 0
  94              		.code	16
  95 0006 4160     		str	r1, [r0, #4]
  96              		.loc 1 118 0
  97 0008 FFF7FEFF 		bl	i2c_lld_start
  98              	.LVL5:
  99              		.loc 1 119 0
 100 000c 0223     		mov	r3, #2
 101 000e 2370     		strb	r3, [r4]
 102              		.loc 1 120 0
 103              	@ 120 "ChibiOS_2.6.5/os/hal/src/i2c.c" 1
 104 0010 62B6     		cpsie   i
 105              	@ 0 "" 2
 106              		.loc 1 121 0
 107              		.code	16
 108              		@ sp needed
 109              	.LVL6:
 110 0012 10BD     		pop	{r4, pc}
 111              		.cfi_endproc
 112              	.LFE41:
 113              		.size	i2cStart, .-i2cStart
 114              		.section	.text.i2cStop,"ax",%progbits
ARM GAS  /tmp/cc2cN3ho.s 			page 3


 115              		.align	2
 116              		.global	i2cStop
 117              		.code	16
 118              		.thumb_func
 119              		.type	i2cStop, %function
 120              	i2cStop:
 121              	.LFB42:
 122              		.loc 1 130 0
 123              		.cfi_startproc
 124              	.LVL7:
 125 0000 10B5     		push	{r4, lr}
 126              		.cfi_def_cfa_offset 8
 127              		.cfi_offset 4, -8
 128              		.cfi_offset 14, -4
 129 0002 041C     		mov	r4, r0
 130              		.loc 1 138 0
 131              	@ 138 "ChibiOS_2.6.5/os/hal/src/i2c.c" 1
 132 0004 72B6     		cpsid   i
 133              	@ 0 "" 2
 134              		.loc 1 139 0
 135              		.code	16
 136 0006 FFF7FEFF 		bl	i2c_lld_stop
 137              	.LVL8:
 138              		.loc 1 140 0
 139 000a 0123     		mov	r3, #1
 140 000c 2370     		strb	r3, [r4]
 141              		.loc 1 141 0
 142              	@ 141 "ChibiOS_2.6.5/os/hal/src/i2c.c" 1
 143 000e 62B6     		cpsie   i
 144              	@ 0 "" 2
 145              		.loc 1 142 0
 146              		.code	16
 147              		@ sp needed
 148              	.LVL9:
 149 0010 10BD     		pop	{r4, pc}
 150              		.cfi_endproc
 151              	.LFE42:
 152              		.size	i2cStop, .-i2cStop
 153 0012 C046     		.section	.text.i2cGetErrors,"ax",%progbits
 154              		.align	2
 155              		.global	i2cGetErrors
 156              		.code	16
 157              		.thumb_func
 158              		.type	i2cGetErrors, %function
 159              	i2cGetErrors:
 160              	.LFB43:
 161              		.loc 1 152 0
 162              		.cfi_startproc
 163              	.LVL10:
 164              		.loc 1 156 0
 165 0000 8068     		ldr	r0, [r0, #8]
 166              	.LVL11:
 167              		.loc 1 157 0
 168              		@ sp needed
 169 0002 7047     		bx	lr
 170              		.cfi_endproc
 171              	.LFE43:
ARM GAS  /tmp/cc2cN3ho.s 			page 4


 172              		.size	i2cGetErrors, .-i2cGetErrors
 173              		.section	.text.i2cMasterTransmitTimeout,"ax",%progbits
 174              		.align	2
 175              		.global	i2cMasterTransmitTimeout
 176              		.code	16
 177              		.thumb_func
 178              		.type	i2cMasterTransmitTimeout, %function
 179              	i2cMasterTransmitTimeout:
 180              	.LFB44:
 181              		.loc 1 191 0
 182              		.cfi_startproc
 183              	.LVL12:
 184 0000 10B5     		push	{r4, lr}
 185              		.cfi_def_cfa_offset 8
 186              		.cfi_offset 4, -8
 187              		.cfi_offset 14, -4
 188 0002 84B0     		sub	sp, sp, #16
 189              		.cfi_def_cfa_offset 24
 190 0004 041C     		mov	r4, r0
 191              		.loc 1 203 0
 192              	@ 203 "ChibiOS_2.6.5/os/hal/src/i2c.c" 1
 193 0006 72B6     		cpsid   i
 194              	@ 0 "" 2
 195              		.loc 1 204 0
 196              		.code	16
 197 0008 0020     		mov	r0, #0
 198              	.LVL13:
 199 000a A060     		str	r0, [r4, #8]
 200              		.loc 1 205 0
 201 000c 0320     		mov	r0, #3
 202 000e 2070     		strb	r0, [r4]
 203              		.loc 1 206 0
 204 0010 0698     		ldr	r0, [sp, #24]
 205 0012 0090     		str	r0, [sp]
 206 0014 0798     		ldr	r0, [sp, #28]
 207 0016 0190     		str	r0, [sp, #4]
 208 0018 0898     		ldr	r0, [sp, #32]
 209 001a 0290     		str	r0, [sp, #8]
 210 001c 201C     		mov	r0, r4
 211 001e FFF7FEFF 		bl	i2c_lld_master_transmit_timeout
 212              	.LVL14:
 213              		.loc 1 208 0
 214 0022 431C     		add	r3, r0, #1
 215 0024 02D1     		bne	.L7
 216              		.loc 1 209 0
 217 0026 0523     		mov	r3, #5
 218 0028 2370     		strb	r3, [r4]
 219 002a 01E0     		b	.L8
 220              	.L7:
 221              		.loc 1 211 0
 222 002c 0223     		mov	r3, #2
 223 002e 2370     		strb	r3, [r4]
 224              	.L8:
 225              		.loc 1 212 0
 226              	@ 212 "ChibiOS_2.6.5/os/hal/src/i2c.c" 1
 227 0030 62B6     		cpsie   i
 228              	@ 0 "" 2
ARM GAS  /tmp/cc2cN3ho.s 			page 5


 229              		.loc 1 214 0
 230              		.code	16
 231 0032 04B0     		add	sp, sp, #16
 232              		@ sp needed
 233              	.LVL15:
 234 0034 10BD     		pop	{r4, pc}
 235              		.cfi_endproc
 236              	.LFE44:
 237              		.size	i2cMasterTransmitTimeout, .-i2cMasterTransmitTimeout
 238 0036 C046     		.section	.text.i2cMasterReceiveTimeout,"ax",%progbits
 239              		.align	2
 240              		.global	i2cMasterReceiveTimeout
 241              		.code	16
 242              		.thumb_func
 243              		.type	i2cMasterReceiveTimeout, %function
 244              	i2cMasterReceiveTimeout:
 245              	.LFB45:
 246              		.loc 1 240 0
 247              		.cfi_startproc
 248              	.LVL16:
 249 0000 10B5     		push	{r4, lr}
 250              		.cfi_def_cfa_offset 8
 251              		.cfi_offset 4, -8
 252              		.cfi_offset 14, -4
 253 0002 82B0     		sub	sp, sp, #8
 254              		.cfi_def_cfa_offset 16
 255 0004 041C     		mov	r4, r0
 256              		.loc 1 252 0
 257              	@ 252 "ChibiOS_2.6.5/os/hal/src/i2c.c" 1
 258 0006 72B6     		cpsid   i
 259              	@ 0 "" 2
 260              		.loc 1 253 0
 261              		.code	16
 262 0008 0020     		mov	r0, #0
 263              	.LVL17:
 264 000a A060     		str	r0, [r4, #8]
 265              		.loc 1 254 0
 266 000c 0420     		mov	r0, #4
 267 000e 2070     		strb	r0, [r4]
 268              		.loc 1 255 0
 269 0010 0498     		ldr	r0, [sp, #16]
 270 0012 0090     		str	r0, [sp]
 271 0014 201C     		mov	r0, r4
 272 0016 FFF7FEFF 		bl	i2c_lld_master_receive_timeout
 273              	.LVL18:
 274              		.loc 1 256 0
 275 001a 431C     		add	r3, r0, #1
 276 001c 02D1     		bne	.L10
 277              		.loc 1 257 0
 278 001e 0523     		mov	r3, #5
 279 0020 2370     		strb	r3, [r4]
 280 0022 01E0     		b	.L11
 281              	.L10:
 282              		.loc 1 259 0
 283 0024 0223     		mov	r3, #2
 284 0026 2370     		strb	r3, [r4]
 285              	.L11:
ARM GAS  /tmp/cc2cN3ho.s 			page 6


 286              		.loc 1 260 0
 287              	@ 260 "ChibiOS_2.6.5/os/hal/src/i2c.c" 1
 288 0028 62B6     		cpsie   i
 289              	@ 0 "" 2
 290              		.loc 1 262 0
 291              		.code	16
 292 002a 02B0     		add	sp, sp, #8
 293              		@ sp needed
 294              	.LVL19:
 295 002c 10BD     		pop	{r4, pc}
 296              		.cfi_endproc
 297              	.LFE45:
 298              		.size	i2cMasterReceiveTimeout, .-i2cMasterReceiveTimeout
 299 002e C046     		.section	.text.i2cAcquireBus,"ax",%progbits
 300              		.align	2
 301              		.global	i2cAcquireBus
 302              		.code	16
 303              		.thumb_func
 304              		.type	i2cAcquireBus, %function
 305              	i2cAcquireBus:
 306              	.LFB46:
 307              		.loc 1 276 0
 308              		.cfi_startproc
 309              	.LVL20:
 310 0000 08B5     		push	{r3, lr}
 311              		.cfi_def_cfa_offset 8
 312              		.cfi_offset 3, -8
 313              		.cfi_offset 14, -4
 314              		.loc 1 281 0
 315 0002 0C30     		add	r0, r0, #12
 316              	.LVL21:
 317 0004 FFF7FEFF 		bl	chMtxLock
 318              	.LVL22:
 319              		.loc 1 285 0
 320              		@ sp needed
 321 0008 08BD     		pop	{r3, pc}
 322              		.cfi_endproc
 323              	.LFE46:
 324              		.size	i2cAcquireBus, .-i2cAcquireBus
 325 000a C046     		.section	.text.i2cReleaseBus,"ax",%progbits
 326              		.align	2
 327              		.global	i2cReleaseBus
 328              		.code	16
 329              		.thumb_func
 330              		.type	i2cReleaseBus, %function
 331              	i2cReleaseBus:
 332              	.LFB47:
 333              		.loc 1 296 0
 334              		.cfi_startproc
 335              	.LVL23:
 336 0000 08B5     		push	{r3, lr}
 337              		.cfi_def_cfa_offset 8
 338              		.cfi_offset 3, -8
 339              		.cfi_offset 14, -4
 340              		.loc 1 301 0
 341 0002 FFF7FEFF 		bl	chMtxUnlock
 342              	.LVL24:
ARM GAS  /tmp/cc2cN3ho.s 			page 7


 343              		.loc 1 305 0
 344              		@ sp needed
 345 0006 08BD     		pop	{r3, pc}
 346              		.cfi_endproc
 347              	.LFE47:
 348              		.size	i2cReleaseBus, .-i2cReleaseBus
 349              		.text
 350              	.Letext0:
 351              		.file 2 "/usr/local/lpcxpresso_7.3.0_186/lpcxpresso/tools/lib/gcc/arm-none-eabi/4.8.4/include/stdd
 352              		.file 3 "/usr/local/lpcxpresso_7.3.0_186/lpcxpresso/tools/arm-none-eabi/include/machine/_default_t
 353              		.file 4 "/usr/local/lpcxpresso_7.3.0_186/lpcxpresso/tools/arm-none-eabi/include/stdint.h"
 354              		.file 5 "ChibiOS_2.6.5/os/ports/GCC/ARMCMx/chtypes.h"
 355              		.file 6 "ChibiOS_2.6.5/os/kernel/include/chlists.h"
 356              		.file 7 "ChibiOS_2.6.5/os/kernel/include/chthreads.h"
 357              		.file 8 "ChibiOS_2.6.5/os/ports/GCC/ARMCMx/chcore_v6m.h"
 358              		.file 9 "ChibiOS_2.6.5/os/kernel/include/chmtx.h"
 359              		.file 10 "CMSIS_CORE_LPC11Uxx/inc/LPC11Uxx.h"
 360              		.file 11 "ChibiOS_2.6.5/os/hal/include/i2c.h"
 361              		.file 12 "ChibiOS_2.6.5/os/hal/platforms/LPC11Uxx/i2c_lld.h"
 362              		.section	.debug_info,"",%progbits
 363              	.Ldebug_info0:
 364 0000 AB090000 		.4byte	0x9ab
 365 0004 0400     		.2byte	0x4
 366 0006 00000000 		.4byte	.Ldebug_abbrev0
 367 000a 04       		.byte	0x4
 368 000b 01       		.uleb128 0x1
 369 000c 15030000 		.4byte	.LASF123
 370 0010 01       		.byte	0x1
 371 0011 CF010000 		.4byte	.LASF124
 372 0015 8B040000 		.4byte	.LASF125
 373 0019 00000000 		.4byte	.Ldebug_ranges0+0
 374 001d 00000000 		.4byte	0
 375 0021 00000000 		.4byte	.Ldebug_line0
 376 0025 02       		.uleb128 0x2
 377 0026 04       		.byte	0x4
 378 0027 05       		.byte	0x5
 379 0028 696E7400 		.ascii	"int\000"
 380 002c 03       		.uleb128 0x3
 381 002d 9C010000 		.4byte	.LASF2
 382 0031 02       		.byte	0x2
 383 0032 D4       		.byte	0xd4
 384 0033 37000000 		.4byte	0x37
 385 0037 04       		.uleb128 0x4
 386 0038 04       		.byte	0x4
 387 0039 07       		.byte	0x7
 388 003a 59000000 		.4byte	.LASF0
 389 003e 04       		.uleb128 0x4
 390 003f 01       		.byte	0x1
 391 0040 06       		.byte	0x6
 392 0041 77050000 		.4byte	.LASF1
 393 0045 03       		.uleb128 0x3
 394 0046 81040000 		.4byte	.LASF3
 395 004a 03       		.byte	0x3
 396 004b 1C       		.byte	0x1c
 397 004c 50000000 		.4byte	0x50
 398 0050 04       		.uleb128 0x4
 399 0051 01       		.byte	0x1
ARM GAS  /tmp/cc2cN3ho.s 			page 8


 400 0052 08       		.byte	0x8
 401 0053 0E050000 		.4byte	.LASF4
 402 0057 04       		.uleb128 0x4
 403 0058 02       		.byte	0x2
 404 0059 05       		.byte	0x5
 405 005a 25040000 		.4byte	.LASF5
 406 005e 03       		.uleb128 0x3
 407 005f 53010000 		.4byte	.LASF6
 408 0063 03       		.byte	0x3
 409 0064 26       		.byte	0x26
 410 0065 69000000 		.4byte	0x69
 411 0069 04       		.uleb128 0x4
 412 006a 02       		.byte	0x2
 413 006b 07       		.byte	0x7
 414 006c 83050000 		.4byte	.LASF7
 415 0070 03       		.uleb128 0x3
 416 0071 7A000000 		.4byte	.LASF8
 417 0075 03       		.byte	0x3
 418 0076 37       		.byte	0x37
 419 0077 7B000000 		.4byte	0x7b
 420 007b 04       		.uleb128 0x4
 421 007c 04       		.byte	0x4
 422 007d 05       		.byte	0x5
 423 007e 42040000 		.4byte	.LASF9
 424 0082 03       		.uleb128 0x3
 425 0083 1C050000 		.4byte	.LASF10
 426 0087 03       		.byte	0x3
 427 0088 38       		.byte	0x38
 428 0089 8D000000 		.4byte	0x8d
 429 008d 04       		.uleb128 0x4
 430 008e 04       		.byte	0x4
 431 008f 07       		.byte	0x7
 432 0090 E4040000 		.4byte	.LASF11
 433 0094 04       		.uleb128 0x4
 434 0095 08       		.byte	0x8
 435 0096 05       		.byte	0x5
 436 0097 40020000 		.4byte	.LASF12
 437 009b 04       		.uleb128 0x4
 438 009c 08       		.byte	0x8
 439 009d 07       		.byte	0x7
 440 009e 1C010000 		.4byte	.LASF13
 441 00a2 03       		.uleb128 0x3
 442 00a3 0E020000 		.4byte	.LASF14
 443 00a7 04       		.byte	0x4
 444 00a8 2A       		.byte	0x2a
 445 00a9 45000000 		.4byte	0x45
 446 00ad 03       		.uleb128 0x3
 447 00ae DA030000 		.4byte	.LASF15
 448 00b2 04       		.byte	0x4
 449 00b3 36       		.byte	0x36
 450 00b4 5E000000 		.4byte	0x5e
 451 00b8 03       		.uleb128 0x3
 452 00b9 F6040000 		.4byte	.LASF16
 453 00bd 04       		.byte	0x4
 454 00be 41       		.byte	0x41
 455 00bf 70000000 		.4byte	0x70
 456 00c3 03       		.uleb128 0x3
ARM GAS  /tmp/cc2cN3ho.s 			page 9


 457 00c4 D6000000 		.4byte	.LASF17
 458 00c8 04       		.byte	0x4
 459 00c9 42       		.byte	0x42
 460 00ca 82000000 		.4byte	0x82
 461 00ce 04       		.uleb128 0x4
 462 00cf 01       		.byte	0x1
 463 00d0 02       		.byte	0x2
 464 00d1 AA010000 		.4byte	.LASF18
 465 00d5 03       		.uleb128 0x3
 466 00d6 ED020000 		.4byte	.LASF19
 467 00da 05       		.byte	0x5
 468 00db 2C       		.byte	0x2c
 469 00dc A2000000 		.4byte	0xa2
 470 00e0 03       		.uleb128 0x3
 471 00e1 F5010000 		.4byte	.LASF20
 472 00e5 05       		.byte	0x5
 473 00e6 2D       		.byte	0x2d
 474 00e7 A2000000 		.4byte	0xa2
 475 00eb 03       		.uleb128 0x3
 476 00ec DC040000 		.4byte	.LASF21
 477 00f0 05       		.byte	0x5
 478 00f1 2E       		.byte	0x2e
 479 00f2 A2000000 		.4byte	0xa2
 480 00f6 03       		.uleb128 0x3
 481 00f7 CA020000 		.4byte	.LASF22
 482 00fb 05       		.byte	0x5
 483 00fc 2F       		.byte	0x2f
 484 00fd A2000000 		.4byte	0xa2
 485 0101 03       		.uleb128 0x3
 486 0102 07010000 		.4byte	.LASF23
 487 0106 05       		.byte	0x5
 488 0107 30       		.byte	0x30
 489 0108 C3000000 		.4byte	0xc3
 490 010c 03       		.uleb128 0x3
 491 010d 65020000 		.4byte	.LASF24
 492 0111 05       		.byte	0x5
 493 0112 31       		.byte	0x31
 494 0113 B8000000 		.4byte	0xb8
 495 0117 03       		.uleb128 0x3
 496 0118 F5000000 		.4byte	.LASF25
 497 011c 05       		.byte	0x5
 498 011d 33       		.byte	0x33
 499 011e C3000000 		.4byte	0xc3
 500 0122 03       		.uleb128 0x3
 501 0123 2D000000 		.4byte	.LASF26
 502 0127 05       		.byte	0x5
 503 0128 35       		.byte	0x35
 504 0129 C3000000 		.4byte	0xc3
 505 012d 03       		.uleb128 0x3
 506 012e EE010000 		.4byte	.LASF27
 507 0132 06       		.byte	0x6
 508 0133 2A       		.byte	0x2a
 509 0134 38010000 		.4byte	0x138
 510 0138 05       		.uleb128 0x5
 511 0139 EE010000 		.4byte	.LASF27
 512 013d 48       		.byte	0x48
 513 013e 07       		.byte	0x7
ARM GAS  /tmp/cc2cN3ho.s 			page 10


 514 013f 5E       		.byte	0x5e
 515 0140 35020000 		.4byte	0x235
 516 0144 06       		.uleb128 0x6
 517 0145 60040000 		.4byte	.LASF28
 518 0149 07       		.byte	0x7
 519 014a 5F       		.byte	0x5f
 520 014b 56020000 		.4byte	0x256
 521 014f 00       		.byte	0
 522 0150 06       		.uleb128 0x6
 523 0151 CC040000 		.4byte	.LASF29
 524 0155 07       		.byte	0x7
 525 0156 61       		.byte	0x61
 526 0157 56020000 		.4byte	0x256
 527 015b 04       		.byte	0x4
 528 015c 06       		.uleb128 0x6
 529 015d 26000000 		.4byte	.LASF30
 530 0161 07       		.byte	0x7
 531 0162 63       		.byte	0x63
 532 0163 01010000 		.4byte	0x101
 533 0167 08       		.byte	0x8
 534 0168 06       		.uleb128 0x6
 535 0169 67040000 		.4byte	.LASF31
 536 016d 07       		.byte	0x7
 537 016e 64       		.byte	0x64
 538 016f 06030000 		.4byte	0x306
 539 0173 0C       		.byte	0xc
 540 0174 06       		.uleb128 0x6
 541 0175 6D010000 		.4byte	.LASF32
 542 0179 07       		.byte	0x7
 543 017a 66       		.byte	0x66
 544 017b 56020000 		.4byte	0x256
 545 017f 10       		.byte	0x10
 546 0180 06       		.uleb128 0x6
 547 0181 FE010000 		.4byte	.LASF33
 548 0185 07       		.byte	0x7
 549 0186 67       		.byte	0x67
 550 0187 56020000 		.4byte	0x256
 551 018b 14       		.byte	0x14
 552 018c 06       		.uleb128 0x6
 553 018d B6010000 		.4byte	.LASF34
 554 0191 07       		.byte	0x7
 555 0192 6E       		.byte	0x6e
 556 0193 AD030000 		.4byte	0x3ad
 557 0197 18       		.byte	0x18
 558 0198 06       		.uleb128 0x6
 559 0199 06020000 		.4byte	.LASF35
 560 019d 07       		.byte	0x7
 561 019e 79       		.byte	0x79
 562 019f E0000000 		.4byte	0xe0
 563 01a3 1C       		.byte	0x1c
 564 01a4 06       		.uleb128 0x6
 565 01a5 8B020000 		.4byte	.LASF36
 566 01a9 07       		.byte	0x7
 567 01aa 7D       		.byte	0x7d
 568 01ab D5000000 		.4byte	0xd5
 569 01af 1D       		.byte	0x1d
 570 01b0 06       		.uleb128 0x6
ARM GAS  /tmp/cc2cN3ho.s 			page 11


 571 01b1 35050000 		.4byte	.LASF37
 572 01b5 07       		.byte	0x7
 573 01b6 82       		.byte	0x82
 574 01b7 EB000000 		.4byte	0xeb
 575 01bb 1E       		.byte	0x1e
 576 01bc 06       		.uleb128 0x6
 577 01bd 4E050000 		.4byte	.LASF38
 578 01c1 07       		.byte	0x7
 579 01c2 88       		.byte	0x88
 580 01c3 F6000000 		.4byte	0xf6
 581 01c7 1F       		.byte	0x1f
 582 01c8 06       		.uleb128 0x6
 583 01c9 16000000 		.4byte	.LASF39
 584 01cd 07       		.byte	0x7
 585 01ce 8F       		.byte	0x8f
 586 01cf 31030000 		.4byte	0x331
 587 01d3 20       		.byte	0x20
 588 01d4 07       		.uleb128 0x7
 589 01d5 705F7500 		.ascii	"p_u\000"
 590 01d9 07       		.byte	0x7
 591 01da B4       		.byte	0xb4
 592 01db 78030000 		.4byte	0x378
 593 01df 24       		.byte	0x24
 594 01e0 06       		.uleb128 0x6
 595 01e1 0C000000 		.4byte	.LASF40
 596 01e5 07       		.byte	0x7
 597 01e6 B9       		.byte	0xb9
 598 01e7 7C020000 		.4byte	0x27c
 599 01eb 28       		.byte	0x28
 600 01ec 06       		.uleb128 0x6
 601 01ed 46000000 		.4byte	.LASF41
 602 01f1 07       		.byte	0x7
 603 01f2 BF       		.byte	0xbf
 604 01f3 5C020000 		.4byte	0x25c
 605 01f7 2C       		.byte	0x2c
 606 01f8 06       		.uleb128 0x6
 607 01f9 E7020000 		.4byte	.LASF42
 608 01fd 07       		.byte	0x7
 609 01fe C3       		.byte	0xc3
 610 01ff 0C010000 		.4byte	0x10c
 611 0203 34       		.byte	0x34
 612 0204 06       		.uleb128 0x6
 613 0205 2F040000 		.4byte	.LASF43
 614 0209 07       		.byte	0x7
 615 020a C9       		.byte	0xc9
 616 020b 17010000 		.4byte	0x117
 617 020f 38       		.byte	0x38
 618 0210 06       		.uleb128 0x6
 619 0211 1E020000 		.4byte	.LASF44
 620 0215 07       		.byte	0x7
 621 0216 D0       		.byte	0xd0
 622 0217 BF030000 		.4byte	0x3bf
 623 021b 3C       		.byte	0x3c
 624 021c 06       		.uleb128 0x6
 625 021d 1A040000 		.4byte	.LASF45
 626 0221 07       		.byte	0x7
 627 0222 D4       		.byte	0xd4
ARM GAS  /tmp/cc2cN3ho.s 			page 12


 628 0223 01010000 		.4byte	0x101
 629 0227 40       		.byte	0x40
 630 0228 06       		.uleb128 0x6
 631 0229 16020000 		.4byte	.LASF46
 632 022d 07       		.byte	0x7
 633 022e DA       		.byte	0xda
 634 022f 92020000 		.4byte	0x292
 635 0233 44       		.byte	0x44
 636 0234 00       		.byte	0
 637 0235 08       		.uleb128 0x8
 638 0236 08       		.byte	0x8
 639 0237 06       		.byte	0x6
 640 0238 61       		.byte	0x61
 641 0239 56020000 		.4byte	0x256
 642 023d 06       		.uleb128 0x6
 643 023e 60040000 		.4byte	.LASF28
 644 0242 06       		.byte	0x6
 645 0243 62       		.byte	0x62
 646 0244 56020000 		.4byte	0x256
 647 0248 00       		.byte	0
 648 0249 06       		.uleb128 0x6
 649 024a CC040000 		.4byte	.LASF29
 650 024e 06       		.byte	0x6
 651 024f 64       		.byte	0x64
 652 0250 56020000 		.4byte	0x256
 653 0254 04       		.byte	0x4
 654 0255 00       		.byte	0
 655 0256 09       		.uleb128 0x9
 656 0257 04       		.byte	0x4
 657 0258 2D010000 		.4byte	0x12d
 658 025c 03       		.uleb128 0x3
 659 025d BD010000 		.4byte	.LASF47
 660 0261 06       		.byte	0x6
 661 0262 66       		.byte	0x66
 662 0263 35020000 		.4byte	0x235
 663 0267 08       		.uleb128 0x8
 664 0268 04       		.byte	0x4
 665 0269 06       		.byte	0x6
 666 026a 6B       		.byte	0x6b
 667 026b 7C020000 		.4byte	0x27c
 668 026f 06       		.uleb128 0x6
 669 0270 60040000 		.4byte	.LASF28
 670 0274 06       		.byte	0x6
 671 0275 6D       		.byte	0x6d
 672 0276 56020000 		.4byte	0x256
 673 027a 00       		.byte	0
 674 027b 00       		.byte	0
 675 027c 03       		.uleb128 0x3
 676 027d 00000000 		.4byte	.LASF48
 677 0281 06       		.byte	0x6
 678 0282 70       		.byte	0x70
 679 0283 67020000 		.4byte	0x267
 680 0287 03       		.uleb128 0x3
 681 0288 1D000000 		.4byte	.LASF49
 682 028c 08       		.byte	0x8
 683 028d A7       		.byte	0xa7
 684 028e 92020000 		.4byte	0x292
ARM GAS  /tmp/cc2cN3ho.s 			page 13


 685 0292 0A       		.uleb128 0xa
 686 0293 04       		.byte	0x4
 687 0294 05       		.uleb128 0x5
 688 0295 E3030000 		.4byte	.LASF50
 689 0299 24       		.byte	0x24
 690 029a 08       		.byte	0x8
 691 029b BA       		.byte	0xba
 692 029c 06030000 		.4byte	0x306
 693 02a0 07       		.uleb128 0x7
 694 02a1 723800   		.ascii	"r8\000"
 695 02a4 08       		.byte	0x8
 696 02a5 BB       		.byte	0xbb
 697 02a6 87020000 		.4byte	0x287
 698 02aa 00       		.byte	0
 699 02ab 07       		.uleb128 0x7
 700 02ac 723900   		.ascii	"r9\000"
 701 02af 08       		.byte	0x8
 702 02b0 BC       		.byte	0xbc
 703 02b1 87020000 		.4byte	0x287
 704 02b5 04       		.byte	0x4
 705 02b6 07       		.uleb128 0x7
 706 02b7 72313000 		.ascii	"r10\000"
 707 02bb 08       		.byte	0x8
 708 02bc BD       		.byte	0xbd
 709 02bd 87020000 		.4byte	0x287
 710 02c1 08       		.byte	0x8
 711 02c2 07       		.uleb128 0x7
 712 02c3 72313100 		.ascii	"r11\000"
 713 02c7 08       		.byte	0x8
 714 02c8 BE       		.byte	0xbe
 715 02c9 87020000 		.4byte	0x287
 716 02cd 0C       		.byte	0xc
 717 02ce 07       		.uleb128 0x7
 718 02cf 723400   		.ascii	"r4\000"
 719 02d2 08       		.byte	0x8
 720 02d3 BF       		.byte	0xbf
 721 02d4 87020000 		.4byte	0x287
 722 02d8 10       		.byte	0x10
 723 02d9 07       		.uleb128 0x7
 724 02da 723500   		.ascii	"r5\000"
 725 02dd 08       		.byte	0x8
 726 02de C0       		.byte	0xc0
 727 02df 87020000 		.4byte	0x287
 728 02e3 14       		.byte	0x14
 729 02e4 07       		.uleb128 0x7
 730 02e5 723600   		.ascii	"r6\000"
 731 02e8 08       		.byte	0x8
 732 02e9 C1       		.byte	0xc1
 733 02ea 87020000 		.4byte	0x287
 734 02ee 18       		.byte	0x18
 735 02ef 07       		.uleb128 0x7
 736 02f0 723700   		.ascii	"r7\000"
 737 02f3 08       		.byte	0x8
 738 02f4 C2       		.byte	0xc2
 739 02f5 87020000 		.4byte	0x287
 740 02f9 1C       		.byte	0x1c
 741 02fa 07       		.uleb128 0x7
ARM GAS  /tmp/cc2cN3ho.s 			page 14


 742 02fb 6C7200   		.ascii	"lr\000"
 743 02fe 08       		.byte	0x8
 744 02ff C3       		.byte	0xc3
 745 0300 87020000 		.4byte	0x287
 746 0304 20       		.byte	0x20
 747 0305 00       		.byte	0
 748 0306 05       		.uleb128 0x5
 749 0307 83020000 		.4byte	.LASF51
 750 030b 04       		.byte	0x4
 751 030c 08       		.byte	0x8
 752 030d CD       		.byte	0xcd
 753 030e 1F030000 		.4byte	0x31f
 754 0312 07       		.uleb128 0x7
 755 0313 72313300 		.ascii	"r13\000"
 756 0317 08       		.byte	0x8
 757 0318 CE       		.byte	0xce
 758 0319 1F030000 		.4byte	0x31f
 759 031d 00       		.byte	0
 760 031e 00       		.byte	0
 761 031f 09       		.uleb128 0x9
 762 0320 04       		.byte	0x4
 763 0321 94020000 		.4byte	0x294
 764 0325 0B       		.uleb128 0xb
 765 0326 C3000000 		.4byte	0xc3
 766 032a 04       		.uleb128 0x4
 767 032b 04       		.byte	0x4
 768 032c 07       		.byte	0x7
 769 032d D3040000 		.4byte	.LASF52
 770 0331 0B       		.uleb128 0xb
 771 0332 22010000 		.4byte	0x122
 772 0336 05       		.uleb128 0x5
 773 0337 B0010000 		.4byte	.LASF53
 774 033b 10       		.byte	0x10
 775 033c 09       		.byte	0x9
 776 033d 2C       		.byte	0x2c
 777 033e 67030000 		.4byte	0x367
 778 0342 06       		.uleb128 0x6
 779 0343 3A040000 		.4byte	.LASF54
 780 0347 09       		.byte	0x9
 781 0348 2D       		.byte	0x2d
 782 0349 5C020000 		.4byte	0x25c
 783 034d 00       		.byte	0
 784 034e 06       		.uleb128 0x6
 785 034f 3E000000 		.4byte	.LASF55
 786 0353 09       		.byte	0x9
 787 0354 2F       		.byte	0x2f
 788 0355 56020000 		.4byte	0x256
 789 0359 08       		.byte	0x8
 790 035a 06       		.uleb128 0x6
 791 035b 63050000 		.4byte	.LASF56
 792 035f 09       		.byte	0x9
 793 0360 31       		.byte	0x31
 794 0361 67030000 		.4byte	0x367
 795 0365 0C       		.byte	0xc
 796 0366 00       		.byte	0
 797 0367 09       		.uleb128 0x9
 798 0368 04       		.byte	0x4
ARM GAS  /tmp/cc2cN3ho.s 			page 15


 799 0369 36030000 		.4byte	0x336
 800 036d 03       		.uleb128 0x3
 801 036e B0010000 		.4byte	.LASF53
 802 0372 09       		.byte	0x9
 803 0373 33       		.byte	0x33
 804 0374 36030000 		.4byte	0x336
 805 0378 0C       		.uleb128 0xc
 806 0379 04       		.byte	0x4
 807 037a 07       		.byte	0x7
 808 037b 96       		.byte	0x96
 809 037c AD030000 		.4byte	0x3ad
 810 0380 0D       		.uleb128 0xd
 811 0381 A3010000 		.4byte	.LASF57
 812 0385 07       		.byte	0x7
 813 0386 9D       		.byte	0x9d
 814 0387 0C010000 		.4byte	0x10c
 815 038b 0D       		.uleb128 0xd
 816 038c B2050000 		.4byte	.LASF58
 817 0390 07       		.byte	0x7
 818 0391 A4       		.byte	0xa4
 819 0392 0C010000 		.4byte	0x10c
 820 0396 0D       		.uleb128 0xd
 821 0397 8C000000 		.4byte	.LASF59
 822 039b 07       		.byte	0x7
 823 039c AB       		.byte	0xab
 824 039d 92020000 		.4byte	0x292
 825 03a1 0D       		.uleb128 0xd
 826 03a2 98000000 		.4byte	.LASF60
 827 03a6 07       		.byte	0x7
 828 03a7 B2       		.byte	0xb2
 829 03a8 17010000 		.4byte	0x117
 830 03ac 00       		.byte	0
 831 03ad 09       		.uleb128 0x9
 832 03ae 04       		.byte	0x4
 833 03af B3030000 		.4byte	0x3b3
 834 03b3 0E       		.uleb128 0xe
 835 03b4 B8030000 		.4byte	0x3b8
 836 03b8 04       		.uleb128 0x4
 837 03b9 01       		.byte	0x1
 838 03ba 08       		.byte	0x8
 839 03bb CA010000 		.4byte	.LASF61
 840 03bf 09       		.uleb128 0x9
 841 03c0 04       		.byte	0x4
 842 03c1 6D030000 		.4byte	0x36d
 843 03c5 09       		.uleb128 0x9
 844 03c6 04       		.byte	0x4
 845 03c7 A2000000 		.4byte	0xa2
 846 03cb 09       		.uleb128 0x9
 847 03cc 04       		.byte	0x4
 848 03cd D1030000 		.4byte	0x3d1
 849 03d1 0E       		.uleb128 0xe
 850 03d2 A2000000 		.4byte	0xa2
 851 03d6 0E       		.uleb128 0xe
 852 03d7 25030000 		.4byte	0x325
 853 03db 08       		.uleb128 0x8
 854 03dc 10       		.byte	0x10
 855 03dd 0A       		.byte	0xa
ARM GAS  /tmp/cc2cN3ho.s 			page 16


 856 03de 85       		.byte	0x85
 857 03df 14040000 		.4byte	0x414
 858 03e3 06       		.uleb128 0x6
 859 03e4 6B020000 		.4byte	.LASF62
 860 03e8 0A       		.byte	0xa
 861 03e9 86       		.byte	0x86
 862 03ea 25030000 		.4byte	0x325
 863 03ee 00       		.byte	0
 864 03ef 06       		.uleb128 0x6
 865 03f0 71020000 		.4byte	.LASF63
 866 03f4 0A       		.byte	0xa
 867 03f5 87       		.byte	0x87
 868 03f6 25030000 		.4byte	0x325
 869 03fa 04       		.byte	0x4
 870 03fb 06       		.uleb128 0x6
 871 03fc 77020000 		.4byte	.LASF64
 872 0400 0A       		.byte	0xa
 873 0401 88       		.byte	0x88
 874 0402 25030000 		.4byte	0x325
 875 0406 08       		.byte	0x8
 876 0407 06       		.uleb128 0x6
 877 0408 7D020000 		.4byte	.LASF65
 878 040c 0A       		.byte	0xa
 879 040d 89       		.byte	0x89
 880 040e 25030000 		.4byte	0x325
 881 0412 0C       		.byte	0xc
 882 0413 00       		.byte	0
 883 0414 0C       		.uleb128 0xc
 884 0415 10       		.byte	0x10
 885 0416 0A       		.byte	0xa
 886 0417 83       		.byte	0x83
 887 0418 2D040000 		.4byte	0x42d
 888 041c 0D       		.uleb128 0xd
 889 041d 68010000 		.4byte	.LASF66
 890 0421 0A       		.byte	0xa
 891 0422 84       		.byte	0x84
 892 0423 3D040000 		.4byte	0x43d
 893 0427 0F       		.uleb128 0xf
 894 0428 DB030000 		.4byte	0x3db
 895 042c 00       		.byte	0
 896 042d 10       		.uleb128 0x10
 897 042e C3000000 		.4byte	0xc3
 898 0432 3D040000 		.4byte	0x43d
 899 0436 11       		.uleb128 0x11
 900 0437 2A030000 		.4byte	0x32a
 901 043b 03       		.byte	0x3
 902 043c 00       		.byte	0
 903 043d 0B       		.uleb128 0xb
 904 043e 2D040000 		.4byte	0x42d
 905 0442 08       		.uleb128 0x8
 906 0443 40       		.byte	0x40
 907 0444 0A       		.byte	0xa
 908 0445 76       		.byte	0x76
 909 0446 E1040000 		.4byte	0x4e1
 910 044a 06       		.uleb128 0x6
 911 044b 37000000 		.4byte	.LASF67
 912 044f 0A       		.byte	0xa
ARM GAS  /tmp/cc2cN3ho.s 			page 17


 913 0450 77       		.byte	0x77
 914 0451 25030000 		.4byte	0x325
 915 0455 00       		.byte	0
 916 0456 06       		.uleb128 0x6
 917 0457 93000000 		.4byte	.LASF68
 918 045b 0A       		.byte	0xa
 919 045c 78       		.byte	0x78
 920 045d D6030000 		.4byte	0x3d6
 921 0461 04       		.byte	0x4
 922 0462 07       		.uleb128 0x7
 923 0463 44415400 		.ascii	"DAT\000"
 924 0467 0A       		.byte	0xa
 925 0468 79       		.byte	0x79
 926 0469 25030000 		.4byte	0x325
 927 046d 08       		.byte	0x8
 928 046e 06       		.uleb128 0x6
 929 046f C4000000 		.4byte	.LASF69
 930 0473 0A       		.byte	0xa
 931 0474 7A       		.byte	0x7a
 932 0475 25030000 		.4byte	0x325
 933 0479 0C       		.byte	0xc
 934 047a 06       		.uleb128 0x6
 935 047b 70000000 		.4byte	.LASF70
 936 047f 0A       		.byte	0xa
 937 0480 7B       		.byte	0x7b
 938 0481 25030000 		.4byte	0x325
 939 0485 10       		.byte	0x10
 940 0486 06       		.uleb128 0x6
 941 0487 75000000 		.4byte	.LASF71
 942 048b 0A       		.byte	0xa
 943 048c 7C       		.byte	0x7c
 944 048d 25030000 		.4byte	0x325
 945 0491 14       		.byte	0x14
 946 0492 06       		.uleb128 0x6
 947 0493 BD000000 		.4byte	.LASF72
 948 0497 0A       		.byte	0xa
 949 0498 7D       		.byte	0x7d
 950 0499 25030000 		.4byte	0x325
 951 049d 18       		.byte	0x18
 952 049e 06       		.uleb128 0x6
 953 049f 6D040000 		.4byte	.LASF73
 954 04a3 0A       		.byte	0xa
 955 04a4 7E       		.byte	0x7e
 956 04a5 25030000 		.4byte	0x325
 957 04a9 1C       		.byte	0x1c
 958 04aa 06       		.uleb128 0x6
 959 04ab 28020000 		.4byte	.LASF74
 960 04af 0A       		.byte	0xa
 961 04b0 7F       		.byte	0x7f
 962 04b1 25030000 		.4byte	0x325
 963 04b5 20       		.byte	0x20
 964 04b6 06       		.uleb128 0x6
 965 04b7 2D020000 		.4byte	.LASF75
 966 04bb 0A       		.byte	0xa
 967 04bc 80       		.byte	0x80
 968 04bd 25030000 		.4byte	0x325
 969 04c1 24       		.byte	0x24
ARM GAS  /tmp/cc2cN3ho.s 			page 18


 970 04c2 06       		.uleb128 0x6
 971 04c3 32020000 		.4byte	.LASF76
 972 04c7 0A       		.byte	0xa
 973 04c8 81       		.byte	0x81
 974 04c9 25030000 		.4byte	0x325
 975 04cd 28       		.byte	0x28
 976 04ce 06       		.uleb128 0x6
 977 04cf 90010000 		.4byte	.LASF77
 978 04d3 0A       		.byte	0xa
 979 04d4 82       		.byte	0x82
 980 04d5 D6030000 		.4byte	0x3d6
 981 04d9 2C       		.byte	0x2c
 982 04da 12       		.uleb128 0x12
 983 04db 14040000 		.4byte	0x414
 984 04df 30       		.byte	0x30
 985 04e0 00       		.byte	0
 986 04e1 03       		.uleb128 0x3
 987 04e2 6A050000 		.4byte	.LASF78
 988 04e6 0A       		.byte	0xa
 989 04e7 8C       		.byte	0x8c
 990 04e8 42040000 		.4byte	0x442
 991 04ec 13       		.uleb128 0x13
 992 04ed 01       		.byte	0x1
 993 04ee 0B       		.byte	0xb
 994 04ef 5A       		.byte	0x5a
 995 04f0 19050000 		.4byte	0x519
 996 04f4 14       		.uleb128 0x14
 997 04f5 5A020000 		.4byte	.LASF79
 998 04f9 00       		.sleb128 0
 999 04fa 14       		.uleb128 0x14
 1000 04fb 05050000 		.4byte	.LASF80
 1001 04ff 01       		.sleb128 1
 1002 0500 14       		.uleb128 0x14
 1003 0501 09040000 		.4byte	.LASF81
 1004 0505 02       		.sleb128 2
 1005 0506 14       		.uleb128 0x14
 1006 0507 E7000000 		.4byte	.LASF82
 1007 050b 03       		.sleb128 3
 1008 050c 14       		.uleb128 0x14
 1009 050d 33010000 		.4byte	.LASF83
 1010 0511 04       		.sleb128 4
 1011 0512 14       		.uleb128 0x14
 1012 0513 55040000 		.4byte	.LASF84
 1013 0517 05       		.sleb128 5
 1014 0518 00       		.byte	0
 1015 0519 03       		.uleb128 0x3
 1016 051a 48010000 		.4byte	.LASF85
 1017 051e 0B       		.byte	0xb
 1018 051f 61       		.byte	0x61
 1019 0520 EC040000 		.4byte	0x4ec
 1020 0524 03       		.uleb128 0x3
 1021 0525 4B040000 		.4byte	.LASF86
 1022 0529 0C       		.byte	0xc
 1023 052a 60       		.byte	0x60
 1024 052b AD000000 		.4byte	0xad
 1025 052f 03       		.uleb128 0x3
 1026 0530 7B010000 		.4byte	.LASF87
ARM GAS  /tmp/cc2cN3ho.s 			page 19


 1027 0534 0C       		.byte	0xc
 1028 0535 65       		.byte	0x65
 1029 0536 C3000000 		.4byte	0xc3
 1030 053a 13       		.uleb128 0x13
 1031 053b 01       		.byte	0x1
 1032 053c 0C       		.byte	0xc
 1033 053d 69       		.byte	0x69
 1034 053e 55050000 		.4byte	0x555
 1035 0542 14       		.uleb128 0x14
 1036 0543 A0050000 		.4byte	.LASF88
 1037 0547 01       		.sleb128 1
 1038 0548 14       		.uleb128 0x14
 1039 0549 BB050000 		.4byte	.LASF89
 1040 054d 02       		.sleb128 2
 1041 054e 14       		.uleb128 0x14
 1042 054f AF020000 		.4byte	.LASF90
 1043 0553 03       		.sleb128 3
 1044 0554 00       		.byte	0
 1045 0555 03       		.uleb128 0x3
 1046 0556 96050000 		.4byte	.LASF91
 1047 055a 0C       		.byte	0xc
 1048 055b 6D       		.byte	0x6d
 1049 055c 3A050000 		.4byte	0x53a
 1050 0560 08       		.uleb128 0x8
 1051 0561 08       		.byte	0x8
 1052 0562 0C       		.byte	0xc
 1053 0563 72       		.byte	0x72
 1054 0564 81050000 		.4byte	0x581
 1055 0568 06       		.uleb128 0x6
 1056 0569 9F000000 		.4byte	.LASF92
 1057 056d 0C       		.byte	0xc
 1058 056e 73       		.byte	0x73
 1059 056f 55050000 		.4byte	0x555
 1060 0573 00       		.byte	0
 1061 0574 06       		.uleb128 0x6
 1062 0575 0F010000 		.4byte	.LASF93
 1063 0579 0C       		.byte	0xc
 1064 057a 74       		.byte	0x74
 1065 057b C3000000 		.4byte	0xc3
 1066 057f 04       		.byte	0x4
 1067 0580 00       		.byte	0
 1068 0581 03       		.uleb128 0x3
 1069 0582 5E010000 		.4byte	.LASF94
 1070 0586 0C       		.byte	0xc
 1071 0587 75       		.byte	0x75
 1072 0588 60050000 		.4byte	0x560
 1073 058c 03       		.uleb128 0x3
 1074 058d 66000000 		.4byte	.LASF95
 1075 0591 0C       		.byte	0xc
 1076 0592 91       		.byte	0x91
 1077 0593 97050000 		.4byte	0x597
 1078 0597 05       		.uleb128 0x5
 1079 0598 66000000 		.4byte	.LASF95
 1080 059c 38       		.byte	0x38
 1081 059d 0C       		.byte	0xc
 1082 059e 96       		.byte	0x96
 1083 059f 28060000 		.4byte	0x628
ARM GAS  /tmp/cc2cN3ho.s 			page 20


 1084 05a3 06       		.uleb128 0x6
 1085 05a4 5D050000 		.4byte	.LASF96
 1086 05a8 0C       		.byte	0xc
 1087 05a9 9A       		.byte	0x9a
 1088 05aa 19050000 		.4byte	0x519
 1089 05ae 00       		.byte	0
 1090 05af 06       		.uleb128 0x6
 1091 05b0 13040000 		.4byte	.LASF97
 1092 05b4 0C       		.byte	0xc
 1093 05b5 9E       		.byte	0x9e
 1094 05b6 28060000 		.4byte	0x628
 1095 05ba 04       		.byte	0x4
 1096 05bb 06       		.uleb128 0x6
 1097 05bc 41010000 		.4byte	.LASF98
 1098 05c0 0C       		.byte	0xc
 1099 05c1 A2       		.byte	0xa2
 1100 05c2 2F050000 		.4byte	0x52f
 1101 05c6 08       		.byte	0x8
 1102 05c7 06       		.uleb128 0x6
 1103 05c8 01010000 		.4byte	.LASF99
 1104 05cc 0C       		.byte	0xc
 1105 05cd A8       		.byte	0xa8
 1106 05ce 6D030000 		.4byte	0x36d
 1107 05d2 0C       		.byte	0xc
 1108 05d3 06       		.uleb128 0x6
 1109 05d4 FE040000 		.4byte	.LASF100
 1110 05d8 0C       		.byte	0xc
 1111 05d9 B4       		.byte	0xb4
 1112 05da 56020000 		.4byte	0x256
 1113 05de 1C       		.byte	0x1c
 1114 05df 06       		.uleb128 0x6
 1115 05e0 58050000 		.4byte	.LASF101
 1116 05e4 0C       		.byte	0xc
 1117 05e5 B8       		.byte	0xb8
 1118 05e6 24050000 		.4byte	0x524
 1119 05ea 20       		.byte	0x20
 1120 05eb 06       		.uleb128 0x6
 1121 05ec 75010000 		.4byte	.LASF102
 1122 05f0 0C       		.byte	0xc
 1123 05f1 BC       		.byte	0xbc
 1124 05f2 CB030000 		.4byte	0x3cb
 1125 05f6 24       		.byte	0x24
 1126 05f7 06       		.uleb128 0x6
 1127 05f8 DF000000 		.4byte	.LASF103
 1128 05fc 0C       		.byte	0xc
 1129 05fd C0       		.byte	0xc0
 1130 05fe 2C000000 		.4byte	0x2c
 1131 0602 28       		.byte	0x28
 1132 0603 06       		.uleb128 0x6
 1133 0604 C9050000 		.4byte	.LASF104
 1134 0608 0C       		.byte	0xc
 1135 0609 C4       		.byte	0xc4
 1136 060a C5030000 		.4byte	0x3c5
 1137 060e 2C       		.byte	0x2c
 1138 060f 06       		.uleb128 0x6
 1139 0610 51000000 		.4byte	.LASF105
 1140 0614 0C       		.byte	0xc
ARM GAS  /tmp/cc2cN3ho.s 			page 21


 1141 0615 C8       		.byte	0xc8
 1142 0616 2C000000 		.4byte	0x2c
 1143 061a 30       		.byte	0x30
 1144 061b 07       		.uleb128 0x7
 1145 061c 69326300 		.ascii	"i2c\000"
 1146 0620 0C       		.byte	0xc
 1147 0621 CC       		.byte	0xcc
 1148 0622 33060000 		.4byte	0x633
 1149 0626 34       		.byte	0x34
 1150 0627 00       		.byte	0
 1151 0628 09       		.uleb128 0x9
 1152 0629 04       		.byte	0x4
 1153 062a 2E060000 		.4byte	0x62e
 1154 062e 0E       		.uleb128 0xe
 1155 062f 81050000 		.4byte	0x581
 1156 0633 09       		.uleb128 0x9
 1157 0634 04       		.byte	0x4
 1158 0635 E1040000 		.4byte	0x4e1
 1159 0639 15       		.uleb128 0x15
 1160 063a C2020000 		.4byte	.LASF106
 1161 063e 01       		.byte	0x1
 1162 063f 47       		.byte	0x47
 1163 0640 00000000 		.4byte	.LFB39
 1164 0644 08000000 		.4byte	.LFE39-.LFB39
 1165 0648 01       		.uleb128 0x1
 1166 0649 9C       		.byte	0x9c
 1167 064a 58060000 		.4byte	0x658
 1168 064e 16       		.uleb128 0x16
 1169 064f 06000000 		.4byte	.LVL0
 1170 0653 FC080000 		.4byte	0x8fc
 1171 0657 00       		.byte	0
 1172 0658 15       		.uleb128 0x15
 1173 0659 D9020000 		.4byte	.LASF107
 1174 065d 01       		.byte	0x1
 1175 065e 52       		.byte	0x52
 1176 065f 00000000 		.4byte	.LFB40
 1177 0663 12000000 		.4byte	.LFE40-.LFB40
 1178 0667 01       		.uleb128 0x1
 1179 0668 9C       		.byte	0x9c
 1180 0669 90060000 		.4byte	0x690
 1181 066d 17       		.uleb128 0x17
 1182 066e D4020000 		.4byte	.LASF109
 1183 0672 01       		.byte	0x1
 1184 0673 52       		.byte	0x52
 1185 0674 90060000 		.4byte	0x690
 1186 0678 00000000 		.4byte	.LLST0
 1187 067c 18       		.uleb128 0x18
 1188 067d 10000000 		.4byte	.LVL3
 1189 0681 03090000 		.4byte	0x903
 1190 0685 19       		.uleb128 0x19
 1191 0686 01       		.uleb128 0x1
 1192 0687 50       		.byte	0x50
 1193 0688 05       		.uleb128 0x5
 1194 0689 F3       		.byte	0xf3
 1195 068a 01       		.uleb128 0x1
 1196 068b 50       		.byte	0x50
 1197 068c 23       		.byte	0x23
ARM GAS  /tmp/cc2cN3ho.s 			page 22


 1198 068d 0C       		.uleb128 0xc
 1199 068e 00       		.byte	0
 1200 068f 00       		.byte	0
 1201 0690 09       		.uleb128 0x9
 1202 0691 04       		.byte	0x4
 1203 0692 8C050000 		.4byte	0x58c
 1204 0696 15       		.uleb128 0x15
 1205 0697 37020000 		.4byte	.LASF108
 1206 069b 01       		.byte	0x1
 1207 069c 6C       		.byte	0x6c
 1208 069d 00000000 		.4byte	.LFB41
 1209 06a1 14000000 		.4byte	.LFE41-.LFB41
 1210 06a5 01       		.uleb128 0x1
 1211 06a6 9C       		.byte	0x9c
 1212 06a7 DA060000 		.4byte	0x6da
 1213 06ab 17       		.uleb128 0x17
 1214 06ac D4020000 		.4byte	.LASF109
 1215 06b0 01       		.byte	0x1
 1216 06b1 6C       		.byte	0x6c
 1217 06b2 90060000 		.4byte	0x690
 1218 06b6 2E000000 		.4byte	.LLST1
 1219 06ba 17       		.uleb128 0x17
 1220 06bb 13040000 		.4byte	.LASF97
 1221 06bf 01       		.byte	0x1
 1222 06c0 6C       		.byte	0x6c
 1223 06c1 28060000 		.4byte	0x628
 1224 06c5 5A000000 		.4byte	.LLST2
 1225 06c9 18       		.uleb128 0x18
 1226 06ca 0C000000 		.4byte	.LVL5
 1227 06ce 14090000 		.4byte	0x914
 1228 06d2 19       		.uleb128 0x19
 1229 06d3 01       		.uleb128 0x1
 1230 06d4 50       		.byte	0x50
 1231 06d5 02       		.uleb128 0x2
 1232 06d6 74       		.byte	0x74
 1233 06d7 00       		.sleb128 0
 1234 06d8 00       		.byte	0
 1235 06d9 00       		.byte	0
 1236 06da 15       		.uleb128 0x15
 1237 06db 84000000 		.4byte	.LASF110
 1238 06df 01       		.byte	0x1
 1239 06e0 82       		.byte	0x82
 1240 06e1 00000000 		.4byte	.LFB42
 1241 06e5 12000000 		.4byte	.LFE42-.LFB42
 1242 06e9 01       		.uleb128 0x1
 1243 06ea 9C       		.byte	0x9c
 1244 06eb 0F070000 		.4byte	0x70f
 1245 06ef 17       		.uleb128 0x17
 1246 06f0 D4020000 		.4byte	.LASF109
 1247 06f4 01       		.byte	0x1
 1248 06f5 82       		.byte	0x82
 1249 06f6 90060000 		.4byte	0x690
 1250 06fa 7B000000 		.4byte	.LLST3
 1251 06fe 18       		.uleb128 0x18
 1252 06ff 0A000000 		.4byte	.LVL8
 1253 0703 25090000 		.4byte	0x925
 1254 0707 19       		.uleb128 0x19
ARM GAS  /tmp/cc2cN3ho.s 			page 23


 1255 0708 01       		.uleb128 0x1
 1256 0709 50       		.byte	0x50
 1257 070a 02       		.uleb128 0x2
 1258 070b 74       		.byte	0x74
 1259 070c 00       		.sleb128 0
 1260 070d 00       		.byte	0
 1261 070e 00       		.byte	0
 1262 070f 1A       		.uleb128 0x1a
 1263 0710 CF050000 		.4byte	.LASF111
 1264 0714 01       		.byte	0x1
 1265 0715 98       		.byte	0x98
 1266 0716 2F050000 		.4byte	0x52f
 1267 071a 00000000 		.4byte	.LFB43
 1268 071e 04000000 		.4byte	.LFE43-.LFB43
 1269 0722 01       		.uleb128 0x1
 1270 0723 9C       		.byte	0x9c
 1271 0724 38070000 		.4byte	0x738
 1272 0728 17       		.uleb128 0x17
 1273 0729 D4020000 		.4byte	.LASF109
 1274 072d 01       		.byte	0x1
 1275 072e 98       		.byte	0x98
 1276 072f 90060000 		.4byte	0x690
 1277 0733 A7000000 		.4byte	.LLST4
 1278 0737 00       		.byte	0
 1279 0738 1A       		.uleb128 0x1a
 1280 0739 A4000000 		.4byte	.LASF112
 1281 073d 01       		.byte	0x1
 1282 073e B9       		.byte	0xb9
 1283 073f 0C010000 		.4byte	0x10c
 1284 0743 00000000 		.4byte	.LFB44
 1285 0747 36000000 		.4byte	.LFE44-.LFB44
 1286 074b 01       		.uleb128 0x1
 1287 074c 9C       		.byte	0x9c
 1288 074d FB070000 		.4byte	0x7fb
 1289 0751 17       		.uleb128 0x17
 1290 0752 D4020000 		.4byte	.LASF109
 1291 0756 01       		.byte	0x1
 1292 0757 B9       		.byte	0xb9
 1293 0758 90060000 		.4byte	0x690
 1294 075c C8000000 		.4byte	.LLST5
 1295 0760 17       		.uleb128 0x17
 1296 0761 58050000 		.4byte	.LASF101
 1297 0765 01       		.byte	0x1
 1298 0766 BA       		.byte	0xba
 1299 0767 24050000 		.4byte	0x524
 1300 076b F4000000 		.4byte	.LLST6
 1301 076f 17       		.uleb128 0x17
 1302 0770 75010000 		.4byte	.LASF102
 1303 0774 01       		.byte	0x1
 1304 0775 BB       		.byte	0xbb
 1305 0776 CB030000 		.4byte	0x3cb
 1306 077a 15010000 		.4byte	.LLST7
 1307 077e 17       		.uleb128 0x17
 1308 077f DF000000 		.4byte	.LASF103
 1309 0783 01       		.byte	0x1
 1310 0784 BC       		.byte	0xbc
 1311 0785 2C000000 		.4byte	0x2c
ARM GAS  /tmp/cc2cN3ho.s 			page 24


 1312 0789 36010000 		.4byte	.LLST8
 1313 078d 1B       		.uleb128 0x1b
 1314 078e C9050000 		.4byte	.LASF104
 1315 0792 01       		.byte	0x1
 1316 0793 BD       		.byte	0xbd
 1317 0794 C5030000 		.4byte	0x3c5
 1318 0798 02       		.uleb128 0x2
 1319 0799 91       		.byte	0x91
 1320 079a 00       		.sleb128 0
 1321 079b 1B       		.uleb128 0x1b
 1322 079c 51000000 		.4byte	.LASF105
 1323 07a0 01       		.byte	0x1
 1324 07a1 BE       		.byte	0xbe
 1325 07a2 2C000000 		.4byte	0x2c
 1326 07a6 02       		.uleb128 0x2
 1327 07a7 91       		.byte	0x91
 1328 07a8 04       		.sleb128 4
 1329 07a9 1B       		.uleb128 0x1b
 1330 07aa 46050000 		.4byte	.LASF113
 1331 07ae 01       		.byte	0x1
 1332 07af BF       		.byte	0xbf
 1333 07b0 22010000 		.4byte	0x122
 1334 07b4 02       		.uleb128 0x2
 1335 07b5 91       		.byte	0x91
 1336 07b6 08       		.sleb128 8
 1337 07b7 1C       		.uleb128 0x1c
 1338 07b8 A3010000 		.4byte	.LASF57
 1339 07bc 01       		.byte	0x1
 1340 07bd C0       		.byte	0xc0
 1341 07be 0C010000 		.4byte	0x10c
 1342 07c2 01       		.uleb128 0x1
 1343 07c3 50       		.byte	0x50
 1344 07c4 18       		.uleb128 0x18
 1345 07c5 22000000 		.4byte	.LVL14
 1346 07c9 36090000 		.4byte	0x936
 1347 07cd 19       		.uleb128 0x19
 1348 07ce 01       		.uleb128 0x1
 1349 07cf 53       		.byte	0x53
 1350 07d0 03       		.uleb128 0x3
 1351 07d1 F3       		.byte	0xf3
 1352 07d2 01       		.uleb128 0x1
 1353 07d3 53       		.byte	0x53
 1354 07d4 19       		.uleb128 0x19
 1355 07d5 01       		.uleb128 0x1
 1356 07d6 52       		.byte	0x52
 1357 07d7 03       		.uleb128 0x3
 1358 07d8 F3       		.byte	0xf3
 1359 07d9 01       		.uleb128 0x1
 1360 07da 52       		.byte	0x52
 1361 07db 19       		.uleb128 0x19
 1362 07dc 01       		.uleb128 0x1
 1363 07dd 50       		.byte	0x50
 1364 07de 02       		.uleb128 0x2
 1365 07df 74       		.byte	0x74
 1366 07e0 00       		.sleb128 0
 1367 07e1 19       		.uleb128 0x19
 1368 07e2 02       		.uleb128 0x2
ARM GAS  /tmp/cc2cN3ho.s 			page 25


 1369 07e3 7D       		.byte	0x7d
 1370 07e4 08       		.sleb128 8
 1371 07e5 03       		.uleb128 0x3
 1372 07e6 91       		.byte	0x91
 1373 07e7 08       		.sleb128 8
 1374 07e8 06       		.byte	0x6
 1375 07e9 19       		.uleb128 0x19
 1376 07ea 02       		.uleb128 0x2
 1377 07eb 7D       		.byte	0x7d
 1378 07ec 04       		.sleb128 4
 1379 07ed 03       		.uleb128 0x3
 1380 07ee 91       		.byte	0x91
 1381 07ef 04       		.sleb128 4
 1382 07f0 06       		.byte	0x6
 1383 07f1 19       		.uleb128 0x19
 1384 07f2 02       		.uleb128 0x2
 1385 07f3 7D       		.byte	0x7d
 1386 07f4 00       		.sleb128 0
 1387 07f5 03       		.uleb128 0x3
 1388 07f6 91       		.byte	0x91
 1389 07f7 00       		.sleb128 0
 1390 07f8 06       		.byte	0x6
 1391 07f9 00       		.byte	0
 1392 07fa 00       		.byte	0
 1393 07fb 1A       		.uleb128 0x1a
 1394 07fc B4040000 		.4byte	.LASF114
 1395 0800 01       		.byte	0x1
 1396 0801 EC       		.byte	0xec
 1397 0802 0C010000 		.4byte	0x10c
 1398 0806 00000000 		.4byte	.LFB45
 1399 080a 2E000000 		.4byte	.LFE45-.LFB45
 1400 080e 01       		.uleb128 0x1
 1401 080f 9C       		.byte	0x9c
 1402 0810 92080000 		.4byte	0x892
 1403 0814 17       		.uleb128 0x17
 1404 0815 D4020000 		.4byte	.LASF109
 1405 0819 01       		.byte	0x1
 1406 081a EC       		.byte	0xec
 1407 081b 90060000 		.4byte	0x690
 1408 081f 57010000 		.4byte	.LLST9
 1409 0823 17       		.uleb128 0x17
 1410 0824 58050000 		.4byte	.LASF101
 1411 0828 01       		.byte	0x1
 1412 0829 ED       		.byte	0xed
 1413 082a 24050000 		.4byte	0x524
 1414 082e 83010000 		.4byte	.LLST10
 1415 0832 17       		.uleb128 0x17
 1416 0833 C9050000 		.4byte	.LASF104
 1417 0837 01       		.byte	0x1
 1418 0838 EE       		.byte	0xee
 1419 0839 C5030000 		.4byte	0x3c5
 1420 083d A4010000 		.4byte	.LLST11
 1421 0841 17       		.uleb128 0x17
 1422 0842 51000000 		.4byte	.LASF105
 1423 0846 01       		.byte	0x1
 1424 0847 EF       		.byte	0xef
 1425 0848 2C000000 		.4byte	0x2c
ARM GAS  /tmp/cc2cN3ho.s 			page 26


 1426 084c C5010000 		.4byte	.LLST12
 1427 0850 1B       		.uleb128 0x1b
 1428 0851 46050000 		.4byte	.LASF113
 1429 0855 01       		.byte	0x1
 1430 0856 F0       		.byte	0xf0
 1431 0857 22010000 		.4byte	0x122
 1432 085b 02       		.uleb128 0x2
 1433 085c 91       		.byte	0x91
 1434 085d 00       		.sleb128 0
 1435 085e 1C       		.uleb128 0x1c
 1436 085f A3010000 		.4byte	.LASF57
 1437 0863 01       		.byte	0x1
 1438 0864 F2       		.byte	0xf2
 1439 0865 0C010000 		.4byte	0x10c
 1440 0869 01       		.uleb128 0x1
 1441 086a 50       		.byte	0x50
 1442 086b 18       		.uleb128 0x18
 1443 086c 1A000000 		.4byte	.LVL18
 1444 0870 69090000 		.4byte	0x969
 1445 0874 19       		.uleb128 0x19
 1446 0875 01       		.uleb128 0x1
 1447 0876 53       		.byte	0x53
 1448 0877 03       		.uleb128 0x3
 1449 0878 F3       		.byte	0xf3
 1450 0879 01       		.uleb128 0x1
 1451 087a 53       		.byte	0x53
 1452 087b 19       		.uleb128 0x19
 1453 087c 01       		.uleb128 0x1
 1454 087d 52       		.byte	0x52
 1455 087e 03       		.uleb128 0x3
 1456 087f F3       		.byte	0xf3
 1457 0880 01       		.uleb128 0x1
 1458 0881 52       		.byte	0x52
 1459 0882 19       		.uleb128 0x19
 1460 0883 01       		.uleb128 0x1
 1461 0884 50       		.byte	0x50
 1462 0885 02       		.uleb128 0x2
 1463 0886 74       		.byte	0x74
 1464 0887 00       		.sleb128 0
 1465 0888 19       		.uleb128 0x19
 1466 0889 02       		.uleb128 0x2
 1467 088a 7D       		.byte	0x7d
 1468 088b 00       		.sleb128 0
 1469 088c 03       		.uleb128 0x3
 1470 088d 91       		.byte	0x91
 1471 088e 00       		.sleb128 0
 1472 088f 06       		.byte	0x6
 1473 0890 00       		.byte	0
 1474 0891 00       		.byte	0
 1475 0892 1D       		.uleb128 0x1d
 1476 0893 27050000 		.4byte	.LASF115
 1477 0897 01       		.byte	0x1
 1478 0898 1401     		.2byte	0x114
 1479 089a 00000000 		.4byte	.LFB46
 1480 089e 0A000000 		.4byte	.LFE46-.LFB46
 1481 08a2 01       		.uleb128 0x1
 1482 08a3 9C       		.byte	0x9c
ARM GAS  /tmp/cc2cN3ho.s 			page 27


 1483 08a4 CC080000 		.4byte	0x8cc
 1484 08a8 1E       		.uleb128 0x1e
 1485 08a9 D4020000 		.4byte	.LASF109
 1486 08ad 01       		.byte	0x1
 1487 08ae 1401     		.2byte	0x114
 1488 08b0 90060000 		.4byte	0x690
 1489 08b4 E6010000 		.4byte	.LLST13
 1490 08b8 18       		.uleb128 0x18
 1491 08b9 08000000 		.4byte	.LVL22
 1492 08bd 92090000 		.4byte	0x992
 1493 08c1 19       		.uleb128 0x19
 1494 08c2 01       		.uleb128 0x1
 1495 08c3 50       		.byte	0x50
 1496 08c4 05       		.uleb128 0x5
 1497 08c5 F3       		.byte	0xf3
 1498 08c6 01       		.uleb128 0x1
 1499 08c7 50       		.byte	0x50
 1500 08c8 23       		.byte	0x23
 1501 08c9 0C       		.uleb128 0xc
 1502 08ca 00       		.byte	0
 1503 08cb 00       		.byte	0
 1504 08cc 1D       		.uleb128 0x1d
 1505 08cd A1020000 		.4byte	.LASF116
 1506 08d1 01       		.byte	0x1
 1507 08d2 2801     		.2byte	0x128
 1508 08d4 00000000 		.4byte	.LFB47
 1509 08d8 08000000 		.4byte	.LFE47-.LFB47
 1510 08dc 01       		.uleb128 0x1
 1511 08dd 9C       		.byte	0x9c
 1512 08de FC080000 		.4byte	0x8fc
 1513 08e2 1E       		.uleb128 0x1e
 1514 08e3 D4020000 		.4byte	.LASF109
 1515 08e7 01       		.byte	0x1
 1516 08e8 2801     		.2byte	0x128
 1517 08ea 90060000 		.4byte	0x690
 1518 08ee 14020000 		.4byte	.LLST14
 1519 08f2 16       		.uleb128 0x16
 1520 08f3 06000000 		.4byte	.LVL24
 1521 08f7 A3090000 		.4byte	0x9a3
 1522 08fb 00       		.byte	0
 1523 08fc 1F       		.uleb128 0x1f
 1524 08fd C9000000 		.4byte	.LASF126
 1525 0901 0C       		.byte	0xc
 1526 0902 EA       		.byte	0xea
 1527 0903 20       		.uleb128 0x20
 1528 0904 86010000 		.4byte	.LASF117
 1529 0908 09       		.byte	0x9
 1530 0909 38       		.byte	0x38
 1531 090a 14090000 		.4byte	0x914
 1532 090e 21       		.uleb128 0x21
 1533 090f BF030000 		.4byte	0x3bf
 1534 0913 00       		.byte	0
 1535 0914 20       		.uleb128 0x20
 1536 0915 93020000 		.4byte	.LASF118
 1537 0919 0C       		.byte	0xc
 1538 091a EB       		.byte	0xeb
 1539 091b 25090000 		.4byte	0x925
ARM GAS  /tmp/cc2cN3ho.s 			page 28


 1540 091f 21       		.uleb128 0x21
 1541 0920 90060000 		.4byte	0x690
 1542 0924 00       		.byte	0
 1543 0925 20       		.uleb128 0x20
 1544 0926 74040000 		.4byte	.LASF119
 1545 092a 0C       		.byte	0xc
 1546 092b EC       		.byte	0xec
 1547 092c 36090000 		.4byte	0x936
 1548 0930 21       		.uleb128 0x21
 1549 0931 90060000 		.4byte	0x690
 1550 0935 00       		.byte	0
 1551 0936 22       		.uleb128 0x22
 1552 0937 F5020000 		.4byte	.LASF120
 1553 093b 0C       		.byte	0xc
 1554 093c ED       		.byte	0xed
 1555 093d 0C010000 		.4byte	0x10c
 1556 0941 69090000 		.4byte	0x969
 1557 0945 21       		.uleb128 0x21
 1558 0946 90060000 		.4byte	0x690
 1559 094a 21       		.uleb128 0x21
 1560 094b 24050000 		.4byte	0x524
 1561 094f 21       		.uleb128 0x21
 1562 0950 CB030000 		.4byte	0x3cb
 1563 0954 21       		.uleb128 0x21
 1564 0955 2C000000 		.4byte	0x2c
 1565 0959 21       		.uleb128 0x21
 1566 095a C5030000 		.4byte	0x3c5
 1567 095e 21       		.uleb128 0x21
 1568 095f 2C000000 		.4byte	0x2c
 1569 0963 21       		.uleb128 0x21
 1570 0964 22010000 		.4byte	0x122
 1571 0968 00       		.byte	0
 1572 0969 22       		.uleb128 0x22
 1573 096a EA030000 		.4byte	.LASF121
 1574 096e 0C       		.byte	0xc
 1575 096f F1       		.byte	0xf1
 1576 0970 0C010000 		.4byte	0x10c
 1577 0974 92090000 		.4byte	0x992
 1578 0978 21       		.uleb128 0x21
 1579 0979 90060000 		.4byte	0x690
 1580 097d 21       		.uleb128 0x21
 1581 097e 24050000 		.4byte	0x524
 1582 0982 21       		.uleb128 0x21
 1583 0983 C5030000 		.4byte	0x3c5
 1584 0987 21       		.uleb128 0x21
 1585 0988 2C000000 		.4byte	0x2c
 1586 098c 21       		.uleb128 0x21
 1587 098d 22010000 		.4byte	0x122
 1588 0991 00       		.byte	0
 1589 0992 20       		.uleb128 0x20
 1590 0993 3C050000 		.4byte	.LASF122
 1591 0997 09       		.byte	0x9
 1592 0998 39       		.byte	0x39
 1593 0999 A3090000 		.4byte	0x9a3
 1594 099d 21       		.uleb128 0x21
 1595 099e BF030000 		.4byte	0x3bf
 1596 09a2 00       		.byte	0
ARM GAS  /tmp/cc2cN3ho.s 			page 29


 1597 09a3 23       		.uleb128 0x23
 1598 09a4 4E020000 		.4byte	.LASF127
 1599 09a8 09       		.byte	0x9
 1600 09a9 3D       		.byte	0x3d
 1601 09aa BF030000 		.4byte	0x3bf
 1602 09ae 00       		.byte	0
 1603              		.section	.debug_abbrev,"",%progbits
 1604              	.Ldebug_abbrev0:
 1605 0000 01       		.uleb128 0x1
 1606 0001 11       		.uleb128 0x11
 1607 0002 01       		.byte	0x1
 1608 0003 25       		.uleb128 0x25
 1609 0004 0E       		.uleb128 0xe
 1610 0005 13       		.uleb128 0x13
 1611 0006 0B       		.uleb128 0xb
 1612 0007 03       		.uleb128 0x3
 1613 0008 0E       		.uleb128 0xe
 1614 0009 1B       		.uleb128 0x1b
 1615 000a 0E       		.uleb128 0xe
 1616 000b 55       		.uleb128 0x55
 1617 000c 17       		.uleb128 0x17
 1618 000d 11       		.uleb128 0x11
 1619 000e 01       		.uleb128 0x1
 1620 000f 10       		.uleb128 0x10
 1621 0010 17       		.uleb128 0x17
 1622 0011 00       		.byte	0
 1623 0012 00       		.byte	0
 1624 0013 02       		.uleb128 0x2
 1625 0014 24       		.uleb128 0x24
 1626 0015 00       		.byte	0
 1627 0016 0B       		.uleb128 0xb
 1628 0017 0B       		.uleb128 0xb
 1629 0018 3E       		.uleb128 0x3e
 1630 0019 0B       		.uleb128 0xb
 1631 001a 03       		.uleb128 0x3
 1632 001b 08       		.uleb128 0x8
 1633 001c 00       		.byte	0
 1634 001d 00       		.byte	0
 1635 001e 03       		.uleb128 0x3
 1636 001f 16       		.uleb128 0x16
 1637 0020 00       		.byte	0
 1638 0021 03       		.uleb128 0x3
 1639 0022 0E       		.uleb128 0xe
 1640 0023 3A       		.uleb128 0x3a
 1641 0024 0B       		.uleb128 0xb
 1642 0025 3B       		.uleb128 0x3b
 1643 0026 0B       		.uleb128 0xb
 1644 0027 49       		.uleb128 0x49
 1645 0028 13       		.uleb128 0x13
 1646 0029 00       		.byte	0
 1647 002a 00       		.byte	0
 1648 002b 04       		.uleb128 0x4
 1649 002c 24       		.uleb128 0x24
 1650 002d 00       		.byte	0
 1651 002e 0B       		.uleb128 0xb
 1652 002f 0B       		.uleb128 0xb
 1653 0030 3E       		.uleb128 0x3e
ARM GAS  /tmp/cc2cN3ho.s 			page 30


 1654 0031 0B       		.uleb128 0xb
 1655 0032 03       		.uleb128 0x3
 1656 0033 0E       		.uleb128 0xe
 1657 0034 00       		.byte	0
 1658 0035 00       		.byte	0
 1659 0036 05       		.uleb128 0x5
 1660 0037 13       		.uleb128 0x13
 1661 0038 01       		.byte	0x1
 1662 0039 03       		.uleb128 0x3
 1663 003a 0E       		.uleb128 0xe
 1664 003b 0B       		.uleb128 0xb
 1665 003c 0B       		.uleb128 0xb
 1666 003d 3A       		.uleb128 0x3a
 1667 003e 0B       		.uleb128 0xb
 1668 003f 3B       		.uleb128 0x3b
 1669 0040 0B       		.uleb128 0xb
 1670 0041 01       		.uleb128 0x1
 1671 0042 13       		.uleb128 0x13
 1672 0043 00       		.byte	0
 1673 0044 00       		.byte	0
 1674 0045 06       		.uleb128 0x6
 1675 0046 0D       		.uleb128 0xd
 1676 0047 00       		.byte	0
 1677 0048 03       		.uleb128 0x3
 1678 0049 0E       		.uleb128 0xe
 1679 004a 3A       		.uleb128 0x3a
 1680 004b 0B       		.uleb128 0xb
 1681 004c 3B       		.uleb128 0x3b
 1682 004d 0B       		.uleb128 0xb
 1683 004e 49       		.uleb128 0x49
 1684 004f 13       		.uleb128 0x13
 1685 0050 38       		.uleb128 0x38
 1686 0051 0B       		.uleb128 0xb
 1687 0052 00       		.byte	0
 1688 0053 00       		.byte	0
 1689 0054 07       		.uleb128 0x7
 1690 0055 0D       		.uleb128 0xd
 1691 0056 00       		.byte	0
 1692 0057 03       		.uleb128 0x3
 1693 0058 08       		.uleb128 0x8
 1694 0059 3A       		.uleb128 0x3a
 1695 005a 0B       		.uleb128 0xb
 1696 005b 3B       		.uleb128 0x3b
 1697 005c 0B       		.uleb128 0xb
 1698 005d 49       		.uleb128 0x49
 1699 005e 13       		.uleb128 0x13
 1700 005f 38       		.uleb128 0x38
 1701 0060 0B       		.uleb128 0xb
 1702 0061 00       		.byte	0
 1703 0062 00       		.byte	0
 1704 0063 08       		.uleb128 0x8
 1705 0064 13       		.uleb128 0x13
 1706 0065 01       		.byte	0x1
 1707 0066 0B       		.uleb128 0xb
 1708 0067 0B       		.uleb128 0xb
 1709 0068 3A       		.uleb128 0x3a
 1710 0069 0B       		.uleb128 0xb
ARM GAS  /tmp/cc2cN3ho.s 			page 31


 1711 006a 3B       		.uleb128 0x3b
 1712 006b 0B       		.uleb128 0xb
 1713 006c 01       		.uleb128 0x1
 1714 006d 13       		.uleb128 0x13
 1715 006e 00       		.byte	0
 1716 006f 00       		.byte	0
 1717 0070 09       		.uleb128 0x9
 1718 0071 0F       		.uleb128 0xf
 1719 0072 00       		.byte	0
 1720 0073 0B       		.uleb128 0xb
 1721 0074 0B       		.uleb128 0xb
 1722 0075 49       		.uleb128 0x49
 1723 0076 13       		.uleb128 0x13
 1724 0077 00       		.byte	0
 1725 0078 00       		.byte	0
 1726 0079 0A       		.uleb128 0xa
 1727 007a 0F       		.uleb128 0xf
 1728 007b 00       		.byte	0
 1729 007c 0B       		.uleb128 0xb
 1730 007d 0B       		.uleb128 0xb
 1731 007e 00       		.byte	0
 1732 007f 00       		.byte	0
 1733 0080 0B       		.uleb128 0xb
 1734 0081 35       		.uleb128 0x35
 1735 0082 00       		.byte	0
 1736 0083 49       		.uleb128 0x49
 1737 0084 13       		.uleb128 0x13
 1738 0085 00       		.byte	0
 1739 0086 00       		.byte	0
 1740 0087 0C       		.uleb128 0xc
 1741 0088 17       		.uleb128 0x17
 1742 0089 01       		.byte	0x1
 1743 008a 0B       		.uleb128 0xb
 1744 008b 0B       		.uleb128 0xb
 1745 008c 3A       		.uleb128 0x3a
 1746 008d 0B       		.uleb128 0xb
 1747 008e 3B       		.uleb128 0x3b
 1748 008f 0B       		.uleb128 0xb
 1749 0090 01       		.uleb128 0x1
 1750 0091 13       		.uleb128 0x13
 1751 0092 00       		.byte	0
 1752 0093 00       		.byte	0
 1753 0094 0D       		.uleb128 0xd
 1754 0095 0D       		.uleb128 0xd
 1755 0096 00       		.byte	0
 1756 0097 03       		.uleb128 0x3
 1757 0098 0E       		.uleb128 0xe
 1758 0099 3A       		.uleb128 0x3a
 1759 009a 0B       		.uleb128 0xb
 1760 009b 3B       		.uleb128 0x3b
 1761 009c 0B       		.uleb128 0xb
 1762 009d 49       		.uleb128 0x49
 1763 009e 13       		.uleb128 0x13
 1764 009f 00       		.byte	0
 1765 00a0 00       		.byte	0
 1766 00a1 0E       		.uleb128 0xe
 1767 00a2 26       		.uleb128 0x26
ARM GAS  /tmp/cc2cN3ho.s 			page 32


 1768 00a3 00       		.byte	0
 1769 00a4 49       		.uleb128 0x49
 1770 00a5 13       		.uleb128 0x13
 1771 00a6 00       		.byte	0
 1772 00a7 00       		.byte	0
 1773 00a8 0F       		.uleb128 0xf
 1774 00a9 0D       		.uleb128 0xd
 1775 00aa 00       		.byte	0
 1776 00ab 49       		.uleb128 0x49
 1777 00ac 13       		.uleb128 0x13
 1778 00ad 00       		.byte	0
 1779 00ae 00       		.byte	0
 1780 00af 10       		.uleb128 0x10
 1781 00b0 01       		.uleb128 0x1
 1782 00b1 01       		.byte	0x1
 1783 00b2 49       		.uleb128 0x49
 1784 00b3 13       		.uleb128 0x13
 1785 00b4 01       		.uleb128 0x1
 1786 00b5 13       		.uleb128 0x13
 1787 00b6 00       		.byte	0
 1788 00b7 00       		.byte	0
 1789 00b8 11       		.uleb128 0x11
 1790 00b9 21       		.uleb128 0x21
 1791 00ba 00       		.byte	0
 1792 00bb 49       		.uleb128 0x49
 1793 00bc 13       		.uleb128 0x13
 1794 00bd 2F       		.uleb128 0x2f
 1795 00be 0B       		.uleb128 0xb
 1796 00bf 00       		.byte	0
 1797 00c0 00       		.byte	0
 1798 00c1 12       		.uleb128 0x12
 1799 00c2 0D       		.uleb128 0xd
 1800 00c3 00       		.byte	0
 1801 00c4 49       		.uleb128 0x49
 1802 00c5 13       		.uleb128 0x13
 1803 00c6 38       		.uleb128 0x38
 1804 00c7 0B       		.uleb128 0xb
 1805 00c8 00       		.byte	0
 1806 00c9 00       		.byte	0
 1807 00ca 13       		.uleb128 0x13
 1808 00cb 04       		.uleb128 0x4
 1809 00cc 01       		.byte	0x1
 1810 00cd 0B       		.uleb128 0xb
 1811 00ce 0B       		.uleb128 0xb
 1812 00cf 3A       		.uleb128 0x3a
 1813 00d0 0B       		.uleb128 0xb
 1814 00d1 3B       		.uleb128 0x3b
 1815 00d2 0B       		.uleb128 0xb
 1816 00d3 01       		.uleb128 0x1
 1817 00d4 13       		.uleb128 0x13
 1818 00d5 00       		.byte	0
 1819 00d6 00       		.byte	0
 1820 00d7 14       		.uleb128 0x14
 1821 00d8 28       		.uleb128 0x28
 1822 00d9 00       		.byte	0
 1823 00da 03       		.uleb128 0x3
 1824 00db 0E       		.uleb128 0xe
ARM GAS  /tmp/cc2cN3ho.s 			page 33


 1825 00dc 1C       		.uleb128 0x1c
 1826 00dd 0D       		.uleb128 0xd
 1827 00de 00       		.byte	0
 1828 00df 00       		.byte	0
 1829 00e0 15       		.uleb128 0x15
 1830 00e1 2E       		.uleb128 0x2e
 1831 00e2 01       		.byte	0x1
 1832 00e3 3F       		.uleb128 0x3f
 1833 00e4 19       		.uleb128 0x19
 1834 00e5 03       		.uleb128 0x3
 1835 00e6 0E       		.uleb128 0xe
 1836 00e7 3A       		.uleb128 0x3a
 1837 00e8 0B       		.uleb128 0xb
 1838 00e9 3B       		.uleb128 0x3b
 1839 00ea 0B       		.uleb128 0xb
 1840 00eb 27       		.uleb128 0x27
 1841 00ec 19       		.uleb128 0x19
 1842 00ed 11       		.uleb128 0x11
 1843 00ee 01       		.uleb128 0x1
 1844 00ef 12       		.uleb128 0x12
 1845 00f0 06       		.uleb128 0x6
 1846 00f1 40       		.uleb128 0x40
 1847 00f2 18       		.uleb128 0x18
 1848 00f3 9742     		.uleb128 0x2117
 1849 00f5 19       		.uleb128 0x19
 1850 00f6 01       		.uleb128 0x1
 1851 00f7 13       		.uleb128 0x13
 1852 00f8 00       		.byte	0
 1853 00f9 00       		.byte	0
 1854 00fa 16       		.uleb128 0x16
 1855 00fb 898201   		.uleb128 0x4109
 1856 00fe 00       		.byte	0
 1857 00ff 11       		.uleb128 0x11
 1858 0100 01       		.uleb128 0x1
 1859 0101 31       		.uleb128 0x31
 1860 0102 13       		.uleb128 0x13
 1861 0103 00       		.byte	0
 1862 0104 00       		.byte	0
 1863 0105 17       		.uleb128 0x17
 1864 0106 05       		.uleb128 0x5
 1865 0107 00       		.byte	0
 1866 0108 03       		.uleb128 0x3
 1867 0109 0E       		.uleb128 0xe
 1868 010a 3A       		.uleb128 0x3a
 1869 010b 0B       		.uleb128 0xb
 1870 010c 3B       		.uleb128 0x3b
 1871 010d 0B       		.uleb128 0xb
 1872 010e 49       		.uleb128 0x49
 1873 010f 13       		.uleb128 0x13
 1874 0110 02       		.uleb128 0x2
 1875 0111 17       		.uleb128 0x17
 1876 0112 00       		.byte	0
 1877 0113 00       		.byte	0
 1878 0114 18       		.uleb128 0x18
 1879 0115 898201   		.uleb128 0x4109
 1880 0118 01       		.byte	0x1
 1881 0119 11       		.uleb128 0x11
ARM GAS  /tmp/cc2cN3ho.s 			page 34


 1882 011a 01       		.uleb128 0x1
 1883 011b 31       		.uleb128 0x31
 1884 011c 13       		.uleb128 0x13
 1885 011d 00       		.byte	0
 1886 011e 00       		.byte	0
 1887 011f 19       		.uleb128 0x19
 1888 0120 8A8201   		.uleb128 0x410a
 1889 0123 00       		.byte	0
 1890 0124 02       		.uleb128 0x2
 1891 0125 18       		.uleb128 0x18
 1892 0126 9142     		.uleb128 0x2111
 1893 0128 18       		.uleb128 0x18
 1894 0129 00       		.byte	0
 1895 012a 00       		.byte	0
 1896 012b 1A       		.uleb128 0x1a
 1897 012c 2E       		.uleb128 0x2e
 1898 012d 01       		.byte	0x1
 1899 012e 3F       		.uleb128 0x3f
 1900 012f 19       		.uleb128 0x19
 1901 0130 03       		.uleb128 0x3
 1902 0131 0E       		.uleb128 0xe
 1903 0132 3A       		.uleb128 0x3a
 1904 0133 0B       		.uleb128 0xb
 1905 0134 3B       		.uleb128 0x3b
 1906 0135 0B       		.uleb128 0xb
 1907 0136 27       		.uleb128 0x27
 1908 0137 19       		.uleb128 0x19
 1909 0138 49       		.uleb128 0x49
 1910 0139 13       		.uleb128 0x13
 1911 013a 11       		.uleb128 0x11
 1912 013b 01       		.uleb128 0x1
 1913 013c 12       		.uleb128 0x12
 1914 013d 06       		.uleb128 0x6
 1915 013e 40       		.uleb128 0x40
 1916 013f 18       		.uleb128 0x18
 1917 0140 9742     		.uleb128 0x2117
 1918 0142 19       		.uleb128 0x19
 1919 0143 01       		.uleb128 0x1
 1920 0144 13       		.uleb128 0x13
 1921 0145 00       		.byte	0
 1922 0146 00       		.byte	0
 1923 0147 1B       		.uleb128 0x1b
 1924 0148 05       		.uleb128 0x5
 1925 0149 00       		.byte	0
 1926 014a 03       		.uleb128 0x3
 1927 014b 0E       		.uleb128 0xe
 1928 014c 3A       		.uleb128 0x3a
 1929 014d 0B       		.uleb128 0xb
 1930 014e 3B       		.uleb128 0x3b
 1931 014f 0B       		.uleb128 0xb
 1932 0150 49       		.uleb128 0x49
 1933 0151 13       		.uleb128 0x13
 1934 0152 02       		.uleb128 0x2
 1935 0153 18       		.uleb128 0x18
 1936 0154 00       		.byte	0
 1937 0155 00       		.byte	0
 1938 0156 1C       		.uleb128 0x1c
ARM GAS  /tmp/cc2cN3ho.s 			page 35


 1939 0157 34       		.uleb128 0x34
 1940 0158 00       		.byte	0
 1941 0159 03       		.uleb128 0x3
 1942 015a 0E       		.uleb128 0xe
 1943 015b 3A       		.uleb128 0x3a
 1944 015c 0B       		.uleb128 0xb
 1945 015d 3B       		.uleb128 0x3b
 1946 015e 0B       		.uleb128 0xb
 1947 015f 49       		.uleb128 0x49
 1948 0160 13       		.uleb128 0x13
 1949 0161 02       		.uleb128 0x2
 1950 0162 18       		.uleb128 0x18
 1951 0163 00       		.byte	0
 1952 0164 00       		.byte	0
 1953 0165 1D       		.uleb128 0x1d
 1954 0166 2E       		.uleb128 0x2e
 1955 0167 01       		.byte	0x1
 1956 0168 3F       		.uleb128 0x3f
 1957 0169 19       		.uleb128 0x19
 1958 016a 03       		.uleb128 0x3
 1959 016b 0E       		.uleb128 0xe
 1960 016c 3A       		.uleb128 0x3a
 1961 016d 0B       		.uleb128 0xb
 1962 016e 3B       		.uleb128 0x3b
 1963 016f 05       		.uleb128 0x5
 1964 0170 27       		.uleb128 0x27
 1965 0171 19       		.uleb128 0x19
 1966 0172 11       		.uleb128 0x11
 1967 0173 01       		.uleb128 0x1
 1968 0174 12       		.uleb128 0x12
 1969 0175 06       		.uleb128 0x6
 1970 0176 40       		.uleb128 0x40
 1971 0177 18       		.uleb128 0x18
 1972 0178 9742     		.uleb128 0x2117
 1973 017a 19       		.uleb128 0x19
 1974 017b 01       		.uleb128 0x1
 1975 017c 13       		.uleb128 0x13
 1976 017d 00       		.byte	0
 1977 017e 00       		.byte	0
 1978 017f 1E       		.uleb128 0x1e
 1979 0180 05       		.uleb128 0x5
 1980 0181 00       		.byte	0
 1981 0182 03       		.uleb128 0x3
 1982 0183 0E       		.uleb128 0xe
 1983 0184 3A       		.uleb128 0x3a
 1984 0185 0B       		.uleb128 0xb
 1985 0186 3B       		.uleb128 0x3b
 1986 0187 05       		.uleb128 0x5
 1987 0188 49       		.uleb128 0x49
 1988 0189 13       		.uleb128 0x13
 1989 018a 02       		.uleb128 0x2
 1990 018b 17       		.uleb128 0x17
 1991 018c 00       		.byte	0
 1992 018d 00       		.byte	0
 1993 018e 1F       		.uleb128 0x1f
 1994 018f 2E       		.uleb128 0x2e
 1995 0190 00       		.byte	0
ARM GAS  /tmp/cc2cN3ho.s 			page 36


 1996 0191 3F       		.uleb128 0x3f
 1997 0192 19       		.uleb128 0x19
 1998 0193 03       		.uleb128 0x3
 1999 0194 0E       		.uleb128 0xe
 2000 0195 3A       		.uleb128 0x3a
 2001 0196 0B       		.uleb128 0xb
 2002 0197 3B       		.uleb128 0x3b
 2003 0198 0B       		.uleb128 0xb
 2004 0199 27       		.uleb128 0x27
 2005 019a 19       		.uleb128 0x19
 2006 019b 3C       		.uleb128 0x3c
 2007 019c 19       		.uleb128 0x19
 2008 019d 00       		.byte	0
 2009 019e 00       		.byte	0
 2010 019f 20       		.uleb128 0x20
 2011 01a0 2E       		.uleb128 0x2e
 2012 01a1 01       		.byte	0x1
 2013 01a2 3F       		.uleb128 0x3f
 2014 01a3 19       		.uleb128 0x19
 2015 01a4 03       		.uleb128 0x3
 2016 01a5 0E       		.uleb128 0xe
 2017 01a6 3A       		.uleb128 0x3a
 2018 01a7 0B       		.uleb128 0xb
 2019 01a8 3B       		.uleb128 0x3b
 2020 01a9 0B       		.uleb128 0xb
 2021 01aa 27       		.uleb128 0x27
 2022 01ab 19       		.uleb128 0x19
 2023 01ac 3C       		.uleb128 0x3c
 2024 01ad 19       		.uleb128 0x19
 2025 01ae 01       		.uleb128 0x1
 2026 01af 13       		.uleb128 0x13
 2027 01b0 00       		.byte	0
 2028 01b1 00       		.byte	0
 2029 01b2 21       		.uleb128 0x21
 2030 01b3 05       		.uleb128 0x5
 2031 01b4 00       		.byte	0
 2032 01b5 49       		.uleb128 0x49
 2033 01b6 13       		.uleb128 0x13
 2034 01b7 00       		.byte	0
 2035 01b8 00       		.byte	0
 2036 01b9 22       		.uleb128 0x22
 2037 01ba 2E       		.uleb128 0x2e
 2038 01bb 01       		.byte	0x1
 2039 01bc 3F       		.uleb128 0x3f
 2040 01bd 19       		.uleb128 0x19
 2041 01be 03       		.uleb128 0x3
 2042 01bf 0E       		.uleb128 0xe
 2043 01c0 3A       		.uleb128 0x3a
 2044 01c1 0B       		.uleb128 0xb
 2045 01c2 3B       		.uleb128 0x3b
 2046 01c3 0B       		.uleb128 0xb
 2047 01c4 27       		.uleb128 0x27
 2048 01c5 19       		.uleb128 0x19
 2049 01c6 49       		.uleb128 0x49
 2050 01c7 13       		.uleb128 0x13
 2051 01c8 3C       		.uleb128 0x3c
 2052 01c9 19       		.uleb128 0x19
ARM GAS  /tmp/cc2cN3ho.s 			page 37


 2053 01ca 01       		.uleb128 0x1
 2054 01cb 13       		.uleb128 0x13
 2055 01cc 00       		.byte	0
 2056 01cd 00       		.byte	0
 2057 01ce 23       		.uleb128 0x23
 2058 01cf 2E       		.uleb128 0x2e
 2059 01d0 00       		.byte	0
 2060 01d1 3F       		.uleb128 0x3f
 2061 01d2 19       		.uleb128 0x19
 2062 01d3 03       		.uleb128 0x3
 2063 01d4 0E       		.uleb128 0xe
 2064 01d5 3A       		.uleb128 0x3a
 2065 01d6 0B       		.uleb128 0xb
 2066 01d7 3B       		.uleb128 0x3b
 2067 01d8 0B       		.uleb128 0xb
 2068 01d9 27       		.uleb128 0x27
 2069 01da 19       		.uleb128 0x19
 2070 01db 49       		.uleb128 0x49
 2071 01dc 13       		.uleb128 0x13
 2072 01dd 3C       		.uleb128 0x3c
 2073 01de 19       		.uleb128 0x19
 2074 01df 00       		.byte	0
 2075 01e0 00       		.byte	0
 2076 01e1 00       		.byte	0
 2077              		.section	.debug_loc,"",%progbits
 2078              	.Ldebug_loc0:
 2079              	.LLST0:
 2080 0000 00000000 		.4byte	.LVL1
 2081 0004 0C000000 		.4byte	.LVL2
 2082 0008 0100     		.2byte	0x1
 2083 000a 50       		.byte	0x50
 2084 000b 0C000000 		.4byte	.LVL2
 2085 000f 0F000000 		.4byte	.LVL3-1
 2086 0013 0300     		.2byte	0x3
 2087 0015 70       		.byte	0x70
 2088 0016 74       		.sleb128 -12
 2089 0017 9F       		.byte	0x9f
 2090 0018 0F000000 		.4byte	.LVL3-1
 2091 001c 12000000 		.4byte	.LFE40
 2092 0020 0400     		.2byte	0x4
 2093 0022 F3       		.byte	0xf3
 2094 0023 01       		.uleb128 0x1
 2095 0024 50       		.byte	0x50
 2096 0025 9F       		.byte	0x9f
 2097 0026 00000000 		.4byte	0
 2098 002a 00000000 		.4byte	0
 2099              	.LLST1:
 2100 002e 00000000 		.4byte	.LVL4
 2101 0032 0B000000 		.4byte	.LVL5-1
 2102 0036 0100     		.2byte	0x1
 2103 0038 50       		.byte	0x50
 2104 0039 0B000000 		.4byte	.LVL5-1
 2105 003d 12000000 		.4byte	.LVL6
 2106 0041 0100     		.2byte	0x1
 2107 0043 54       		.byte	0x54
 2108 0044 12000000 		.4byte	.LVL6
 2109 0048 14000000 		.4byte	.LFE41
ARM GAS  /tmp/cc2cN3ho.s 			page 38


 2110 004c 0400     		.2byte	0x4
 2111 004e F3       		.byte	0xf3
 2112 004f 01       		.uleb128 0x1
 2113 0050 50       		.byte	0x50
 2114 0051 9F       		.byte	0x9f
 2115 0052 00000000 		.4byte	0
 2116 0056 00000000 		.4byte	0
 2117              	.LLST2:
 2118 005a 00000000 		.4byte	.LVL4
 2119 005e 0B000000 		.4byte	.LVL5-1
 2120 0062 0100     		.2byte	0x1
 2121 0064 51       		.byte	0x51
 2122 0065 0B000000 		.4byte	.LVL5-1
 2123 0069 14000000 		.4byte	.LFE41
 2124 006d 0400     		.2byte	0x4
 2125 006f F3       		.byte	0xf3
 2126 0070 01       		.uleb128 0x1
 2127 0071 51       		.byte	0x51
 2128 0072 9F       		.byte	0x9f
 2129 0073 00000000 		.4byte	0
 2130 0077 00000000 		.4byte	0
 2131              	.LLST3:
 2132 007b 00000000 		.4byte	.LVL7
 2133 007f 09000000 		.4byte	.LVL8-1
 2134 0083 0100     		.2byte	0x1
 2135 0085 50       		.byte	0x50
 2136 0086 09000000 		.4byte	.LVL8-1
 2137 008a 10000000 		.4byte	.LVL9
 2138 008e 0100     		.2byte	0x1
 2139 0090 54       		.byte	0x54
 2140 0091 10000000 		.4byte	.LVL9
 2141 0095 12000000 		.4byte	.LFE42
 2142 0099 0400     		.2byte	0x4
 2143 009b F3       		.byte	0xf3
 2144 009c 01       		.uleb128 0x1
 2145 009d 50       		.byte	0x50
 2146 009e 9F       		.byte	0x9f
 2147 009f 00000000 		.4byte	0
 2148 00a3 00000000 		.4byte	0
 2149              	.LLST4:
 2150 00a7 00000000 		.4byte	.LVL10
 2151 00ab 02000000 		.4byte	.LVL11
 2152 00af 0100     		.2byte	0x1
 2153 00b1 50       		.byte	0x50
 2154 00b2 02000000 		.4byte	.LVL11
 2155 00b6 04000000 		.4byte	.LFE43
 2156 00ba 0400     		.2byte	0x4
 2157 00bc F3       		.byte	0xf3
 2158 00bd 01       		.uleb128 0x1
 2159 00be 50       		.byte	0x50
 2160 00bf 9F       		.byte	0x9f
 2161 00c0 00000000 		.4byte	0
 2162 00c4 00000000 		.4byte	0
 2163              	.LLST5:
 2164 00c8 00000000 		.4byte	.LVL12
 2165 00cc 0A000000 		.4byte	.LVL13
 2166 00d0 0100     		.2byte	0x1
ARM GAS  /tmp/cc2cN3ho.s 			page 39


 2167 00d2 50       		.byte	0x50
 2168 00d3 0A000000 		.4byte	.LVL13
 2169 00d7 34000000 		.4byte	.LVL15
 2170 00db 0100     		.2byte	0x1
 2171 00dd 54       		.byte	0x54
 2172 00de 34000000 		.4byte	.LVL15
 2173 00e2 36000000 		.4byte	.LFE44
 2174 00e6 0400     		.2byte	0x4
 2175 00e8 F3       		.byte	0xf3
 2176 00e9 01       		.uleb128 0x1
 2177 00ea 50       		.byte	0x50
 2178 00eb 9F       		.byte	0x9f
 2179 00ec 00000000 		.4byte	0
 2180 00f0 00000000 		.4byte	0
 2181              	.LLST6:
 2182 00f4 00000000 		.4byte	.LVL12
 2183 00f8 21000000 		.4byte	.LVL14-1
 2184 00fc 0100     		.2byte	0x1
 2185 00fe 51       		.byte	0x51
 2186 00ff 21000000 		.4byte	.LVL14-1
 2187 0103 36000000 		.4byte	.LFE44
 2188 0107 0400     		.2byte	0x4
 2189 0109 F3       		.byte	0xf3
 2190 010a 01       		.uleb128 0x1
 2191 010b 51       		.byte	0x51
 2192 010c 9F       		.byte	0x9f
 2193 010d 00000000 		.4byte	0
 2194 0111 00000000 		.4byte	0
 2195              	.LLST7:
 2196 0115 00000000 		.4byte	.LVL12
 2197 0119 21000000 		.4byte	.LVL14-1
 2198 011d 0100     		.2byte	0x1
 2199 011f 52       		.byte	0x52
 2200 0120 21000000 		.4byte	.LVL14-1
 2201 0124 36000000 		.4byte	.LFE44
 2202 0128 0400     		.2byte	0x4
 2203 012a F3       		.byte	0xf3
 2204 012b 01       		.uleb128 0x1
 2205 012c 52       		.byte	0x52
 2206 012d 9F       		.byte	0x9f
 2207 012e 00000000 		.4byte	0
 2208 0132 00000000 		.4byte	0
 2209              	.LLST8:
 2210 0136 00000000 		.4byte	.LVL12
 2211 013a 21000000 		.4byte	.LVL14-1
 2212 013e 0100     		.2byte	0x1
 2213 0140 53       		.byte	0x53
 2214 0141 21000000 		.4byte	.LVL14-1
 2215 0145 36000000 		.4byte	.LFE44
 2216 0149 0400     		.2byte	0x4
 2217 014b F3       		.byte	0xf3
 2218 014c 01       		.uleb128 0x1
 2219 014d 53       		.byte	0x53
 2220 014e 9F       		.byte	0x9f
 2221 014f 00000000 		.4byte	0
 2222 0153 00000000 		.4byte	0
 2223              	.LLST9:
ARM GAS  /tmp/cc2cN3ho.s 			page 40


 2224 0157 00000000 		.4byte	.LVL16
 2225 015b 0A000000 		.4byte	.LVL17
 2226 015f 0100     		.2byte	0x1
 2227 0161 50       		.byte	0x50
 2228 0162 0A000000 		.4byte	.LVL17
 2229 0166 2C000000 		.4byte	.LVL19
 2230 016a 0100     		.2byte	0x1
 2231 016c 54       		.byte	0x54
 2232 016d 2C000000 		.4byte	.LVL19
 2233 0171 2E000000 		.4byte	.LFE45
 2234 0175 0400     		.2byte	0x4
 2235 0177 F3       		.byte	0xf3
 2236 0178 01       		.uleb128 0x1
 2237 0179 50       		.byte	0x50
 2238 017a 9F       		.byte	0x9f
 2239 017b 00000000 		.4byte	0
 2240 017f 00000000 		.4byte	0
 2241              	.LLST10:
 2242 0183 00000000 		.4byte	.LVL16
 2243 0187 19000000 		.4byte	.LVL18-1
 2244 018b 0100     		.2byte	0x1
 2245 018d 51       		.byte	0x51
 2246 018e 19000000 		.4byte	.LVL18-1
 2247 0192 2E000000 		.4byte	.LFE45
 2248 0196 0400     		.2byte	0x4
 2249 0198 F3       		.byte	0xf3
 2250 0199 01       		.uleb128 0x1
 2251 019a 51       		.byte	0x51
 2252 019b 9F       		.byte	0x9f
 2253 019c 00000000 		.4byte	0
 2254 01a0 00000000 		.4byte	0
 2255              	.LLST11:
 2256 01a4 00000000 		.4byte	.LVL16
 2257 01a8 19000000 		.4byte	.LVL18-1
 2258 01ac 0100     		.2byte	0x1
 2259 01ae 52       		.byte	0x52
 2260 01af 19000000 		.4byte	.LVL18-1
 2261 01b3 2E000000 		.4byte	.LFE45
 2262 01b7 0400     		.2byte	0x4
 2263 01b9 F3       		.byte	0xf3
 2264 01ba 01       		.uleb128 0x1
 2265 01bb 52       		.byte	0x52
 2266 01bc 9F       		.byte	0x9f
 2267 01bd 00000000 		.4byte	0
 2268 01c1 00000000 		.4byte	0
 2269              	.LLST12:
 2270 01c5 00000000 		.4byte	.LVL16
 2271 01c9 19000000 		.4byte	.LVL18-1
 2272 01cd 0100     		.2byte	0x1
 2273 01cf 53       		.byte	0x53
 2274 01d0 19000000 		.4byte	.LVL18-1
 2275 01d4 2E000000 		.4byte	.LFE45
 2276 01d8 0400     		.2byte	0x4
 2277 01da F3       		.byte	0xf3
 2278 01db 01       		.uleb128 0x1
 2279 01dc 53       		.byte	0x53
 2280 01dd 9F       		.byte	0x9f
ARM GAS  /tmp/cc2cN3ho.s 			page 41


 2281 01de 00000000 		.4byte	0
 2282 01e2 00000000 		.4byte	0
 2283              	.LLST13:
 2284 01e6 00000000 		.4byte	.LVL20
 2285 01ea 04000000 		.4byte	.LVL21
 2286 01ee 0100     		.2byte	0x1
 2287 01f0 50       		.byte	0x50
 2288 01f1 04000000 		.4byte	.LVL21
 2289 01f5 07000000 		.4byte	.LVL22-1
 2290 01f9 0300     		.2byte	0x3
 2291 01fb 70       		.byte	0x70
 2292 01fc 74       		.sleb128 -12
 2293 01fd 9F       		.byte	0x9f
 2294 01fe 07000000 		.4byte	.LVL22-1
 2295 0202 0A000000 		.4byte	.LFE46
 2296 0206 0400     		.2byte	0x4
 2297 0208 F3       		.byte	0xf3
 2298 0209 01       		.uleb128 0x1
 2299 020a 50       		.byte	0x50
 2300 020b 9F       		.byte	0x9f
 2301 020c 00000000 		.4byte	0
 2302 0210 00000000 		.4byte	0
 2303              	.LLST14:
 2304 0214 00000000 		.4byte	.LVL23
 2305 0218 05000000 		.4byte	.LVL24-1
 2306 021c 0100     		.2byte	0x1
 2307 021e 50       		.byte	0x50
 2308 021f 05000000 		.4byte	.LVL24-1
 2309 0223 08000000 		.4byte	.LFE47
 2310 0227 0400     		.2byte	0x4
 2311 0229 F3       		.byte	0xf3
 2312 022a 01       		.uleb128 0x1
 2313 022b 50       		.byte	0x50
 2314 022c 9F       		.byte	0x9f
 2315 022d 00000000 		.4byte	0
 2316 0231 00000000 		.4byte	0
 2317              		.section	.debug_aranges,"",%progbits
 2318 0000 5C000000 		.4byte	0x5c
 2319 0004 0200     		.2byte	0x2
 2320 0006 00000000 		.4byte	.Ldebug_info0
 2321 000a 04       		.byte	0x4
 2322 000b 00       		.byte	0
 2323 000c 0000     		.2byte	0
 2324 000e 0000     		.2byte	0
 2325 0010 00000000 		.4byte	.LFB39
 2326 0014 08000000 		.4byte	.LFE39-.LFB39
 2327 0018 00000000 		.4byte	.LFB40
 2328 001c 12000000 		.4byte	.LFE40-.LFB40
 2329 0020 00000000 		.4byte	.LFB41
 2330 0024 14000000 		.4byte	.LFE41-.LFB41
 2331 0028 00000000 		.4byte	.LFB42
 2332 002c 12000000 		.4byte	.LFE42-.LFB42
 2333 0030 00000000 		.4byte	.LFB43
 2334 0034 04000000 		.4byte	.LFE43-.LFB43
 2335 0038 00000000 		.4byte	.LFB44
 2336 003c 36000000 		.4byte	.LFE44-.LFB44
 2337 0040 00000000 		.4byte	.LFB45
ARM GAS  /tmp/cc2cN3ho.s 			page 42


 2338 0044 2E000000 		.4byte	.LFE45-.LFB45
 2339 0048 00000000 		.4byte	.LFB46
 2340 004c 0A000000 		.4byte	.LFE46-.LFB46
 2341 0050 00000000 		.4byte	.LFB47
 2342 0054 08000000 		.4byte	.LFE47-.LFB47
 2343 0058 00000000 		.4byte	0
 2344 005c 00000000 		.4byte	0
 2345              		.section	.debug_ranges,"",%progbits
 2346              	.Ldebug_ranges0:
 2347 0000 00000000 		.4byte	.LFB39
 2348 0004 08000000 		.4byte	.LFE39
 2349 0008 00000000 		.4byte	.LFB40
 2350 000c 12000000 		.4byte	.LFE40
 2351 0010 00000000 		.4byte	.LFB41
 2352 0014 14000000 		.4byte	.LFE41
 2353 0018 00000000 		.4byte	.LFB42
 2354 001c 12000000 		.4byte	.LFE42
 2355 0020 00000000 		.4byte	.LFB43
 2356 0024 04000000 		.4byte	.LFE43
 2357 0028 00000000 		.4byte	.LFB44
 2358 002c 36000000 		.4byte	.LFE44
 2359 0030 00000000 		.4byte	.LFB45
 2360 0034 2E000000 		.4byte	.LFE45
 2361 0038 00000000 		.4byte	.LFB46
 2362 003c 0A000000 		.4byte	.LFE46
 2363 0040 00000000 		.4byte	.LFB47
 2364 0044 08000000 		.4byte	.LFE47
 2365 0048 00000000 		.4byte	0
 2366 004c 00000000 		.4byte	0
 2367              		.section	.debug_line,"",%progbits
 2368              	.Ldebug_line0:
 2369 0000 18030000 		.section	.debug_str,"MS",%progbits,1
 2369      02005302 
 2369      00000201 
 2369      FB0E0D00 
 2369      01010101 
 2370              	.LASF48:
 2371 0000 54687265 		.ascii	"ThreadsList\000"
 2371      6164734C 
 2371      69737400 
 2372              	.LASF40:
 2373 000c 705F7761 		.ascii	"p_waiting\000"
 2373      6974696E 
 2373      6700
 2374              	.LASF39:
 2375 0016 705F7469 		.ascii	"p_time\000"
 2375      6D6500
 2376              	.LASF49:
 2377 001d 72656761 		.ascii	"regarm_t\000"
 2377      726D5F74 
 2377      00
 2378              	.LASF30:
 2379 0026 705F7072 		.ascii	"p_prio\000"
 2379      696F00
 2380              	.LASF26:
 2381 002d 73797374 		.ascii	"systime_t\000"
 2381      696D655F 
ARM GAS  /tmp/cc2cN3ho.s 			page 43


 2381      7400
 2382              	.LASF67:
 2383 0037 434F4E53 		.ascii	"CONSET\000"
 2383      455400
 2384              	.LASF55:
 2385 003e 6D5F6F77 		.ascii	"m_owner\000"
 2385      6E657200 
 2386              	.LASF41:
 2387 0046 705F6D73 		.ascii	"p_msgqueue\000"
 2387      67717565 
 2387      756500
 2388              	.LASF105:
 2389 0051 72786279 		.ascii	"rxbytes\000"
 2389      74657300 
 2390              	.LASF0:
 2391 0059 756E7369 		.ascii	"unsigned int\000"
 2391      676E6564 
 2391      20696E74 
 2391      00
 2392              	.LASF95:
 2393 0066 49324344 		.ascii	"I2CDriver\000"
 2393      72697665 
 2393      7200
 2394              	.LASF70:
 2395 0070 53434C48 		.ascii	"SCLH\000"
 2395      00
 2396              	.LASF71:
 2397 0075 53434C4C 		.ascii	"SCLL\000"
 2397      00
 2398              	.LASF8:
 2399 007a 5F5F696E 		.ascii	"__int32_t\000"
 2399      7433325F 
 2399      7400
 2400              	.LASF110:
 2401 0084 69326353 		.ascii	"i2cStop\000"
 2401      746F7000 
 2402              	.LASF59:
 2403 008c 77746F62 		.ascii	"wtobjp\000"
 2403      6A7000
 2404              	.LASF68:
 2405 0093 53544154 		.ascii	"STAT\000"
 2405      00
 2406              	.LASF60:
 2407 0098 65776D61 		.ascii	"ewmask\000"
 2407      736B00
 2408              	.LASF92:
 2409 009f 6D6F6465 		.ascii	"mode\000"
 2409      00
 2410              	.LASF112:
 2411 00a4 6932634D 		.ascii	"i2cMasterTransmitTimeout\000"
 2411      61737465 
 2411      72547261 
 2411      6E736D69 
 2411      7454696D 
 2412              	.LASF72:
 2413 00bd 434F4E43 		.ascii	"CONCLR\000"
 2413      4C5200
ARM GAS  /tmp/cc2cN3ho.s 			page 44


 2414              	.LASF69:
 2415 00c4 41445230 		.ascii	"ADR0\000"
 2415      00
 2416              	.LASF126:
 2417 00c9 6932635F 		.ascii	"i2c_lld_init\000"
 2417      6C6C645F 
 2417      696E6974 
 2417      00
 2418              	.LASF17:
 2419 00d6 75696E74 		.ascii	"uint32_t\000"
 2419      33325F74 
 2419      00
 2420              	.LASF103:
 2421 00df 74786279 		.ascii	"txbytes\000"
 2421      74657300 
 2422              	.LASF82:
 2423 00e7 4932435F 		.ascii	"I2C_ACTIVE_TX\000"
 2423      41435449 
 2423      56455F54 
 2423      5800
 2424              	.LASF25:
 2425 00f5 6576656E 		.ascii	"eventmask_t\000"
 2425      746D6173 
 2425      6B5F7400 
 2426              	.LASF99:
 2427 0101 6D757465 		.ascii	"mutex\000"
 2427      7800
 2428              	.LASF23:
 2429 0107 74707269 		.ascii	"tprio_t\000"
 2429      6F5F7400 
 2430              	.LASF93:
 2431 010f 636C6F63 		.ascii	"clock_timing\000"
 2431      6B5F7469 
 2431      6D696E67 
 2431      00
 2432              	.LASF13:
 2433 011c 6C6F6E67 		.ascii	"long long unsigned int\000"
 2433      206C6F6E 
 2433      6720756E 
 2433      7369676E 
 2433      65642069 
 2434              	.LASF83:
 2435 0133 4932435F 		.ascii	"I2C_ACTIVE_RX\000"
 2435      41435449 
 2435      56455F52 
 2435      5800
 2436              	.LASF98:
 2437 0141 6572726F 		.ascii	"errors\000"
 2437      727300
 2438              	.LASF85:
 2439 0148 69326373 		.ascii	"i2cstate_t\000"
 2439      74617465 
 2439      5F7400
 2440              	.LASF6:
 2441 0153 5F5F7569 		.ascii	"__uint16_t\000"
 2441      6E743136 
 2441      5F7400
ARM GAS  /tmp/cc2cN3ho.s 			page 45


 2442              	.LASF94:
 2443 015e 49324343 		.ascii	"I2CConfig\000"
 2443      6F6E6669 
 2443      6700
 2444              	.LASF66:
 2445 0168 4D41534B 		.ascii	"MASK\000"
 2445      00
 2446              	.LASF32:
 2447 016d 705F6E65 		.ascii	"p_newer\000"
 2447      77657200 
 2448              	.LASF102:
 2449 0175 74786275 		.ascii	"txbuf\000"
 2449      6600
 2450              	.LASF87:
 2451 017b 69326366 		.ascii	"i2cflags_t\000"
 2451      6C616773 
 2451      5F7400
 2452              	.LASF117:
 2453 0186 63684D74 		.ascii	"chMtxInit\000"
 2453      78496E69 
 2453      7400
 2454              	.LASF77:
 2455 0190 44415441 		.ascii	"DATA_BUFFER\000"
 2455      5F425546 
 2455      46455200 
 2456              	.LASF2:
 2457 019c 73697A65 		.ascii	"size_t\000"
 2457      5F7400
 2458              	.LASF57:
 2459 01a3 7264796D 		.ascii	"rdymsg\000"
 2459      736700
 2460              	.LASF18:
 2461 01aa 5F426F6F 		.ascii	"_Bool\000"
 2461      6C00
 2462              	.LASF53:
 2463 01b0 4D757465 		.ascii	"Mutex\000"
 2463      7800
 2464              	.LASF34:
 2465 01b6 705F6E61 		.ascii	"p_name\000"
 2465      6D6500
 2466              	.LASF47:
 2467 01bd 54687265 		.ascii	"ThreadsQueue\000"
 2467      61647351 
 2467      75657565 
 2467      00
 2468              	.LASF61:
 2469 01ca 63686172 		.ascii	"char\000"
 2469      00
 2470              	.LASF124:
 2471 01cf 43686962 		.ascii	"ChibiOS_2.6.5/os/hal/src/i2c.c\000"
 2471      694F535F 
 2471      322E362E 
 2471      352F6F73 
 2471      2F68616C 
 2472              	.LASF27:
 2473 01ee 54687265 		.ascii	"Thread\000"
 2473      616400
ARM GAS  /tmp/cc2cN3ho.s 			page 46


 2474              	.LASF20:
 2475 01f5 74737461 		.ascii	"tstate_t\000"
 2475      74655F74 
 2475      00
 2476              	.LASF33:
 2477 01fe 705F6F6C 		.ascii	"p_older\000"
 2477      64657200 
 2478              	.LASF35:
 2479 0206 705F7374 		.ascii	"p_state\000"
 2479      61746500 
 2480              	.LASF14:
 2481 020e 75696E74 		.ascii	"uint8_t\000"
 2481      385F7400 
 2482              	.LASF46:
 2483 0216 705F6D70 		.ascii	"p_mpool\000"
 2483      6F6F6C00 
 2484              	.LASF44:
 2485 021e 705F6D74 		.ascii	"p_mtxlist\000"
 2485      786C6973 
 2485      7400
 2486              	.LASF74:
 2487 0228 41445231 		.ascii	"ADR1\000"
 2487      00
 2488              	.LASF75:
 2489 022d 41445232 		.ascii	"ADR2\000"
 2489      00
 2490              	.LASF76:
 2491 0232 41445233 		.ascii	"ADR3\000"
 2491      00
 2492              	.LASF108:
 2493 0237 69326353 		.ascii	"i2cStart\000"
 2493      74617274 
 2493      00
 2494              	.LASF12:
 2495 0240 6C6F6E67 		.ascii	"long long int\000"
 2495      206C6F6E 
 2495      6720696E 
 2495      7400
 2496              	.LASF127:
 2497 024e 63684D74 		.ascii	"chMtxUnlock\000"
 2497      78556E6C 
 2497      6F636B00 
 2498              	.LASF79:
 2499 025a 4932435F 		.ascii	"I2C_UNINIT\000"
 2499      554E494E 
 2499      495400
 2500              	.LASF24:
 2501 0265 6D73675F 		.ascii	"msg_t\000"
 2501      7400
 2502              	.LASF62:
 2503 026b 4D41534B 		.ascii	"MASK0\000"
 2503      3000
 2504              	.LASF63:
 2505 0271 4D41534B 		.ascii	"MASK1\000"
 2505      3100
 2506              	.LASF64:
 2507 0277 4D41534B 		.ascii	"MASK2\000"
ARM GAS  /tmp/cc2cN3ho.s 			page 47


 2507      3200
 2508              	.LASF65:
 2509 027d 4D41534B 		.ascii	"MASK3\000"
 2509      3300
 2510              	.LASF51:
 2511 0283 636F6E74 		.ascii	"context\000"
 2511      65787400 
 2512              	.LASF36:
 2513 028b 705F666C 		.ascii	"p_flags\000"
 2513      61677300 
 2514              	.LASF118:
 2515 0293 6932635F 		.ascii	"i2c_lld_start\000"
 2515      6C6C645F 
 2515      73746172 
 2515      7400
 2516              	.LASF116:
 2517 02a1 69326352 		.ascii	"i2cReleaseBus\000"
 2517      656C6561 
 2517      73654275 
 2517      7300
 2518              	.LASF90:
 2519 02af 4932435F 		.ascii	"I2C_FAST_MODE_PLUS\000"
 2519      46415354 
 2519      5F4D4F44 
 2519      455F504C 
 2519      555300
 2520              	.LASF106:
 2521 02c2 69326349 		.ascii	"i2cInit\000"
 2521      6E697400 
 2522              	.LASF22:
 2523 02ca 74736C69 		.ascii	"tslices_t\000"
 2523      6365735F 
 2523      7400
 2524              	.LASF109:
 2525 02d4 69326370 		.ascii	"i2cp\000"
 2525      00
 2526              	.LASF107:
 2527 02d9 6932634F 		.ascii	"i2cObjectInit\000"
 2527      626A6563 
 2527      74496E69 
 2527      7400
 2528              	.LASF42:
 2529 02e7 705F6D73 		.ascii	"p_msg\000"
 2529      6700
 2530              	.LASF19:
 2531 02ed 746D6F64 		.ascii	"tmode_t\000"
 2531      655F7400 
 2532              	.LASF120:
 2533 02f5 6932635F 		.ascii	"i2c_lld_master_transmit_timeout\000"
 2533      6C6C645F 
 2533      6D617374 
 2533      65725F74 
 2533      72616E73 
 2534              	.LASF123:
 2535 0315 474E5520 		.ascii	"GNU C 4.8.4 20140526 (release) [ARM/embedded-4_8-br"
 2535      4320342E 
 2535      382E3420 
ARM GAS  /tmp/cc2cN3ho.s 			page 48


 2535      32303134 
 2535      30353236 
 2536 0348 616E6368 		.ascii	"anch revision 211358] -mcpu=cortex-m0 -mno-thumb-in"
 2536      20726576 
 2536      6973696F 
 2536      6E203231 
 2536      31333538 
 2537 037b 74657277 		.ascii	"terwork -mthumb -ggdb -O1 -fomit-frame-pointer -ffu"
 2537      6F726B20 
 2537      2D6D7468 
 2537      756D6220 
 2537      2D676764 
 2538 03ae 6E637469 		.ascii	"nction-sections -fdata-sections -fno-common\000"
 2538      6F6E2D73 
 2538      65637469 
 2538      6F6E7320 
 2538      2D666461 
 2539              	.LASF15:
 2540 03da 75696E74 		.ascii	"uint16_t\000"
 2540      31365F74 
 2540      00
 2541              	.LASF50:
 2542 03e3 696E7463 		.ascii	"intctx\000"
 2542      747800
 2543              	.LASF121:
 2544 03ea 6932635F 		.ascii	"i2c_lld_master_receive_timeout\000"
 2544      6C6C645F 
 2544      6D617374 
 2544      65725F72 
 2544      65636569 
 2545              	.LASF81:
 2546 0409 4932435F 		.ascii	"I2C_READY\000"
 2546      52454144 
 2546      5900
 2547              	.LASF97:
 2548 0413 636F6E66 		.ascii	"config\000"
 2548      696700
 2549              	.LASF45:
 2550 041a 705F7265 		.ascii	"p_realprio\000"
 2550      616C7072 
 2550      696F00
 2551              	.LASF5:
 2552 0425 73686F72 		.ascii	"short int\000"
 2552      7420696E 
 2552      7400
 2553              	.LASF43:
 2554 042f 705F6570 		.ascii	"p_epending\000"
 2554      656E6469 
 2554      6E6700
 2555              	.LASF54:
 2556 043a 6D5F7175 		.ascii	"m_queue\000"
 2556      65756500 
 2557              	.LASF9:
 2558 0442 6C6F6E67 		.ascii	"long int\000"
 2558      20696E74 
 2558      00
 2559              	.LASF86:
ARM GAS  /tmp/cc2cN3ho.s 			page 49


 2560 044b 69326361 		.ascii	"i2caddr_t\000"
 2560      6464725F 
 2560      7400
 2561              	.LASF84:
 2562 0455 4932435F 		.ascii	"I2C_LOCKED\000"
 2562      4C4F434B 
 2562      454400
 2563              	.LASF28:
 2564 0460 705F6E65 		.ascii	"p_next\000"
 2564      787400
 2565              	.LASF31:
 2566 0467 705F6374 		.ascii	"p_ctx\000"
 2566      7800
 2567              	.LASF73:
 2568 046d 4D4D4354 		.ascii	"MMCTRL\000"
 2568      524C00
 2569              	.LASF119:
 2570 0474 6932635F 		.ascii	"i2c_lld_stop\000"
 2570      6C6C645F 
 2570      73746F70 
 2570      00
 2571              	.LASF3:
 2572 0481 5F5F7569 		.ascii	"__uint8_t\000"
 2572      6E74385F 
 2572      7400
 2573              	.LASF125:
 2574 048b 2F484444 		.ascii	"/HDD/Projects/workspace_test4/Altimeter/\000"
 2574      2F50726F 
 2574      6A656374 
 2574      732F776F 
 2574      726B7370 
 2575              	.LASF114:
 2576 04b4 6932634D 		.ascii	"i2cMasterReceiveTimeout\000"
 2576      61737465 
 2576      72526563 
 2576      65697665 
 2576      54696D65 
 2577              	.LASF29:
 2578 04cc 705F7072 		.ascii	"p_prev\000"
 2578      657600
 2579              	.LASF52:
 2580 04d3 73697A65 		.ascii	"sizetype\000"
 2580      74797065 
 2580      00
 2581              	.LASF21:
 2582 04dc 74726566 		.ascii	"trefs_t\000"
 2582      735F7400 
 2583              	.LASF11:
 2584 04e4 6C6F6E67 		.ascii	"long unsigned int\000"
 2584      20756E73 
 2584      69676E65 
 2584      6420696E 
 2584      7400
 2585              	.LASF16:
 2586 04f6 696E7433 		.ascii	"int32_t\000"
 2586      325F7400 
 2587              	.LASF100:
ARM GAS  /tmp/cc2cN3ho.s 			page 50


 2588 04fe 74687265 		.ascii	"thread\000"
 2588      616400
 2589              	.LASF80:
 2590 0505 4932435F 		.ascii	"I2C_STOP\000"
 2590      53544F50 
 2590      00
 2591              	.LASF4:
 2592 050e 756E7369 		.ascii	"unsigned char\000"
 2592      676E6564 
 2592      20636861 
 2592      7200
 2593              	.LASF10:
 2594 051c 5F5F7569 		.ascii	"__uint32_t\000"
 2594      6E743332 
 2594      5F7400
 2595              	.LASF115:
 2596 0527 69326341 		.ascii	"i2cAcquireBus\000"
 2596      63717569 
 2596      72654275 
 2596      7300
 2597              	.LASF37:
 2598 0535 705F7265 		.ascii	"p_refs\000"
 2598      667300
 2599              	.LASF122:
 2600 053c 63684D74 		.ascii	"chMtxLock\000"
 2600      784C6F63 
 2600      6B00
 2601              	.LASF113:
 2602 0546 74696D65 		.ascii	"timeout\000"
 2602      6F757400 
 2603              	.LASF38:
 2604 054e 705F7072 		.ascii	"p_preempt\000"
 2604      65656D70 
 2604      7400
 2605              	.LASF101:
 2606 0558 61646472 		.ascii	"addr\000"
 2606      00
 2607              	.LASF96:
 2608 055d 73746174 		.ascii	"state\000"
 2608      6500
 2609              	.LASF56:
 2610 0563 6D5F6E65 		.ascii	"m_next\000"
 2610      787400
 2611              	.LASF78:
 2612 056a 4C50435F 		.ascii	"LPC_I2C_Type\000"
 2612      4932435F 
 2612      54797065 
 2612      00
 2613              	.LASF1:
 2614 0577 7369676E 		.ascii	"signed char\000"
 2614      65642063 
 2614      68617200 
 2615              	.LASF7:
 2616 0583 73686F72 		.ascii	"short unsigned int\000"
 2616      7420756E 
 2616      7369676E 
 2616      65642069 
ARM GAS  /tmp/cc2cN3ho.s 			page 51


 2616      6E7400
 2617              	.LASF91:
 2618 0596 6932636D 		.ascii	"i2cmode_t\000"
 2618      6F64655F 
 2618      7400
 2619              	.LASF88:
 2620 05a0 4932435F 		.ascii	"I2C_STANDARD_MODE\000"
 2620      5354414E 
 2620      44415244 
 2620      5F4D4F44 
 2620      4500
 2621              	.LASF58:
 2622 05b2 65786974 		.ascii	"exitcode\000"
 2622      636F6465 
 2622      00
 2623              	.LASF89:
 2624 05bb 4932435F 		.ascii	"I2C_FAST_MODE\000"
 2624      46415354 
 2624      5F4D4F44 
 2624      4500
 2625              	.LASF104:
 2626 05c9 72786275 		.ascii	"rxbuf\000"
 2626      6600
 2627              	.LASF111:
 2628 05cf 69326347 		.ascii	"i2cGetErrors\000"
 2628      65744572 
 2628      726F7273 
 2628      00
 2629              		.ident	"GCC: (GNU Tools for ARM Embedded Processors) 4.8.4 20140526 (release) [ARM/embedded-4_8-br
ARM GAS  /tmp/cc2cN3ho.s 			page 52


DEFINED SYMBOLS
                            *ABS*:00000000 i2c.c
     /tmp/cc2cN3ho.s:18     .text.i2cInit:00000000 $t
     /tmp/cc2cN3ho.s:23     .text.i2cInit:00000000 i2cInit
     /tmp/cc2cN3ho.s:42     .text.i2cObjectInit:00000000 $t
     /tmp/cc2cN3ho.s:47     .text.i2cObjectInit:00000000 i2cObjectInit
     /tmp/cc2cN3ho.s:74     .text.i2cStart:00000000 $t
     /tmp/cc2cN3ho.s:79     .text.i2cStart:00000000 i2cStart
     /tmp/cc2cN3ho.s:115    .text.i2cStop:00000000 $t
     /tmp/cc2cN3ho.s:120    .text.i2cStop:00000000 i2cStop
     /tmp/cc2cN3ho.s:154    .text.i2cGetErrors:00000000 $t
     /tmp/cc2cN3ho.s:159    .text.i2cGetErrors:00000000 i2cGetErrors
     /tmp/cc2cN3ho.s:174    .text.i2cMasterTransmitTimeout:00000000 $t
     /tmp/cc2cN3ho.s:179    .text.i2cMasterTransmitTimeout:00000000 i2cMasterTransmitTimeout
     /tmp/cc2cN3ho.s:239    .text.i2cMasterReceiveTimeout:00000000 $t
     /tmp/cc2cN3ho.s:244    .text.i2cMasterReceiveTimeout:00000000 i2cMasterReceiveTimeout
     /tmp/cc2cN3ho.s:300    .text.i2cAcquireBus:00000000 $t
     /tmp/cc2cN3ho.s:305    .text.i2cAcquireBus:00000000 i2cAcquireBus
     /tmp/cc2cN3ho.s:326    .text.i2cReleaseBus:00000000 $t
     /tmp/cc2cN3ho.s:331    .text.i2cReleaseBus:00000000 i2cReleaseBus
                     .debug_frame:00000010 $d

UNDEFINED SYMBOLS
i2c_lld_init
chMtxInit
i2c_lld_start
i2c_lld_stop
i2c_lld_master_transmit_timeout
i2c_lld_master_receive_timeout
chMtxLock
chMtxUnlock
