ARM GAS  /tmp/ccxWN4jH.s 			page 1


   1              		.cpu cortex-m0
   2              		.fpu softvfp
   3              		.eabi_attribute 20, 1
   4              		.eabi_attribute 21, 1
   5              		.eabi_attribute 23, 3
   6              		.eabi_attribute 24, 1
   7              		.eabi_attribute 25, 1
   8              		.eabi_attribute 26, 1
   9              		.eabi_attribute 30, 1
  10              		.eabi_attribute 34, 0
  11              		.eabi_attribute 18, 4
  12              		.code	16
  13              		.file	"i2c_lld.c"
  14              		.text
  15              	.Ltext0:
  16              		.cfi_sections	.debug_frame
  17              		.section	.text.i2c_lld_serve_error_interrupt,"ax",%progbits
  18              		.align	2
  19              		.code	16
  20              		.thumb_func
  21              		.type	i2c_lld_serve_error_interrupt, %function
  22              	i2c_lld_serve_error_interrupt:
  23              	.LFB40:
  24              		.file 1 "ChibiOS_2.6.5/os/hal/platforms/LPC11Uxx/i2c_lld.c"
  25              		.loc 1 106 0
  26              		.cfi_startproc
  27              	.LVL0:
  28 0000 08B5     		push	{r3, lr}
  29              		.cfi_def_cfa_offset 8
  30              		.cfi_offset 3, -8
  31              		.cfi_offset 14, -4
  32              	.LVL1:
  33              		.loc 1 109 0
  34 0002 3029     		cmp	r1, #48
  35 0004 0DD0     		beq	.L3
  36 0006 05D8     		bhi	.L4
  37              		.loc 1 114 0
  38 0008 0123     		mov	r3, #1
  39              		.loc 1 109 0
  40 000a 0029     		cmp	r1, #0
  41 000c 0AD0     		beq	.L6
  42 000e 2029     		cmp	r1, #32
  43 0010 05D1     		bne	.L2
  44 0012 06E0     		b	.L3
  45              	.L4:
  46              		.loc 1 111 0
  47 0014 0223     		mov	r3, #2
  48              		.loc 1 109 0
  49 0016 3829     		cmp	r1, #56
  50 0018 04D0     		beq	.L6
  51 001a 4829     		cmp	r1, #72
  52 001c 01D0     		beq	.L3
  53              	.L2:
  54              		.loc 1 107 0
  55 001e 0023     		mov	r3, #0
  56 0020 00E0     		b	.L6
  57              	.L3:
ARM GAS  /tmp/ccxWN4jH.s 			page 2


  58              	.LVL2:
  59              		.loc 1 119 0
  60 0022 0423     		mov	r3, #4
  61              	.LVL3:
  62              	.L6:
  63              		.loc 1 124 0
  64 0024 8360     		str	r3, [r0, #8]
  65              		.loc 1 125 0
  66              	@ 125 "ChibiOS_2.6.5/os/hal/platforms/LPC11Uxx/i2c_lld.c" 1
  67 0026 72B6     		cpsid   i
  68              	@ 0 "" 2
  69              		.code	16
  70 0028 C369     		ldr	r3, [r0, #28]
  71              	.LVL4:
  72 002a 002B     		cmp	r3, #0
  73 002c 07D0     		beq	.L7
  74              	.LVL5:
  75              	.LBB4:
  76              		.loc 1 125 0 is_stmt 0 discriminator 1
  77 002e 0022     		mov	r2, #0
  78 0030 C261     		str	r2, [r0, #28]
  79 0032 0222     		mov	r2, #2
  80 0034 5242     		neg	r2, r2
  81 0036 5A62     		str	r2, [r3, #36]
  82              	.LVL6:
  83 0038 181C     		mov	r0, r3
  84              	.LVL7:
  85 003a FFF7FEFF 		bl	chSchReadyI
  86              	.LVL8:
  87              	.L7:
  88              	.LBE4:
  89              		.loc 1 125 0 discriminator 2
  90              	@ 125 "ChibiOS_2.6.5/os/hal/platforms/LPC11Uxx/i2c_lld.c" 1
  91 003e 62B6     		cpsie   i
  92              	@ 0 "" 2
  93              		.loc 1 126 0 is_stmt 1 discriminator 2
  94              		.code	16
  95              		@ sp needed
  96 0040 08BD     		pop	{r3, pc}
  97              		.cfi_endproc
  98              	.LFE40:
  99              		.size	i2c_lld_serve_error_interrupt, .-i2c_lld_serve_error_interrupt
 100 0042 C046     		.section	.text.i2c_lld_safety_timeout,"ax",%progbits
 101              		.align	2
 102              		.code	16
 103              		.thumb_func
 104              		.type	i2c_lld_safety_timeout, %function
 105              	i2c_lld_safety_timeout:
 106              	.LFB39:
 107              		.loc 1 86 0
 108              		.cfi_startproc
 109              	.LVL9:
 110 0000 08B5     		push	{r3, lr}
 111              		.cfi_def_cfa_offset 8
 112              		.cfi_offset 3, -8
 113              		.cfi_offset 14, -4
 114              	.LVL10:
ARM GAS  /tmp/ccxWN4jH.s 			page 3


 115              		.loc 1 89 0
 116              	@ 89 "ChibiOS_2.6.5/os/hal/platforms/LPC11Uxx/i2c_lld.c" 1
 117 0002 72B6     		cpsid   i
 118              	@ 0 "" 2
 119              		.loc 1 90 0
 120              		.code	16
 121 0004 C369     		ldr	r3, [r0, #28]
 122 0006 002B     		cmp	r3, #0
 123 0008 07D0     		beq	.L10
 124              	.LVL11:
 125              	.LBB5:
 126              		.loc 1 92 0
 127 000a 0022     		mov	r2, #0
 128 000c C261     		str	r2, [r0, #28]
 129              		.loc 1 93 0
 130 000e 0122     		mov	r2, #1
 131 0010 5242     		neg	r2, r2
 132 0012 5A62     		str	r2, [r3, #36]
 133              		.loc 1 94 0
 134 0014 181C     		mov	r0, r3
 135              	.LVL12:
 136 0016 FFF7FEFF 		bl	chSchReadyI
 137              	.LVL13:
 138              	.L10:
 139              	.LBE5:
 140              		.loc 1 96 0
 141              	@ 96 "ChibiOS_2.6.5/os/hal/platforms/LPC11Uxx/i2c_lld.c" 1
 142 001a 62B6     		cpsie   i
 143              	@ 0 "" 2
 144              		.loc 1 97 0
 145              		.code	16
 146              		@ sp needed
 147 001c 08BD     		pop	{r3, pc}
 148              		.cfi_endproc
 149              	.LFE39:
 150              		.size	i2c_lld_safety_timeout, .-i2c_lld_safety_timeout
 151 001e C046     		.section	.text.Vector7C,"ax",%progbits
 152              		.align	2
 153              		.global	Vector7C
 154              		.code	16
 155              		.thumb_func
 156              		.type	Vector7C, %function
 157              	Vector7C:
 158              	.LFB41:
 159              		.loc 1 136 0
 160              		.cfi_startproc
 161 0000 10B5     		push	{r4, lr}
 162              		.cfi_def_cfa_offset 8
 163              		.cfi_offset 4, -8
 164              		.cfi_offset 14, -4
 165              		.loc 1 139 0
 166              	@ 139 "ChibiOS_2.6.5/os/hal/platforms/LPC11Uxx/i2c_lld.c" 1
 167 0002 7446     		mov     r4, lr
 168              	@ 0 "" 2
 169              	.LVL14:
 170              		.loc 1 140 0
 171              		.code	16
ARM GAS  /tmp/ccxWN4jH.s 			page 4


 172 0004 8023     		mov	r3, #128
 173 0006 DB05     		lsl	r3, r3, #23
 174 0008 5968     		ldr	r1, [r3, #4]
 175              	.LVL15:
 176              		.loc 1 141 0
 177 000a 5829     		cmp	r1, #88
 178 000c 00D9     		bls	.LCB123
 179 000e 90E0     		b	.L12	@long jump
 180              	.LCB123:
 181 0010 8B00     		lsl	r3, r1, #2
 182 0012 4A4A     		ldr	r2, .L29
 183 0014 D358     		ldr	r3, [r2, r3]
 184 0016 9F46     		mov	pc, r3
 185              		.section	.rodata.Vector7C,"a",%progbits
 186              		.align	2
 187              	.L14:
 188 0000 24010000 		.word	.L13
 189 0004 32010000 		.word	.L12
 190 0008 32010000 		.word	.L12
 191 000c 32010000 		.word	.L12
 192 0010 32010000 		.word	.L12
 193 0014 32010000 		.word	.L12
 194 0018 32010000 		.word	.L12
 195 001c 32010000 		.word	.L12
 196 0020 18000000 		.word	.L15
 197 0024 32010000 		.word	.L12
 198 0028 32010000 		.word	.L12
 199 002c 32010000 		.word	.L12
 200 0030 32010000 		.word	.L12
 201 0034 32010000 		.word	.L12
 202 0038 32010000 		.word	.L12
 203 003c 32010000 		.word	.L12
 204 0040 32010000 		.word	.L12
 205 0044 32010000 		.word	.L12
 206 0048 32010000 		.word	.L12
 207 004c 32010000 		.word	.L12
 208 0050 32010000 		.word	.L12
 209 0054 32010000 		.word	.L12
 210 0058 32010000 		.word	.L12
 211 005c 32010000 		.word	.L12
 212 0060 58000000 		.word	.L16
 213 0064 32010000 		.word	.L12
 214 0068 32010000 		.word	.L12
 215 006c 32010000 		.word	.L12
 216 0070 32010000 		.word	.L12
 217 0074 32010000 		.word	.L12
 218 0078 32010000 		.word	.L12
 219 007c 32010000 		.word	.L12
 220 0080 44000000 		.word	.L17
 221 0084 32010000 		.word	.L12
 222 0088 32010000 		.word	.L12
 223 008c 32010000 		.word	.L12
 224 0090 32010000 		.word	.L12
 225 0094 32010000 		.word	.L12
 226 0098 32010000 		.word	.L12
 227 009c 32010000 		.word	.L12
 228 00a0 58000000 		.word	.L16
ARM GAS  /tmp/ccxWN4jH.s 			page 5


 229 00a4 32010000 		.word	.L12
 230 00a8 32010000 		.word	.L12
 231 00ac 32010000 		.word	.L12
 232 00b0 32010000 		.word	.L12
 233 00b4 32010000 		.word	.L12
 234 00b8 32010000 		.word	.L12
 235 00bc 32010000 		.word	.L12
 236 00c0 44000000 		.word	.L17
 237 00c4 32010000 		.word	.L12
 238 00c8 32010000 		.word	.L12
 239 00cc 32010000 		.word	.L12
 240 00d0 32010000 		.word	.L12
 241 00d4 32010000 		.word	.L12
 242 00d8 32010000 		.word	.L12
 243 00dc 32010000 		.word	.L12
 244 00e0 24010000 		.word	.L13
 245 00e4 32010000 		.word	.L12
 246 00e8 32010000 		.word	.L12
 247 00ec 32010000 		.word	.L12
 248 00f0 32010000 		.word	.L12
 249 00f4 32010000 		.word	.L12
 250 00f8 32010000 		.word	.L12
 251 00fc 32010000 		.word	.L12
 252 0100 B4000000 		.word	.L18
 253 0104 32010000 		.word	.L12
 254 0108 32010000 		.word	.L12
 255 010c 32010000 		.word	.L12
 256 0110 32010000 		.word	.L12
 257 0114 32010000 		.word	.L12
 258 0118 32010000 		.word	.L12
 259 011c 32010000 		.word	.L12
 260 0120 44000000 		.word	.L17
 261 0124 32010000 		.word	.L12
 262 0128 32010000 		.word	.L12
 263 012c 32010000 		.word	.L12
 264 0130 32010000 		.word	.L12
 265 0134 32010000 		.word	.L12
 266 0138 32010000 		.word	.L12
 267 013c 32010000 		.word	.L12
 268 0140 B4000000 		.word	.L18
 269 0144 32010000 		.word	.L12
 270 0148 32010000 		.word	.L12
 271 014c 32010000 		.word	.L12
 272 0150 32010000 		.word	.L12
 273 0154 32010000 		.word	.L12
 274 0158 32010000 		.word	.L12
 275 015c 32010000 		.word	.L12
 276 0160 EE000000 		.word	.L19
 277              		.section	.text.Vector7C
 278              	.L15:
 279              		.loc 1 143 0
 280 0018 494B     		ldr	r3, .L29+4
 281 001a 9B6A     		ldr	r3, [r3, #40]
 282 001c 002B     		cmp	r3, #0
 283 001e 05D0     		beq	.L20
 284              		.loc 1 144 0
 285 0020 474B     		ldr	r3, .L29+4
ARM GAS  /tmp/ccxWN4jH.s 			page 6


 286 0022 1A8C     		ldrh	r2, [r3, #32]
 287 0024 8023     		mov	r3, #128
 288 0026 DB05     		lsl	r3, r3, #23
 289 0028 9A60     		str	r2, [r3, #8]
 290 002a 06E0     		b	.L21
 291              	.L20:
 292              		.loc 1 147 0
 293 002c 444B     		ldr	r3, .L29+4
 294 002e 1A8C     		ldrh	r2, [r3, #32]
 295 0030 0123     		mov	r3, #1
 296 0032 1A43     		orr	r2, r3
 297 0034 8023     		mov	r3, #128
 298 0036 DB05     		lsl	r3, r3, #23
 299 0038 9A60     		str	r2, [r3, #8]
 300              	.L21:
 301              		.loc 1 150 0
 302 003a 2822     		mov	r2, #40
 303 003c 8023     		mov	r3, #128
 304 003e DB05     		lsl	r3, r3, #23
 305 0040 9A61     		str	r2, [r3, #24]
 306              		.loc 1 151 0
 307 0042 76E0     		b	.L12
 308              	.L17:
 309              		.loc 1 156 0
 310 0044 8023     		mov	r3, #128
 311 0046 DB05     		lsl	r3, r3, #23
 312 0048 1022     		mov	r2, #16
 313 004a 1A60     		str	r2, [r3]
 314              		.loc 1 157 0
 315 004c 0822     		mov	r2, #8
 316 004e 9A61     		str	r2, [r3, #24]
 317              		.loc 1 158 0
 318 0050 3B48     		ldr	r0, .L29+4
 319 0052 FFF7FEFF 		bl	i2c_lld_serve_error_interrupt
 320              	.LVL16:
 321              		.loc 1 159 0
 322 0056 6CE0     		b	.L12
 323              	.LVL17:
 324              	.L16:
 325              		.loc 1 163 0
 326 0058 394B     		ldr	r3, .L29+4
 327 005a 9B6A     		ldr	r3, [r3, #40]
 328 005c 002B     		cmp	r3, #0
 329 005e 0BD0     		beq	.L22
 330              		.loc 1 164 0
 331 0060 374B     		ldr	r3, .L29+4
 332 0062 5A6A     		ldr	r2, [r3, #36]
 333 0064 511C     		add	r1, r2, #1
 334              	.LVL18:
 335 0066 5962     		str	r1, [r3, #36]
 336 0068 1178     		ldrb	r1, [r2]
 337 006a 8022     		mov	r2, #128
 338 006c D205     		lsl	r2, r2, #23
 339 006e 9160     		str	r1, [r2, #8]
 340              		.loc 1 165 0
 341 0070 9A6A     		ldr	r2, [r3, #40]
 342 0072 013A     		sub	r2, r2, #1
ARM GAS  /tmp/ccxWN4jH.s 			page 7


 343 0074 9A62     		str	r2, [r3, #40]
 344 0076 18E0     		b	.L23
 345              	.LVL19:
 346              	.L22:
 347              		.loc 1 168 0
 348 0078 314B     		ldr	r3, .L29+4
 349 007a 1B6B     		ldr	r3, [r3, #48]
 350 007c 002B     		cmp	r3, #0
 351 007e 04D0     		beq	.L24
 352              		.loc 1 169 0
 353 0080 3022     		mov	r2, #48
 354 0082 8023     		mov	r3, #128
 355 0084 DB05     		lsl	r3, r3, #23
 356 0086 1A60     		str	r2, [r3]
 357 0088 0FE0     		b	.L23
 358              	.L24:
 359              		.loc 1 172 0
 360 008a 1022     		mov	r2, #16
 361 008c 8023     		mov	r3, #128
 362 008e DB05     		lsl	r3, r3, #23
 363 0090 1A60     		str	r2, [r3]
 364              		.loc 1 173 0
 365              	@ 173 "ChibiOS_2.6.5/os/hal/platforms/LPC11Uxx/i2c_lld.c" 1
 366 0092 72B6     		cpsid   i
 367              	@ 0 "" 2
 368              		.code	16
 369 0094 2A4B     		ldr	r3, .L29+4
 370 0096 D869     		ldr	r0, [r3, #28]
 371 0098 0028     		cmp	r0, #0
 372 009a 05D0     		beq	.L25
 373              	.LVL20:
 374              	.LBB6:
 375              		.loc 1 173 0 is_stmt 0 discriminator 1
 376 009c 0023     		mov	r3, #0
 377 009e 284A     		ldr	r2, .L29+4
 378 00a0 D361     		str	r3, [r2, #28]
 379 00a2 4362     		str	r3, [r0, #36]
 380 00a4 FFF7FEFF 		bl	chSchReadyI
 381              	.LVL21:
 382              	.L25:
 383              	.LBE6:
 384              		.loc 1 173 0 discriminator 2
 385              	@ 173 "ChibiOS_2.6.5/os/hal/platforms/LPC11Uxx/i2c_lld.c" 1
 386 00a8 62B6     		cpsie   i
 387              	@ 0 "" 2
 388              		.code	16
 389              	.L23:
 390              		.loc 1 176 0 is_stmt 1
 391 00aa 0822     		mov	r2, #8
 392 00ac 8023     		mov	r3, #128
 393 00ae DB05     		lsl	r3, r3, #23
 394 00b0 9A61     		str	r2, [r3, #24]
 395              		.loc 1 177 0
 396 00b2 3EE0     		b	.L12
 397              	.LVL22:
 398              	.L18:
 399              		.loc 1 181 0
ARM GAS  /tmp/ccxWN4jH.s 			page 8


 400 00b4 5029     		cmp	r1, #80
 401 00b6 0AD1     		bne	.L26
 402              		.loc 1 182 0
 403 00b8 214B     		ldr	r3, .L29+4
 404 00ba DA6A     		ldr	r2, [r3, #44]
 405 00bc 511C     		add	r1, r2, #1
 406              	.LVL23:
 407 00be D962     		str	r1, [r3, #44]
 408 00c0 8021     		mov	r1, #128
 409 00c2 C905     		lsl	r1, r1, #23
 410 00c4 8968     		ldr	r1, [r1, #8]
 411 00c6 1170     		strb	r1, [r2]
 412              		.loc 1 183 0
 413 00c8 1A6B     		ldr	r2, [r3, #48]
 414 00ca 013A     		sub	r2, r2, #1
 415 00cc 1A63     		str	r2, [r3, #48]
 416              	.L26:
 417              		.loc 1 185 0
 418 00ce 1C4B     		ldr	r3, .L29+4
 419 00d0 1B6B     		ldr	r3, [r3, #48]
 420 00d2 012B     		cmp	r3, #1
 421 00d4 04D1     		bne	.L27
 422              		.loc 1 186 0
 423 00d6 0C22     		mov	r2, #12
 424 00d8 8023     		mov	r3, #128
 425 00da DB05     		lsl	r3, r3, #23
 426 00dc 9A61     		str	r2, [r3, #24]
 427 00de 28E0     		b	.L12
 428              	.L27:
 429              		.loc 1 189 0
 430 00e0 8023     		mov	r3, #128
 431 00e2 DB05     		lsl	r3, r3, #23
 432 00e4 0422     		mov	r2, #4
 433 00e6 1A60     		str	r2, [r3]
 434              		.loc 1 190 0
 435 00e8 0822     		mov	r2, #8
 436 00ea 9A61     		str	r2, [r3, #24]
 437 00ec 21E0     		b	.L12
 438              	.LVL24:
 439              	.L19:
 440              		.loc 1 195 0
 441 00ee 144B     		ldr	r3, .L29+4
 442 00f0 D96A     		ldr	r1, [r3, #44]
 443              	.LVL25:
 444 00f2 4A1C     		add	r2, r1, #1
 445 00f4 DA62     		str	r2, [r3, #44]
 446 00f6 8022     		mov	r2, #128
 447 00f8 D205     		lsl	r2, r2, #23
 448 00fa 9068     		ldr	r0, [r2, #8]
 449 00fc 0870     		strb	r0, [r1]
 450              		.loc 1 196 0
 451 00fe 196B     		ldr	r1, [r3, #48]
 452 0100 0139     		sub	r1, r1, #1
 453 0102 1963     		str	r1, [r3, #48]
 454              		.loc 1 197 0
 455 0104 1021     		mov	r1, #16
 456 0106 1160     		str	r1, [r2]
ARM GAS  /tmp/ccxWN4jH.s 			page 9


 457              		.loc 1 198 0
 458 0108 0821     		mov	r1, #8
 459 010a 9161     		str	r1, [r2, #24]
 460              		.loc 1 199 0
 461              	@ 199 "ChibiOS_2.6.5/os/hal/platforms/LPC11Uxx/i2c_lld.c" 1
 462 010c 72B6     		cpsid   i
 463              	@ 0 "" 2
 464              		.code	16
 465 010e D869     		ldr	r0, [r3, #28]
 466 0110 0028     		cmp	r0, #0
 467 0112 05D0     		beq	.L28
 468              	.LVL26:
 469              	.LBB7:
 470              		.loc 1 199 0 is_stmt 0 discriminator 1
 471 0114 0023     		mov	r3, #0
 472 0116 0A4A     		ldr	r2, .L29+4
 473 0118 D361     		str	r3, [r2, #28]
 474 011a 4362     		str	r3, [r0, #36]
 475 011c FFF7FEFF 		bl	chSchReadyI
 476              	.LVL27:
 477              	.L28:
 478              	.LBE7:
 479              		.loc 1 199 0 discriminator 2
 480              	@ 199 "ChibiOS_2.6.5/os/hal/platforms/LPC11Uxx/i2c_lld.c" 1
 481 0120 62B6     		cpsie   i
 482              	@ 0 "" 2
 483              		.loc 1 200 0 is_stmt 1 discriminator 2
 484              		.code	16
 485 0122 06E0     		b	.L12
 486              	.LVL28:
 487              	.L13:
 488              		.loc 1 204 0
 489 0124 0822     		mov	r2, #8
 490 0126 8023     		mov	r3, #128
 491 0128 DB05     		lsl	r3, r3, #23
 492 012a 9A61     		str	r2, [r3, #24]
 493              		.loc 1 205 0
 494 012c 0448     		ldr	r0, .L29+4
 495 012e FFF7FEFF 		bl	i2c_lld_serve_error_interrupt
 496              	.LVL29:
 497              	.L12:
 498              		.loc 1 210 0
 499 0132 201C     		mov	r0, r4
 500 0134 FFF7FEFF 		bl	_port_irq_epilogue
 501              	.LVL30:
 502              		.loc 1 211 0
 503              		@ sp needed
 504              	.LVL31:
 505 0138 10BD     		pop	{r4, pc}
 506              	.L30:
 507 013a C046     		.align	2
 508              	.L29:
 509 013c 00000000 		.word	.L14
 510 0140 00000000 		.word	.LANCHOR0
 511              		.cfi_endproc
 512              	.LFE41:
 513              		.size	Vector7C, .-Vector7C
ARM GAS  /tmp/ccxWN4jH.s 			page 10


 514              		.section	.text.i2c_lld_init,"ax",%progbits
 515              		.align	2
 516              		.global	i2c_lld_init
 517              		.code	16
 518              		.thumb_func
 519              		.type	i2c_lld_init, %function
 520              	i2c_lld_init:
 521              	.LFB42:
 522              		.loc 1 222 0
 523              		.cfi_startproc
 524 0000 10B5     		push	{r4, lr}
 525              		.cfi_def_cfa_offset 8
 526              		.cfi_offset 4, -8
 527              		.cfi_offset 14, -4
 528              		.loc 1 224 0
 529 0002 074C     		ldr	r4, .L32
 530 0004 201C     		mov	r0, r4
 531 0006 FFF7FEFF 		bl	i2cObjectInit
 532              	.LVL32:
 533              		.loc 1 225 0
 534 000a 0023     		mov	r3, #0
 535 000c E361     		str	r3, [r4, #28]
 536              		.loc 1 226 0
 537 000e 8023     		mov	r3, #128
 538 0010 DB05     		lsl	r3, r3, #23
 539 0012 6363     		str	r3, [r4, #52]
 540              		.loc 1 228 0
 541 0014 034B     		ldr	r3, .L32+4
 542 0016 0122     		mov	r2, #1
 543 0018 1A61     		str	r2, [r3, #16]
 544              		.loc 1 229 0
 545 001a 5A61     		str	r2, [r3, #20]
 546              		.loc 1 230 0
 547              		@ sp needed
 548 001c 10BD     		pop	{r4, pc}
 549              	.L33:
 550 001e C046     		.align	2
 551              	.L32:
 552 0020 00000000 		.word	.LANCHOR0
 553 0024 00400440 		.word	1074020352
 554              		.cfi_endproc
 555              	.LFE42:
 556              		.size	i2c_lld_init, .-i2c_lld_init
 557              		.global	__aeabi_uidiv
 558              		.section	.text.i2c_lld_start,"ax",%progbits
 559              		.align	2
 560              		.global	i2c_lld_start
 561              		.code	16
 562              		.thumb_func
 563              		.type	i2c_lld_start, %function
 564              	i2c_lld_start:
 565              	.LFB43:
 566              		.loc 1 239 0
 567              		.cfi_startproc
 568              	.LVL33:
 569 0000 F8B5     		push	{r3, r4, r5, r6, r7, lr}
 570              		.cfi_def_cfa_offset 24
ARM GAS  /tmp/ccxWN4jH.s 			page 11


 571              		.cfi_offset 3, -24
 572              		.cfi_offset 4, -20
 573              		.cfi_offset 5, -16
 574              		.cfi_offset 6, -12
 575              		.cfi_offset 7, -8
 576              		.cfi_offset 14, -4
 577 0002 051C     		mov	r5, r0
 578              		.loc 1 242 0
 579 0004 446B     		ldr	r4, [r0, #52]
 580              	.LVL34:
 581              		.loc 1 245 0
 582 0006 4023     		mov	r3, #64
 583 0008 A361     		str	r3, [r4, #24]
 584              		.loc 1 248 0
 585 000a 0378     		ldrb	r3, [r0]
 586 000c 012B     		cmp	r3, #1
 587 000e 14D1     		bne	.L35
 588              		.loc 1 250 0
 589 0010 1D4B     		ldr	r3, .L39
 590 0012 9842     		cmp	r0, r3
 591 0014 11D1     		bne	.L35
 592              		.loc 1 251 0
 593 0016 1D4B     		ldr	r3, .L39+4
 594 0018 8022     		mov	r2, #128
 595 001a 9858     		ldr	r0, [r3, r2]
 596              	.LVL35:
 597 001c 2021     		mov	r1, #32
 598 001e 0143     		orr	r1, r0
 599 0020 9950     		str	r1, [r3, r2]
 600              		.loc 1 252 0
 601 0022 5968     		ldr	r1, [r3, #4]
 602 0024 0222     		mov	r2, #2
 603 0026 9143     		bic	r1, r2
 604 0028 5960     		str	r1, [r3, #4]
 605              	.LBB8:
 606              	.LBB9:
 607              		.file 2 "CMSIS_CORE_LPC11Uxx/inc/core_cmInstr.h"
 608              		.loc 2 461 0
 609              	@ 461 "CMSIS_CORE_LPC11Uxx/inc/core_cmInstr.h" 1
 610 002a C046     		nop
 611              	@ 0 "" 2
 612              		.code	16
 613              	.LBE9:
 614              	.LBE8:
 615              		.loc 1 254 0
 616 002c 5968     		ldr	r1, [r3, #4]
 617 002e 0A43     		orr	r2, r1
 618 0030 5A60     		str	r2, [r3, #4]
 619              		.loc 1 255 0
 620 0032 0F20     		mov	r0, #15
 621 0034 C021     		mov	r1, #192
 622 0036 FFF7FEFF 		bl	nvicEnableVector
 623              	.LVL36:
 624              	.L35:
 625              		.loc 1 262 0
 626 003a 6E68     		ldr	r6, [r5, #4]
 627 003c 1448     		ldr	r0, .L39+8
ARM GAS  /tmp/ccxWN4jH.s 			page 12


 628 003e 7168     		ldr	r1, [r6, #4]
 629 0040 FFF7FEFF 		bl	__aeabi_uidiv
 630              	.LVL37:
 631 0044 051C     		mov	r5, r0
 632              	.LVL38:
 633              		.loc 1 263 0
 634 0046 3378     		ldrb	r3, [r6]
 635 0048 022B     		cmp	r3, #2
 636 004a 05D0     		beq	.L37
 637              		.loc 1 267 0
 638 004c 032B     		cmp	r3, #3
 639 004e 07D1     		bne	.L38
 640              		.loc 1 268 0
 641 0050 0326     		mov	r6, #3
 642              		.loc 1 269 0
 643 0052 0227     		mov	r7, #2
 644              		.loc 1 270 0
 645 0054 0120     		mov	r0, #1
 646              	.LVL39:
 647 0056 06E0     		b	.L36
 648              	.LVL40:
 649              	.L37:
 650              		.loc 1 264 0
 651 0058 1326     		mov	r6, #19
 652              		.loc 1 265 0
 653 005a 0D27     		mov	r7, #13
 654              		.loc 1 266 0
 655 005c 0620     		mov	r0, #6
 656              	.LVL41:
 657 005e 02E0     		b	.L36
 658              	.LVL42:
 659              	.L38:
 660              		.loc 1 272 0
 661 0060 0226     		mov	r6, #2
 662              		.loc 1 273 0
 663 0062 0127     		mov	r7, #1
 664              		.loc 1 274 0
 665 0064 0120     		mov	r0, #1
 666              	.LVL43:
 667              	.L36:
 668              		.loc 1 277 0
 669 0066 6843     		mul	r0, r5
 670              	.LVL44:
 671 0068 311C     		mov	r1, r6
 672 006a FFF7FEFF 		bl	__aeabi_uidiv
 673              	.LVL45:
 674 006e 2061     		str	r0, [r4, #16]
 675              		.loc 1 278 0
 676 0070 281C     		mov	r0, r5
 677 0072 7843     		mul	r0, r7
 678 0074 311C     		mov	r1, r6
 679 0076 FFF7FEFF 		bl	__aeabi_uidiv
 680              	.LVL46:
 681 007a 6061     		str	r0, [r4, #20]
 682              		.loc 1 281 0
 683 007c 2268     		ldr	r2, [r4]
 684 007e 4023     		mov	r3, #64
ARM GAS  /tmp/ccxWN4jH.s 			page 13


 685 0080 1343     		orr	r3, r2
 686 0082 2360     		str	r3, [r4]
 687              		.loc 1 282 0
 688              		@ sp needed
 689              	.LVL47:
 690              	.LVL48:
 691              	.LVL49:
 692              	.LVL50:
 693 0084 F8BD     		pop	{r3, r4, r5, r6, r7, pc}
 694              	.L40:
 695 0086 C046     		.align	2
 696              	.L39:
 697 0088 00000000 		.word	.LANCHOR0
 698 008c 00800440 		.word	1074036736
 699 0090 006CDC02 		.word	48000000
 700              		.cfi_endproc
 701              	.LFE43:
 702              		.size	i2c_lld_start, .-i2c_lld_start
 703              		.section	.text.i2c_lld_stop,"ax",%progbits
 704              		.align	2
 705              		.global	i2c_lld_stop
 706              		.code	16
 707              		.thumb_func
 708              		.type	i2c_lld_stop, %function
 709              	i2c_lld_stop:
 710              	.LFB44:
 711              		.loc 1 291 0
 712              		.cfi_startproc
 713              	.LVL51:
 714 0000 08B5     		push	{r3, lr}
 715              		.cfi_def_cfa_offset 8
 716              		.cfi_offset 3, -8
 717              		.cfi_offset 14, -4
 718              		.loc 1 294 0
 719 0002 0378     		ldrb	r3, [r0]
 720 0004 012B     		cmp	r3, #1
 721 0006 0ED0     		beq	.L41
 722              		.loc 1 297 0
 723 0008 436B     		ldr	r3, [r0, #52]
 724 000a 4022     		mov	r2, #64
 725 000c 9A61     		str	r2, [r3, #24]
 726              		.loc 1 299 0
 727 000e 064B     		ldr	r3, .L43
 728 0010 9842     		cmp	r0, r3
 729 0012 08D1     		bne	.L41
 730              		.loc 1 300 0
 731 0014 0F20     		mov	r0, #15
 732              	.LVL52:
 733 0016 FFF7FEFF 		bl	nvicDisableVector
 734              	.LVL53:
 735              		.loc 1 301 0
 736 001a 044A     		ldr	r2, .L43+4
 737 001c 8023     		mov	r3, #128
 738 001e D158     		ldr	r1, [r2, r3]
 739 0020 2020     		mov	r0, #32
 740 0022 8143     		bic	r1, r0
 741 0024 D150     		str	r1, [r2, r3]
ARM GAS  /tmp/ccxWN4jH.s 			page 14


 742              	.L41:
 743              		.loc 1 304 0
 744              		@ sp needed
 745 0026 08BD     		pop	{r3, pc}
 746              	.L44:
 747              		.align	2
 748              	.L43:
 749 0028 00000000 		.word	.LANCHOR0
 750 002c 00800440 		.word	1074036736
 751              		.cfi_endproc
 752              	.LFE44:
 753              		.size	i2c_lld_stop, .-i2c_lld_stop
 754              		.section	.text.i2c_lld_master_receive_timeout,"ax",%progbits
 755              		.align	2
 756              		.global	i2c_lld_master_receive_timeout
 757              		.code	16
 758              		.thumb_func
 759              		.type	i2c_lld_master_receive_timeout, %function
 760              	i2c_lld_master_receive_timeout:
 761              	.LFB45:
 762              		.loc 1 331 0
 763              		.cfi_startproc
 764              	.LVL54:
 765 0000 F0B5     		push	{r4, r5, r6, r7, lr}
 766              		.cfi_def_cfa_offset 20
 767              		.cfi_offset 4, -20
 768              		.cfi_offset 5, -16
 769              		.cfi_offset 6, -12
 770              		.cfi_offset 7, -8
 771              		.cfi_offset 14, -4
 772 0002 87B0     		sub	sp, sp, #28
 773              		.cfi_def_cfa_offset 48
 774 0004 041C     		mov	r4, r0
 775 0006 171C     		mov	r7, r2
 776 0008 1E1C     		mov	r6, r3
 777              		.loc 1 332 0
 778 000a 456B     		ldr	r5, [r0, #52]
 779              	.LVL55:
 780              		.loc 1 335 0
 781 000c 4900     		lsl	r1, r1, #1
 782              	.LVL56:
 783 000e 0184     		strh	r1, [r0, #32]
 784              		.loc 1 337 0
 785 0010 0C9B     		ldr	r3, [sp, #48]
 786              	.LVL57:
 787 0012 0133     		add	r3, r3, #1
 788 0014 05D0     		beq	.L46
 789              		.loc 1 338 0
 790 0016 01A8     		add	r0, sp, #4
 791              	.LVL58:
 792 0018 0C99     		ldr	r1, [sp, #48]
 793 001a 194A     		ldr	r2, .L55
 794              	.LVL59:
 795 001c 231C     		mov	r3, r4
 796 001e FFF7FEFF 		bl	chVTSetI
 797              	.LVL60:
 798              	.L46:
ARM GAS  /tmp/ccxWN4jH.s 			page 15


 799              		.loc 1 341 0
 800              	@ 341 "ChibiOS_2.6.5/os/hal/platforms/LPC11Uxx/i2c_lld.c" 1
 801 0022 62B6     		cpsie   i
 802              	@ 0 "" 2
 803              		.loc 1 344 0
 804              		.code	16
 805 0024 0023     		mov	r3, #0
 806 0026 A360     		str	r3, [r4, #8]
 807              		.loc 1 345 0
 808 0028 E762     		str	r7, [r4, #44]
 809              		.loc 1 346 0
 810 002a 2663     		str	r6, [r4, #48]
 811              		.loc 1 349 0
 812              	@ 349 "ChibiOS_2.6.5/os/hal/platforms/LPC11Uxx/i2c_lld.c" 1
 813 002c 72B6     		cpsid   i
 814              	@ 0 "" 2
 815              		.loc 1 353 0
 816              		.code	16
 817 002e 0C9B     		ldr	r3, [sp, #48]
 818 0030 0133     		add	r3, r3, #1
 819 0032 19D0     		beq	.L47
 820              		.loc 1 353 0 is_stmt 0 discriminator 1
 821 0034 049B     		ldr	r3, [sp, #16]
 822 0036 002B     		cmp	r3, #0
 823 0038 0AD1     		bne	.L53
 824 003a 06E0     		b	.L52
 825              	.L50:
 826              		.loc 1 363 0 is_stmt 1
 827 003c 01A8     		add	r0, sp, #4
 828 003e FFF7FEFF 		bl	chVTResetI
 829              	.LVL61:
 830              	.L51:
 831              		.loc 1 365 0
 832 0042 104B     		ldr	r3, .L55+4
 833 0044 9B69     		ldr	r3, [r3, #24]
 834 0046 586A     		ldr	r0, [r3, #36]
 835 0048 17E0     		b	.L54
 836              	.L52:
 837              		.loc 1 354 0
 838 004a 0120     		mov	r0, #1
 839 004c 4042     		neg	r0, r0
 840 004e 14E0     		b	.L54
 841              	.L53:
 842              		.loc 1 357 0
 843 0050 2023     		mov	r3, #32
 844 0052 2B60     		str	r3, [r5]
 845              		.loc 1 360 0
 846 0054 0B4B     		ldr	r3, .L55+4
 847 0056 9B69     		ldr	r3, [r3, #24]
 848 0058 E361     		str	r3, [r4, #28]
 849              		.loc 1 361 0
 850 005a 0220     		mov	r0, #2
 851 005c FFF7FEFF 		bl	chSchGoSleepS
 852              	.LVL62:
 853              		.loc 1 362 0
 854 0060 049B     		ldr	r3, [sp, #16]
 855 0062 002B     		cmp	r3, #0
ARM GAS  /tmp/ccxWN4jH.s 			page 16


 856 0064 EAD1     		bne	.L50
 857 0066 ECE7     		b	.L51
 858              	.L47:
 859              		.loc 1 357 0
 860 0068 2023     		mov	r3, #32
 861 006a 2B60     		str	r3, [r5]
 862              		.loc 1 360 0
 863 006c 054B     		ldr	r3, .L55+4
 864 006e 9B69     		ldr	r3, [r3, #24]
 865 0070 E361     		str	r3, [r4, #28]
 866              		.loc 1 361 0
 867 0072 0220     		mov	r0, #2
 868 0074 FFF7FEFF 		bl	chSchGoSleepS
 869              	.LVL63:
 870 0078 E3E7     		b	.L51
 871              	.L54:
 872              		.loc 1 366 0
 873 007a 07B0     		add	sp, sp, #28
 874              		@ sp needed
 875              	.LVL64:
 876              	.LVL65:
 877              	.LVL66:
 878              	.LVL67:
 879 007c F0BD     		pop	{r4, r5, r6, r7, pc}
 880              	.L56:
 881 007e C046     		.align	2
 882              	.L55:
 883 0080 00000000 		.word	i2c_lld_safety_timeout
 884 0084 00000000 		.word	rlist
 885              		.cfi_endproc
 886              	.LFE45:
 887              		.size	i2c_lld_master_receive_timeout, .-i2c_lld_master_receive_timeout
 888              		.section	.text.i2c_lld_master_transmit_timeout,"ax",%progbits
 889              		.align	2
 890              		.global	i2c_lld_master_transmit_timeout
 891              		.code	16
 892              		.thumb_func
 893              		.type	i2c_lld_master_transmit_timeout, %function
 894              	i2c_lld_master_transmit_timeout:
 895              	.LFB46:
 896              		.loc 1 396 0
 897              		.cfi_startproc
 898              	.LVL68:
 899 0000 F0B5     		push	{r4, r5, r6, r7, lr}
 900              		.cfi_def_cfa_offset 20
 901              		.cfi_offset 4, -20
 902              		.cfi_offset 5, -16
 903              		.cfi_offset 6, -12
 904              		.cfi_offset 7, -8
 905              		.cfi_offset 14, -4
 906 0002 87B0     		sub	sp, sp, #28
 907              		.cfi_def_cfa_offset 48
 908 0004 041C     		mov	r4, r0
 909 0006 171C     		mov	r7, r2
 910 0008 1E1C     		mov	r6, r3
 911              		.loc 1 397 0
 912 000a 456B     		ldr	r5, [r0, #52]
ARM GAS  /tmp/ccxWN4jH.s 			page 17


 913              	.LVL69:
 914              		.loc 1 400 0
 915 000c 4900     		lsl	r1, r1, #1
 916              	.LVL70:
 917 000e 0184     		strh	r1, [r0, #32]
 918              		.loc 1 402 0
 919 0010 0E9B     		ldr	r3, [sp, #56]
 920              	.LVL71:
 921 0012 0133     		add	r3, r3, #1
 922 0014 05D0     		beq	.L58
 923              		.loc 1 403 0
 924 0016 01A8     		add	r0, sp, #4
 925              	.LVL72:
 926 0018 0E99     		ldr	r1, [sp, #56]
 927 001a 1B4A     		ldr	r2, .L67
 928              	.LVL73:
 929 001c 231C     		mov	r3, r4
 930 001e FFF7FEFF 		bl	chVTSetI
 931              	.LVL74:
 932              	.L58:
 933              		.loc 1 406 0
 934              	@ 406 "ChibiOS_2.6.5/os/hal/platforms/LPC11Uxx/i2c_lld.c" 1
 935 0022 62B6     		cpsie   i
 936              	@ 0 "" 2
 937              		.loc 1 409 0
 938              		.code	16
 939 0024 0023     		mov	r3, #0
 940 0026 A360     		str	r3, [r4, #8]
 941              		.loc 1 410 0
 942 0028 6762     		str	r7, [r4, #36]
 943              		.loc 1 411 0
 944 002a A662     		str	r6, [r4, #40]
 945              		.loc 1 412 0
 946 002c 0C9B     		ldr	r3, [sp, #48]
 947 002e E362     		str	r3, [r4, #44]
 948              		.loc 1 413 0
 949 0030 0D9B     		ldr	r3, [sp, #52]
 950 0032 2363     		str	r3, [r4, #48]
 951              		.loc 1 416 0
 952              	@ 416 "ChibiOS_2.6.5/os/hal/platforms/LPC11Uxx/i2c_lld.c" 1
 953 0034 72B6     		cpsid   i
 954              	@ 0 "" 2
 955              		.loc 1 420 0
 956              		.code	16
 957 0036 0E9B     		ldr	r3, [sp, #56]
 958 0038 0133     		add	r3, r3, #1
 959 003a 19D0     		beq	.L59
 960              		.loc 1 420 0 is_stmt 0 discriminator 1
 961 003c 049B     		ldr	r3, [sp, #16]
 962 003e 002B     		cmp	r3, #0
 963 0040 0AD1     		bne	.L65
 964 0042 06E0     		b	.L64
 965              	.L62:
 966              		.loc 1 431 0 is_stmt 1
 967 0044 01A8     		add	r0, sp, #4
 968 0046 FFF7FEFF 		bl	chVTResetI
 969              	.LVL75:
ARM GAS  /tmp/ccxWN4jH.s 			page 18


 970              	.L63:
 971              		.loc 1 433 0
 972 004a 104B     		ldr	r3, .L67+4
 973 004c 9B69     		ldr	r3, [r3, #24]
 974 004e 586A     		ldr	r0, [r3, #36]
 975 0050 17E0     		b	.L66
 976              	.L64:
 977              		.loc 1 421 0
 978 0052 0120     		mov	r0, #1
 979 0054 4042     		neg	r0, r0
 980 0056 14E0     		b	.L66
 981              	.L65:
 982              		.loc 1 424 0
 983 0058 2023     		mov	r3, #32
 984 005a 2B60     		str	r3, [r5]
 985              		.loc 1 427 0
 986 005c 0B4B     		ldr	r3, .L67+4
 987 005e 9B69     		ldr	r3, [r3, #24]
 988 0060 E361     		str	r3, [r4, #28]
 989              		.loc 1 428 0
 990 0062 0220     		mov	r0, #2
 991 0064 FFF7FEFF 		bl	chSchGoSleepS
 992              	.LVL76:
 993              		.loc 1 430 0
 994 0068 049B     		ldr	r3, [sp, #16]
 995 006a 002B     		cmp	r3, #0
 996 006c EAD1     		bne	.L62
 997 006e ECE7     		b	.L63
 998              	.L59:
 999              		.loc 1 424 0
 1000 0070 2023     		mov	r3, #32
 1001 0072 2B60     		str	r3, [r5]
 1002              		.loc 1 427 0
 1003 0074 054B     		ldr	r3, .L67+4
 1004 0076 9B69     		ldr	r3, [r3, #24]
 1005 0078 E361     		str	r3, [r4, #28]
 1006              		.loc 1 428 0
 1007 007a 0220     		mov	r0, #2
 1008 007c FFF7FEFF 		bl	chSchGoSleepS
 1009              	.LVL77:
 1010 0080 E3E7     		b	.L63
 1011              	.L66:
 1012              		.loc 1 434 0
 1013 0082 07B0     		add	sp, sp, #28
 1014              		@ sp needed
 1015              	.LVL78:
 1016              	.LVL79:
 1017              	.LVL80:
 1018              	.LVL81:
 1019 0084 F0BD     		pop	{r4, r5, r6, r7, pc}
 1020              	.L68:
 1021 0086 C046     		.align	2
 1022              	.L67:
 1023 0088 00000000 		.word	i2c_lld_safety_timeout
 1024 008c 00000000 		.word	rlist
 1025              		.cfi_endproc
 1026              	.LFE46:
ARM GAS  /tmp/ccxWN4jH.s 			page 19


 1027              		.size	i2c_lld_master_transmit_timeout, .-i2c_lld_master_transmit_timeout
 1028              		.global	I2CD1
 1029              		.section	.bss.I2CD1,"aw",%nobits
 1030              		.align	2
 1031              		.set	.LANCHOR0,. + 0
 1032              		.type	I2CD1, %object
 1033              		.size	I2CD1, 56
 1034              	I2CD1:
 1035 0000 00000000 		.space	56
 1035      00000000 
 1035      00000000 
 1035      00000000 
 1035      00000000 
 1036              		.text
 1037              	.Letext0:
 1038              		.file 3 "/usr/local/lpcxpresso_7.3.0_186/lpcxpresso/tools/lib/gcc/arm-none-eabi/4.8.4/include/stdd
 1039              		.file 4 "/usr/local/lpcxpresso_7.3.0_186/lpcxpresso/tools/arm-none-eabi/include/machine/_default_t
 1040              		.file 5 "/usr/local/lpcxpresso_7.3.0_186/lpcxpresso/tools/arm-none-eabi/include/stdint.h"
 1041              		.file 6 "ChibiOS_2.6.5/os/ports/GCC/ARMCMx/chtypes.h"
 1042              		.file 7 "ChibiOS_2.6.5/os/kernel/include/chlists.h"
 1043              		.file 8 "ChibiOS_2.6.5/os/kernel/include/chthreads.h"
 1044              		.file 9 "ChibiOS_2.6.5/os/ports/GCC/ARMCMx/chcore_v6m.h"
 1045              		.file 10 "ChibiOS_2.6.5/os/kernel/include/chvt.h"
 1046              		.file 11 "ChibiOS_2.6.5/os/kernel/include/chschd.h"
 1047              		.file 12 "ChibiOS_2.6.5/os/kernel/include/chmtx.h"
 1048              		.file 13 "CMSIS_CORE_LPC11Uxx/inc/LPC11Uxx.h"
 1049              		.file 14 "ChibiOS_2.6.5/os/hal/include/i2c.h"
 1050              		.file 15 "ChibiOS_2.6.5/os/hal/platforms/LPC11Uxx/i2c_lld.h"
 1051              		.file 16 "CMSIS_CORE_LPC11Uxx/inc/nvic.h"