ARM GAS  /tmp/cc7RZsVd.s 			page 1


   1              		.cpu cortex-m0
   2              		.fpu softvfp
   3              		.eabi_attribute 20, 1
   4              		.eabi_attribute 21, 1
   5              		.eabi_attribute 23, 3
   6              		.eabi_attribute 24, 1
   7              		.eabi_attribute 25, 1
   8              		.eabi_attribute 26, 1
   9              		.eabi_attribute 30, 1
  10              		.eabi_attribute 34, 0
  11              		.eabi_attribute 18, 4
  12              		.code	16
  13              		.file	"Kalman.c"
  14              		.text
  15              	.Ltext0:
  16              		.cfi_sections	.debug_frame
  17              		.section	.text.init_kalman,"ax",%progbits
  18              		.align	2
  19              		.global	init_kalman
  20              		.code	16
  21              		.thumb_func
  22              		.type	init_kalman, %function
  23              	init_kalman:
  24              	.LFB0:
  25              		.file 1 "src/Kalman.c"
  26              		.loc 1 18 0
  27              		.cfi_startproc
  28              	.LVL0:
  29              		.loc 1 19 0
  30 0000 014B     		ldr	r3, .L2
  31 0002 1860     		str	r0, [r3]
  32              		.loc 1 20 0
  33              		@ sp needed
  34 0004 7047     		bx	lr
  35              	.L3:
  36 0006 C046     		.align	2
  37              	.L2:
  38 0008 00000000 		.word	.LANCHOR0
  39              		.cfi_endproc
  40              	.LFE0:
  41              		.size	init_kalman, .-init_kalman
  42              		.global	__aeabi_fadd
  43              		.global	__aeabi_fdiv
  44              		.global	__aeabi_i2f
  45              		.global	__aeabi_fmul
  46              		.global	__aeabi_f2iz
  47              		.global	__aeabi_fsub
  48              		.section	.text.kalman,"ax",%progbits
  49              		.align	2
  50              		.global	kalman
  51              		.code	16
  52              		.thumb_func
  53              		.type	kalman, %function
  54              	kalman:
  55              	.LFB1:
  56              		.loc 1 23 0
  57              		.cfi_startproc
ARM GAS  /tmp/cc7RZsVd.s 			page 2


  58              	.LVL1:
  59 0000 F0B5     		push	{r4, r5, r6, r7, lr}
  60              		.cfi_def_cfa_offset 20
  61              		.cfi_offset 4, -20
  62              		.cfi_offset 5, -16
  63              		.cfi_offset 6, -12
  64              		.cfi_offset 7, -8
  65              		.cfi_offset 14, -4
  66 0002 5746     		mov	r7, r10
  67 0004 4E46     		mov	r6, r9
  68 0006 4546     		mov	r5, r8
  69 0008 E0B4     		push	{r5, r6, r7}
  70              		.cfi_def_cfa_offset 32
  71              		.cfi_offset 8, -32
  72              		.cfi_offset 9, -28
  73              		.cfi_offset 10, -24
  74 000a 8246     		mov	r10, r0
  75              		.loc 1 29 0
  76 000c 1A4F     		ldr	r7, .L5
  77 000e 3868     		ldr	r0, [r7]
  78              	.LVL2:
  79 0010 1A4B     		ldr	r3, .L5+4
  80 0012 1968     		ldr	r1, [r3]
  81 0014 FFF7FEFF 		bl	__aeabi_fadd
  82              	.LVL3:
  83 0018 051C     		add	r5, r0, #0
  84              	.LVL4:
  85              		.loc 1 32 0
  86 001a 194B     		ldr	r3, .L5+8
  87 001c 1968     		ldr	r1, [r3]
  88 001e FFF7FEFF 		bl	__aeabi_fadd
  89              	.LVL5:
  90 0022 011C     		add	r1, r0, #0
  91 0024 281C     		add	r0, r5, #0
  92 0026 FFF7FEFF 		bl	__aeabi_fdiv
  93              	.LVL6:
  94 002a 8046     		mov	r8, r0
  95              	.LVL7:
  96              		.loc 1 35 0
  97 002c 154C     		ldr	r4, .L5+12
  98 002e 2068     		ldr	r0, [r4]
  99              	.LVL8:
 100 0030 2268     		ldr	r2, [r4]
 101 0032 9146     		mov	r9, r2
 102 0034 FFF7FEFF 		bl	__aeabi_i2f
 103              	.LVL9:
 104 0038 061C     		add	r6, r0, #0
 105 003a 5346     		mov	r3, r10
 106 003c 4A46     		mov	r2, r9
 107 003e 981A     		sub	r0, r3, r2
 108 0040 FFF7FEFF 		bl	__aeabi_i2f
 109              	.LVL10:
 110 0044 4146     		mov	r1, r8
 111 0046 FFF7FEFF 		bl	__aeabi_fmul
 112              	.LVL11:
 113 004a 011C     		add	r1, r0, #0
 114 004c 301C     		add	r0, r6, #0
ARM GAS  /tmp/cc7RZsVd.s 			page 3


 115 004e FFF7FEFF 		bl	__aeabi_fadd
 116              	.LVL12:
 117 0052 FFF7FEFF 		bl	__aeabi_f2iz
 118              	.LVL13:
 119 0056 061C     		mov	r6, r0
 120              	.LVL14:
 121              		.loc 1 38 0
 122 0058 FE20     		mov	r0, #254
 123              	.LVL15:
 124 005a 8005     		lsl	r0, r0, #22
 125 005c 4146     		mov	r1, r8
 126 005e FFF7FEFF 		bl	__aeabi_fsub
 127              	.LVL16:
 128 0062 291C     		add	r1, r5, #0
 129 0064 FFF7FEFF 		bl	__aeabi_fmul
 130              	.LVL17:
 131 0068 3860     		str	r0, [r7]
 132              		.loc 1 39 0
 133 006a 2660     		str	r6, [r4]
 134              		.loc 1 42 0
 135 006c 301C     		mov	r0, r6
 136              		@ sp needed
 137              	.LVL18:
 138              	.LVL19:
 139              	.LVL20:
 140              	.LVL21:
 141 006e 1CBC     		pop	{r2, r3, r4}
 142 0070 9046     		mov	r8, r2
 143 0072 9946     		mov	r9, r3
 144 0074 A246     		mov	r10, r4
 145 0076 F0BD     		pop	{r4, r5, r6, r7, pc}
 146              	.L6:
 147              		.align	2
 148              	.L5:
 149 0078 00000000 		.word	.LANCHOR1
 150 007c 00000000 		.word	.LANCHOR2
 151 0080 00000000 		.word	.LANCHOR3
 152 0084 00000000 		.word	.LANCHOR0
 153              		.cfi_endproc
 154              	.LFE1:
 155              		.size	kalman, .-kalman
 156              		.section	.bss.x_est_last,"aw",%nobits
 157              		.align	2
 158              		.set	.LANCHOR0,. + 0
 159              		.type	x_est_last, %object
 160              		.size	x_est_last, 4
 161              	x_est_last:
 162 0000 00000000 		.space	4
 163              		.section	.bss.P_last,"aw",%nobits
 164              		.align	2
 165              		.set	.LANCHOR1,. + 0
 166              		.type	P_last, %object
 167              		.size	P_last, 4
 168              	P_last:
 169 0000 00000000 		.space	4
 170              		.section	.data.Q,"aw",%progbits
 171              		.align	2
ARM GAS  /tmp/cc7RZsVd.s 			page 4


 172              		.set	.LANCHOR2,. + 0
 173              		.type	Q, %object
 174              		.size	Q, 4
 175              	Q:
 176 0000 9A99193E 		.word	1041865114
 177              		.section	.data.R,"aw",%progbits
 178              		.align	2
 179              		.set	.LANCHOR3,. + 0
 180              		.type	R, %object
 181              		.size	R, 4
 182              	R:
 183 0000 CDCC0C3F 		.word	1057803469
 184              		.text
 185              	.Letext0: