ARM GAS  /tmp/cc7RZsVd.s 			page 1


   1              		.cpu cortex-m0
   2              		.fpu softvfp
   3              		.eabi_attribute 20, 1
   4              		.eabi_attribute 21, 1
   5              		.eabi_attribute 23, 3
   6              		.eabi_attribute 24, 1
   7              		.eabi_attribute 25, 1
   8              		.eabi_attribute 26, 1
   9              		.eabi_attribute 30, 1
  10              		.eabi_attribute 34, 0
  11              		.eabi_attribute 18, 4
  12              		.code	16
  13              		.file	"Kalman.c"
  14              		.text
  15              	.Ltext0:
  16              		.cfi_sections	.debug_frame
  17              		.section	.text.init_kalman,"ax",%progbits
  18              		.align	2
  19              		.global	init_kalman
  20              		.code	16
  21              		.thumb_func
  22              		.type	init_kalman, %function
  23              	init_kalman:
  24              	.LFB0:
  25              		.file 1 "src/Kalman.c"
  26              		.loc 1 18 0
  27              		.cfi_startproc
  28              	.LVL0:
  29              		.loc 1 19 0
  30 0000 014B     		ldr	r3, .L2
  31 0002 1860     		str	r0, [r3]
  32              		.loc 1 20 0
  33              		@ sp needed
  34 0004 7047     		bx	lr
  35              	.L3:
  36 0006 C046     		.align	2
  37              	.L2:
  38 0008 00000000 		.word	.LANCHOR0
  39              		.cfi_endproc
  40              	.LFE0:
  41              		.size	init_kalman, .-init_kalman
  42              		.global	__aeabi_fadd
  43              		.global	__aeabi_fdiv
  44              		.global	__aeabi_i2f
  45              		.global	__aeabi_fmul
  46              		.global	__aeabi_f2iz
  47              		.global	__aeabi_fsub
  48              		.section	.text.kalman,"ax",%progbits
  49              		.align	2
  50              		.global	kalman
  51              		.code	16
  52              		.thumb_func
  53              		.type	kalman, %function
  54              	kalman:
  55              	.LFB1:
  56              		.loc 1 23 0
  57              		.cfi_startproc
ARM GAS  /tmp/cc7RZsVd.s 			page 2


  58              	.LVL1:
  59 0000 F0B5     		push	{r4, r5, r6, r7, lr}
  60              		.cfi_def_cfa_offset 20
  61              		.cfi_offset 4, -20
  62              		.cfi_offset 5, -16
  63              		.cfi_offset 6, -12
  64              		.cfi_offset 7, -8
  65              		.cfi_offset 14, -4
  66 0002 5746     		mov	r7, r10
  67 0004 4E46     		mov	r6, r9
  68 0006 4546     		mov	r5, r8
  69 0008 E0B4     		push	{r5, r6, r7}
  70              		.cfi_def_cfa_offset 32
  71              		.cfi_offset 8, -32
  72              		.cfi_offset 9, -28
  73              		.cfi_offset 10, -24
  74 000a 8246     		mov	r10, r0
  75              		.loc 1 29 0
  76 000c 1A4F     		ldr	r7, .L5
  77 000e 3868     		ldr	r0, [r7]
  78              	.LVL2:
  79 0010 1A4B     		ldr	r3, .L5+4
  80 0012 1968     		ldr	r1, [r3]
  81 0014 FFF7FEFF 		bl	__aeabi_fadd
  82              	.LVL3:
  83 0018 051C     		add	r5, r0, #0
  84              	.LVL4:
  85              		.loc 1 32 0
  86 001a 194B     		ldr	r3, .L5+8
  87 001c 1968     		ldr	r1, [r3]
  88 001e FFF7FEFF 		bl	__aeabi_fadd
  89              	.LVL5:
  90 0022 011C     		add	r1, r0, #0
  91 0024 281C     		add	r0, r5, #0
  92 0026 FFF7FEFF 		bl	__aeabi_fdiv
  93              	.LVL6:
  94 002a 8046     		mov	r8, r0
  95              	.LVL7:
  96              		.loc 1 35 0
  97 002c 154C     		ldr	r4, .L5+12
  98 002e 2068     		ldr	r0, [r4]
  99              	.LVL8:
 100 0030 2268     		ldr	r2, [r4]
 101 0032 9146     		mov	r9, r2
 102 0034 FFF7FEFF 		bl	__aeabi_i2f
 103              	.LVL9:
 104 0038 061C     		add	r6, r0, #0
 105 003a 5346     		mov	r3, r10
 106 003c 4A46     		mov	r2, r9
 107 003e 981A     		sub	r0, r3, r2
 108 0040 FFF7FEFF 		bl	__aeabi_i2f
 109              	.LVL10:
 110 0044 4146     		mov	r1, r8
 111 0046 FFF7FEFF 		bl	__aeabi_fmul
 112              	.LVL11:
 113 004a 011C     		add	r1, r0, #0
 114 004c 301C     		add	r0, r6, #0
ARM GAS  /tmp/cc7RZsVd.s 			page 3


 115 004e FFF7FEFF 		bl	__aeabi_fadd
 116              	.LVL12:
 117 0052 FFF7FEFF 		bl	__aeabi_f2iz
 118              	.LVL13:
 119 0056 061C     		mov	r6, r0
 120              	.LVL14:
 121              		.loc 1 38 0
 122 0058 FE20     		mov	r0, #254
 123              	.LVL15:
 124 005a 8005     		lsl	r0, r0, #22
 125 005c 4146     		mov	r1, r8
 126 005e FFF7FEFF 		bl	__aeabi_fsub
 127              	.LVL16:
 128 0062 291C     		add	r1, r5, #0
 129 0064 FFF7FEFF 		bl	__aeabi_fmul
 130              	.LVL17:
 131 0068 3860     		str	r0, [r7]
 132              		.loc 1 39 0
 133 006a 2660     		str	r6, [r4]
 134              		.loc 1 42 0
 135 006c 301C     		mov	r0, r6
 136              		@ sp needed
 137              	.LVL18:
 138              	.LVL19:
 139              	.LVL20:
 140              	.LVL21:
 141 006e 1CBC     		pop	{r2, r3, r4}
 142 0070 9046     		mov	r8, r2
 143 0072 9946     		mov	r9, r3
 144 0074 A246     		mov	r10, r4
 145 0076 F0BD     		pop	{r4, r5, r6, r7, pc}
 146              	.L6:
 147              		.align	2
 148              	.L5:
 149 0078 00000000 		.word	.LANCHOR1
 150 007c 00000000 		.word	.LANCHOR2
 151 0080 00000000 		.word	.LANCHOR3
 152 0084 00000000 		.word	.LANCHOR0
 153              		.cfi_endproc
 154              	.LFE1:
 155              		.size	kalman, .-kalman
 156              		.section	.bss.x_est_last,"aw",%nobits
 157              		.align	2
 158              		.set	.LANCHOR0,. + 0
 159              		.type	x_est_last, %object
 160              		.size	x_est_last, 4
 161              	x_est_last:
 162 0000 00000000 		.space	4
 163              		.section	.bss.P_last,"aw",%nobits
 164              		.align	2
 165              		.set	.LANCHOR1,. + 0
 166              		.type	P_last, %object
 167              		.size	P_last, 4
 168              	P_last:
 169 0000 00000000 		.space	4
 170              		.section	.data.Q,"aw",%progbits
 171              		.align	2
ARM GAS  /tmp/cc7RZsVd.s 			page 4


 172              		.set	.LANCHOR2,. + 0
 173              		.type	Q, %object
 174              		.size	Q, 4
 175              	Q:
 176 0000 9A99193E 		.word	1041865114
 177              		.section	.data.R,"aw",%progbits
 178              		.align	2
 179              		.set	.LANCHOR3,. + 0
 180              		.type	R, %object
 181              		.size	R, 4
 182              	R:
 183 0000 CDCC0C3F 		.word	1057803469
 184              		.text
 185              	.Letext0:
 186              		.section	.debug_info,"",%progbits
 187              	.Ldebug_info0:
 188 0000 F4000000 		.4byte	0xf4
 189 0004 0400     		.2byte	0x4
 190 0006 00000000 		.4byte	.Ldebug_abbrev0
 191 000a 04       		.byte	0x4
 192 000b 01       		.uleb128 0x1
 193 000c 2C000000 		.4byte	.LASF5
 194 0010 01       		.byte	0x1
 195 0011 20010000 		.4byte	.LASF6
 196 0015 0D000000 		.4byte	.LASF7
 197 0019 00000000 		.4byte	.Ldebug_ranges0+0
 198 001d 00000000 		.4byte	0
 199 0021 00000000 		.4byte	.Ldebug_line0
 200 0025 02       		.uleb128 0x2
 201 0026 02010000 		.4byte	.LASF8
 202 002a 01       		.byte	0x1
 203 002b 11       		.byte	0x11
 204 002c 00000000 		.4byte	.LFB0
 205 0030 0C000000 		.4byte	.LFE0-.LFB0
 206 0034 01       		.uleb128 0x1
 207 0035 9C       		.byte	0x9c
 208 0036 48000000 		.4byte	0x48
 209 003a 03       		.uleb128 0x3
 210 003b 15010000 		.4byte	.LASF0
 211 003f 01       		.byte	0x1
 212 0040 11       		.byte	0x11
 213 0041 48000000 		.4byte	0x48
 214 0045 01       		.uleb128 0x1
 215 0046 50       		.byte	0x50
 216 0047 00       		.byte	0
 217 0048 04       		.uleb128 0x4
 218 0049 04       		.byte	0x4
 219 004a 05       		.byte	0x5
 220 004b 696E7400 		.ascii	"int\000"
 221 004f 05       		.uleb128 0x5
 222 0050 0E010000 		.4byte	.LASF9
 223 0054 01       		.byte	0x1
 224 0055 16       		.byte	0x16
 225 0056 48000000 		.4byte	0x48
 226 005a 00000000 		.4byte	.LFB1
 227 005e 88000000 		.4byte	.LFE1-.LFB1
 228 0062 01       		.uleb128 0x1
ARM GAS  /tmp/cc7RZsVd.s 			page 5


 229 0063 9C       		.byte	0x9c
 230 0064 A1000000 		.4byte	0xa1
 231 0068 06       		.uleb128 0x6
 232 0069 15010000 		.4byte	.LASF0
 233 006d 01       		.byte	0x1
 234 006e 16       		.byte	0x16
 235 006f 48000000 		.4byte	0x48
 236 0073 00000000 		.4byte	.LLST0
 237 0077 07       		.uleb128 0x7
 238 0078 4B00     		.ascii	"K\000"
 239 007a 01       		.byte	0x1
 240 007b 18       		.byte	0x18
 241 007c A1000000 		.4byte	0xa1
 242 0080 2C000000 		.4byte	.LLST1
 243 0084 07       		.uleb128 0x7
 244 0085 5000     		.ascii	"P\000"
 245 0087 01       		.byte	0x1
 246 0088 19       		.byte	0x19
 247 0089 A1000000 		.4byte	0xa1
 248 008d 4A000000 		.4byte	.LLST2
 249 0091 08       		.uleb128 0x8
 250 0092 FC000000 		.4byte	.LASF1
 251 0096 01       		.byte	0x1
 252 0097 1A       		.byte	0x1a
 253 0098 48000000 		.4byte	0x48
 254 009c 68000000 		.4byte	.LLST3
 255 00a0 00       		.byte	0
 256 00a1 09       		.uleb128 0x9
 257 00a2 04       		.byte	0x4
 258 00a3 04       		.byte	0x4
 259 00a4 00000000 		.4byte	.LASF2
 260 00a8 0A       		.uleb128 0xa
 261 00a9 F1000000 		.4byte	.LASF3
 262 00ad 01       		.byte	0x1
 263 00ae 0A       		.byte	0xa
 264 00af B9000000 		.4byte	0xb9
 265 00b3 05       		.uleb128 0x5
 266 00b4 03       		.byte	0x3
 267 00b5 00000000 		.4byte	x_est_last
 268 00b9 0B       		.uleb128 0xb
 269 00ba 48000000 		.4byte	0x48
 270 00be 0A       		.uleb128 0xa
 271 00bf 06000000 		.4byte	.LASF4
 272 00c3 01       		.byte	0x1
 273 00c4 0B       		.byte	0xb
 274 00c5 CF000000 		.4byte	0xcf
 275 00c9 05       		.uleb128 0x5
 276 00ca 03       		.byte	0x3
 277 00cb 00000000 		.4byte	P_last
 278 00cf 0B       		.uleb128 0xb
 279 00d0 A1000000 		.4byte	0xa1
 280 00d4 0C       		.uleb128 0xc
 281 00d5 5100     		.ascii	"Q\000"
 282 00d7 01       		.byte	0x1
 283 00d8 0E       		.byte	0xe
 284 00d9 E3000000 		.4byte	0xe3
 285 00dd 05       		.uleb128 0x5
ARM GAS  /tmp/cc7RZsVd.s 			page 6


 286 00de 03       		.byte	0x3
 287 00df 00000000 		.4byte	Q
 288 00e3 0D       		.uleb128 0xd
 289 00e4 CF000000 		.4byte	0xcf
 290 00e8 0C       		.uleb128 0xc
 291 00e9 5200     		.ascii	"R\000"
 292 00eb 01       		.byte	0x1
 293 00ec 0F       		.byte	0xf
 294 00ed E3000000 		.4byte	0xe3
 295 00f1 05       		.uleb128 0x5
 296 00f2 03       		.byte	0x3
 297 00f3 00000000 		.4byte	R
 298 00f7 00       		.byte	0
 299              		.section	.debug_abbrev,"",%progbits
 300              	.Ldebug_abbrev0:
 301 0000 01       		.uleb128 0x1
 302 0001 11       		.uleb128 0x11
 303 0002 01       		.byte	0x1
 304 0003 25       		.uleb128 0x25
 305 0004 0E       		.uleb128 0xe
 306 0005 13       		.uleb128 0x13
 307 0006 0B       		.uleb128 0xb
 308 0007 03       		.uleb128 0x3
 309 0008 0E       		.uleb128 0xe
 310 0009 1B       		.uleb128 0x1b
 311 000a 0E       		.uleb128 0xe
 312 000b 55       		.uleb128 0x55
 313 000c 17       		.uleb128 0x17
 314 000d 11       		.uleb128 0x11
 315 000e 01       		.uleb128 0x1
 316 000f 10       		.uleb128 0x10
 317 0010 17       		.uleb128 0x17
 318 0011 00       		.byte	0
 319 0012 00       		.byte	0
 320 0013 02       		.uleb128 0x2
 321 0014 2E       		.uleb128 0x2e
 322 0015 01       		.byte	0x1
 323 0016 3F       		.uleb128 0x3f
 324 0017 19       		.uleb128 0x19
 325 0018 03       		.uleb128 0x3
 326 0019 0E       		.uleb128 0xe
 327 001a 3A       		.uleb128 0x3a
 328 001b 0B       		.uleb128 0xb
 329 001c 3B       		.uleb128 0x3b
 330 001d 0B       		.uleb128 0xb
 331 001e 27       		.uleb128 0x27
 332 001f 19       		.uleb128 0x19
 333 0020 11       		.uleb128 0x11
 334 0021 01       		.uleb128 0x1
 335 0022 12       		.uleb128 0x12
 336 0023 06       		.uleb128 0x6
 337 0024 40       		.uleb128 0x40
 338 0025 18       		.uleb128 0x18
 339 0026 9742     		.uleb128 0x2117
 340 0028 19       		.uleb128 0x19
 341 0029 01       		.uleb128 0x1
 342 002a 13       		.uleb128 0x13
ARM GAS  /tmp/cc7RZsVd.s 			page 7


 343 002b 00       		.byte	0
 344 002c 00       		.byte	0
 345 002d 03       		.uleb128 0x3
 346 002e 05       		.uleb128 0x5
 347 002f 00       		.byte	0
 348 0030 03       		.uleb128 0x3
 349 0031 0E       		.uleb128 0xe
 350 0032 3A       		.uleb128 0x3a
 351 0033 0B       		.uleb128 0xb
 352 0034 3B       		.uleb128 0x3b
 353 0035 0B       		.uleb128 0xb
 354 0036 49       		.uleb128 0x49
 355 0037 13       		.uleb128 0x13
 356 0038 02       		.uleb128 0x2
 357 0039 18       		.uleb128 0x18
 358 003a 00       		.byte	0
 359 003b 00       		.byte	0
 360 003c 04       		.uleb128 0x4
 361 003d 24       		.uleb128 0x24
 362 003e 00       		.byte	0
 363 003f 0B       		.uleb128 0xb
 364 0040 0B       		.uleb128 0xb
 365 0041 3E       		.uleb128 0x3e
 366 0042 0B       		.uleb128 0xb
 367 0043 03       		.uleb128 0x3
 368 0044 08       		.uleb128 0x8
 369 0045 00       		.byte	0
 370 0046 00       		.byte	0
 371 0047 05       		.uleb128 0x5
 372 0048 2E       		.uleb128 0x2e
 373 0049 01       		.byte	0x1
 374 004a 3F       		.uleb128 0x3f
 375 004b 19       		.uleb128 0x19
 376 004c 03       		.uleb128 0x3
 377 004d 0E       		.uleb128 0xe
 378 004e 3A       		.uleb128 0x3a
 379 004f 0B       		.uleb128 0xb
 380 0050 3B       		.uleb128 0x3b
 381 0051 0B       		.uleb128 0xb
 382 0052 27       		.uleb128 0x27
 383 0053 19       		.uleb128 0x19
 384 0054 49       		.uleb128 0x49
 385 0055 13       		.uleb128 0x13
 386 0056 11       		.uleb128 0x11
 387 0057 01       		.uleb128 0x1
 388 0058 12       		.uleb128 0x12
 389 0059 06       		.uleb128 0x6
 390 005a 40       		.uleb128 0x40
 391 005b 18       		.uleb128 0x18
 392 005c 9642     		.uleb128 0x2116
 393 005e 19       		.uleb128 0x19
 394 005f 01       		.uleb128 0x1
 395 0060 13       		.uleb128 0x13
 396 0061 00       		.byte	0
 397 0062 00       		.byte	0
 398 0063 06       		.uleb128 0x6
 399 0064 05       		.uleb128 0x5
ARM GAS  /tmp/cc7RZsVd.s 			page 8


 400 0065 00       		.byte	0
 401 0066 03       		.uleb128 0x3
 402 0067 0E       		.uleb128 0xe
 403 0068 3A       		.uleb128 0x3a
 404 0069 0B       		.uleb128 0xb
 405 006a 3B       		.uleb128 0x3b
 406 006b 0B       		.uleb128 0xb
 407 006c 49       		.uleb128 0x49
 408 006d 13       		.uleb128 0x13
 409 006e 02       		.uleb128 0x2
 410 006f 17       		.uleb128 0x17
 411 0070 00       		.byte	0
 412 0071 00       		.byte	0
 413 0072 07       		.uleb128 0x7
 414 0073 34       		.uleb128 0x34
 415 0074 00       		.byte	0
 416 0075 03       		.uleb128 0x3
 417 0076 08       		.uleb128 0x8
 418 0077 3A       		.uleb128 0x3a
 419 0078 0B       		.uleb128 0xb
 420 0079 3B       		.uleb128 0x3b
 421 007a 0B       		.uleb128 0xb
 422 007b 49       		.uleb128 0x49
 423 007c 13       		.uleb128 0x13
 424 007d 02       		.uleb128 0x2
 425 007e 17       		.uleb128 0x17
 426 007f 00       		.byte	0
 427 0080 00       		.byte	0
 428 0081 08       		.uleb128 0x8
 429 0082 34       		.uleb128 0x34
 430 0083 00       		.byte	0
 431 0084 03       		.uleb128 0x3
 432 0085 0E       		.uleb128 0xe
 433 0086 3A       		.uleb128 0x3a
 434 0087 0B       		.uleb128 0xb
 435 0088 3B       		.uleb128 0x3b
 436 0089 0B       		.uleb128 0xb
 437 008a 49       		.uleb128 0x49
 438 008b 13       		.uleb128 0x13
 439 008c 02       		.uleb128 0x2
 440 008d 17       		.uleb128 0x17
 441 008e 00       		.byte	0
 442 008f 00       		.byte	0
 443 0090 09       		.uleb128 0x9
 444 0091 24       		.uleb128 0x24
 445 0092 00       		.byte	0
 446 0093 0B       		.uleb128 0xb
 447 0094 0B       		.uleb128 0xb
 448 0095 3E       		.uleb128 0x3e
 449 0096 0B       		.uleb128 0xb
 450 0097 03       		.uleb128 0x3
 451 0098 0E       		.uleb128 0xe
 452 0099 00       		.byte	0
 453 009a 00       		.byte	0
 454 009b 0A       		.uleb128 0xa
 455 009c 34       		.uleb128 0x34
 456 009d 00       		.byte	0
ARM GAS  /tmp/cc7RZsVd.s 			page 9


 457 009e 03       		.uleb128 0x3
 458 009f 0E       		.uleb128 0xe
 459 00a0 3A       		.uleb128 0x3a
 460 00a1 0B       		.uleb128 0xb
 461 00a2 3B       		.uleb128 0x3b
 462 00a3 0B       		.uleb128 0xb
 463 00a4 49       		.uleb128 0x49
 464 00a5 13       		.uleb128 0x13
 465 00a6 02       		.uleb128 0x2
 466 00a7 18       		.uleb128 0x18
 467 00a8 00       		.byte	0
 468 00a9 00       		.byte	0
 469 00aa 0B       		.uleb128 0xb
 470 00ab 35       		.uleb128 0x35
 471 00ac 00       		.byte	0
 472 00ad 49       		.uleb128 0x49
 473 00ae 13       		.uleb128 0x13
 474 00af 00       		.byte	0
 475 00b0 00       		.byte	0
 476 00b1 0C       		.uleb128 0xc
 477 00b2 34       		.uleb128 0x34
 478 00b3 00       		.byte	0
 479 00b4 03       		.uleb128 0x3
 480 00b5 08       		.uleb128 0x8
 481 00b6 3A       		.uleb128 0x3a
 482 00b7 0B       		.uleb128 0xb
 483 00b8 3B       		.uleb128 0x3b
 484 00b9 0B       		.uleb128 0xb
 485 00ba 49       		.uleb128 0x49
 486 00bb 13       		.uleb128 0x13
 487 00bc 02       		.uleb128 0x2
 488 00bd 18       		.uleb128 0x18
 489 00be 00       		.byte	0
 490 00bf 00       		.byte	0
 491 00c0 0D       		.uleb128 0xd
 492 00c1 26       		.uleb128 0x26
 493 00c2 00       		.byte	0
 494 00c3 49       		.uleb128 0x49
 495 00c4 13       		.uleb128 0x13
 496 00c5 00       		.byte	0
 497 00c6 00       		.byte	0
 498 00c7 00       		.byte	0
 499              		.section	.debug_loc,"",%progbits
 500              	.Ldebug_loc0:
 501              	.LLST0:
 502 0000 00000000 		.4byte	.LVL1
 503 0004 10000000 		.4byte	.LVL2
 504 0008 0100     		.2byte	0x1
 505 000a 50       		.byte	0x50
 506 000b 10000000 		.4byte	.LVL2
 507 000f 6E000000 		.4byte	.LVL21
 508 0013 0100     		.2byte	0x1
 509 0015 5A       		.byte	0x5a
 510 0016 6E000000 		.4byte	.LVL21
 511 001a 88000000 		.4byte	.LFE1
 512 001e 0400     		.2byte	0x4
 513 0020 F3       		.byte	0xf3
ARM GAS  /tmp/cc7RZsVd.s 			page 10


 514 0021 01       		.uleb128 0x1
 515 0022 50       		.byte	0x50
 516 0023 9F       		.byte	0x9f
 517 0024 00000000 		.4byte	0
 518 0028 00000000 		.4byte	0
 519              	.LLST1:
 520 002c 2C000000 		.4byte	.LVL7
 521 0030 30000000 		.4byte	.LVL8
 522 0034 0100     		.2byte	0x1
 523 0036 50       		.byte	0x50
 524 0037 30000000 		.4byte	.LVL8
 525 003b 6E000000 		.4byte	.LVL20
 526 003f 0100     		.2byte	0x1
 527 0041 58       		.byte	0x58
 528 0042 00000000 		.4byte	0
 529 0046 00000000 		.4byte	0
 530              	.LLST2:
 531 004a 1A000000 		.4byte	.LVL4
 532 004e 21000000 		.4byte	.LVL5-1
 533 0052 0100     		.2byte	0x1
 534 0054 50       		.byte	0x50
 535 0055 21000000 		.4byte	.LVL5-1
 536 0059 6E000000 		.4byte	.LVL18
 537 005d 0100     		.2byte	0x1
 538 005f 55       		.byte	0x55
 539 0060 00000000 		.4byte	0
 540 0064 00000000 		.4byte	0
 541              	.LLST3:
 542 0068 58000000 		.4byte	.LVL14
 543 006c 5A000000 		.4byte	.LVL15
 544 0070 0100     		.2byte	0x1
 545 0072 50       		.byte	0x50
 546 0073 5A000000 		.4byte	.LVL15
 547 0077 6E000000 		.4byte	.LVL19
 548 007b 0100     		.2byte	0x1
 549 007d 56       		.byte	0x56
 550 007e 6E000000 		.4byte	.LVL19
 551 0082 88000000 		.4byte	.LFE1
 552 0086 0100     		.2byte	0x1
 553 0088 50       		.byte	0x50
 554 0089 00000000 		.4byte	0
 555 008d 00000000 		.4byte	0
 556              		.section	.debug_aranges,"",%progbits
 557 0000 24000000 		.4byte	0x24
 558 0004 0200     		.2byte	0x2
 559 0006 00000000 		.4byte	.Ldebug_info0
 560 000a 04       		.byte	0x4
 561 000b 00       		.byte	0
 562 000c 0000     		.2byte	0
 563 000e 0000     		.2byte	0
 564 0010 00000000 		.4byte	.LFB0
 565 0014 0C000000 		.4byte	.LFE0-.LFB0
 566 0018 00000000 		.4byte	.LFB1
 567 001c 88000000 		.4byte	.LFE1-.LFB1
 568 0020 00000000 		.4byte	0
 569 0024 00000000 		.4byte	0
 570              		.section	.debug_ranges,"",%progbits
ARM GAS  /tmp/cc7RZsVd.s 			page 11


 571              	.Ldebug_ranges0:
 572 0000 00000000 		.4byte	.LFB0
 573 0004 0C000000 		.4byte	.LFE0
 574 0008 00000000 		.4byte	.LFB1
 575 000c 88000000 		.4byte	.LFE1
 576 0010 00000000 		.4byte	0
 577 0014 00000000 		.4byte	0
 578              		.section	.debug_line,"",%progbits
 579              	.Ldebug_line0:
 580 0000 50000000 		.section	.debug_str,"MS",%progbits,1
 580      02002300 
 580      00000201 
 580      FB0E0D00 
 580      01010101 
 581              	.LASF2:
 582 0000 666C6F61 		.ascii	"float\000"
 582      7400
 583              	.LASF4:
 584 0006 505F6C61 		.ascii	"P_last\000"
 584      737400
 585              	.LASF7:
 586 000d 2F484444 		.ascii	"/HDD/GIT/variometer/Altimeter/\000"
 586      2F474954 
 586      2F766172 
 586      696F6D65 
 586      7465722F 
 587              	.LASF5:
 588 002c 474E5520 		.ascii	"GNU C 4.8.4 20140526 (release) [ARM/embedded-4_8-br"
 588      4320342E 
 588      382E3420 
 588      32303134 
 588      30353236 
 589 005f 616E6368 		.ascii	"anch revision 211358] -mcpu=cortex-m0 -mno-thumb-in"
 589      20726576 
 589      6973696F 
 589      6E203231 
 589      31333538 
 590 0092 74657277 		.ascii	"terwork -mthumb -ggdb -O1 -fomit-frame-pointer -ffu"
 590      6F726B20 
 590      2D6D7468 
 590      756D6220 
 590      2D676764 
 591 00c5 6E637469 		.ascii	"nction-sections -fdata-sections -fno-common\000"
 591      6F6E2D73 
 591      65637469 
 591      6F6E7320 
 591      2D666461 
 592              	.LASF3:
 593 00f1 785F6573 		.ascii	"x_est_last\000"
 593      745F6C61 
 593      737400
 594              	.LASF1:
 595 00fc 785F6573 		.ascii	"x_est\000"
 595      7400
 596              	.LASF8:
 597 0102 696E6974 		.ascii	"init_kalman\000"
 597      5F6B616C 
ARM GAS  /tmp/cc7RZsVd.s 			page 12


 597      6D616E00 
 598              	.LASF9:
 599 010e 6B616C6D 		.ascii	"kalman\000"
 599      616E00
 600              	.LASF0:
 601 0115 7A5F6D65 		.ascii	"z_measured\000"
 601      61737572 
 601      656400
 602              	.LASF6:
 603 0120 7372632F 		.ascii	"src/Kalman.c\000"
 603      4B616C6D 
 603      616E2E63 
 603      00
 604              		.ident	"GCC: (GNU Tools for ARM Embedded Processors) 4.8.4 20140526 (release) [ARM/embedded-4_8-br
ARM GAS  /tmp/cc7RZsVd.s 			page 13


DEFINED SYMBOLS
                            *ABS*:00000000 Kalman.c
     /tmp/cc7RZsVd.s:18     .text.init_kalman:00000000 $t
     /tmp/cc7RZsVd.s:23     .text.init_kalman:00000000 init_kalman
     /tmp/cc7RZsVd.s:38     .text.init_kalman:00000008 $d
     /tmp/cc7RZsVd.s:49     .text.kalman:00000000 $t
     /tmp/cc7RZsVd.s:54     .text.kalman:00000000 kalman
     /tmp/cc7RZsVd.s:149    .text.kalman:00000078 $d
     /tmp/cc7RZsVd.s:157    .bss.x_est_last:00000000 $d
     /tmp/cc7RZsVd.s:161    .bss.x_est_last:00000000 x_est_last
     /tmp/cc7RZsVd.s:164    .bss.P_last:00000000 $d
     /tmp/cc7RZsVd.s:168    .bss.P_last:00000000 P_last
     /tmp/cc7RZsVd.s:171    .data.Q:00000000 $d
     /tmp/cc7RZsVd.s:175    .data.Q:00000000 Q
     /tmp/cc7RZsVd.s:178    .data.R:00000000 $d
     /tmp/cc7RZsVd.s:182    .data.R:00000000 R
                     .debug_frame:00000010 $d

UNDEFINED SYMBOLS
__aeabi_fadd
__aeabi_fdiv
__aeabi_i2f
__aeabi_fmul
__aeabi_f2iz
__aeabi_fsub
