ARM GAS  /tmp/ccAirlCG.s 			page 1


   1              		.cpu cortex-m0
   2              		.fpu softvfp
   3              		.eabi_attribute 20, 1
   4              		.eabi_attribute 21, 1
   5              		.eabi_attribute 23, 3
   6              		.eabi_attribute 24, 1
   7              		.eabi_attribute 25, 1
   8              		.eabi_attribute 26, 1
   9              		.eabi_attribute 30, 1
  10              		.eabi_attribute 34, 0
  11              		.eabi_attribute 18, 4
  12              		.code	16
  13              		.file	"main.c"
  14              		.text
  15              	.Ltext0:
  16              		.cfi_sections	.debug_frame
  17              		.section	.text.pwm3pcb,"ax",%progbits
  18              		.align	2
  19              		.code	16
  20              		.thumb_func
  21              		.type	pwm3pcb, %function
  22              	pwm3pcb:
  23              	.LFB105:
  24              		.file 1 "src/main.c"
  25              		.loc 1 38 0
  26              		.cfi_startproc
  27              	.LVL0:
  28              		.loc 1 41 0
  29 0000 8021     		mov	r1, #128
  30 0002 4904     		lsl	r1, r1, #17
  31 0004 024B     		ldr	r3, .L2
  32 0006 A022     		mov	r2, #160
  33 0008 D205     		lsl	r2, r2, #23
  34 000a D150     		str	r1, [r2, r3]
  35              		.loc 1 42 0
  36              		@ sp needed
  37 000c 7047     		bx	lr
  38              	.L3:
  39 000e C046     		.align	2
  40              	.L2:
  41 0010 84220000 		.word	8836
  42              		.cfi_endproc
  43              	.LFE105:
  44              		.size	pwm3pcb, .-pwm3pcb
  45              		.section	.text.pwm3c0cb,"ax",%progbits
  46              		.align	2
  47              		.code	16
  48              		.thumb_func
  49              		.type	pwm3c0cb, %function
  50              	pwm3c0cb:
  51              	.LFB106:
  52              		.loc 1 44 0
  53              		.cfi_startproc
  54              	.LVL1:
  55              		.loc 1 47 0
  56 0000 8021     		mov	r1, #128
  57 0002 4904     		lsl	r1, r1, #17
ARM GAS  /tmp/ccAirlCG.s 			page 2


  58 0004 024B     		ldr	r3, .L5
  59 0006 A022     		mov	r2, #160
  60 0008 D205     		lsl	r2, r2, #23
  61 000a D150     		str	r1, [r2, r3]
  62              		.loc 1 48 0
  63              		@ sp needed
  64 000c 7047     		bx	lr
  65              	.L6:
  66 000e C046     		.align	2
  67              	.L5:
  68 0010 04220000 		.word	8708
  69              		.cfi_endproc
  70              	.LFE106:
  71              		.size	pwm3c0cb, .-pwm3c0cb
  72              		.section	.text.Thread1,"ax",%progbits
  73              		.align	2
  74              		.code	16
  75              		.thumb_func
  76              		.type	Thread1, %function
  77              	Thread1:
  78              	.LFB107:
  79              		.loc 1 74 0
  80              		.cfi_startproc
  81              	.LVL2:
  82 0000 F0B5     		push	{r4, r5, r6, r7, lr}
  83              		.cfi_def_cfa_offset 20
  84              		.cfi_offset 4, -20
  85              		.cfi_offset 5, -16
  86              		.cfi_offset 6, -12
  87              		.cfi_offset 7, -8
  88              		.cfi_offset 14, -4
  89 0002 4746     		mov	r7, r8
  90 0004 80B4     		push	{r7}
  91              		.cfi_def_cfa_offset 24
  92              		.cfi_offset 8, -24
  93              		.loc 1 77 0
  94 0006 0C4B     		ldr	r3, .L9
  95 0008 9B69     		ldr	r3, [r3, #24]
  96 000a 0C4A     		ldr	r2, .L9+4
  97 000c 9A61     		str	r2, [r3, #24]
  98              		.loc 1 80 0
  99 000e A025     		mov	r5, #160
 100 0010 ED05     		lsl	r5, r5, #23
 101 0012 8A23     		mov	r3, #138
 102 0014 9B01     		lsl	r3, r3, #6
 103 0016 9846     		mov	r8, r3
 104 0018 8026     		mov	r6, #128
 105 001a 371C     		mov	r7, r6
 106              	.LVL3:
 107              	.L8:
 108              		.loc 1 80 0 is_stmt 0 discriminator 1
 109 001c 4346     		mov	r3, r8
 110 001e EF50     		str	r7, [r5, r3]
 111              		.loc 1 81 0 is_stmt 1 discriminator 1
 112 0020 FA24     		mov	r4, #250
 113 0022 6400     		lsl	r4, r4, #1
 114 0024 201C     		mov	r0, r4
ARM GAS  /tmp/ccAirlCG.s 			page 3


 115 0026 FFF7FEFF 		bl	chThdSleep
 116              	.LVL4:
 117              		.loc 1 82 0 discriminator 1
 118 002a 8823     		mov	r3, #136
 119 002c 9B01     		lsl	r3, r3, #6
 120 002e EE50     		str	r6, [r5, r3]
 121              		.loc 1 83 0 discriminator 1
 122 0030 201C     		mov	r0, r4
 123 0032 FFF7FEFF 		bl	chThdSleep
 124              	.LVL5:
 125 0036 F1E7     		b	.L8
 126              	.L10:
 127              		.align	2
 128              	.L9:
 129 0038 00000000 		.word	rlist
 130 003c 00000000 		.word	.LC1
 131              		.cfi_endproc
 132              	.LFE107:
 133              		.size	Thread1, .-Thread1
 134              		.section	.text.Thread4,"ax",%progbits
 135              		.align	2
 136              		.code	16
 137              		.thumb_func
 138              		.type	Thread4, %function
 139              	Thread4:
 140              	.LFB110:
 141              		.loc 1 146 0
 142              		.cfi_startproc
 143              	.LVL6:
 144 0000 38B5     		push	{r3, r4, r5, lr}
 145              		.cfi_def_cfa_offset 16
 146              		.cfi_offset 3, -16
 147              		.cfi_offset 4, -12
 148              		.cfi_offset 5, -8
 149              		.cfi_offset 14, -4
 150              		.loc 1 148 0
 151 0002 0C4B     		ldr	r3, .L15
 152 0004 9B69     		ldr	r3, [r3, #24]
 153 0006 0C4A     		ldr	r2, .L15+4
 154 0008 9A61     		str	r2, [r3, #24]
 155              		.loc 1 153 0
 156 000a 0C4D     		ldr	r5, .L15+8
 157              		.loc 1 159 0
 158 000c 0C4C     		ldr	r4, .L15+12
 159              	.LVL7:
 160              	.L14:
 161              		.loc 1 153 0
 162 000e 2B78     		ldrb	r3, [r5]
 163 0010 042B     		cmp	r3, #4
 164 0012 02D1     		bne	.L12
 165              		.loc 1 154 0
 166 0014 FFF7FEFF 		bl	writeUSB
 167              	.LVL8:
 168 0018 01E0     		b	.L13
 169              	.L12:
 170              		.loc 1 156 0
 171 001a FFF7FEFF 		bl	writeUSB_delete
ARM GAS  /tmp/ccAirlCG.s 			page 4


 172              	.LVL9:
 173              	.L13:
 174              		.loc 1 158 0
 175 001e FFF7FEFF 		bl	EchoCharacter
 176              	.LVL10:
 177              		.loc 1 159 0
 178 0022 607B     		ldrb	r0, [r4, #13]
 179 0024 0121     		mov	r1, #1
 180 0026 FFF7FEFF 		bl	USB_USBTask
 181              	.LVL11:
 182              		.loc 1 162 0
 183 002a 1E20     		mov	r0, #30
 184 002c FFF7FEFF 		bl	chThdSleep
 185              	.LVL12:
 186              		.loc 1 163 0
 187 0030 EDE7     		b	.L14
 188              	.L16:
 189 0032 C046     		.align	2
 190              	.L15:
 191 0034 00000000 		.word	rlist
 192 0038 0C000000 		.word	.LC4
 193 003c 00000000 		.word	USB_DeviceState
 194 0040 00000000 		.word	VirtualSerial_CDC_Interface
 195              		.cfi_endproc
 196              	.LFE110:
 197              		.size	Thread4, .-Thread4
 198              		.section	.text.Thread3,"ax",%progbits
 199              		.align	2
 200              		.code	16
 201              		.thumb_func
 202              		.type	Thread3, %function
 203              	Thread3:
 204              	.LFB109:
 205              		.loc 1 128 0
 206              		.cfi_startproc
 207              	.LVL13:
 208 0000 00B5     		push	{lr}
 209              		.cfi_def_cfa_offset 4
 210              		.cfi_offset 14, -4
 211 0002 83B0     		sub	sp, sp, #12
 212              		.cfi_def_cfa_offset 16
 213              		.loc 1 132 0
 214 0004 054B     		ldr	r3, .L19
 215 0006 9B69     		ldr	r3, [r3, #24]
 216 0008 054A     		ldr	r2, .L19+4
 217 000a 9A61     		str	r2, [r3, #24]
 218              	.LVL14:
 219              	.L18:
 220              		.loc 1 135 0 discriminator 1
 221 000c FFF7FEFF 		bl	RTC_getTime
 222              	.LVL15:
 223              		.loc 1 137 0 discriminator 1
 224 0010 FFF7FEFF 		bl	writeTime
 225              	.LVL16:
 226              		.loc 1 139 0 discriminator 1
 227 0014 6420     		mov	r0, #100
 228 0016 FFF7FEFF 		bl	chThdSleep
ARM GAS  /tmp/ccAirlCG.s 			page 5


 229              	.LVL17:
 230 001a F7E7     		b	.L18
 231              	.L20:
 232              		.align	2
 233              	.L19:
 234 001c 00000000 		.word	rlist
 235 0020 14000000 		.word	.LC9
 236              		.cfi_endproc
 237              	.LFE109:
 238              		.size	Thread3, .-Thread3
 239              		.section	.text.Thread2,"ax",%progbits
 240              		.align	2
 241              		.code	16
 242              		.thumb_func
 243              		.type	Thread2, %function
 244              	Thread2:
 245              	.LFB108:
 246              		.loc 1 93 0
 247              		.cfi_startproc
 248              	.LVL18:
 249 0000 F0B5     		push	{r4, r5, r6, r7, lr}
 250              		.cfi_def_cfa_offset 20
 251              		.cfi_offset 4, -20
 252              		.cfi_offset 5, -16
 253              		.cfi_offset 6, -12
 254              		.cfi_offset 7, -8
 255              		.cfi_offset 14, -4
 256 0002 4746     		mov	r7, r8
 257 0004 80B4     		push	{r7}
 258              		.cfi_def_cfa_offset 24
 259              		.cfi_offset 8, -24
 260 0006 8AB0     		sub	sp, sp, #40
 261              		.cfi_def_cfa_offset 64
 262              	.LVL19:
 263              		.loc 1 98 0
 264 0008 1D4B     		ldr	r3, .L24
 265 000a 9B69     		ldr	r3, [r3, #24]
 266 000c 1D4A     		ldr	r2, .L24+4
 267 000e 9A61     		str	r2, [r3, #24]
 268              	.LVL20:
 269              		.loc 1 99 0
 270 0010 0025     		mov	r5, #0
 271              		.loc 1 105 0
 272 0012 08AC     		add	r4, sp, #32
 273              		.loc 1 112 0
 274 0014 1C48     		ldr	r0, .L24+8
 275              	.LVL21:
 276 0016 8046     		mov	r8, r0
 277              	.LVL22:
 278              	.L23:
 279              		.loc 1 102 0
 280 0018 002D     		cmp	r5, #0
 281 001a 0DD1     		bne	.L22
 282              	.LVL23:
 283              		.loc 1 104 0
 284 001c 04A8     		add	r0, sp, #16
 285 001e FFF7FEFF 		bl	HP03_getTemperature
ARM GAS  /tmp/ccAirlCG.s 			page 6


 286              	.LVL24:
 287              		.loc 1 105 0
 288 0022 6B46     		mov	r3, sp
 289 0024 221C     		mov	r2, r4
 290 0026 42CA     		ldmia	r2!, {r1, r6}
 291 0028 42C3     		stmia	r3!, {r1, r6}
 292 002a 0498     		ldr	r0, [sp, #16]
 293 002c 0599     		ldr	r1, [sp, #20]
 294 002e 069A     		ldr	r2, [sp, #24]
 295 0030 079B     		ldr	r3, [sp, #28]
 296 0032 FFF7FEFF 		bl	writeTemp
 297              	.LVL25:
 298              		.loc 1 106 0
 299 0036 1525     		mov	r5, #21
 300              	.LVL26:
 301              	.L22:
 302              		.loc 1 109 0
 303 0038 04A8     		add	r0, sp, #16
 304 003a 0121     		mov	r1, #1
 305 003c FFF7FEFF 		bl	HP03_getPressure
 306              	.LVL27:
 307              		.loc 1 110 0
 308 0040 013D     		sub	r5, r5, #1
 309              	.LVL28:
 310 0042 EDB2     		uxtb	r5, r5
 311              	.LVL29:
 312              		.loc 1 112 0
 313 0044 4746     		mov	r7, r8
 314 0046 3868     		ldr	r0, [r7]
 315 0048 07A9     		add	r1, sp, #28
 316 004a 6A46     		mov	r2, sp
 317 004c C8C9     		ldmia	r1!, {r3, r6, r7}
 318 004e C8C2     		stmia	r2!, {r3, r6, r7}
 319 0050 0499     		ldr	r1, [sp, #16]
 320 0052 059A     		ldr	r2, [sp, #20]
 321 0054 069B     		ldr	r3, [sp, #24]
 322 0056 FFF7FEFF 		bl	pressureToAltitude
 323              	.LVL30:
 324 005a 061C     		mov	r6, r0
 325              	.LVL31:
 326              		.loc 1 114 0
 327 005c 6B46     		mov	r3, sp
 328 005e 221C     		mov	r2, r4
 329 0060 03CA     		ldmia	r2!, {r0, r1}
 330 0062 03C3     		stmia	r3!, {r0, r1}
 331              	.LVL32:
 332 0064 0498     		ldr	r0, [sp, #16]
 333 0066 0599     		ldr	r1, [sp, #20]
 334 0068 069A     		ldr	r2, [sp, #24]
 335 006a 079B     		ldr	r3, [sp, #28]
 336 006c FFF7FEFF 		bl	writePress
 337              	.LVL33:
 338              		.loc 1 115 0
 339 0070 301C     		mov	r0, r6
 340 0072 FFF7FEFF 		bl	writeAlt
 341              	.LVL34:
 342              		.loc 1 117 0
ARM GAS  /tmp/ccAirlCG.s 			page 7


 343 0076 3220     		mov	r0, #50
 344 0078 FFF7FEFF 		bl	chThdSleep
 345              	.LVL35:
 346              		.loc 1 118 0
 347 007c CCE7     		b	.L23
 348              	.L25:
 349 007e C046     		.align	2
 350              	.L24:
 351 0080 00000000 		.word	rlist
 352 0084 20000000 		.word	.LC12
 353 0088 00000000 		.word	.LANCHOR0
 354              		.cfi_endproc
 355              	.LFE108:
 356              		.size	Thread2, .-Thread2
 357              		.section	.text.main,"ax",%progbits
 358              		.align	2
 359              		.global	main
 360              		.code	16
 361              		.thumb_func
 362              		.type	main, %function
 363              	main:
 364              	.LFB111:
 365              		.loc 1 170 0
 366              		.cfi_startproc
 367 0000 70B5     		push	{r4, r5, r6, lr}
 368              		.cfi_def_cfa_offset 16
 369              		.cfi_offset 4, -16
 370              		.cfi_offset 5, -12
 371              		.cfi_offset 6, -8
 372              		.cfi_offset 14, -4
 373 0002 8AB0     		sub	sp, sp, #40
 374              		.cfi_def_cfa_offset 56
 375              		.loc 1 181 0
 376 0004 FFF7FEFF 		bl	halInit
 377              	.LVL36:
 378              		.loc 1 182 0
 379 0008 FFF7FEFF 		bl	chSysInit
 380              	.LVL37:
 381              		.loc 1 189 0
 382 000c 4348     		ldr	r0, .L30
 383 000e 4449     		ldr	r1, .L30+4
 384 0010 FFF7FEFF 		bl	spiStart
 385              	.LVL38:
 386              		.loc 1 190 0
 387 0014 4348     		ldr	r0, .L30+8
 388 0016 4449     		ldr	r1, .L30+12
 389 0018 FFF7FEFF 		bl	i2cStart
 390              	.LVL39:
 391              		.loc 1 192 0
 392 001c FFF7FEFF 		bl	Lcd_Init
 393              	.LVL40:
 394              		.loc 1 193 0
 395 0020 FFF7FEFF 		bl	RTC_init
 396              	.LVL41:
 397              		.loc 1 194 0
 398 0024 8021     		mov	r1, #128
 399 0026 0903     		lsl	r1, r1, #12
ARM GAS  /tmp/ccAirlCG.s 			page 8


 400 0028 404B     		ldr	r3, .L30+16
 401 002a A022     		mov	r2, #160
 402 002c D205     		lsl	r2, r2, #23
 403 002e D150     		str	r1, [r2, r3]
 404              		.loc 1 196 0
 405 0030 FFF7FEFF 		bl	resetHP03
 406              	.LVL42:
 407              		.loc 1 197 0
 408 0034 FFF7FEFF 		bl	readCoeffs
 409              	.LVL43:
 410              		.loc 1 199 0
 411 0038 FFF7FEFF 		bl	SetupVSHardware
 412              	.LVL44:
 413              		.loc 1 201 0
 414 003c 3C4C     		ldr	r4, .L30+20
 415 003e 201C     		mov	r0, r4
 416 0040 3C49     		ldr	r1, .L30+24
 417 0042 FFF7FEFF 		bl	pwmStart
 418              	.LVL45:
 419              		.loc 1 204 0
 420 0046 201C     		mov	r0, r4
 421 0048 0021     		mov	r1, #0
 422 004a 3222     		mov	r2, #50
 423 004c FFF7FEFF 		bl	pwmEnableChannel
 424              	.LVL46:
 425              		.loc 1 207 0
 426 0050 FA20     		mov	r0, #250
 427 0052 FFF7FEFF 		bl	chThdSleep
 428              	.LVL47:
 429              		.loc 1 209 0
 430 0056 201C     		mov	r0, r4
 431 0058 0021     		mov	r1, #0
 432 005a FFF7FEFF 		bl	pwmDisableChannel
 433              	.LVL48:
 434              		.loc 1 212 0
 435 005e 04A8     		add	r0, sp, #16
 436 0060 FFF7FEFF 		bl	HP03_getTemperature
 437              	.LVL49:
 438              		.loc 1 213 0
 439 0064 1920     		mov	r0, #25
 440 0066 FFF7FEFF 		bl	chThdSleep
 441              	.LVL50:
 442              		.loc 1 214 0
 443 006a 04A8     		add	r0, sp, #16
 444 006c FFF7FEFF 		bl	HP03_getTemperature
 445              	.LVL51:
 446              		.loc 1 215 0
 447 0070 1920     		mov	r0, #25
 448 0072 FFF7FEFF 		bl	chThdSleep
 449              	.LVL52:
 450              		.loc 1 216 0
 451 0076 04A8     		add	r0, sp, #16
 452 0078 0021     		mov	r1, #0
 453 007a FFF7FEFF 		bl	HP03_getPressure
 454              	.LVL53:
 455              		.loc 1 217 0
 456 007e 1920     		mov	r0, #25
ARM GAS  /tmp/ccAirlCG.s 			page 9


 457 0080 FFF7FEFF 		bl	chThdSleep
 458              	.LVL54:
 459              		.loc 1 218 0
 460 0084 04A8     		add	r0, sp, #16
 461 0086 0021     		mov	r1, #0
 462 0088 FFF7FEFF 		bl	HP03_getPressure
 463              	.LVL55:
 464              		.loc 1 220 0
 465 008c 0598     		ldr	r0, [sp, #20]
 466 008e FFF7FEFF 		bl	init_kalman
 467              	.LVL56:
 468              		.loc 1 221 0
 469 0092 07AB     		add	r3, sp, #28
 470 0094 6A46     		mov	r2, sp
 471 0096 13CB     		ldmia	r3!, {r0, r1, r4}
 472 0098 13C2     		stmia	r2!, {r0, r1, r4}
 473 009a 0499     		ldr	r1, [sp, #16]
 474 009c 059A     		ldr	r2, [sp, #20]
 475 009e 069B     		ldr	r3, [sp, #24]
 476 00a0 2548     		ldr	r0, .L30+28
 477 00a2 FFF7FEFF 		bl	pressureSeaLevelFromAltitude
 478              	.LVL57:
 479 00a6 254B     		ldr	r3, .L30+32
 480 00a8 1860     		str	r0, [r3]
 481              		.loc 1 226 0
 482 00aa 0024     		mov	r4, #0
 483 00ac 0094     		str	r4, [sp]
 484 00ae 2448     		ldr	r0, .L30+36
 485 00b0 8021     		mov	r1, #128
 486 00b2 4900     		lsl	r1, r1, #1
 487 00b4 4022     		mov	r2, #64
 488 00b6 234B     		ldr	r3, .L30+40
 489 00b8 FFF7FEFF 		bl	chThdCreateStatic
 490              	.LVL58:
 491              		.loc 1 227 0
 492 00bc 0094     		str	r4, [sp]
 493 00be 2248     		ldr	r0, .L30+44
 494 00c0 D021     		mov	r1, #208
 495 00c2 4900     		lsl	r1, r1, #1
 496 00c4 4022     		mov	r2, #64
 497 00c6 214B     		ldr	r3, .L30+48
 498 00c8 FFF7FEFF 		bl	chThdCreateStatic
 499              	.LVL59:
 500              		.loc 1 228 0
 501 00cc 0094     		str	r4, [sp]
 502 00ce 2048     		ldr	r0, .L30+52
 503 00d0 B421     		mov	r1, #180
 504 00d2 4900     		lsl	r1, r1, #1
 505 00d4 4022     		mov	r2, #64
 506 00d6 1F4B     		ldr	r3, .L30+56
 507 00d8 FFF7FEFF 		bl	chThdCreateStatic
 508              	.LVL60:
 509              		.loc 1 229 0
 510 00dc 0094     		str	r4, [sp]
 511 00de 1E48     		ldr	r0, .L30+60
 512 00e0 C421     		mov	r1, #196
 513 00e2 4900     		lsl	r1, r1, #1
ARM GAS  /tmp/ccAirlCG.s 			page 10


 514 00e4 4022     		mov	r2, #64
 515 00e6 1D4B     		ldr	r3, .L30+64
 516 00e8 FFF7FEFF 		bl	chThdCreateStatic
 517              	.LVL61:
 518              		.loc 1 236 0
 519 00ec A024     		mov	r4, #160
 520 00ee E405     		lsl	r4, r4, #23
 521 00f0 2F25     		mov	r5, #47
 522              		.loc 1 238 0
 523 00f2 1B4E     		ldr	r6, .L30+68
 524              	.L29:
 525              		.loc 1 236 0
 526 00f4 635D     		ldrb	r3, [r4, r5]
 527 00f6 002B     		cmp	r3, #0
 528 00f8 0BD1     		bne	.L27
 529              		.loc 1 238 0
 530 00fa 8023     		mov	r3, #128
 531 00fc 1B03     		lsl	r3, r3, #12
 532 00fe A351     		str	r3, [r4, r6]
 533              		.loc 1 239 0
 534 0100 635D     		ldrb	r3, [r4, r5]
 535 0102 002B     		cmp	r3, #0
 536 0104 05D1     		bne	.L27
 537              	.L28:
 538              		.loc 1 240 0
 539 0106 4B20     		mov	r0, #75
 540 0108 FFF7FEFF 		bl	chThdSleep
 541              	.LVL62:
 542              		.loc 1 239 0
 543 010c 635D     		ldrb	r3, [r4, r5]
 544 010e 002B     		cmp	r3, #0
 545 0110 F9D0     		beq	.L28
 546              	.L27:
 547              		.loc 1 242 0
 548 0112 7D20     		mov	r0, #125
 549 0114 FFF7FEFF 		bl	chThdSleep
 550              	.LVL63:
 551              		.loc 1 253 0
 552 0118 ECE7     		b	.L29
 553              	.L31:
 554 011a C046     		.align	2
 555              	.L30:
 556 011c 00000000 		.word	SPID1
 557 0120 00000000 		.word	.LANCHOR1
 558 0124 00000000 		.word	I2CD1
 559 0128 00000000 		.word	.LANCHOR2
 560 012c 04220000 		.word	8708
 561 0130 00000000 		.word	PWMD3
 562 0134 00000000 		.word	.LANCHOR3
 563 0138 0000C841 		.word	1103626240
 564 013c 00000000 		.word	.LANCHOR0
 565 0140 00000000 		.word	.LANCHOR4
 566 0144 00000000 		.word	Thread1
 567 0148 00000000 		.word	.LANCHOR5
 568 014c 00000000 		.word	Thread2
 569 0150 00000000 		.word	.LANCHOR6
 570 0154 00000000 		.word	Thread3
ARM GAS  /tmp/ccAirlCG.s 			page 11


 571 0158 00000000 		.word	.LANCHOR7
 572 015c 00000000 		.word	Thread4
 573 0160 04230000 		.word	8964
 574              		.cfi_endproc
 575              	.LFE111:
 576              		.size	main, .-main
 577              		.section	.bss.waThread1,"aw",%nobits
 578              		.align	3
 579              		.set	.LANCHOR4,. + 0
 580              		.type	waThread1, %object
 581              		.size	waThread1, 256
 582              	waThread1:
 583 0000 00000000 		.space	256
 583      00000000 
 583      00000000 
 583      00000000 
 583      00000000 
 584              		.section	.bss.waThread2,"aw",%nobits
 585              		.align	3
 586              		.set	.LANCHOR5,. + 0
 587              		.type	waThread2, %object
 588              		.size	waThread2, 416
 589              	waThread2:
 590 0000 00000000 		.space	416
 590      00000000 
 590      00000000 
 590      00000000 
 590      00000000 
 591              		.section	.bss.waThread3,"aw",%nobits
 592              		.align	3
 593              		.set	.LANCHOR6,. + 0
 594              		.type	waThread3, %object
 595              		.size	waThread3, 360
 596              	waThread3:
 597 0000 00000000 		.space	360
 597      00000000 
 597      00000000 
 597      00000000 
 597      00000000 
 598              		.section	.bss.waThread4,"aw",%nobits
 599              		.align	3
 600              		.set	.LANCHOR7,. + 0
 601              		.type	waThread4, %object
 602              		.size	waThread4, 392
 603              	waThread4:
 604 0000 00000000 		.space	392
 604      00000000 
 604      00000000 
 604      00000000 
 604      00000000 
 605              		.section	.data.pwmcfg,"aw",%progbits
 606              		.align	2
 607              		.set	.LANCHOR3,. + 0
 608              		.type	pwmcfg, %object
 609              		.size	pwmcfg, 28
 610              	pwmcfg:
 611 0000 A0860100 		.word	100000
ARM GAS  /tmp/ccAirlCG.s 			page 12


 612 0004 6400     		.short	100
 613 0006 0000     		.space	2
 614 0008 00000000 		.word	pwm3pcb
 615 000c 02000000 		.word	2
 616 0010 00000000 		.word	pwm3c0cb
 617 0014 02000000 		.word	2
 618 0018 00000000 		.word	0
 619              		.section	.data.spicfg,"aw",%progbits
 620              		.align	2
 621              		.set	.LANCHOR1,. + 0
 622              		.type	spicfg, %object
 623              		.size	spicfg, 16
 624              	spicfg:
 625 0000 00000000 		.word	0
 626 0004 00000000 		.word	0
 627 0008 0200     		.short	2
 628 000a 0700     		.short	7
 629 000c 30000000 		.word	48
 630              		.section	.data.i2ccfg,"aw",%progbits
 631              		.align	2
 632              		.set	.LANCHOR2,. + 0
 633              		.type	i2ccfg, %object
 634              		.size	i2ccfg, 8
 635              	i2ccfg:
 636 0000 01       		.byte	1
 637 0001 000000   		.space	3
 638 0004 30000000 		.word	48
 639              		.section	.bss.calculatedSeaLevelPressure,"aw",%nobits
 640              		.align	2
 641              		.set	.LANCHOR0,. + 0
 642              		.type	calculatedSeaLevelPressure, %object
 643              		.size	calculatedSeaLevelPressure, 4
 644              	calculatedSeaLevelPressure:
 645 0000 00000000 		.space	4
 646              		.section	.rodata.str1.4,"aMS",%progbits,1
 647              		.align	2
 648              	.LC1:
 649 0000 626C696E 		.ascii	"blinker1\000"
 649      6B657231 
 649      00
 650 0009 000000   		.space	3
 651              	.LC4:
 652 000c 5553425F 		.ascii	"USB_CDC\000"
 652      43444300 
 653              	.LC9:
 654 0014 64617465 		.ascii	"date_time\000"
 654      5F74696D 
 654      6500
 655 001e 0000     		.space	2
 656              	.LC12:
 657 0020 74656D70 		.ascii	"temp_press\000"
 657      5F707265 
 657      737300
 658 002b 00       		.text
 659              	.Letext0:
 660              		.file 2 "/usr/local/lpcxpresso_7.3.0_186/lpcxpresso/tools/lib/gcc/arm-none-eabi/4.8.4/include/stdd
 661              		.file 3 "/usr/local/lpcxpresso_7.3.0_186/lpcxpresso/tools/arm-none-eabi/include/machine/_default_t
ARM GAS  /tmp/ccAirlCG.s 			page 13


 662              		.file 4 "/usr/local/lpcxpresso_7.3.0_186/lpcxpresso/tools/arm-none-eabi/include/stdint.h"
 663              		.file 5 "ChibiOS_2.6.5/os/ports/GCC/ARMCMx/chtypes.h"
 664              		.file 6 "ChibiOS_2.6.5/os/kernel/include/chlists.h"
 665              		.file 7 "ChibiOS_2.6.5/os/kernel/include/chthreads.h"
 666              		.file 8 "ChibiOS_2.6.5/os/ports/GCC/ARMCMx/chcore_v6m.h"
 667              		.file 9 "ChibiOS_2.6.5/os/kernel/include/chschd.h"
 668              		.file 10 "ChibiOS_2.6.5/os/kernel/include/chmtx.h"
 669              		.file 11 "CMSIS_CORE_LPC11Uxx/inc/LPC11Uxx.h"
 670              		.file 12 "ChibiOS_2.6.5/os/hal/platforms/LPC11Uxx/pal_lld.h"
 671              		.file 13 "ChibiOS_2.6.5/os/hal/include/i2c.h"
 672              		.file 14 "ChibiOS_2.6.5/os/hal/platforms/LPC11Uxx/i2c_lld.h"
 673              		.file 15 "ChibiOS_2.6.5/os/hal/include/pwm.h"
 674              		.file 16 "ChibiOS_2.6.5/os/hal/platforms/LPC11Uxx/pwm_lld.h"
 675              		.file 17 "ChibiOS_2.6.5/os/hal/include/spi.h"
 676              		.file 18 "ChibiOS_2.6.5/os/hal/platforms/LPC11Uxx/spi_lld.h"
 677              		.file 19 "inc/HP03.h"
 678              		.file 20 "inc/RTC_r2051.h"
 679              		.file 21 "USBlib_11U14/Drivers/USB/Core/DCD/LPC11UXX/../../HAL/LPC11UXX/HAL_LPC11Uxx.h"
 680              		.file 22 "USBlib_11U14/Drivers/USB/Core/Device.h"
 681              		.file 23 "USBlib_11U14/Drivers/USB/Core/USBController.h"
 682              		.file 24 "USBlib_11U14/Drivers/USB/Class/Device/../Common/CDCClassCommon.h"
 683              		.file 25 "USBlib_11U14/Drivers/USB/Class/Device/CDCClassDevice.h"
 684              		.file 26 "USBlib_11U14/Drivers/USB/Core/DCD/LPC11UXX/../EndpointCommon.h"
 685              		.file 27 "USBlib_11U14/Drivers/USB/Core/DCD/LPC11UXX/Endpoint_LPC11Uxx.h"
 686              		.file 28 "USBlib_11U14/Drivers/USB/Core/USBTask.h"
 687              		.file 29 "inc/VirtualSerial.h"
 688              		.file 30 "inc/LCD.h"
 689              		.file 31 "ChibiOS_2.6.5/os/hal/include/hal.h"
 690              		.file 32 "ChibiOS_2.6.5/os/kernel/include/chsys.h"
 691              		.file 33 "inc/Kalman.h"