ARM GAS  /tmp/ccypzxdo.s 			page 1


   1              		.cpu cortex-m0
   2              		.fpu softvfp
   3              		.eabi_attribute 20, 1
   4              		.eabi_attribute 21, 1
   5              		.eabi_attribute 23, 3
   6              		.eabi_attribute 24, 1
   7              		.eabi_attribute 25, 1
   8              		.eabi_attribute 26, 1
   9              		.eabi_attribute 30, 1
  10              		.eabi_attribute 34, 0
  11              		.eabi_attribute 18, 4
  12              		.code	16
  13              		.file	"mymath.c"
  14              		.text
  15              	.Ltext0:
  16              		.cfi_sections	.debug_frame
  17              		.global	__aeabi_i2f
  18              		.global	__aeabi_fadd
  19              		.global	__aeabi_fmul
  20              		.global	__aeabi_fcmpge
  21              		.global	__aeabi_f2iz
  22              		.global	__aeabi_fsub
  23              		.section	.text.myPow,"ax",%progbits
  24              		.align	2
  25              		.global	myPow
  26              		.code	16
  27              		.thumb_func
  28              		.type	myPow, %function
  29              	myPow:
  30              	.LFB3:
  31              		.file 1 "src/mymath.c"
  32              		.loc 1 71 0
  33              		.cfi_startproc
  34              	.LVL0:
  35 0000 38B5     		push	{r3, r4, r5, lr}
  36              		.cfi_def_cfa_offset 16
  37              		.cfi_offset 3, -16
  38              		.cfi_offset 4, -12
  39              		.cfi_offset 5, -8
  40              		.cfi_offset 14, -4
  41 0002 0C1C     		add	r4, r1, #0
  42              	.LVL1:
  43              	.LBB8:
  44              	.LBB9:
  45              		.loc 1 49 0
  46 0004 224D     		ldr	r5, .L7
  47 0006 0540     		and	r5, r0
  48              	.LVL2:
  49              		.loc 1 50 0
  50 0008 FE23     		mov	r3, #254
  51 000a 9B05     		lsl	r3, r3, #22
  52 000c ED18     		add	r5, r5, r3
  53              	.LVL3:
  54              		.loc 1 48 0
  55 000e 4000     		lsl	r0, r0, #1
  56              	.LVL4:
  57 0010 000E     		lsr	r0, r0, #24
ARM GAS  /tmp/ccypzxdo.s 			page 2


  58 0012 8038     		sub	r0, r0, #128
  59              		.loc 1 53 0
  60 0014 FFF7FEFF 		bl	__aeabi_i2f
  61              	.LVL5:
  62 0018 291C     		add	r1, r5, #0
  63 001a FFF7FEFF 		bl	__aeabi_fadd
  64              	.LVL6:
  65 001e 011C     		add	r1, r0, #0
  66              	.LBE9:
  67              	.LBE8:
  68              		.loc 1 72 0
  69 0020 201C     		add	r0, r4, #0
  70 0022 FFF7FEFF 		bl	__aeabi_fmul
  71              	.LVL7:
  72 0026 041C     		add	r4, r0, #0
  73              	.LVL8:
  74              	.LBB10:
  75              	.LBB11:
  76              	.LBB12:
  77              	.LBB13:
  78              		.loc 1 23 0
  79 0028 0021     		mov	r1, #0
  80 002a FFF7FEFF 		bl	__aeabi_fcmpge
  81              	.LVL9:
  82 002e 0028     		cmp	r0, #0
  83 0030 06D0     		beq	.L6
  84              		.loc 1 24 0
  85 0032 201C     		add	r0, r4, #0
  86 0034 FFF7FEFF 		bl	__aeabi_f2iz
  87              	.LVL10:
  88 0038 FFF7FEFF 		bl	__aeabi_i2f
  89              	.LVL11:
  90 003c 011C     		add	r1, r0, #0
  91 003e 06E0     		b	.L4
  92              	.L6:
  93              		.loc 1 25 0
  94 0040 201C     		add	r0, r4, #0
  95 0042 FFF7FEFF 		bl	__aeabi_f2iz
  96              	.LVL12:
  97 0046 0138     		sub	r0, r0, #1
  98 0048 FFF7FEFF 		bl	__aeabi_i2f
  99              	.LVL13:
 100 004c 011C     		add	r1, r0, #0
 101              	.L4:
 102              	.LBE13:
 103              	.LBE12:
 104              		.loc 1 61 0
 105 004e 201C     		add	r0, r4, #0
 106 0050 FFF7FEFF 		bl	__aeabi_fsub
 107              	.LVL14:
 108 0054 051C     		add	r5, r0, #0
 109              	.LVL15:
 110              		.loc 1 62 0
 111 0056 291C     		add	r1, r5, #0
 112 0058 FFF7FEFF 		bl	__aeabi_fmul
 113              	.LVL16:
 114 005c 011C     		add	r1, r0, #0
ARM GAS  /tmp/ccypzxdo.s 			page 3


 115 005e 281C     		add	r0, r5, #0
 116 0060 FFF7FEFF 		bl	__aeabi_fsub
 117              	.LVL17:
 118 0064 051C     		add	r5, r0, #0
 119              	.LVL18:
 120              		.loc 1 64 0
 121 0066 201C     		add	r0, r4, #0
 122              	.LVL19:
 123 0068 0A49     		ldr	r1, .L7+4
 124 006a FFF7FEFF 		bl	__aeabi_fadd
 125              	.LVL20:
 126 006e 041C     		add	r4, r0, #0
 127              	.LVL21:
 128              		.loc 1 62 0
 129 0070 281C     		add	r0, r5, #0
 130 0072 0949     		ldr	r1, .L7+8
 131 0074 FFF7FEFF 		bl	__aeabi_fmul
 132              	.LVL22:
 133 0078 011C     		add	r1, r0, #0
 134              		.loc 1 64 0
 135 007a 201C     		add	r0, r4, #0
 136 007c FFF7FEFF 		bl	__aeabi_fsub
 137              	.LVL23:
 138              		.loc 1 65 0
 139 0080 9621     		mov	r1, #150
 140 0082 C905     		lsl	r1, r1, #23
 141 0084 FFF7FEFF 		bl	__aeabi_fmul
 142              	.LVL24:
 143              		.loc 1 66 0
 144 0088 FFF7FEFF 		bl	__aeabi_f2iz
 145              	.LVL25:
 146              	.LBE11:
 147              	.LBE10:
 148              		.loc 1 73 0
 149              		@ sp needed
 150              	.LVL26:
 151 008c 38BD     		pop	{r3, r4, r5, pc}
 152              	.L8:
 153 008e C046     		.align	2
 154              	.L7:
 155 0090 FFFF7F80 		.word	-2139095041
 156 0094 0000FE42 		.word	1123942400
 157 0098 52B89E3E 		.word	1050589266
 158              		.cfi_endproc
 159              	.LFE3:
 160              		.size	myPow, .-myPow
 161              		.text
 162              	.Letext0: