ARM GAS  /tmp/cc6CLiCh.s 			page 1


   1              		.cpu cortex-m0
   2              		.fpu softvfp
   3              		.eabi_attribute 20, 1
   4              		.eabi_attribute 21, 1
   5              		.eabi_attribute 23, 3
   6              		.eabi_attribute 24, 1
   7              		.eabi_attribute 25, 1
   8              		.eabi_attribute 26, 1
   9              		.eabi_attribute 30, 1
  10              		.eabi_attribute 34, 0
  11              		.eabi_attribute 18, 4
  12              		.code	16
  13              		.file	"nvic.c"
  14              		.text
  15              	.Ltext0:
  16              		.cfi_sections	.debug_frame
  17              		.section	.text.nvicEnableVector,"ax",%progbits
  18              		.align	2
  19              		.global	nvicEnableVector
  20              		.code	16
  21              		.thumb_func
  22              		.type	nvicEnableVector, %function
  23              	nvicEnableVector:
  24              	.LFB7:
  25              		.file 1 "CMSIS_CORE_LPC11Uxx/src/nvic.c"
  26              		.loc 1 46 0
  27              		.cfi_startproc
  28              	.LVL0:
  29 0000 70B5     		push	{r4, r5, r6, lr}
  30              		.cfi_def_cfa_offset 16
  31              		.cfi_offset 4, -16
  32              		.cfi_offset 5, -12
  33              		.cfi_offset 6, -8
  34              		.cfi_offset 14, -4
  35              	.LVL1:
  36              		.loc 1 49 0
  37 0002 8208     		lsr	r2, r0, #2
  38 0004 9200     		lsl	r2, r2, #2
  39 0006 0E4B     		ldr	r3, .L2
  40 0008 D218     		add	r2, r2, r3
  41 000a C023     		mov	r3, #192
  42 000c 9B00     		lsl	r3, r3, #2
  43 000e D558     		ldr	r5, [r2, r3]
  44              		.loc 1 47 0
  45 0010 0324     		mov	r4, #3
  46 0012 0440     		and	r4, r0
  47 0014 E400     		lsl	r4, r4, #3
  48              	.LVL2:
  49              		.loc 1 49 0
  50 0016 FF26     		mov	r6, #255
  51 0018 A640     		lsl	r6, r6, r4
  52 001a B543     		bic	r5, r6
  53 001c A140     		lsl	r1, r1, r4
  54              	.LVL3:
  55 001e 2C1C     		mov	r4, r5
  56              	.LVL4:
  57 0020 0C43     		orr	r4, r1
ARM GAS  /tmp/cc6CLiCh.s 			page 2


  58 0022 D450     		str	r4, [r2, r3]
  59              		.loc 1 50 0
  60 0024 1F23     		mov	r3, #31
  61 0026 0340     		and	r3, r0
  62 0028 0122     		mov	r2, #1
  63 002a 9A40     		lsl	r2, r2, r3
  64 002c 131C     		mov	r3, r2
  65 002e 4009     		lsr	r0, r0, #5
  66              	.LVL5:
  67 0030 8000     		lsl	r0, r0, #2
  68 0032 034A     		ldr	r2, .L2
  69 0034 8018     		add	r0, r0, r2
  70 0036 C022     		mov	r2, #192
  71 0038 5200     		lsl	r2, r2, #1
  72 003a 8350     		str	r3, [r0, r2]
  73              		.loc 1 51 0
  74 003c 0360     		str	r3, [r0]
  75              		.loc 1 52 0
  76              		@ sp needed
  77 003e 70BD     		pop	{r4, r5, r6, pc}
  78              	.L3:
  79              		.align	2
  80              	.L2:
  81 0040 00E100E0 		.word	-536813312
  82              		.cfi_endproc
  83              	.LFE7:
  84              		.size	nvicEnableVector, .-nvicEnableVector
  85              		.section	.text.nvicDisableVector,"ax",%progbits
  86              		.align	2
  87              		.global	nvicDisableVector
  88              		.code	16
  89              		.thumb_func
  90              		.type	nvicDisableVector, %function
  91              	nvicDisableVector:
  92              	.LFB8:
  93              		.loc 1 60 0
  94              		.cfi_startproc
  95              	.LVL6:
  96 0000 10B5     		push	{r4, lr}
  97              		.cfi_def_cfa_offset 8
  98              		.cfi_offset 4, -8
  99              		.cfi_offset 14, -4
 100              	.LVL7:
 101              		.loc 1 63 0
 102 0002 4209     		lsr	r2, r0, #5
 103 0004 1F21     		mov	r1, #31
 104 0006 0140     		and	r1, r0
 105 0008 0123     		mov	r3, #1
 106 000a 8B40     		lsl	r3, r3, r1
 107 000c 191C     		mov	r1, r3
 108 000e 2032     		add	r2, r2, #32
 109 0010 9200     		lsl	r2, r2, #2
 110 0012 084B     		ldr	r3, .L5
 111 0014 D150     		str	r1, [r2, r3]
 112              		.loc 1 64 0
 113 0016 8208     		lsr	r2, r0, #2
 114 0018 9200     		lsl	r2, r2, #2
ARM GAS  /tmp/cc6CLiCh.s 			page 3


 115 001a D218     		add	r2, r2, r3
 116 001c C023     		mov	r3, #192
 117 001e 9B00     		lsl	r3, r3, #2
 118 0020 D158     		ldr	r1, [r2, r3]
 119              		.loc 1 61 0
 120 0022 0324     		mov	r4, #3
 121 0024 2040     		and	r0, r4
 122              	.LVL8:
 123 0026 C000     		lsl	r0, r0, #3
 124              	.LVL9:
 125              		.loc 1 64 0
 126 0028 FF24     		mov	r4, #255
 127 002a 8440     		lsl	r4, r4, r0
 128 002c A143     		bic	r1, r4
 129 002e D150     		str	r1, [r2, r3]
 130              		.loc 1 65 0
 131              		@ sp needed
 132 0030 10BD     		pop	{r4, pc}
 133              	.L6:
 134 0032 C046     		.align	2
 135              	.L5:
 136 0034 00E100E0 		.word	-536813312
 137              		.cfi_endproc
 138              	.LFE8:
 139              		.size	nvicDisableVector, .-nvicDisableVector
 140              		.section	.text.nvicSetSystemHandlerPriority,"ax",%progbits
 141              		.align	2
 142              		.global	nvicSetSystemHandlerPriority
 143              		.code	16
 144              		.thumb_func
 145              		.type	nvicSetSystemHandlerPriority, %function
 146              	nvicSetSystemHandlerPriority:
 147              	.LFB9:
 148              		.loc 1 74 0
 149              		.cfi_startproc
 150              	.LVL10:
 151 0000 10B5     		push	{r4, lr}
 152              		.cfi_def_cfa_offset 8
 153              		.cfi_offset 4, -8
 154              		.cfi_offset 14, -4
 155              	.LVL11:
 156              		.loc 1 77 0
 157 0002 8308     		lsr	r3, r0, #2
 158 0004 9B00     		lsl	r3, r3, #2
 159 0006 074A     		ldr	r2, .L8
 160 0008 9B18     		add	r3, r3, r2
 161 000a 9A69     		ldr	r2, [r3, #24]
 162              		.loc 1 75 0
 163 000c 0324     		mov	r4, #3
 164 000e 2040     		and	r0, r4
 165              	.LVL12:
 166 0010 C000     		lsl	r0, r0, #3
 167              	.LVL13:
 168              		.loc 1 78 0
 169 0012 FF24     		mov	r4, #255
 170 0014 8440     		lsl	r4, r4, r0
 171              		.loc 1 77 0
ARM GAS  /tmp/cc6CLiCh.s 			page 4


 172 0016 A243     		bic	r2, r4
 173              		.loc 1 78 0
 174 0018 8140     		lsl	r1, r1, r0
 175              	.LVL14:
 176 001a 101C     		mov	r0, r2
 177              	.LVL15:
 178 001c 0843     		orr	r0, r1
 179              		.loc 1 77 0
 180 001e 9861     		str	r0, [r3, #24]
 181              		.loc 1 79 0
 182              		@ sp needed
 183 0020 10BD     		pop	{r4, pc}
 184              	.L9:
 185 0022 C046     		.align	2
 186              	.L8:
 187 0024 00ED00E0 		.word	-536810240
 188              		.cfi_endproc
 189              	.LFE9:
 190              		.size	nvicSetSystemHandlerPriority, .-nvicSetSystemHandlerPriority
 191              		.text
 192              	.Letext0:
 193              		.file 2 "/usr/local/lpcxpresso_7.3.0_186/lpcxpresso/tools/arm-none-eabi/include/machine/_default_t
 194              		.file 3 "/usr/local/lpcxpresso_7.3.0_186/lpcxpresso/tools/arm-none-eabi/include/stdint.h"
 195              		.file 4 "CMSIS_CORE_LPC11Uxx/inc/nvic.h"