ARM GAS  /tmp/cc5Er7FT.s 			page 1


   1              		.cpu cortex-m0
   2              		.fpu softvfp
   3              		.eabi_attribute 20, 1
   4              		.eabi_attribute 21, 1
   5              		.eabi_attribute 23, 3
   6              		.eabi_attribute 24, 1
   7              		.eabi_attribute 25, 1
   8              		.eabi_attribute 26, 1
   9              		.eabi_attribute 30, 1
  10              		.eabi_attribute 34, 0
  11              		.eabi_attribute 18, 4
  12              		.code	16
  13              		.file	"RTC_r2051.c"
  14              		.text
  15              	.Ltext0:
  16              		.cfi_sections	.debug_frame
  17              		.section	.text.RTC_init,"ax",%progbits
  18              		.align	2
  19              		.global	RTC_init
  20              		.code	16
  21              		.thumb_func
  22              		.type	RTC_init, %function
  23              	RTC_init:
  24              	.LFB39:
  25              		.file 1 "src/RTC_r2051.c"
  26              		.loc 1 15 0
  27              		.cfi_startproc
  28 0000 10B5     		push	{r4, lr}
  29              		.cfi_def_cfa_offset 8
  30              		.cfi_offset 4, -8
  31              		.cfi_offset 14, -4
  32 0002 86B0     		sub	sp, sp, #24
  33              		.cfi_def_cfa_offset 32
  34              	.LVL0:
  35              		.loc 1 17 0
  36 0004 05A8     		add	r0, sp, #20
  37 0006 0C49     		ldr	r1, .L2
  38 0008 0322     		mov	r2, #3
  39 000a FFF7FEFF 		bl	memcpy
  40              	.LVL1:
  41              		.loc 1 21 0
  42 000e 0B4C     		ldr	r4, .L2+4
  43 0010 201C     		mov	r0, r4
  44 0012 FFF7FEFF 		bl	i2cAcquireBus
  45              	.LVL2:
  46              		.loc 1 22 0
  47 0016 0023     		mov	r3, #0
  48 0018 0093     		str	r3, [sp]
  49 001a 0193     		str	r3, [sp, #4]
  50 001c 0123     		mov	r3, #1
  51 001e 5B42     		neg	r3, r3
  52 0020 0293     		str	r3, [sp, #8]
  53 0022 201C     		mov	r0, r4
  54 0024 3221     		mov	r1, #50
  55 0026 05AA     		add	r2, sp, #20
  56 0028 0223     		mov	r3, #2
  57 002a FFF7FEFF 		bl	i2cMasterTransmitTimeout
ARM GAS  /tmp/cc5Er7FT.s 			page 2


  58              	.LVL3:
  59              		.loc 1 25 0
  60 002e 201C     		mov	r0, r4
  61 0030 FFF7FEFF 		bl	i2cReleaseBus
  62              	.LVL4:
  63              		.loc 1 32 0
  64 0034 06B0     		add	sp, sp, #24
  65              		@ sp needed
  66 0036 10BD     		pop	{r4, pc}
  67              	.L3:
  68              		.align	2
  69              	.L2:
  70 0038 00000000 		.word	.LANCHOR0
  71 003c 00000000 		.word	I2CD1
  72              		.cfi_endproc
  73              	.LFE39:
  74              		.size	RTC_init, .-RTC_init
  75              		.global	__aeabi_uidiv
  76              		.section	.text.RTC_setTime,"ax",%progbits
  77              		.align	2
  78              		.global	RTC_setTime
  79              		.code	16
  80              		.thumb_func
  81              		.type	RTC_setTime, %function
  82              	RTC_setTime:
  83              	.LFB40:
  84              		.loc 1 36 0
  85              		.cfi_startproc
  86 0000 F0B5     		push	{r4, r5, r6, r7, lr}
  87              		.cfi_def_cfa_offset 20
  88              		.cfi_offset 4, -20
  89              		.cfi_offset 5, -16
  90              		.cfi_offset 6, -12
  91              		.cfi_offset 7, -8
  92              		.cfi_offset 14, -4
  93 0002 4746     		mov	r7, r8
  94 0004 80B4     		push	{r7}
  95              		.cfi_def_cfa_offset 24
  96              		.cfi_offset 8, -24
  97 0006 86B0     		sub	sp, sp, #24
  98              		.cfi_def_cfa_offset 48
  99 0008 05AE     		add	r6, sp, #20
 100 000a 040A     		lsr	r4, r0, #8
 101 000c 070C     		lsr	r7, r0, #16
 102 000e 000E     		lsr	r0, r0, #24
 103 0010 8046     		mov	r8, r0
 104              	.LVL5:
 105              		.loc 1 39 0
 106 0012 0025     		mov	r5, #0
 107 0014 3570     		strb	r5, [r6]
 108              	.LVL6:
 109              		.loc 1 46 0
 110 0016 E4B2     		uxtb	r4, r4
 111 0018 201C     		mov	r0, r4
 112 001a 0A21     		mov	r1, #10
 113 001c FFF7FEFF 		bl	__aeabi_uidiv
 114              	.LVL7:
ARM GAS  /tmp/cc5Er7FT.s 			page 3


 115 0020 4300     		lsl	r3, r0, #1
 116 0022 C018     		add	r0, r0, r3
 117 0024 4000     		lsl	r0, r0, #1
 118 0026 2418     		add	r4, r4, r0
 119 0028 6B46     		mov	r3, sp
 120 002a 5C75     		strb	r4, [r3, #21]
 121              	.LVL8:
 122 002c FFB2     		uxtb	r7, r7
 123 002e 381C     		mov	r0, r7
 124 0030 0A21     		mov	r1, #10
 125 0032 FFF7FEFF 		bl	__aeabi_uidiv
 126              	.LVL9:
 127 0036 4300     		lsl	r3, r0, #1
 128 0038 C018     		add	r0, r0, r3
 129 003a 4000     		lsl	r0, r0, #1
 130 003c 3F18     		add	r7, r7, r0
 131 003e 6B46     		mov	r3, sp
 132 0040 9F75     		strb	r7, [r3, #22]
 133              	.LVL10:
 134 0042 4346     		mov	r3, r8
 135 0044 DCB2     		uxtb	r4, r3
 136 0046 201C     		mov	r0, r4
 137 0048 0A21     		mov	r1, #10
 138 004a FFF7FEFF 		bl	__aeabi_uidiv
 139              	.LVL11:
 140 004e 4300     		lsl	r3, r0, #1
 141 0050 C018     		add	r0, r0, r3
 142 0052 4000     		lsl	r0, r0, #1
 143 0054 2418     		add	r4, r4, r0
 144 0056 6B46     		mov	r3, sp
 145 0058 DC75     		strb	r4, [r3, #23]
 146              	.LVL12:
 147              		.loc 1 49 0
 148 005a 0B4C     		ldr	r4, .L5
 149 005c 201C     		mov	r0, r4
 150 005e FFF7FEFF 		bl	i2cAcquireBus
 151              	.LVL13:
 152              		.loc 1 50 0
 153 0062 0095     		str	r5, [sp]
 154 0064 0195     		str	r5, [sp, #4]
 155 0066 0123     		mov	r3, #1
 156 0068 5B42     		neg	r3, r3
 157 006a 0293     		str	r3, [sp, #8]
 158 006c 201C     		mov	r0, r4
 159 006e 3221     		mov	r1, #50
 160 0070 321C     		mov	r2, r6
 161 0072 0423     		mov	r3, #4
 162 0074 FFF7FEFF 		bl	i2cMasterTransmitTimeout
 163              	.LVL14:
 164              		.loc 1 53 0
 165 0078 201C     		mov	r0, r4
 166 007a FFF7FEFF 		bl	i2cReleaseBus
 167              	.LVL15:
 168              		.loc 1 54 0
 169 007e 06B0     		add	sp, sp, #24
 170              		@ sp needed
 171              	.LVL16:
ARM GAS  /tmp/cc5Er7FT.s 			page 4


 172 0080 04BC     		pop	{r2}
 173 0082 9046     		mov	r8, r2
 174 0084 F0BD     		pop	{r4, r5, r6, r7, pc}
 175              	.L6:
 176 0086 C046     		.align	2
 177              	.L5:
 178 0088 00000000 		.word	I2CD1
 179              		.cfi_endproc
 180              	.LFE40:
 181              		.size	RTC_setTime, .-RTC_setTime
 182              		.section	.text.RTC_setDate,"ax",%progbits
 183              		.align	2
 184              		.global	RTC_setDate
 185              		.code	16
 186              		.thumb_func
 187              		.type	RTC_setDate, %function
 188              	RTC_setDate:
 189              	.LFB41:
 190              		.loc 1 58 0
 191              		.cfi_startproc
 192 0000 30B5     		push	{r4, r5, lr}
 193              		.cfi_def_cfa_offset 12
 194              		.cfi_offset 4, -12
 195              		.cfi_offset 5, -8
 196              		.cfi_offset 14, -4
 197 0002 87B0     		sub	sp, sp, #28
 198              		.cfi_def_cfa_offset 40
 199 0004 04AD     		add	r5, sp, #16
 200 0006 0490     		str	r0, [sp, #16]
 201 0008 0591     		str	r1, [sp, #20]
 202              	.LVL17:
 203              		.loc 1 60 0
 204 000a 3023     		mov	r3, #48
 205 000c EB70     		strb	r3, [r5, #3]
 206              		.loc 1 62 0
 207 000e 0A4C     		ldr	r4, .L8
 208 0010 201C     		mov	r0, r4
 209 0012 FFF7FEFF 		bl	i2cAcquireBus
 210              	.LVL18:
 211              		.loc 1 63 0
 212 0016 0023     		mov	r3, #0
 213 0018 0093     		str	r3, [sp]
 214 001a 0193     		str	r3, [sp, #4]
 215 001c 0123     		mov	r3, #1
 216 001e 5B42     		neg	r3, r3
 217 0020 0293     		str	r3, [sp, #8]
 218 0022 201C     		mov	r0, r4
 219 0024 3221     		mov	r1, #50
 220 0026 2A1C     		mov	r2, r5
 221 0028 0823     		mov	r3, #8
 222 002a FFF7FEFF 		bl	i2cMasterTransmitTimeout
 223              	.LVL19:
 224              		.loc 1 66 0
 225 002e 201C     		mov	r0, r4
 226 0030 FFF7FEFF 		bl	i2cReleaseBus
 227              	.LVL20:
 228              		.loc 1 67 0
ARM GAS  /tmp/cc5Er7FT.s 			page 5


 229 0034 07B0     		add	sp, sp, #28
 230              		@ sp needed
 231 0036 30BD     		pop	{r4, r5, pc}
 232              	.L9:
 233              		.align	2
 234              	.L8:
 235 0038 00000000 		.word	I2CD1
 236              		.cfi_endproc
 237              	.LFE41:
 238              		.size	RTC_setDate, .-RTC_setDate
 239              		.section	.text.RTC_getTime,"ax",%progbits
 240              		.align	2
 241              		.global	RTC_getTime
 242              		.code	16
 243              		.thumb_func
 244              		.type	RTC_getTime, %function
 245              	RTC_getTime:
 246              	.LFB42:
 247              		.loc 1 71 0
 248              		.cfi_startproc
 249 0000 30B5     		push	{r4, r5, lr}
 250              		.cfi_def_cfa_offset 12
 251              		.cfi_offset 4, -12
 252              		.cfi_offset 5, -8
 253              		.cfi_offset 14, -4
 254 0002 85B0     		sub	sp, sp, #20
 255              		.cfi_def_cfa_offset 32
 256              	.LVL21:
 257              		.loc 1 74 0
 258 0004 02AD     		add	r5, sp, #8
 259 0006 0023     		mov	r3, #0
 260 0008 2B70     		strb	r3, [r5]
 261              	.LVL22:
 262              		.loc 1 79 0
 263 000a 194C     		ldr	r4, .L13
 264 000c 201C     		mov	r0, r4
 265 000e FFF7FEFF 		bl	i2cAcquireBus
 266              	.LVL23:
 267              		.loc 1 80 0
 268 0012 0123     		mov	r3, #1
 269 0014 5B42     		neg	r3, r3
 270 0016 0093     		str	r3, [sp]
 271 0018 201C     		mov	r0, r4
 272 001a 3221     		mov	r1, #50
 273 001c 2A1C     		mov	r2, r5
 274 001e 0423     		mov	r3, #4
 275 0020 FFF7FEFF 		bl	i2cMasterReceiveTimeout
 276              	.LVL24:
 277              		.loc 1 91 0
 278 0024 201C     		mov	r0, r4
 279 0026 FFF7FEFF 		bl	i2cReleaseBus
 280              	.LVL25:
 281 002a 0023     		mov	r3, #0
 282              		.loc 1 97 0
 283 002c 0624     		mov	r4, #6
 284 002e 6442     		neg	r4, r4
 285              	.LVL26:
ARM GAS  /tmp/cc5Er7FT.s 			page 6


 286              	.L12:
 287 0030 02A9     		add	r1, sp, #8
 288 0032 CA18     		add	r2, r1, r3
 289              		.loc 1 97 0 is_stmt 0 discriminator 2
 290 0034 5178     		ldrb	r1, [r2, #1]
 291 0036 0809     		lsr	r0, r1, #4
 292 0038 6043     		mul	r0, r4
 293 003a 0918     		add	r1, r1, r0
 294 003c 5170     		strb	r1, [r2, #1]
 295              	.LVL27:
 296 003e 0133     		add	r3, r3, #1
 297              	.LVL28:
 298              		.loc 1 95 0 is_stmt 1 discriminator 2
 299 0040 032B     		cmp	r3, #3
 300 0042 F5D1     		bne	.L12
 301              		.loc 1 100 0
 302 0044 029B     		ldr	r3, [sp, #8]
 303              	.LVL29:
 304 0046 180A     		lsr	r0, r3, #8
 305 0048 190C     		lsr	r1, r3, #16
 306 004a FF22     		mov	r2, #255
 307 004c 1040     		and	r0, r2
 308 004e 0002     		lsl	r0, r0, #8
 309 0050 1C1C     		mov	r4, r3
 310 0052 1440     		and	r4, r2
 311 0054 2043     		orr	r0, r4
 312 0056 0A40     		and	r2, r1
 313 0058 1204     		lsl	r2, r2, #16
 314 005a 0649     		ldr	r1, .L13+4
 315 005c 0840     		and	r0, r1
 316 005e 1043     		orr	r0, r2
 317 0060 1B0E     		lsr	r3, r3, #24
 318 0062 1B06     		lsl	r3, r3, #24
 319 0064 0002     		lsl	r0, r0, #8
 320 0066 000A     		lsr	r0, r0, #8
 321 0068 1843     		orr	r0, r3
 322              		.loc 1 101 0
 323 006a 05B0     		add	sp, sp, #20
 324              		@ sp needed
 325 006c 30BD     		pop	{r4, r5, pc}
 326              	.L14:
 327 006e C046     		.align	2
 328              	.L13:
 329 0070 00000000 		.word	I2CD1
 330 0074 FFFF00FF 		.word	-16711681
 331              		.cfi_endproc
 332              	.LFE42:
 333              		.size	RTC_getTime, .-RTC_getTime
 334              		.section	.text.RTC_getDate,"ax",%progbits
 335              		.align	2
 336              		.global	RTC_getDate
 337              		.code	16
 338              		.thumb_func
 339              		.type	RTC_getDate, %function
 340              	RTC_getDate:
 341              	.LFB43:
 342              		.loc 1 105 0
ARM GAS  /tmp/cc5Er7FT.s 			page 7


 343              		.cfi_startproc
 344              	.LVL30:
 345 0000 70B5     		push	{r4, r5, r6, lr}
 346              		.cfi_def_cfa_offset 16
 347              		.cfi_offset 4, -16
 348              		.cfi_offset 5, -12
 349              		.cfi_offset 6, -8
 350              		.cfi_offset 14, -4
 351 0002 86B0     		sub	sp, sp, #24
 352              		.cfi_def_cfa_offset 40
 353 0004 061C     		mov	r6, r0
 354              	.LVL31:
 355              		.loc 1 108 0
 356 0006 04AC     		add	r4, sp, #16
 357 0008 3023     		mov	r3, #48
 358 000a E370     		strb	r3, [r4, #3]
 359              		.loc 1 110 0
 360 000c 0D4D     		ldr	r5, .L16
 361 000e 281C     		mov	r0, r5
 362              	.LVL32:
 363 0010 FFF7FEFF 		bl	i2cAcquireBus
 364              	.LVL33:
 365              		.loc 1 111 0
 366 0014 06AB     		add	r3, sp, #24
 367 0016 0093     		str	r3, [sp]
 368 0018 0723     		mov	r3, #7
 369 001a 0193     		str	r3, [sp, #4]
 370 001c 0123     		mov	r3, #1
 371 001e 5B42     		neg	r3, r3
 372 0020 0293     		str	r3, [sp, #8]
 373 0022 281C     		mov	r0, r5
 374 0024 3221     		mov	r1, #50
 375 0026 221C     		mov	r2, r4
 376 0028 0123     		mov	r3, #1
 377 002a FFF7FEFF 		bl	i2cMasterTransmitTimeout
 378              	.LVL34:
 379              		.loc 1 115 0
 380 002e 281C     		mov	r0, r5
 381 0030 FFF7FEFF 		bl	i2cReleaseBus
 382              	.LVL35:
 383              		.loc 1 116 0
 384 0034 301C     		mov	r0, r6
 385 0036 211C     		mov	r1, r4
 386 0038 0822     		mov	r2, #8
 387 003a FFF7FEFF 		bl	memcpy
 388              	.LVL36:
 389              		.loc 1 117 0
 390 003e 301C     		mov	r0, r6
 391 0040 06B0     		add	sp, sp, #24
 392              		@ sp needed
 393              	.LVL37:
 394 0042 70BD     		pop	{r4, r5, r6, pc}
 395              	.L17:
 396              		.align	2
 397              	.L16:
 398 0044 00000000 		.word	I2CD1
 399              		.cfi_endproc
ARM GAS  /tmp/cc5Er7FT.s 			page 8


 400              	.LFE43:
 401              		.size	RTC_getDate, .-RTC_getDate
 402              		.section	.rodata
 403              		.align	2
 404              		.set	.LANCHOR0,. + 0
 405              	.LC0:
 406 0000 E0       		.byte	-32
 407 0001 20       		.byte	32
 408 0002 00       		.byte	0
 409 0003 00       		.text
 410              	.Letext0:
 411              		.file 2 "/usr/local/lpcxpresso_7.3.0_186/lpcxpresso/tools/lib/gcc/arm-none-eabi/4.8.4/include/stdd
 412              		.file 3 "/usr/local/lpcxpresso_7.3.0_186/lpcxpresso/tools/arm-none-eabi/include/machine/_default_t
 413              		.file 4 "/usr/local/lpcxpresso_7.3.0_186/lpcxpresso/tools/arm-none-eabi/include/stdint.h"
 414              		.file 5 "ChibiOS_2.6.5/os/ports/GCC/ARMCMx/chtypes.h"
 415              		.file 6 "ChibiOS_2.6.5/os/kernel/include/chlists.h"
 416              		.file 7 "ChibiOS_2.6.5/os/kernel/include/chthreads.h"
 417              		.file 8 "ChibiOS_2.6.5/os/ports/GCC/ARMCMx/chcore_v6m.h"
 418              		.file 9 "ChibiOS_2.6.5/os/kernel/include/chmtx.h"
 419              		.file 10 "CMSIS_CORE_LPC11Uxx/inc/LPC11Uxx.h"
 420              		.file 11 "ChibiOS_2.6.5/os/hal/include/i2c.h"
 421              		.file 12 "ChibiOS_2.6.5/os/hal/platforms/LPC11Uxx/i2c_lld.h"
 422              		.file 13 "inc/RTC_r2051.h"