ARM GAS  /tmp/cc5Er7FT.s 			page 1


   1              		.cpu cortex-m0
   2              		.fpu softvfp
   3              		.eabi_attribute 20, 1
   4              		.eabi_attribute 21, 1
   5              		.eabi_attribute 23, 3
   6              		.eabi_attribute 24, 1
   7              		.eabi_attribute 25, 1
   8              		.eabi_attribute 26, 1
   9              		.eabi_attribute 30, 1
  10              		.eabi_attribute 34, 0
  11              		.eabi_attribute 18, 4
  12              		.code	16
  13              		.file	"RTC_r2051.c"
  14              		.text
  15              	.Ltext0:
  16              		.cfi_sections	.debug_frame
  17              		.section	.text.RTC_init,"ax",%progbits
  18              		.align	2
  19              		.global	RTC_init
  20              		.code	16
  21              		.thumb_func
  22              		.type	RTC_init, %function
  23              	RTC_init:
  24              	.LFB39:
  25              		.file 1 "src/RTC_r2051.c"
  26              		.loc 1 15 0
  27              		.cfi_startproc
  28 0000 10B5     		push	{r4, lr}
  29              		.cfi_def_cfa_offset 8
  30              		.cfi_offset 4, -8
  31              		.cfi_offset 14, -4
  32 0002 86B0     		sub	sp, sp, #24
  33              		.cfi_def_cfa_offset 32
  34              	.LVL0:
  35              		.loc 1 17 0
  36 0004 05A8     		add	r0, sp, #20
  37 0006 0C49     		ldr	r1, .L2
  38 0008 0322     		mov	r2, #3
  39 000a FFF7FEFF 		bl	memcpy
  40              	.LVL1:
  41              		.loc 1 21 0
  42 000e 0B4C     		ldr	r4, .L2+4
  43 0010 201C     		mov	r0, r4
  44 0012 FFF7FEFF 		bl	i2cAcquireBus
  45              	.LVL2:
  46              		.loc 1 22 0
  47 0016 0023     		mov	r3, #0
  48 0018 0093     		str	r3, [sp]
  49 001a 0193     		str	r3, [sp, #4]
  50 001c 0123     		mov	r3, #1
  51 001e 5B42     		neg	r3, r3
  52 0020 0293     		str	r3, [sp, #8]
  53 0022 201C     		mov	r0, r4
  54 0024 3221     		mov	r1, #50
  55 0026 05AA     		add	r2, sp, #20
  56 0028 0223     		mov	r3, #2
  57 002a FFF7FEFF 		bl	i2cMasterTransmitTimeout
ARM GAS  /tmp/cc5Er7FT.s 			page 2


  58              	.LVL3:
  59              		.loc 1 25 0
  60 002e 201C     		mov	r0, r4
  61 0030 FFF7FEFF 		bl	i2cReleaseBus
  62              	.LVL4:
  63              		.loc 1 32 0
  64 0034 06B0     		add	sp, sp, #24
  65              		@ sp needed
  66 0036 10BD     		pop	{r4, pc}
  67              	.L3:
  68              		.align	2
  69              	.L2:
  70 0038 00000000 		.word	.LANCHOR0
  71 003c 00000000 		.word	I2CD1
  72              		.cfi_endproc
  73              	.LFE39:
  74              		.size	RTC_init, .-RTC_init
  75              		.global	__aeabi_uidiv
  76              		.section	.text.RTC_setTime,"ax",%progbits
  77              		.align	2
  78              		.global	RTC_setTime
  79              		.code	16
  80              		.thumb_func
  81              		.type	RTC_setTime, %function
  82              	RTC_setTime:
  83              	.LFB40:
  84              		.loc 1 36 0
  85              		.cfi_startproc
  86 0000 F0B5     		push	{r4, r5, r6, r7, lr}
  87              		.cfi_def_cfa_offset 20
  88              		.cfi_offset 4, -20
  89              		.cfi_offset 5, -16
  90              		.cfi_offset 6, -12
  91              		.cfi_offset 7, -8
  92              		.cfi_offset 14, -4
  93 0002 4746     		mov	r7, r8
  94 0004 80B4     		push	{r7}
  95              		.cfi_def_cfa_offset 24
  96              		.cfi_offset 8, -24
  97 0006 86B0     		sub	sp, sp, #24
  98              		.cfi_def_cfa_offset 48
  99 0008 05AE     		add	r6, sp, #20
 100 000a 040A     		lsr	r4, r0, #8
 101 000c 070C     		lsr	r7, r0, #16
 102 000e 000E     		lsr	r0, r0, #24
 103 0010 8046     		mov	r8, r0
 104              	.LVL5:
 105              		.loc 1 39 0
 106 0012 0025     		mov	r5, #0
 107 0014 3570     		strb	r5, [r6]
 108              	.LVL6:
 109              		.loc 1 46 0
 110 0016 E4B2     		uxtb	r4, r4
 111 0018 201C     		mov	r0, r4
 112 001a 0A21     		mov	r1, #10
 113 001c FFF7FEFF 		bl	__aeabi_uidiv
 114              	.LVL7:
ARM GAS  /tmp/cc5Er7FT.s 			page 3


 115 0020 4300     		lsl	r3, r0, #1
 116 0022 C018     		add	r0, r0, r3
 117 0024 4000     		lsl	r0, r0, #1
 118 0026 2418     		add	r4, r4, r0
 119 0028 6B46     		mov	r3, sp
 120 002a 5C75     		strb	r4, [r3, #21]
 121              	.LVL8:
 122 002c FFB2     		uxtb	r7, r7
 123 002e 381C     		mov	r0, r7
 124 0030 0A21     		mov	r1, #10
 125 0032 FFF7FEFF 		bl	__aeabi_uidiv
 126              	.LVL9:
 127 0036 4300     		lsl	r3, r0, #1
 128 0038 C018     		add	r0, r0, r3
 129 003a 4000     		lsl	r0, r0, #1
 130 003c 3F18     		add	r7, r7, r0
 131 003e 6B46     		mov	r3, sp
 132 0040 9F75     		strb	r7, [r3, #22]
 133              	.LVL10:
 134 0042 4346     		mov	r3, r8
 135 0044 DCB2     		uxtb	r4, r3
 136 0046 201C     		mov	r0, r4
 137 0048 0A21     		mov	r1, #10
 138 004a FFF7FEFF 		bl	__aeabi_uidiv
 139              	.LVL11:
 140 004e 4300     		lsl	r3, r0, #1
 141 0050 C018     		add	r0, r0, r3
 142 0052 4000     		lsl	r0, r0, #1
 143 0054 2418     		add	r4, r4, r0
 144 0056 6B46     		mov	r3, sp
 145 0058 DC75     		strb	r4, [r3, #23]
 146              	.LVL12:
 147              		.loc 1 49 0
 148 005a 0B4C     		ldr	r4, .L5
 149 005c 201C     		mov	r0, r4
 150 005e FFF7FEFF 		bl	i2cAcquireBus
 151              	.LVL13:
 152              		.loc 1 50 0
 153 0062 0095     		str	r5, [sp]
 154 0064 0195     		str	r5, [sp, #4]
 155 0066 0123     		mov	r3, #1
 156 0068 5B42     		neg	r3, r3
 157 006a 0293     		str	r3, [sp, #8]
 158 006c 201C     		mov	r0, r4
 159 006e 3221     		mov	r1, #50
 160 0070 321C     		mov	r2, r6
 161 0072 0423     		mov	r3, #4
 162 0074 FFF7FEFF 		bl	i2cMasterTransmitTimeout
 163              	.LVL14:
 164              		.loc 1 53 0
 165 0078 201C     		mov	r0, r4
 166 007a FFF7FEFF 		bl	i2cReleaseBus
 167              	.LVL15:
 168              		.loc 1 54 0
 169 007e 06B0     		add	sp, sp, #24
 170              		@ sp needed
 171              	.LVL16:
ARM GAS  /tmp/cc5Er7FT.s 			page 4


 172 0080 04BC     		pop	{r2}
 173 0082 9046     		mov	r8, r2
 174 0084 F0BD     		pop	{r4, r5, r6, r7, pc}
 175              	.L6:
 176 0086 C046     		.align	2
 177              	.L5:
 178 0088 00000000 		.word	I2CD1
 179              		.cfi_endproc
 180              	.LFE40:
 181              		.size	RTC_setTime, .-RTC_setTime
 182              		.section	.text.RTC_setDate,"ax",%progbits
 183              		.align	2
 184              		.global	RTC_setDate
 185              		.code	16
 186              		.thumb_func
 187              		.type	RTC_setDate, %function
 188              	RTC_setDate:
 189              	.LFB41:
 190              		.loc 1 58 0
 191              		.cfi_startproc
 192 0000 30B5     		push	{r4, r5, lr}
 193              		.cfi_def_cfa_offset 12
 194              		.cfi_offset 4, -12
 195              		.cfi_offset 5, -8
 196              		.cfi_offset 14, -4
 197 0002 87B0     		sub	sp, sp, #28
 198              		.cfi_def_cfa_offset 40
 199 0004 04AD     		add	r5, sp, #16
 200 0006 0490     		str	r0, [sp, #16]
 201 0008 0591     		str	r1, [sp, #20]
 202              	.LVL17:
 203              		.loc 1 60 0
 204 000a 3023     		mov	r3, #48
 205 000c EB70     		strb	r3, [r5, #3]
 206              		.loc 1 62 0
 207 000e 0A4C     		ldr	r4, .L8
 208 0010 201C     		mov	r0, r4
 209 0012 FFF7FEFF 		bl	i2cAcquireBus
 210              	.LVL18:
 211              		.loc 1 63 0
 212 0016 0023     		mov	r3, #0
 213 0018 0093     		str	r3, [sp]
 214 001a 0193     		str	r3, [sp, #4]
 215 001c 0123     		mov	r3, #1
 216 001e 5B42     		neg	r3, r3
 217 0020 0293     		str	r3, [sp, #8]
 218 0022 201C     		mov	r0, r4
 219 0024 3221     		mov	r1, #50
 220 0026 2A1C     		mov	r2, r5
 221 0028 0823     		mov	r3, #8
 222 002a FFF7FEFF 		bl	i2cMasterTransmitTimeout
 223              	.LVL19:
 224              		.loc 1 66 0
 225 002e 201C     		mov	r0, r4
 226 0030 FFF7FEFF 		bl	i2cReleaseBus
 227              	.LVL20:
 228              		.loc 1 67 0
ARM GAS  /tmp/cc5Er7FT.s 			page 5


 229 0034 07B0     		add	sp, sp, #28
 230              		@ sp needed
 231 0036 30BD     		pop	{r4, r5, pc}
 232              	.L9:
 233              		.align	2
 234              	.L8:
 235 0038 00000000 		.word	I2CD1
 236              		.cfi_endproc
 237              	.LFE41:
 238              		.size	RTC_setDate, .-RTC_setDate
 239              		.section	.text.RTC_getTime,"ax",%progbits
 240              		.align	2
 241              		.global	RTC_getTime
 242              		.code	16
 243              		.thumb_func
 244              		.type	RTC_getTime, %function
 245              	RTC_getTime:
 246              	.LFB42:
 247              		.loc 1 71 0
 248              		.cfi_startproc
 249 0000 30B5     		push	{r4, r5, lr}
 250              		.cfi_def_cfa_offset 12
 251              		.cfi_offset 4, -12
 252              		.cfi_offset 5, -8
 253              		.cfi_offset 14, -4
 254 0002 85B0     		sub	sp, sp, #20
 255              		.cfi_def_cfa_offset 32
 256              	.LVL21:
 257              		.loc 1 74 0
 258 0004 02AD     		add	r5, sp, #8
 259 0006 0023     		mov	r3, #0
 260 0008 2B70     		strb	r3, [r5]
 261              	.LVL22:
 262              		.loc 1 79 0
 263 000a 194C     		ldr	r4, .L13
 264 000c 201C     		mov	r0, r4
 265 000e FFF7FEFF 		bl	i2cAcquireBus
 266              	.LVL23:
 267              		.loc 1 80 0
 268 0012 0123     		mov	r3, #1
 269 0014 5B42     		neg	r3, r3
 270 0016 0093     		str	r3, [sp]
 271 0018 201C     		mov	r0, r4
 272 001a 3221     		mov	r1, #50
 273 001c 2A1C     		mov	r2, r5
 274 001e 0423     		mov	r3, #4
 275 0020 FFF7FEFF 		bl	i2cMasterReceiveTimeout
 276              	.LVL24:
 277              		.loc 1 91 0
 278 0024 201C     		mov	r0, r4
 279 0026 FFF7FEFF 		bl	i2cReleaseBus
 280              	.LVL25:
 281 002a 0023     		mov	r3, #0
 282              		.loc 1 97 0
 283 002c 0624     		mov	r4, #6
 284 002e 6442     		neg	r4, r4
 285              	.LVL26:
ARM GAS  /tmp/cc5Er7FT.s 			page 6


 286              	.L12:
 287 0030 02A9     		add	r1, sp, #8
 288 0032 CA18     		add	r2, r1, r3
 289              		.loc 1 97 0 is_stmt 0 discriminator 2
 290 0034 5178     		ldrb	r1, [r2, #1]
 291 0036 0809     		lsr	r0, r1, #4
 292 0038 6043     		mul	r0, r4
 293 003a 0918     		add	r1, r1, r0
 294 003c 5170     		strb	r1, [r2, #1]
 295              	.LVL27:
 296 003e 0133     		add	r3, r3, #1
 297              	.LVL28:
 298              		.loc 1 95 0 is_stmt 1 discriminator 2
 299 0040 032B     		cmp	r3, #3
 300 0042 F5D1     		bne	.L12
 301              		.loc 1 100 0
 302 0044 029B     		ldr	r3, [sp, #8]
 303              	.LVL29:
 304 0046 180A     		lsr	r0, r3, #8
 305 0048 190C     		lsr	r1, r3, #16
 306 004a FF22     		mov	r2, #255
 307 004c 1040     		and	r0, r2
 308 004e 0002     		lsl	r0, r0, #8
 309 0050 1C1C     		mov	r4, r3
 310 0052 1440     		and	r4, r2
 311 0054 2043     		orr	r0, r4
 312 0056 0A40     		and	r2, r1
 313 0058 1204     		lsl	r2, r2, #16
 314 005a 0649     		ldr	r1, .L13+4
 315 005c 0840     		and	r0, r1
 316 005e 1043     		orr	r0, r2
 317 0060 1B0E     		lsr	r3, r3, #24
 318 0062 1B06     		lsl	r3, r3, #24
 319 0064 0002     		lsl	r0, r0, #8
 320 0066 000A     		lsr	r0, r0, #8
 321 0068 1843     		orr	r0, r3
 322              		.loc 1 101 0
 323 006a 05B0     		add	sp, sp, #20
 324              		@ sp needed
 325 006c 30BD     		pop	{r4, r5, pc}
 326              	.L14:
 327 006e C046     		.align	2
 328              	.L13:
 329 0070 00000000 		.word	I2CD1
 330 0074 FFFF00FF 		.word	-16711681
 331              		.cfi_endproc
 332              	.LFE42:
 333              		.size	RTC_getTime, .-RTC_getTime
 334              		.section	.text.RTC_getDate,"ax",%progbits
 335              		.align	2
 336              		.global	RTC_getDate
 337              		.code	16
 338              		.thumb_func
 339              		.type	RTC_getDate, %function
 340              	RTC_getDate:
 341              	.LFB43:
 342              		.loc 1 105 0
ARM GAS  /tmp/cc5Er7FT.s 			page 7


 343              		.cfi_startproc
 344              	.LVL30:
 345 0000 70B5     		push	{r4, r5, r6, lr}
 346              		.cfi_def_cfa_offset 16
 347              		.cfi_offset 4, -16
 348              		.cfi_offset 5, -12
 349              		.cfi_offset 6, -8
 350              		.cfi_offset 14, -4
 351 0002 86B0     		sub	sp, sp, #24
 352              		.cfi_def_cfa_offset 40
 353 0004 061C     		mov	r6, r0
 354              	.LVL31:
 355              		.loc 1 108 0
 356 0006 04AC     		add	r4, sp, #16
 357 0008 3023     		mov	r3, #48
 358 000a E370     		strb	r3, [r4, #3]
 359              		.loc 1 110 0
 360 000c 0D4D     		ldr	r5, .L16
 361 000e 281C     		mov	r0, r5
 362              	.LVL32:
 363 0010 FFF7FEFF 		bl	i2cAcquireBus
 364              	.LVL33:
 365              		.loc 1 111 0
 366 0014 06AB     		add	r3, sp, #24
 367 0016 0093     		str	r3, [sp]
 368 0018 0723     		mov	r3, #7
 369 001a 0193     		str	r3, [sp, #4]
 370 001c 0123     		mov	r3, #1
 371 001e 5B42     		neg	r3, r3
 372 0020 0293     		str	r3, [sp, #8]
 373 0022 281C     		mov	r0, r5
 374 0024 3221     		mov	r1, #50
 375 0026 221C     		mov	r2, r4
 376 0028 0123     		mov	r3, #1
 377 002a FFF7FEFF 		bl	i2cMasterTransmitTimeout
 378              	.LVL34:
 379              		.loc 1 115 0
 380 002e 281C     		mov	r0, r5
 381 0030 FFF7FEFF 		bl	i2cReleaseBus
 382              	.LVL35:
 383              		.loc 1 116 0
 384 0034 301C     		mov	r0, r6
 385 0036 211C     		mov	r1, r4
 386 0038 0822     		mov	r2, #8
 387 003a FFF7FEFF 		bl	memcpy
 388              	.LVL36:
 389              		.loc 1 117 0
 390 003e 301C     		mov	r0, r6
 391 0040 06B0     		add	sp, sp, #24
 392              		@ sp needed
 393              	.LVL37:
 394 0042 70BD     		pop	{r4, r5, r6, pc}
 395              	.L17:
 396              		.align	2
 397              	.L16:
 398 0044 00000000 		.word	I2CD1
 399              		.cfi_endproc
ARM GAS  /tmp/cc5Er7FT.s 			page 8


 400              	.LFE43:
 401              		.size	RTC_getDate, .-RTC_getDate
 402              		.section	.rodata
 403              		.align	2
 404              		.set	.LANCHOR0,. + 0
 405              	.LC0:
 406 0000 E0       		.byte	-32
 407 0001 20       		.byte	32
 408 0002 00       		.byte	0
 409 0003 00       		.text
 410              	.Letext0:
 411              		.file 2 "/usr/local/lpcxpresso_7.3.0_186/lpcxpresso/tools/lib/gcc/arm-none-eabi/4.8.4/include/stdd
 412              		.file 3 "/usr/local/lpcxpresso_7.3.0_186/lpcxpresso/tools/arm-none-eabi/include/machine/_default_t
 413              		.file 4 "/usr/local/lpcxpresso_7.3.0_186/lpcxpresso/tools/arm-none-eabi/include/stdint.h"
 414              		.file 5 "ChibiOS_2.6.5/os/ports/GCC/ARMCMx/chtypes.h"
 415              		.file 6 "ChibiOS_2.6.5/os/kernel/include/chlists.h"
 416              		.file 7 "ChibiOS_2.6.5/os/kernel/include/chthreads.h"
 417              		.file 8 "ChibiOS_2.6.5/os/ports/GCC/ARMCMx/chcore_v6m.h"
 418              		.file 9 "ChibiOS_2.6.5/os/kernel/include/chmtx.h"
 419              		.file 10 "CMSIS_CORE_LPC11Uxx/inc/LPC11Uxx.h"
 420              		.file 11 "ChibiOS_2.6.5/os/hal/include/i2c.h"
 421              		.file 12 "ChibiOS_2.6.5/os/hal/platforms/LPC11Uxx/i2c_lld.h"
 422              		.file 13 "inc/RTC_r2051.h"
 423              		.section	.debug_info,"",%progbits
 424              	.Ldebug_info0:
 425 0000 E60A0000 		.4byte	0xae6
 426 0004 0400     		.2byte	0x4
 427 0006 00000000 		.4byte	.Ldebug_abbrev0
 428 000a 04       		.byte	0x4
 429 000b 01       		.uleb128 0x1
 430 000c 3A020000 		.4byte	.LASF135
 431 0010 01       		.byte	0x1
 432 0011 E6040000 		.4byte	.LASF136
 433 0015 54050000 		.4byte	.LASF137
 434 0019 00000000 		.4byte	.Ldebug_ranges0+0
 435 001d 00000000 		.4byte	0
 436 0021 00000000 		.4byte	.Ldebug_line0
 437 0025 02       		.uleb128 0x2
 438 0026 04       		.byte	0x4
 439 0027 05       		.byte	0x5
 440 0028 696E7400 		.ascii	"int\000"
 441 002c 03       		.uleb128 0x3
 442 002d 00000000 		.4byte	.LASF2
 443 0031 02       		.byte	0x2
 444 0032 D4       		.byte	0xd4
 445 0033 37000000 		.4byte	0x37
 446 0037 04       		.uleb128 0x4
 447 0038 04       		.byte	0x4
 448 0039 07       		.byte	0x7
 449 003a 81010000 		.4byte	.LASF0
 450 003e 04       		.uleb128 0x4
 451 003f 01       		.byte	0x1
 452 0040 06       		.byte	0x6
 453 0041 94000000 		.4byte	.LASF1
 454 0045 03       		.uleb128 0x3
 455 0046 0E000000 		.4byte	.LASF3
 456 004a 03       		.byte	0x3
ARM GAS  /tmp/cc5Er7FT.s 			page 9


 457 004b 1C       		.byte	0x1c
 458 004c 50000000 		.4byte	0x50
 459 0050 04       		.uleb128 0x4
 460 0051 01       		.byte	0x1
 461 0052 08       		.byte	0x8
 462 0053 0A040000 		.4byte	.LASF4
 463 0057 04       		.uleb128 0x4
 464 0058 02       		.byte	0x2
 465 0059 05       		.byte	0x5
 466 005a 2A020000 		.4byte	.LASF5
 467 005e 03       		.uleb128 0x3
 468 005f DB040000 		.4byte	.LASF6
 469 0063 03       		.byte	0x3
 470 0064 26       		.byte	0x26
 471 0065 69000000 		.4byte	0x69
 472 0069 04       		.uleb128 0x4
 473 006a 02       		.byte	0x2
 474 006b 07       		.byte	0x7
 475 006c D1010000 		.4byte	.LASF7
 476 0070 03       		.uleb128 0x3
 477 0071 1E050000 		.4byte	.LASF8
 478 0075 03       		.byte	0x3
 479 0076 37       		.byte	0x37
 480 0077 7B000000 		.4byte	0x7b
 481 007b 04       		.uleb128 0x4
 482 007c 04       		.byte	0x4
 483 007d 05       		.byte	0x5
 484 007e CC000000 		.4byte	.LASF9
 485 0082 03       		.uleb128 0x3
 486 0083 34010000 		.4byte	.LASF10
 487 0087 03       		.byte	0x3
 488 0088 38       		.byte	0x38
 489 0089 8D000000 		.4byte	0x8d
 490 008d 04       		.uleb128 0x4
 491 008e 04       		.byte	0x4
 492 008f 07       		.byte	0x7
 493 0090 B1040000 		.4byte	.LASF11
 494 0094 04       		.uleb128 0x4
 495 0095 08       		.byte	0x8
 496 0096 05       		.byte	0x5
 497 0097 86000000 		.4byte	.LASF12
 498 009b 04       		.uleb128 0x4
 499 009c 08       		.byte	0x8
 500 009d 07       		.byte	0x7
 501 009e 1E000000 		.4byte	.LASF13
 502 00a2 03       		.uleb128 0x3
 503 00a3 B3050000 		.4byte	.LASF14
 504 00a7 04       		.byte	0x4
 505 00a8 2A       		.byte	0x2a
 506 00a9 45000000 		.4byte	0x45
 507 00ad 03       		.uleb128 0x3
 508 00ae 09020000 		.4byte	.LASF15
 509 00b2 04       		.byte	0x4
 510 00b3 36       		.byte	0x36
 511 00b4 5E000000 		.4byte	0x5e
 512 00b8 03       		.uleb128 0x3
 513 00b9 02040000 		.4byte	.LASF16
ARM GAS  /tmp/cc5Er7FT.s 			page 10


 514 00bd 04       		.byte	0x4
 515 00be 41       		.byte	0x41
 516 00bf 70000000 		.4byte	0x70
 517 00c3 03       		.uleb128 0x3
 518 00c4 94040000 		.4byte	.LASF17
 519 00c8 04       		.byte	0x4
 520 00c9 42       		.byte	0x42
 521 00ca 82000000 		.4byte	0x82
 522 00ce 04       		.uleb128 0x4
 523 00cf 01       		.byte	0x1
 524 00d0 02       		.byte	0x2
 525 00d1 FC030000 		.4byte	.LASF18
 526 00d5 03       		.uleb128 0x3
 527 00d6 01020000 		.4byte	.LASF19
 528 00da 05       		.byte	0x5
 529 00db 2C       		.byte	0x2c
 530 00dc A2000000 		.4byte	0xa2
 531 00e0 03       		.uleb128 0x3
 532 00e1 D5000000 		.4byte	.LASF20
 533 00e5 05       		.byte	0x5
 534 00e6 2D       		.byte	0x2d
 535 00e7 A2000000 		.4byte	0xa2
 536 00eb 03       		.uleb128 0x3
 537 00ec A1030000 		.4byte	.LASF21
 538 00f0 05       		.byte	0x5
 539 00f1 2E       		.byte	0x2e
 540 00f2 A2000000 		.4byte	0xa2
 541 00f6 03       		.uleb128 0x3
 542 00f7 77010000 		.4byte	.LASF22
 543 00fb 05       		.byte	0x5
 544 00fc 2F       		.byte	0x2f
 545 00fd A2000000 		.4byte	0xa2
 546 0101 03       		.uleb128 0x3
 547 0102 CF030000 		.4byte	.LASF23
 548 0106 05       		.byte	0x5
 549 0107 30       		.byte	0x30
 550 0108 C3000000 		.4byte	0xc3
 551 010c 03       		.uleb128 0x3
 552 010d BB030000 		.4byte	.LASF24
 553 0111 05       		.byte	0x5
 554 0112 31       		.byte	0x31
 555 0113 B8000000 		.4byte	0xb8
 556 0117 03       		.uleb128 0x3
 557 0118 1E020000 		.4byte	.LASF25
 558 011c 05       		.byte	0x5
 559 011d 33       		.byte	0x33
 560 011e C3000000 		.4byte	0xc3
 561 0122 03       		.uleb128 0x3
 562 0123 09050000 		.4byte	.LASF26
 563 0127 05       		.byte	0x5
 564 0128 35       		.byte	0x35
 565 0129 C3000000 		.4byte	0xc3
 566 012d 03       		.uleb128 0x3
 567 012e 48010000 		.4byte	.LASF27
 568 0132 06       		.byte	0x6
 569 0133 2A       		.byte	0x2a
 570 0134 38010000 		.4byte	0x138
ARM GAS  /tmp/cc5Er7FT.s 			page 11


 571 0138 05       		.uleb128 0x5
 572 0139 48010000 		.4byte	.LASF27
 573 013d 48       		.byte	0x48
 574 013e 07       		.byte	0x7
 575 013f 5E       		.byte	0x5e
 576 0140 35020000 		.4byte	0x235
 577 0144 06       		.uleb128 0x6
 578 0145 46040000 		.4byte	.LASF28
 579 0149 07       		.byte	0x7
 580 014a 5F       		.byte	0x5f
 581 014b 56020000 		.4byte	0x256
 582 014f 00       		.byte	0
 583 0150 06       		.uleb128 0x6
 584 0151 B4030000 		.4byte	.LASF29
 585 0155 07       		.byte	0x7
 586 0156 61       		.byte	0x61
 587 0157 56020000 		.4byte	0x256
 588 015b 04       		.byte	0x4
 589 015c 06       		.uleb128 0x6
 590 015d 66000000 		.4byte	.LASF30
 591 0161 07       		.byte	0x7
 592 0162 63       		.byte	0x63
 593 0163 01010000 		.4byte	0x101
 594 0167 08       		.byte	0x8
 595 0168 06       		.uleb128 0x6
 596 0169 1F060000 		.4byte	.LASF31
 597 016d 07       		.byte	0x7
 598 016e 64       		.byte	0x64
 599 016f 06030000 		.4byte	0x306
 600 0173 0C       		.byte	0xc
 601 0174 06       		.uleb128 0x6
 602 0175 1A010000 		.4byte	.LASF32
 603 0179 07       		.byte	0x7
 604 017a 66       		.byte	0x66
 605 017b 56020000 		.4byte	0x256
 606 017f 10       		.byte	0x10
 607 0180 06       		.uleb128 0x6
 608 0181 4B030000 		.4byte	.LASF33
 609 0185 07       		.byte	0x7
 610 0186 67       		.byte	0x67
 611 0187 56020000 		.4byte	0x256
 612 018b 14       		.byte	0x14
 613 018c 06       		.uleb128 0x6
 614 018d FC050000 		.4byte	.LASF34
 615 0191 07       		.byte	0x7
 616 0192 6E       		.byte	0x6e
 617 0193 AD030000 		.4byte	0x3ad
 618 0197 18       		.byte	0x18
 619 0198 06       		.uleb128 0x6
 620 0199 2D040000 		.4byte	.LASF35
 621 019d 07       		.byte	0x7
 622 019e 79       		.byte	0x79
 623 019f E0000000 		.4byte	0xe0
 624 01a3 1C       		.byte	0x1c
 625 01a4 06       		.uleb128 0x6
 626 01a5 4D040000 		.4byte	.LASF36
 627 01a9 07       		.byte	0x7
ARM GAS  /tmp/cc5Er7FT.s 			page 12


 628 01aa 7D       		.byte	0x7d
 629 01ab D5000000 		.4byte	0xd5
 630 01af 1D       		.byte	0x1d
 631 01b0 06       		.uleb128 0x6
 632 01b1 93050000 		.4byte	.LASF37
 633 01b5 07       		.byte	0x7
 634 01b6 82       		.byte	0x82
 635 01b7 EB000000 		.4byte	0xeb
 636 01bb 1E       		.byte	0x1e
 637 01bc 06       		.uleb128 0x6
 638 01bd 35040000 		.4byte	.LASF38
 639 01c1 07       		.byte	0x7
 640 01c2 88       		.byte	0x88
 641 01c3 F6000000 		.4byte	0xf6
 642 01c7 1F       		.byte	0x1f
 643 01c8 06       		.uleb128 0x6
 644 01c9 00010000 		.4byte	.LASF39
 645 01cd 07       		.byte	0x7
 646 01ce 8F       		.byte	0x8f
 647 01cf 31030000 		.4byte	0x331
 648 01d3 20       		.byte	0x20
 649 01d4 07       		.uleb128 0x7
 650 01d5 705F7500 		.ascii	"p_u\000"
 651 01d9 07       		.byte	0x7
 652 01da B4       		.byte	0xb4
 653 01db 78030000 		.4byte	0x378
 654 01df 24       		.byte	0x24
 655 01e0 06       		.uleb128 0x6
 656 01e1 25060000 		.4byte	.LASF40
 657 01e5 07       		.byte	0x7
 658 01e6 B9       		.byte	0xb9
 659 01e7 7C020000 		.4byte	0x27c
 660 01eb 28       		.byte	0x28
 661 01ec 06       		.uleb128 0x6
 662 01ed BC010000 		.4byte	.LASF41
 663 01f1 07       		.byte	0x7
 664 01f2 BF       		.byte	0xbf
 665 01f3 5C020000 		.4byte	0x25c
 666 01f7 2C       		.byte	0x2c
 667 01f8 06       		.uleb128 0x6
 668 01f9 03060000 		.4byte	.LASF42
 669 01fd 07       		.byte	0x7
 670 01fe C3       		.byte	0xc3
 671 01ff 0C010000 		.4byte	0x10c
 672 0203 34       		.byte	0x34
 673 0204 06       		.uleb128 0x6
 674 0205 89040000 		.4byte	.LASF43
 675 0209 07       		.byte	0x7
 676 020a C9       		.byte	0xc9
 677 020b 17010000 		.4byte	0x117
 678 020f 38       		.byte	0x38
 679 0210 06       		.uleb128 0x6
 680 0211 18040000 		.4byte	.LASF44
 681 0215 07       		.byte	0x7
 682 0216 D0       		.byte	0xd0
 683 0217 BF030000 		.4byte	0x3bf
 684 021b 3C       		.byte	0x3c
ARM GAS  /tmp/cc5Er7FT.s 			page 13


 685 021c 06       		.uleb128 0x6
 686 021d 13050000 		.4byte	.LASF45
 687 0221 07       		.byte	0x7
 688 0222 D4       		.byte	0xd4
 689 0223 01010000 		.4byte	0x101
 690 0227 40       		.byte	0x40
 691 0228 06       		.uleb128 0x6
 692 0229 A0000000 		.4byte	.LASF46
 693 022d 07       		.byte	0x7
 694 022e DA       		.byte	0xda
 695 022f 92020000 		.4byte	0x292
 696 0233 44       		.byte	0x44
 697 0234 00       		.byte	0
 698 0235 08       		.uleb128 0x8
 699 0236 08       		.byte	0x8
 700 0237 06       		.byte	0x6
 701 0238 61       		.byte	0x61
 702 0239 56020000 		.4byte	0x256
 703 023d 06       		.uleb128 0x6
 704 023e 46040000 		.4byte	.LASF28
 705 0242 06       		.byte	0x6
 706 0243 62       		.byte	0x62
 707 0244 56020000 		.4byte	0x256
 708 0248 00       		.byte	0
 709 0249 06       		.uleb128 0x6
 710 024a B4030000 		.4byte	.LASF29
 711 024e 06       		.byte	0x6
 712 024f 64       		.byte	0x64
 713 0250 56020000 		.4byte	0x256
 714 0254 04       		.byte	0x4
 715 0255 00       		.byte	0
 716 0256 09       		.uleb128 0x9
 717 0257 04       		.byte	0x4
 718 0258 2D010000 		.4byte	0x12d
 719 025c 03       		.uleb128 0x3
 720 025d 5B030000 		.4byte	.LASF47
 721 0261 06       		.byte	0x6
 722 0262 66       		.byte	0x66
 723 0263 35020000 		.4byte	0x235
 724 0267 08       		.uleb128 0x8
 725 0268 04       		.byte	0x4
 726 0269 06       		.byte	0x6
 727 026a 6B       		.byte	0x6b
 728 026b 7C020000 		.4byte	0x27c
 729 026f 06       		.uleb128 0x6
 730 0270 46040000 		.4byte	.LASF28
 731 0274 06       		.byte	0x6
 732 0275 6D       		.byte	0x6d
 733 0276 56020000 		.4byte	0x256
 734 027a 00       		.byte	0
 735 027b 00       		.byte	0
 736 027c 03       		.uleb128 0x3
 737 027d 12020000 		.4byte	.LASF48
 738 0281 06       		.byte	0x6
 739 0282 70       		.byte	0x70
 740 0283 67020000 		.4byte	0x267
 741 0287 03       		.uleb128 0x3
ARM GAS  /tmp/cc5Er7FT.s 			page 14


 742 0288 3F010000 		.4byte	.LASF49
 743 028c 08       		.byte	0x8
 744 028d A7       		.byte	0xa7
 745 028e 92020000 		.4byte	0x292
 746 0292 0A       		.uleb128 0xa
 747 0293 04       		.byte	0x4
 748 0294 05       		.uleb128 0x5
 749 0295 73050000 		.4byte	.LASF50
 750 0299 24       		.byte	0x24
 751 029a 08       		.byte	0x8
 752 029b BA       		.byte	0xba
 753 029c 06030000 		.4byte	0x306
 754 02a0 07       		.uleb128 0x7
 755 02a1 723800   		.ascii	"r8\000"
 756 02a4 08       		.byte	0x8
 757 02a5 BB       		.byte	0xbb
 758 02a6 87020000 		.4byte	0x287
 759 02aa 00       		.byte	0
 760 02ab 07       		.uleb128 0x7
 761 02ac 723900   		.ascii	"r9\000"
 762 02af 08       		.byte	0x8
 763 02b0 BC       		.byte	0xbc
 764 02b1 87020000 		.4byte	0x287
 765 02b5 04       		.byte	0x4
 766 02b6 07       		.uleb128 0x7
 767 02b7 72313000 		.ascii	"r10\000"
 768 02bb 08       		.byte	0x8
 769 02bc BD       		.byte	0xbd
 770 02bd 87020000 		.4byte	0x287
 771 02c1 08       		.byte	0x8
 772 02c2 07       		.uleb128 0x7
 773 02c3 72313100 		.ascii	"r11\000"
 774 02c7 08       		.byte	0x8
 775 02c8 BE       		.byte	0xbe
 776 02c9 87020000 		.4byte	0x287
 777 02cd 0C       		.byte	0xc
 778 02ce 07       		.uleb128 0x7
 779 02cf 723400   		.ascii	"r4\000"
 780 02d2 08       		.byte	0x8
 781 02d3 BF       		.byte	0xbf
 782 02d4 87020000 		.4byte	0x287
 783 02d8 10       		.byte	0x10
 784 02d9 07       		.uleb128 0x7
 785 02da 723500   		.ascii	"r5\000"
 786 02dd 08       		.byte	0x8
 787 02de C0       		.byte	0xc0
 788 02df 87020000 		.4byte	0x287
 789 02e3 14       		.byte	0x14
 790 02e4 07       		.uleb128 0x7
 791 02e5 723600   		.ascii	"r6\000"
 792 02e8 08       		.byte	0x8
 793 02e9 C1       		.byte	0xc1
 794 02ea 87020000 		.4byte	0x287
 795 02ee 18       		.byte	0x18
 796 02ef 07       		.uleb128 0x7
 797 02f0 723700   		.ascii	"r7\000"
 798 02f3 08       		.byte	0x8
ARM GAS  /tmp/cc5Er7FT.s 			page 15


 799 02f4 C2       		.byte	0xc2
 800 02f5 87020000 		.4byte	0x287
 801 02f9 1C       		.byte	0x1c
 802 02fa 07       		.uleb128 0x7
 803 02fb 6C7200   		.ascii	"lr\000"
 804 02fe 08       		.byte	0x8
 805 02ff C3       		.byte	0xc3
 806 0300 87020000 		.4byte	0x287
 807 0304 20       		.byte	0x20
 808 0305 00       		.byte	0
 809 0306 05       		.uleb128 0x5
 810 0307 39050000 		.4byte	.LASF51
 811 030b 04       		.byte	0x4
 812 030c 08       		.byte	0x8
 813 030d CD       		.byte	0xcd
 814 030e 1F030000 		.4byte	0x31f
 815 0312 07       		.uleb128 0x7
 816 0313 72313300 		.ascii	"r13\000"
 817 0317 08       		.byte	0x8
 818 0318 CE       		.byte	0xce
 819 0319 1F030000 		.4byte	0x31f
 820 031d 00       		.byte	0
 821 031e 00       		.byte	0
 822 031f 09       		.uleb128 0x9
 823 0320 04       		.byte	0x4
 824 0321 94020000 		.4byte	0x294
 825 0325 0B       		.uleb128 0xb
 826 0326 C3000000 		.4byte	0xc3
 827 032a 04       		.uleb128 0x4
 828 032b 04       		.byte	0x4
 829 032c 07       		.byte	0x7
 830 032d 25030000 		.4byte	.LASF52
 831 0331 0B       		.uleb128 0xb
 832 0332 22010000 		.4byte	0x122
 833 0336 05       		.uleb128 0x5
 834 0337 34020000 		.4byte	.LASF53
 835 033b 10       		.byte	0x10
 836 033c 09       		.byte	0x9
 837 033d 2C       		.byte	0x2c
 838 033e 67030000 		.4byte	0x367
 839 0342 06       		.uleb128 0x6
 840 0343 A8000000 		.4byte	.LASF54
 841 0347 09       		.byte	0x9
 842 0348 2D       		.byte	0x2d
 843 0349 5C020000 		.4byte	0x25c
 844 034d 00       		.byte	0
 845 034e 06       		.uleb128 0x6
 846 034f 09060000 		.4byte	.LASF55
 847 0353 09       		.byte	0x9
 848 0354 2F       		.byte	0x2f
 849 0355 56020000 		.4byte	0x256
 850 0359 08       		.byte	0x8
 851 035a 06       		.uleb128 0x6
 852 035b 02050000 		.4byte	.LASF56
 853 035f 09       		.byte	0x9
 854 0360 31       		.byte	0x31
 855 0361 67030000 		.4byte	0x367
ARM GAS  /tmp/cc5Er7FT.s 			page 16


 856 0365 0C       		.byte	0xc
 857 0366 00       		.byte	0
 858 0367 09       		.uleb128 0x9
 859 0368 04       		.byte	0x4
 860 0369 36030000 		.4byte	0x336
 861 036d 03       		.uleb128 0x3
 862 036e 34020000 		.4byte	.LASF53
 863 0372 09       		.byte	0x9
 864 0373 33       		.byte	0x33
 865 0374 36030000 		.4byte	0x336
 866 0378 0C       		.uleb128 0xc
 867 0379 04       		.byte	0x4
 868 037a 07       		.byte	0x7
 869 037b 96       		.byte	0x96
 870 037c AD030000 		.4byte	0x3ad
 871 0380 0D       		.uleb128 0xd
 872 0381 07000000 		.4byte	.LASF57
 873 0385 07       		.byte	0x7
 874 0386 9D       		.byte	0x9d
 875 0387 0C010000 		.4byte	0x10c
 876 038b 0D       		.uleb128 0xd
 877 038c 3A000000 		.4byte	.LASF58
 878 0390 07       		.byte	0x7
 879 0391 A4       		.byte	0xa4
 880 0392 0C010000 		.4byte	0x10c
 881 0396 0D       		.uleb128 0xd
 882 0397 E7050000 		.4byte	.LASF59
 883 039b 07       		.byte	0x7
 884 039c AB       		.byte	0xab
 885 039d 92020000 		.4byte	0x292
 886 03a1 0D       		.uleb128 0xd
 887 03a2 3F040000 		.4byte	.LASF60
 888 03a6 07       		.byte	0x7
 889 03a7 B2       		.byte	0xb2
 890 03a8 17010000 		.4byte	0x117
 891 03ac 00       		.byte	0
 892 03ad 09       		.uleb128 0x9
 893 03ae 04       		.byte	0x4
 894 03af B3030000 		.4byte	0x3b3
 895 03b3 0E       		.uleb128 0xe
 896 03b4 B8030000 		.4byte	0x3b8
 897 03b8 04       		.uleb128 0x4
 898 03b9 01       		.byte	0x1
 899 03ba 08       		.byte	0x8
 900 03bb C3040000 		.4byte	.LASF61
 901 03bf 09       		.uleb128 0x9
 902 03c0 04       		.byte	0x4
 903 03c1 6D030000 		.4byte	0x36d
 904 03c5 09       		.uleb128 0x9
 905 03c6 04       		.byte	0x4
 906 03c7 A2000000 		.4byte	0xa2
 907 03cb 09       		.uleb128 0x9
 908 03cc 04       		.byte	0x4
 909 03cd D1030000 		.4byte	0x3d1
 910 03d1 0E       		.uleb128 0xe
 911 03d2 A2000000 		.4byte	0xa2
 912 03d6 0E       		.uleb128 0xe
ARM GAS  /tmp/cc5Er7FT.s 			page 17


 913 03d7 25030000 		.4byte	0x325
 914 03db 08       		.uleb128 0x8
 915 03dc 10       		.byte	0x10
 916 03dd 0A       		.byte	0xa
 917 03de 85       		.byte	0x85
 918 03df 14040000 		.4byte	0x414
 919 03e3 06       		.uleb128 0x6
 920 03e4 F6030000 		.4byte	.LASF62
 921 03e8 0A       		.byte	0xa
 922 03e9 86       		.byte	0x86
 923 03ea 25030000 		.4byte	0x325
 924 03ee 00       		.byte	0
 925 03ef 06       		.uleb128 0x6
 926 03f0 8E010000 		.4byte	.LASF63
 927 03f4 0A       		.byte	0xa
 928 03f5 87       		.byte	0x87
 929 03f6 25030000 		.4byte	0x325
 930 03fa 04       		.byte	0x4
 931 03fb 06       		.uleb128 0x6
 932 03fc 78040000 		.4byte	.LASF64
 933 0400 0A       		.byte	0xa
 934 0401 88       		.byte	0x88
 935 0402 25030000 		.4byte	0x325
 936 0406 08       		.byte	0x8
 937 0407 06       		.uleb128 0x6
 938 0408 A4010000 		.4byte	.LASF65
 939 040c 0A       		.byte	0xa
 940 040d 89       		.byte	0x89
 941 040e 25030000 		.4byte	0x325
 942 0412 0C       		.byte	0xc
 943 0413 00       		.byte	0
 944 0414 0C       		.uleb128 0xc
 945 0415 10       		.byte	0x10
 946 0416 0A       		.byte	0xa
 947 0417 83       		.byte	0x83
 948 0418 2D040000 		.4byte	0x42d
 949 041c 0D       		.uleb128 0xd
 950 041d DE000000 		.4byte	.LASF66
 951 0421 0A       		.byte	0xa
 952 0422 84       		.byte	0x84
 953 0423 3D040000 		.4byte	0x43d
 954 0427 0F       		.uleb128 0xf
 955 0428 DB030000 		.4byte	0x3db
 956 042c 00       		.byte	0
 957 042d 10       		.uleb128 0x10
 958 042e C3000000 		.4byte	0xc3
 959 0432 3D040000 		.4byte	0x43d
 960 0436 11       		.uleb128 0x11
 961 0437 2A030000 		.4byte	0x32a
 962 043b 03       		.byte	0x3
 963 043c 00       		.byte	0
 964 043d 0B       		.uleb128 0xb
 965 043e 2D040000 		.4byte	0x42d
 966 0442 08       		.uleb128 0x8
 967 0443 40       		.byte	0x40
 968 0444 0A       		.byte	0xa
 969 0445 76       		.byte	0x76
ARM GAS  /tmp/cc5Er7FT.s 			page 18


 970 0446 E1040000 		.4byte	0x4e1
 971 044a 06       		.uleb128 0x6
 972 044b CD040000 		.4byte	.LASF67
 973 044f 0A       		.byte	0xa
 974 0450 77       		.byte	0x77
 975 0451 25030000 		.4byte	0x325
 976 0455 00       		.byte	0
 977 0456 06       		.uleb128 0x6
 978 0457 81050000 		.4byte	.LASF68
 979 045b 0A       		.byte	0xa
 980 045c 78       		.byte	0x78
 981 045d D6030000 		.4byte	0x3d6
 982 0461 04       		.byte	0x4
 983 0462 07       		.uleb128 0x7
 984 0463 44415400 		.ascii	"DAT\000"
 985 0467 0A       		.byte	0xa
 986 0468 79       		.byte	0x79
 987 0469 25030000 		.4byte	0x325
 988 046d 08       		.byte	0x8
 989 046e 06       		.uleb128 0x6
 990 046f BB050000 		.4byte	.LASF69
 991 0473 0A       		.byte	0xa
 992 0474 7A       		.byte	0x7a
 993 0475 25030000 		.4byte	0x325
 994 0479 0C       		.byte	0xc
 995 047a 06       		.uleb128 0x6
 996 047b C7010000 		.4byte	.LASF70
 997 047f 0A       		.byte	0xa
 998 0480 7B       		.byte	0x7b
 999 0481 25030000 		.4byte	0x325
 1000 0485 10       		.byte	0x10
 1001 0486 06       		.uleb128 0x6
 1002 0487 CC010000 		.4byte	.LASF71
 1003 048b 0A       		.byte	0xa
 1004 048c 7C       		.byte	0x7c
 1005 048d 25030000 		.4byte	0x325
 1006 0491 14       		.byte	0x14
 1007 0492 06       		.uleb128 0x6
 1008 0493 4D050000 		.4byte	.LASF72
 1009 0497 0A       		.byte	0xa
 1010 0498 7D       		.byte	0x7d
 1011 0499 25030000 		.4byte	0x325
 1012 049d 18       		.byte	0x18
 1013 049e 06       		.uleb128 0x6
 1014 049f 1E030000 		.4byte	.LASF73
 1015 04a3 0A       		.byte	0xa
 1016 04a4 7E       		.byte	0x7e
 1017 04a5 25030000 		.4byte	0x325
 1018 04a9 1C       		.byte	0x1c
 1019 04aa 06       		.uleb128 0x6
 1020 04ab C0050000 		.4byte	.LASF74
 1021 04af 0A       		.byte	0xa
 1022 04b0 7F       		.byte	0x7f
 1023 04b1 25030000 		.4byte	0x325
 1024 04b5 20       		.byte	0x20
 1025 04b6 06       		.uleb128 0x6
 1026 04b7 C5050000 		.4byte	.LASF75
ARM GAS  /tmp/cc5Er7FT.s 			page 19


 1027 04bb 0A       		.byte	0xa
 1028 04bc 80       		.byte	0x80
 1029 04bd 25030000 		.4byte	0x325
 1030 04c1 24       		.byte	0x24
 1031 04c2 06       		.uleb128 0x6
 1032 04c3 CA050000 		.4byte	.LASF76
 1033 04c7 0A       		.byte	0xa
 1034 04c8 81       		.byte	0x81
 1035 04c9 25030000 		.4byte	0x325
 1036 04cd 28       		.byte	0x28
 1037 04ce 06       		.uleb128 0x6
 1038 04cf EA000000 		.4byte	.LASF77
 1039 04d3 0A       		.byte	0xa
 1040 04d4 82       		.byte	0x82
 1041 04d5 D6030000 		.4byte	0x3d6
 1042 04d9 2C       		.byte	0x2c
 1043 04da 12       		.uleb128 0x12
 1044 04db 14040000 		.4byte	0x414
 1045 04df 30       		.byte	0x30
 1046 04e0 00       		.byte	0
 1047 04e1 03       		.uleb128 0x3
 1048 04e2 9A050000 		.4byte	.LASF78
 1049 04e6 0A       		.byte	0xa
 1050 04e7 8C       		.byte	0x8c
 1051 04e8 42040000 		.4byte	0x442
 1052 04ec 13       		.uleb128 0x13
 1053 04ed 01       		.byte	0x1
 1054 04ee 0B       		.byte	0xb
 1055 04ef 5A       		.byte	0x5a
 1056 04f0 19050000 		.4byte	0x519
 1057 04f4 14       		.uleb128 0x14
 1058 04f5 22040000 		.4byte	.LASF79
 1059 04f9 00       		.sleb128 0
 1060 04fa 14       		.uleb128 0x14
 1061 04fb 15030000 		.4byte	.LASF80
 1062 04ff 01       		.sleb128 1
 1063 0500 14       		.uleb128 0x14
 1064 0501 28050000 		.4byte	.LASF81
 1065 0505 02       		.sleb128 2
 1066 0506 14       		.uleb128 0x14
 1067 0507 D7030000 		.4byte	.LASF82
 1068 050b 03       		.sleb128 3
 1069 050c 14       		.uleb128 0x14
 1070 050d A3040000 		.4byte	.LASF83
 1071 0511 04       		.sleb128 4
 1072 0512 14       		.uleb128 0x14
 1073 0513 7E040000 		.4byte	.LASF84
 1074 0517 05       		.sleb128 5
 1075 0518 00       		.byte	0
 1076 0519 03       		.uleb128 0x3
 1077 051a A9030000 		.4byte	.LASF85
 1078 051e 0B       		.byte	0xb
 1079 051f 61       		.byte	0x61
 1080 0520 EC040000 		.4byte	0x4ec
 1081 0524 03       		.uleb128 0x3
 1082 0525 BC000000 		.4byte	.LASF86
 1083 0529 0C       		.byte	0xc
ARM GAS  /tmp/cc5Er7FT.s 			page 20


 1084 052a 60       		.byte	0x60
 1085 052b AD000000 		.4byte	0xad
 1086 052f 03       		.uleb128 0x3
 1087 0530 E5030000 		.4byte	.LASF87
 1088 0534 0C       		.byte	0xc
 1089 0535 65       		.byte	0x65
 1090 0536 C3000000 		.4byte	0xc3
 1091 053a 13       		.uleb128 0x13
 1092 053b 01       		.byte	0x1
 1093 053c 0C       		.byte	0xc
 1094 053d 69       		.byte	0x69
 1095 053e 55050000 		.4byte	0x555
 1096 0542 14       		.uleb128 0x14
 1097 0543 22010000 		.4byte	.LASF88
 1098 0547 01       		.sleb128 1
 1099 0548 14       		.uleb128 0x14
 1100 0549 EE050000 		.4byte	.LASF89
 1101 054d 02       		.sleb128 2
 1102 054e 14       		.uleb128 0x14
 1103 054f 07010000 		.4byte	.LASF90
 1104 0553 03       		.sleb128 3
 1105 0554 00       		.byte	0
 1106 0555 03       		.uleb128 0x3
 1107 0556 5C000000 		.4byte	.LASF91
 1108 055a 0C       		.byte	0xc
 1109 055b 6D       		.byte	0x6d
 1110 055c 3A050000 		.4byte	0x53a
 1111 0560 08       		.uleb128 0x8
 1112 0561 08       		.byte	0x8
 1113 0562 0C       		.byte	0xc
 1114 0563 72       		.byte	0x72
 1115 0564 81050000 		.4byte	0x581
 1116 0568 06       		.uleb128 0x6
 1117 0569 C8040000 		.4byte	.LASF92
 1118 056d 0C       		.byte	0xc
 1119 056e 73       		.byte	0x73
 1120 056f 55050000 		.4byte	0x555
 1121 0573 00       		.byte	0
 1122 0574 06       		.uleb128 0x6
 1123 0575 71030000 		.4byte	.LASF93
 1124 0579 0C       		.byte	0xc
 1125 057a 74       		.byte	0x74
 1126 057b C3000000 		.4byte	0xc3
 1127 057f 04       		.byte	0x4
 1128 0580 00       		.byte	0
 1129 0581 03       		.uleb128 0x3
 1130 0582 F6000000 		.4byte	.LASF94
 1131 0586 0C       		.byte	0xc
 1132 0587 75       		.byte	0x75
 1133 0588 60050000 		.4byte	0x560
 1134 058c 03       		.uleb128 0x3
 1135 058d E4010000 		.4byte	.LASF95
 1136 0591 0C       		.byte	0xc
 1137 0592 91       		.byte	0x91
 1138 0593 97050000 		.4byte	0x597
 1139 0597 05       		.uleb128 0x5
 1140 0598 E4010000 		.4byte	.LASF95
ARM GAS  /tmp/cc5Er7FT.s 			page 21


 1141 059c 38       		.byte	0x38
 1142 059d 0C       		.byte	0xc
 1143 059e 96       		.byte	0x96
 1144 059f 28060000 		.4byte	0x628
 1145 05a3 06       		.uleb128 0x6
 1146 05a4 C6000000 		.4byte	.LASF96
 1147 05a8 0C       		.byte	0xc
 1148 05a9 9A       		.byte	0x9a
 1149 05aa 19050000 		.4byte	0x519
 1150 05ae 00       		.byte	0
 1151 05af 06       		.uleb128 0x6
 1152 05b0 D4040000 		.4byte	.LASF97
 1153 05b4 0C       		.byte	0xc
 1154 05b5 9E       		.byte	0x9e
 1155 05b6 28060000 		.4byte	0x628
 1156 05ba 04       		.byte	0x4
 1157 05bb 06       		.uleb128 0x6
 1158 05bc AA010000 		.4byte	.LASF98
 1159 05c0 0C       		.byte	0xc
 1160 05c1 A2       		.byte	0xa2
 1161 05c2 2F050000 		.4byte	0x52f
 1162 05c6 08       		.byte	0x8
 1163 05c7 06       		.uleb128 0x6
 1164 05c8 F0030000 		.4byte	.LASF99
 1165 05cc 0C       		.byte	0xc
 1166 05cd A8       		.byte	0xa8
 1167 05ce 6D030000 		.4byte	0x36d
 1168 05d2 0C       		.byte	0xc
 1169 05d3 06       		.uleb128 0x6
 1170 05d4 E3000000 		.4byte	.LASF100
 1171 05d8 0C       		.byte	0xc
 1172 05d9 B4       		.byte	0xb4
 1173 05da 56020000 		.4byte	0x256
 1174 05de 1C       		.byte	0x1c
 1175 05df 06       		.uleb128 0x6
 1176 05e0 35000000 		.4byte	.LASF101
 1177 05e4 0C       		.byte	0xc
 1178 05e5 B8       		.byte	0xb8
 1179 05e6 24050000 		.4byte	0x524
 1180 05ea 20       		.byte	0x20
 1181 05eb 06       		.uleb128 0x6
 1182 05ec 94010000 		.4byte	.LASF102
 1183 05f0 0C       		.byte	0xc
 1184 05f1 BC       		.byte	0xbc
 1185 05f2 CB030000 		.4byte	0x3cb
 1186 05f6 24       		.byte	0x24
 1187 05f7 06       		.uleb128 0x6
 1188 05f8 94030000 		.4byte	.LASF103
 1189 05fc 0C       		.byte	0xc
 1190 05fd C0       		.byte	0xc0
 1191 05fe 2C000000 		.4byte	0x2c
 1192 0602 28       		.byte	0x28
 1193 0603 06       		.uleb128 0x6
 1194 0604 18000000 		.4byte	.LASF104
 1195 0608 0C       		.byte	0xc
 1196 0609 C4       		.byte	0xc4
 1197 060a C5030000 		.4byte	0x3c5
ARM GAS  /tmp/cc5Er7FT.s 			page 22


 1198 060e 2C       		.byte	0x2c
 1199 060f 06       		.uleb128 0x6
 1200 0610 53030000 		.4byte	.LASF105
 1201 0614 0C       		.byte	0xc
 1202 0615 C8       		.byte	0xc8
 1203 0616 2C000000 		.4byte	0x2c
 1204 061a 30       		.byte	0x30
 1205 061b 07       		.uleb128 0x7
 1206 061c 69326300 		.ascii	"i2c\000"
 1207 0620 0C       		.byte	0xc
 1208 0621 CC       		.byte	0xcc
 1209 0622 33060000 		.4byte	0x633
 1210 0626 34       		.byte	0x34
 1211 0627 00       		.byte	0
 1212 0628 09       		.uleb128 0x9
 1213 0629 04       		.byte	0x4
 1214 062a 2E060000 		.4byte	0x62e
 1215 062e 0E       		.uleb128 0xe
 1216 062f 81050000 		.4byte	0x581
 1217 0633 09       		.uleb128 0x9
 1218 0634 04       		.byte	0x4
 1219 0635 E1040000 		.4byte	0x4e1
 1220 0639 09       		.uleb128 0x9
 1221 063a 04       		.byte	0x4
 1222 063b 3F060000 		.4byte	0x63f
 1223 063f 15       		.uleb128 0x15
 1224 0640 05       		.uleb128 0x5
 1225 0641 7E030000 		.4byte	.LASF106
 1226 0645 04       		.byte	0x4
 1227 0646 0D       		.byte	0xd
 1228 0647 15       		.byte	0x15
 1229 0648 7D060000 		.4byte	0x67d
 1230 064c 06       		.uleb128 0x6
 1231 064d EE010000 		.4byte	.LASF107
 1232 0651 0D       		.byte	0xd
 1233 0652 16       		.byte	0x16
 1234 0653 A2000000 		.4byte	0xa2
 1235 0657 00       		.byte	0
 1236 0658 06       		.uleb128 0x6
 1237 0659 B0000000 		.4byte	.LASF108
 1238 065d 0D       		.byte	0xd
 1239 065e 17       		.byte	0x17
 1240 065f A2000000 		.4byte	0xa2
 1241 0663 01       		.byte	0x1
 1242 0664 06       		.uleb128 0x6
 1243 0665 7A050000 		.4byte	.LASF109
 1244 0669 0D       		.byte	0xd
 1245 066a 18       		.byte	0x18
 1246 066b A2000000 		.4byte	0xa2
 1247 066f 02       		.byte	0x2
 1248 0670 06       		.uleb128 0x6
 1249 0671 9C030000 		.4byte	.LASF110
 1250 0675 0D       		.byte	0xd
 1251 0676 19       		.byte	0x19
 1252 0677 A2000000 		.4byte	0xa2
 1253 067b 03       		.byte	0x3
 1254 067c 00       		.byte	0
ARM GAS  /tmp/cc5Er7FT.s 			page 23


 1255 067d 03       		.uleb128 0x3
 1256 067e 89030000 		.4byte	.LASF111
 1257 0682 0D       		.byte	0xd
 1258 0683 1A       		.byte	0x1a
 1259 0684 40060000 		.4byte	0x640
 1260 0688 05       		.uleb128 0x5
 1261 0689 4F010000 		.4byte	.LASF112
 1262 068d 08       		.byte	0x8
 1263 068e 0D       		.byte	0xd
 1264 068f 1C       		.byte	0x1c
 1265 0690 DD060000 		.4byte	0x6dd
 1266 0694 06       		.uleb128 0x6
 1267 0695 F6040000 		.4byte	.LASF113
 1268 0699 0D       		.byte	0xd
 1269 069a 1D       		.byte	0x1d
 1270 069b DD060000 		.4byte	0x6dd
 1271 069f 00       		.byte	0
 1272 06a0 06       		.uleb128 0x6
 1273 06a1 55040000 		.4byte	.LASF114
 1274 06a5 0D       		.byte	0xd
 1275 06a6 1E       		.byte	0x1e
 1276 06a7 A2000000 		.4byte	0xa2
 1277 06ab 03       		.byte	0x3
 1278 06ac 06       		.uleb128 0x6
 1279 06ad FF020000 		.4byte	.LASF115
 1280 06b1 0D       		.byte	0xd
 1281 06b2 1F       		.byte	0x1f
 1282 06b3 A2000000 		.4byte	0xa2
 1283 06b7 04       		.byte	0x4
 1284 06b8 07       		.uleb128 0x7
 1285 06b9 64617900 		.ascii	"day\000"
 1286 06bd 0D       		.byte	0xd
 1287 06be 20       		.byte	0x20
 1288 06bf A2000000 		.4byte	0xa2
 1289 06c3 05       		.byte	0x5
 1290 06c4 06       		.uleb128 0x6
 1291 06c5 71010000 		.4byte	.LASF116
 1292 06c9 0D       		.byte	0xd
 1293 06ca 21       		.byte	0x21
 1294 06cb A2000000 		.4byte	0xa2
 1295 06cf 06       		.byte	0x6
 1296 06d0 06       		.uleb128 0x6
 1297 06d1 B7000000 		.4byte	.LASF117
 1298 06d5 0D       		.byte	0xd
 1299 06d6 22       		.byte	0x22
 1300 06d7 A2000000 		.4byte	0xa2
 1301 06db 07       		.byte	0x7
 1302 06dc 00       		.byte	0
 1303 06dd 10       		.uleb128 0x10
 1304 06de A2000000 		.4byte	0xa2
 1305 06e2 ED060000 		.4byte	0x6ed
 1306 06e6 11       		.uleb128 0x11
 1307 06e7 2A030000 		.4byte	0x32a
 1308 06eb 02       		.byte	0x2
 1309 06ec 00       		.byte	0
 1310 06ed 03       		.uleb128 0x3
 1311 06ee 5A010000 		.4byte	.LASF118
ARM GAS  /tmp/cc5Er7FT.s 			page 24


 1312 06f2 0D       		.byte	0xd
 1313 06f3 23       		.byte	0x23
 1314 06f4 88060000 		.4byte	0x688
 1315 06f8 16       		.uleb128 0x16
 1316 06f9 68030000 		.4byte	.LASF120
 1317 06fd 01       		.byte	0x1
 1318 06fe 0E       		.byte	0xe
 1319 06ff 00000000 		.4byte	.LFB39
 1320 0703 40000000 		.4byte	.LFE39-.LFB39
 1321 0707 01       		.uleb128 0x1
 1322 0708 9C       		.byte	0x9c
 1323 0709 B3070000 		.4byte	0x7b3
 1324 070d 17       		.uleb128 0x17
 1325 070e 726300   		.ascii	"rc\000"
 1326 0711 01       		.byte	0x1
 1327 0712 10       		.byte	0x10
 1328 0713 0C010000 		.4byte	0x10c
 1329 0717 00000000 		.4byte	.LLST0
 1330 071b 18       		.uleb128 0x18
 1331 071c 2E030000 		.4byte	.LASF119
 1332 0720 01       		.byte	0x1
 1333 0721 11       		.byte	0x11
 1334 0722 DD060000 		.4byte	0x6dd
 1335 0726 02       		.uleb128 0x2
 1336 0727 91       		.byte	0x91
 1337 0728 74       		.sleb128 -12
 1338 0729 19       		.uleb128 0x19
 1339 072a 9A010000 		.4byte	.LASF138
 1340 072e 01       		.byte	0x1
 1341 072f 13       		.byte	0x13
 1342 0730 7D060000 		.4byte	0x67d
 1343 0734 1A       		.uleb128 0x1a
 1344 0735 0E000000 		.4byte	.LVL1
 1345 0739 4C0A0000 		.4byte	0xa4c
 1346 073d 56070000 		.4byte	0x756
 1347 0741 1B       		.uleb128 0x1b
 1348 0742 01       		.uleb128 0x1
 1349 0743 52       		.byte	0x52
 1350 0744 01       		.uleb128 0x1
 1351 0745 33       		.byte	0x33
 1352 0746 1B       		.uleb128 0x1b
 1353 0747 01       		.uleb128 0x1
 1354 0748 51       		.byte	0x51
 1355 0749 05       		.uleb128 0x5
 1356 074a 03       		.byte	0x3
 1357 074b 00000000 		.4byte	.LANCHOR0
 1358 074f 1B       		.uleb128 0x1b
 1359 0750 01       		.uleb128 0x1
 1360 0751 50       		.byte	0x50
 1361 0752 02       		.uleb128 0x2
 1362 0753 91       		.byte	0x91
 1363 0754 74       		.sleb128 -12
 1364 0755 00       		.byte	0
 1365 0756 1A       		.uleb128 0x1a
 1366 0757 16000000 		.4byte	.LVL2
 1367 075b 690A0000 		.4byte	0xa69
 1368 075f 6A070000 		.4byte	0x76a
ARM GAS  /tmp/cc5Er7FT.s 			page 25


 1369 0763 1B       		.uleb128 0x1b
 1370 0764 01       		.uleb128 0x1
 1371 0765 50       		.byte	0x50
 1372 0766 02       		.uleb128 0x2
 1373 0767 74       		.byte	0x74
 1374 0768 00       		.sleb128 0
 1375 0769 00       		.byte	0
 1376 076a 1A       		.uleb128 0x1a
 1377 076b 2E000000 		.4byte	.LVL3
 1378 076f 800A0000 		.4byte	0xa80
 1379 0773 A2070000 		.4byte	0x7a2
 1380 0777 1B       		.uleb128 0x1b
 1381 0778 01       		.uleb128 0x1
 1382 0779 53       		.byte	0x53
 1383 077a 01       		.uleb128 0x1
 1384 077b 32       		.byte	0x32
 1385 077c 1B       		.uleb128 0x1b
 1386 077d 01       		.uleb128 0x1
 1387 077e 52       		.byte	0x52
 1388 077f 02       		.uleb128 0x2
 1389 0780 91       		.byte	0x91
 1390 0781 74       		.sleb128 -12
 1391 0782 1B       		.uleb128 0x1b
 1392 0783 01       		.uleb128 0x1
 1393 0784 51       		.byte	0x51
 1394 0785 02       		.uleb128 0x2
 1395 0786 08       		.byte	0x8
 1396 0787 32       		.byte	0x32
 1397 0788 1B       		.uleb128 0x1b
 1398 0789 01       		.uleb128 0x1
 1399 078a 50       		.byte	0x50
 1400 078b 02       		.uleb128 0x2
 1401 078c 74       		.byte	0x74
 1402 078d 00       		.sleb128 0
 1403 078e 1B       		.uleb128 0x1b
 1404 078f 02       		.uleb128 0x2
 1405 0790 7D       		.byte	0x7d
 1406 0791 08       		.sleb128 8
 1407 0792 02       		.uleb128 0x2
 1408 0793 09       		.byte	0x9
 1409 0794 FF       		.byte	0xff
 1410 0795 1B       		.uleb128 0x1b
 1411 0796 02       		.uleb128 0x2
 1412 0797 7D       		.byte	0x7d
 1413 0798 04       		.sleb128 4
 1414 0799 01       		.uleb128 0x1
 1415 079a 30       		.byte	0x30
 1416 079b 1B       		.uleb128 0x1b
 1417 079c 02       		.uleb128 0x2
 1418 079d 7D       		.byte	0x7d
 1419 079e 00       		.sleb128 0
 1420 079f 01       		.uleb128 0x1
 1421 07a0 30       		.byte	0x30
 1422 07a1 00       		.byte	0
 1423 07a2 1C       		.uleb128 0x1c
 1424 07a3 34000000 		.4byte	.LVL4
 1425 07a7 B30A0000 		.4byte	0xab3
ARM GAS  /tmp/cc5Er7FT.s 			page 26


 1426 07ab 1B       		.uleb128 0x1b
 1427 07ac 01       		.uleb128 0x1
 1428 07ad 50       		.byte	0x50
 1429 07ae 02       		.uleb128 0x2
 1430 07af 74       		.byte	0x74
 1431 07b0 00       		.sleb128 0
 1432 07b1 00       		.byte	0
 1433 07b2 00       		.byte	0
 1434 07b3 1D       		.uleb128 0x1d
 1435 07b4 09030000 		.4byte	.LASF121
 1436 07b8 01       		.byte	0x1
 1437 07b9 23       		.byte	0x23
 1438 07ba 00000000 		.4byte	.LFB40
 1439 07be 8C000000 		.4byte	.LFE40-.LFB40
 1440 07c2 01       		.uleb128 0x1
 1441 07c3 9C       		.byte	0x9c
 1442 07c4 5F080000 		.4byte	0x85f
 1443 07c8 1E       		.uleb128 0x1e
 1444 07c9 A7050000 		.4byte	.LASF124
 1445 07cd 01       		.byte	0x1
 1446 07ce 23       		.byte	0x23
 1447 07cf 7D060000 		.4byte	0x67d
 1448 07d3 02       		.uleb128 0x2
 1449 07d4 91       		.byte	0x91
 1450 07d5 64       		.sleb128 -28
 1451 07d6 17       		.uleb128 0x17
 1452 07d7 726300   		.ascii	"rc\000"
 1453 07da 01       		.byte	0x1
 1454 07db 25       		.byte	0x25
 1455 07dc 0C010000 		.4byte	0x10c
 1456 07e0 14000000 		.4byte	.LLST1
 1457 07e4 17       		.uleb128 0x17
 1458 07e5 6900     		.ascii	"i\000"
 1459 07e7 01       		.byte	0x1
 1460 07e8 26       		.byte	0x26
 1461 07e9 A2000000 		.4byte	0xa2
 1462 07ed 28000000 		.4byte	.LLST2
 1463 07f1 1F       		.uleb128 0x1f
 1464 07f2 11060000 		.4byte	.LASF122
 1465 07f6 01       		.byte	0x1
 1466 07f7 29       		.byte	0x29
 1467 07f8 C5030000 		.4byte	0x3c5
 1468 07fc 60000000 		.4byte	.LLST3
 1469 0800 1A       		.uleb128 0x1a
 1470 0801 62000000 		.4byte	.LVL13
 1471 0805 690A0000 		.4byte	0xa69
 1472 0809 14080000 		.4byte	0x814
 1473 080d 1B       		.uleb128 0x1b
 1474 080e 01       		.uleb128 0x1
 1475 080f 50       		.byte	0x50
 1476 0810 02       		.uleb128 0x2
 1477 0811 74       		.byte	0x74
 1478 0812 00       		.sleb128 0
 1479 0813 00       		.byte	0
 1480 0814 1A       		.uleb128 0x1a
 1481 0815 78000000 		.4byte	.LVL14
 1482 0819 800A0000 		.4byte	0xa80
ARM GAS  /tmp/cc5Er7FT.s 			page 27


 1483 081d 4E080000 		.4byte	0x84e
 1484 0821 1B       		.uleb128 0x1b
 1485 0822 01       		.uleb128 0x1
 1486 0823 53       		.byte	0x53
 1487 0824 01       		.uleb128 0x1
 1488 0825 34       		.byte	0x34
 1489 0826 1B       		.uleb128 0x1b
 1490 0827 01       		.uleb128 0x1
 1491 0828 52       		.byte	0x52
 1492 0829 02       		.uleb128 0x2
 1493 082a 76       		.byte	0x76
 1494 082b 00       		.sleb128 0
 1495 082c 1B       		.uleb128 0x1b
 1496 082d 01       		.uleb128 0x1
 1497 082e 51       		.byte	0x51
 1498 082f 02       		.uleb128 0x2
 1499 0830 08       		.byte	0x8
 1500 0831 32       		.byte	0x32
 1501 0832 1B       		.uleb128 0x1b
 1502 0833 01       		.uleb128 0x1
 1503 0834 50       		.byte	0x50
 1504 0835 02       		.uleb128 0x2
 1505 0836 74       		.byte	0x74
 1506 0837 00       		.sleb128 0
 1507 0838 1B       		.uleb128 0x1b
 1508 0839 02       		.uleb128 0x2
 1509 083a 7D       		.byte	0x7d
 1510 083b 08       		.sleb128 8
 1511 083c 02       		.uleb128 0x2
 1512 083d 09       		.byte	0x9
 1513 083e FF       		.byte	0xff
 1514 083f 1B       		.uleb128 0x1b
 1515 0840 02       		.uleb128 0x2
 1516 0841 7D       		.byte	0x7d
 1517 0842 04       		.sleb128 4
 1518 0843 02       		.uleb128 0x2
 1519 0844 75       		.byte	0x75
 1520 0845 00       		.sleb128 0
 1521 0846 1B       		.uleb128 0x1b
 1522 0847 02       		.uleb128 0x2
 1523 0848 7D       		.byte	0x7d
 1524 0849 00       		.sleb128 0
 1525 084a 02       		.uleb128 0x2
 1526 084b 75       		.byte	0x75
 1527 084c 00       		.sleb128 0
 1528 084d 00       		.byte	0
 1529 084e 1C       		.uleb128 0x1c
 1530 084f 7E000000 		.4byte	.LVL15
 1531 0853 B30A0000 		.4byte	0xab3
 1532 0857 1B       		.uleb128 0x1b
 1533 0858 01       		.uleb128 0x1
 1534 0859 50       		.byte	0x50
 1535 085a 02       		.uleb128 0x2
 1536 085b 74       		.byte	0x74
 1537 085c 00       		.sleb128 0
 1538 085d 00       		.byte	0
 1539 085e 00       		.byte	0
ARM GAS  /tmp/cc5Er7FT.s 			page 28


 1540 085f 16       		.uleb128 0x16
 1541 0860 65010000 		.4byte	.LASF123
 1542 0864 01       		.byte	0x1
 1543 0865 39       		.byte	0x39
 1544 0866 00000000 		.4byte	.LFB41
 1545 086a 3C000000 		.4byte	.LFE41-.LFB41
 1546 086e 01       		.uleb128 0x1
 1547 086f 9C       		.byte	0x9c
 1548 0870 ED080000 		.4byte	0x8ed
 1549 0874 1E       		.uleb128 0x1e
 1550 0875 3F030000 		.4byte	.LASF125
 1551 0879 01       		.byte	0x1
 1552 087a 39       		.byte	0x39
 1553 087b ED060000 		.4byte	0x6ed
 1554 087f 02       		.uleb128 0x2
 1555 0880 91       		.byte	0x91
 1556 0881 68       		.sleb128 -24
 1557 0882 17       		.uleb128 0x17
 1558 0883 726300   		.ascii	"rc\000"
 1559 0886 01       		.byte	0x1
 1560 0887 3B       		.byte	0x3b
 1561 0888 0C010000 		.4byte	0x10c
 1562 088c 80000000 		.4byte	.LLST4
 1563 0890 1A       		.uleb128 0x1a
 1564 0891 16000000 		.4byte	.LVL18
 1565 0895 690A0000 		.4byte	0xa69
 1566 0899 A4080000 		.4byte	0x8a4
 1567 089d 1B       		.uleb128 0x1b
 1568 089e 01       		.uleb128 0x1
 1569 089f 50       		.byte	0x50
 1570 08a0 02       		.uleb128 0x2
 1571 08a1 74       		.byte	0x74
 1572 08a2 00       		.sleb128 0
 1573 08a3 00       		.byte	0
 1574 08a4 1A       		.uleb128 0x1a
 1575 08a5 2E000000 		.4byte	.LVL19
 1576 08a9 800A0000 		.4byte	0xa80
 1577 08ad DC080000 		.4byte	0x8dc
 1578 08b1 1B       		.uleb128 0x1b
 1579 08b2 01       		.uleb128 0x1
 1580 08b3 53       		.byte	0x53
 1581 08b4 01       		.uleb128 0x1
 1582 08b5 38       		.byte	0x38
 1583 08b6 1B       		.uleb128 0x1b
 1584 08b7 01       		.uleb128 0x1
 1585 08b8 52       		.byte	0x52
 1586 08b9 02       		.uleb128 0x2
 1587 08ba 75       		.byte	0x75
 1588 08bb 00       		.sleb128 0
 1589 08bc 1B       		.uleb128 0x1b
 1590 08bd 01       		.uleb128 0x1
 1591 08be 51       		.byte	0x51
 1592 08bf 02       		.uleb128 0x2
 1593 08c0 08       		.byte	0x8
 1594 08c1 32       		.byte	0x32
 1595 08c2 1B       		.uleb128 0x1b
 1596 08c3 01       		.uleb128 0x1
ARM GAS  /tmp/cc5Er7FT.s 			page 29


 1597 08c4 50       		.byte	0x50
 1598 08c5 02       		.uleb128 0x2
 1599 08c6 74       		.byte	0x74
 1600 08c7 00       		.sleb128 0
 1601 08c8 1B       		.uleb128 0x1b
 1602 08c9 02       		.uleb128 0x2
 1603 08ca 7D       		.byte	0x7d
 1604 08cb 08       		.sleb128 8
 1605 08cc 02       		.uleb128 0x2
 1606 08cd 09       		.byte	0x9
 1607 08ce FF       		.byte	0xff
 1608 08cf 1B       		.uleb128 0x1b
 1609 08d0 02       		.uleb128 0x2
 1610 08d1 7D       		.byte	0x7d
 1611 08d2 04       		.sleb128 4
 1612 08d3 01       		.uleb128 0x1
 1613 08d4 30       		.byte	0x30
 1614 08d5 1B       		.uleb128 0x1b
 1615 08d6 02       		.uleb128 0x2
 1616 08d7 7D       		.byte	0x7d
 1617 08d8 00       		.sleb128 0
 1618 08d9 01       		.uleb128 0x1
 1619 08da 30       		.byte	0x30
 1620 08db 00       		.byte	0
 1621 08dc 1C       		.uleb128 0x1c
 1622 08dd 34000000 		.4byte	.LVL20
 1623 08e1 B30A0000 		.4byte	0xab3
 1624 08e5 1B       		.uleb128 0x1b
 1625 08e6 01       		.uleb128 0x1
 1626 08e7 50       		.byte	0x50
 1627 08e8 02       		.uleb128 0x2
 1628 08e9 74       		.byte	0x74
 1629 08ea 00       		.sleb128 0
 1630 08eb 00       		.byte	0
 1631 08ec 00       		.byte	0
 1632 08ed 20       		.uleb128 0x20
 1633 08ee 6C040000 		.4byte	.LASF128
 1634 08f2 01       		.byte	0x1
 1635 08f3 46       		.byte	0x46
 1636 08f4 7D060000 		.4byte	0x67d
 1637 08f8 00000000 		.4byte	.LFB42
 1638 08fc 78000000 		.4byte	.LFE42-.LFB42
 1639 0900 01       		.uleb128 0x1
 1640 0901 9C       		.byte	0x9c
 1641 0902 8F090000 		.4byte	0x98f
 1642 0906 17       		.uleb128 0x17
 1643 0907 726300   		.ascii	"rc\000"
 1644 090a 01       		.byte	0x1
 1645 090b 48       		.byte	0x48
 1646 090c 0C010000 		.4byte	0x10c
 1647 0910 94000000 		.4byte	.LLST5
 1648 0914 18       		.uleb128 0x18
 1649 0915 51000000 		.4byte	.LASF126
 1650 0919 01       		.byte	0x1
 1651 091a 49       		.byte	0x49
 1652 091b 7D060000 		.4byte	0x67d
 1653 091f 02       		.uleb128 0x2
ARM GAS  /tmp/cc5Er7FT.s 			page 30


 1654 0920 91       		.byte	0x91
 1655 0921 68       		.sleb128 -24
 1656 0922 17       		.uleb128 0x17
 1657 0923 6900     		.ascii	"i\000"
 1658 0925 01       		.byte	0x1
 1659 0926 4B       		.byte	0x4b
 1660 0927 A2000000 		.4byte	0xa2
 1661 092b A8000000 		.4byte	.LLST6
 1662 092f 1F       		.uleb128 0x1f
 1663 0930 86050000 		.4byte	.LASF127
 1664 0934 01       		.byte	0x1
 1665 0935 4D       		.byte	0x4d
 1666 0936 C5030000 		.4byte	0x3c5
 1667 093a E1000000 		.4byte	.LLST7
 1668 093e 1A       		.uleb128 0x1a
 1669 093f 12000000 		.4byte	.LVL23
 1670 0943 690A0000 		.4byte	0xa69
 1671 0947 52090000 		.4byte	0x952
 1672 094b 1B       		.uleb128 0x1b
 1673 094c 01       		.uleb128 0x1
 1674 094d 50       		.byte	0x50
 1675 094e 02       		.uleb128 0x2
 1676 094f 74       		.byte	0x74
 1677 0950 00       		.sleb128 0
 1678 0951 00       		.byte	0
 1679 0952 1A       		.uleb128 0x1a
 1680 0953 24000000 		.4byte	.LVL24
 1681 0957 C40A0000 		.4byte	0xac4
 1682 095b 7E090000 		.4byte	0x97e
 1683 095f 1B       		.uleb128 0x1b
 1684 0960 01       		.uleb128 0x1
 1685 0961 53       		.byte	0x53
 1686 0962 01       		.uleb128 0x1
 1687 0963 34       		.byte	0x34
 1688 0964 1B       		.uleb128 0x1b
 1689 0965 01       		.uleb128 0x1
 1690 0966 52       		.byte	0x52
 1691 0967 02       		.uleb128 0x2
 1692 0968 75       		.byte	0x75
 1693 0969 00       		.sleb128 0
 1694 096a 1B       		.uleb128 0x1b
 1695 096b 01       		.uleb128 0x1
 1696 096c 51       		.byte	0x51
 1697 096d 02       		.uleb128 0x2
 1698 096e 08       		.byte	0x8
 1699 096f 32       		.byte	0x32
 1700 0970 1B       		.uleb128 0x1b
 1701 0971 01       		.uleb128 0x1
 1702 0972 50       		.byte	0x50
 1703 0973 02       		.uleb128 0x2
 1704 0974 74       		.byte	0x74
 1705 0975 00       		.sleb128 0
 1706 0976 1B       		.uleb128 0x1b
 1707 0977 02       		.uleb128 0x2
 1708 0978 7D       		.byte	0x7d
 1709 0979 00       		.sleb128 0
 1710 097a 02       		.uleb128 0x2
ARM GAS  /tmp/cc5Er7FT.s 			page 31


 1711 097b 09       		.byte	0x9
 1712 097c FF       		.byte	0xff
 1713 097d 00       		.byte	0
 1714 097e 1C       		.uleb128 0x1c
 1715 097f 2A000000 		.4byte	.LVL25
 1716 0983 B30A0000 		.4byte	0xab3
 1717 0987 1B       		.uleb128 0x1b
 1718 0988 01       		.uleb128 0x1
 1719 0989 50       		.byte	0x50
 1720 098a 02       		.uleb128 0x2
 1721 098b 74       		.byte	0x74
 1722 098c 00       		.sleb128 0
 1723 098d 00       		.byte	0
 1724 098e 00       		.byte	0
 1725 098f 20       		.uleb128 0x20
 1726 0990 41050000 		.4byte	.LASF129
 1727 0994 01       		.byte	0x1
 1728 0995 68       		.byte	0x68
 1729 0996 ED060000 		.4byte	0x6ed
 1730 099a 00000000 		.4byte	.LFB43
 1731 099e 48000000 		.4byte	.LFE43-.LFB43
 1732 09a2 01       		.uleb128 0x1
 1733 09a3 9C       		.byte	0x9c
 1734 09a4 410A0000 		.4byte	0xa41
 1735 09a8 17       		.uleb128 0x17
 1736 09a9 726300   		.ascii	"rc\000"
 1737 09ac 01       		.byte	0x1
 1738 09ad 6A       		.byte	0x6a
 1739 09ae 0C010000 		.4byte	0x10c
 1740 09b2 01010000 		.4byte	.LLST8
 1741 09b6 18       		.uleb128 0x18
 1742 09b7 B1010000 		.4byte	.LASF130
 1743 09bb 01       		.byte	0x1
 1744 09bc 6B       		.byte	0x6b
 1745 09bd ED060000 		.4byte	0x6ed
 1746 09c1 02       		.uleb128 0x2
 1747 09c2 91       		.byte	0x91
 1748 09c3 68       		.sleb128 -24
 1749 09c4 1A       		.uleb128 0x1a
 1750 09c5 14000000 		.4byte	.LVL33
 1751 09c9 690A0000 		.4byte	0xa69
 1752 09cd D8090000 		.4byte	0x9d8
 1753 09d1 1B       		.uleb128 0x1b
 1754 09d2 01       		.uleb128 0x1
 1755 09d3 50       		.byte	0x50
 1756 09d4 02       		.uleb128 0x2
 1757 09d5 75       		.byte	0x75
 1758 09d6 00       		.sleb128 0
 1759 09d7 00       		.byte	0
 1760 09d8 1A       		.uleb128 0x1a
 1761 09d9 2E000000 		.4byte	.LVL34
 1762 09dd 800A0000 		.4byte	0xa80
 1763 09e1 110A0000 		.4byte	0xa11
 1764 09e5 1B       		.uleb128 0x1b
 1765 09e6 01       		.uleb128 0x1
 1766 09e7 53       		.byte	0x53
 1767 09e8 01       		.uleb128 0x1
ARM GAS  /tmp/cc5Er7FT.s 			page 32


 1768 09e9 31       		.byte	0x31
 1769 09ea 1B       		.uleb128 0x1b
 1770 09eb 01       		.uleb128 0x1
 1771 09ec 52       		.byte	0x52
 1772 09ed 02       		.uleb128 0x2
 1773 09ee 74       		.byte	0x74
 1774 09ef 00       		.sleb128 0
 1775 09f0 1B       		.uleb128 0x1b
 1776 09f1 01       		.uleb128 0x1
 1777 09f2 51       		.byte	0x51
 1778 09f3 02       		.uleb128 0x2
 1779 09f4 08       		.byte	0x8
 1780 09f5 32       		.byte	0x32
 1781 09f6 1B       		.uleb128 0x1b
 1782 09f7 01       		.uleb128 0x1
 1783 09f8 50       		.byte	0x50
 1784 09f9 02       		.uleb128 0x2
 1785 09fa 75       		.byte	0x75
 1786 09fb 00       		.sleb128 0
 1787 09fc 1B       		.uleb128 0x1b
 1788 09fd 02       		.uleb128 0x2
 1789 09fe 7D       		.byte	0x7d
 1790 09ff 08       		.sleb128 8
 1791 0a00 02       		.uleb128 0x2
 1792 0a01 09       		.byte	0x9
 1793 0a02 FF       		.byte	0xff
 1794 0a03 1B       		.uleb128 0x1b
 1795 0a04 02       		.uleb128 0x2
 1796 0a05 7D       		.byte	0x7d
 1797 0a06 04       		.sleb128 4
 1798 0a07 01       		.uleb128 0x1
 1799 0a08 37       		.byte	0x37
 1800 0a09 1B       		.uleb128 0x1b
 1801 0a0a 02       		.uleb128 0x2
 1802 0a0b 7D       		.byte	0x7d
 1803 0a0c 00       		.sleb128 0
 1804 0a0d 02       		.uleb128 0x2
 1805 0a0e 91       		.byte	0x91
 1806 0a0f 70       		.sleb128 -16
 1807 0a10 00       		.byte	0
 1808 0a11 1A       		.uleb128 0x1a
 1809 0a12 34000000 		.4byte	.LVL35
 1810 0a16 B30A0000 		.4byte	0xab3
 1811 0a1a 250A0000 		.4byte	0xa25
 1812 0a1e 1B       		.uleb128 0x1b
 1813 0a1f 01       		.uleb128 0x1
 1814 0a20 50       		.byte	0x50
 1815 0a21 02       		.uleb128 0x2
 1816 0a22 75       		.byte	0x75
 1817 0a23 00       		.sleb128 0
 1818 0a24 00       		.byte	0
 1819 0a25 1C       		.uleb128 0x1c
 1820 0a26 3E000000 		.4byte	.LVL36
 1821 0a2a 4C0A0000 		.4byte	0xa4c
 1822 0a2e 1B       		.uleb128 0x1b
 1823 0a2f 01       		.uleb128 0x1
 1824 0a30 52       		.byte	0x52
ARM GAS  /tmp/cc5Er7FT.s 			page 33


 1825 0a31 01       		.uleb128 0x1
 1826 0a32 38       		.byte	0x38
 1827 0a33 1B       		.uleb128 0x1b
 1828 0a34 01       		.uleb128 0x1
 1829 0a35 51       		.byte	0x51
 1830 0a36 02       		.uleb128 0x2
 1831 0a37 74       		.byte	0x74
 1832 0a38 00       		.sleb128 0
 1833 0a39 1B       		.uleb128 0x1b
 1834 0a3a 01       		.uleb128 0x1
 1835 0a3b 50       		.byte	0x50
 1836 0a3c 02       		.uleb128 0x2
 1837 0a3d 76       		.byte	0x76
 1838 0a3e 00       		.sleb128 0
 1839 0a3f 00       		.byte	0
 1840 0a40 00       		.byte	0
 1841 0a41 21       		.uleb128 0x21
 1842 0a42 9D040000 		.4byte	.LASF139
 1843 0a46 0C       		.byte	0xc
 1844 0a47 E2       		.byte	0xe2
 1845 0a48 8C050000 		.4byte	0x58c
 1846 0a4c 22       		.uleb128 0x22
 1847 0a4d 32050000 		.4byte	.LASF131
 1848 0a51 92020000 		.4byte	0x292
 1849 0a55 690A0000 		.4byte	0xa69
 1850 0a59 23       		.uleb128 0x23
 1851 0a5a 92020000 		.4byte	0x292
 1852 0a5e 23       		.uleb128 0x23
 1853 0a5f 39060000 		.4byte	0x639
 1854 0a63 23       		.uleb128 0x23
 1855 0a64 2A030000 		.4byte	0x32a
 1856 0a68 00       		.byte	0
 1857 0a69 24       		.uleb128 0x24
 1858 0a6a C1030000 		.4byte	.LASF132
 1859 0a6e 0B       		.byte	0xb
 1860 0a6f 8E       		.byte	0x8e
 1861 0a70 7A0A0000 		.4byte	0xa7a
 1862 0a74 23       		.uleb128 0x23
 1863 0a75 7A0A0000 		.4byte	0xa7a
 1864 0a79 00       		.byte	0
 1865 0a7a 09       		.uleb128 0x9
 1866 0a7b 04       		.byte	0x4
 1867 0a7c 8C050000 		.4byte	0x58c
 1868 0a80 25       		.uleb128 0x25
 1869 0a81 6D000000 		.4byte	.LASF140
 1870 0a85 0B       		.byte	0xb
 1871 0a86 84       		.byte	0x84
 1872 0a87 0C010000 		.4byte	0x10c
 1873 0a8b B30A0000 		.4byte	0xab3
 1874 0a8f 23       		.uleb128 0x23
 1875 0a90 7A0A0000 		.4byte	0xa7a
 1876 0a94 23       		.uleb128 0x23
 1877 0a95 24050000 		.4byte	0x524
 1878 0a99 23       		.uleb128 0x23
 1879 0a9a CB030000 		.4byte	0x3cb
 1880 0a9e 23       		.uleb128 0x23
 1881 0a9f 2C000000 		.4byte	0x2c
ARM GAS  /tmp/cc5Er7FT.s 			page 34


 1882 0aa3 23       		.uleb128 0x23
 1883 0aa4 C5030000 		.4byte	0x3c5
 1884 0aa8 23       		.uleb128 0x23
 1885 0aa9 2C000000 		.4byte	0x2c
 1886 0aad 23       		.uleb128 0x23
 1887 0aae 22010000 		.4byte	0x122
 1888 0ab2 00       		.byte	0
 1889 0ab3 24       		.uleb128 0x24
 1890 0ab4 43000000 		.4byte	.LASF133
 1891 0ab8 0B       		.byte	0xb
 1892 0ab9 8F       		.byte	0x8f
 1893 0aba C40A0000 		.4byte	0xac4
 1894 0abe 23       		.uleb128 0x23
 1895 0abf 7A0A0000 		.4byte	0xa7a
 1896 0ac3 00       		.byte	0
 1897 0ac4 26       		.uleb128 0x26
 1898 0ac5 CF050000 		.4byte	.LASF134
 1899 0ac9 0B       		.byte	0xb
 1900 0aca 89       		.byte	0x89
 1901 0acb 0C010000 		.4byte	0x10c
 1902 0acf 23       		.uleb128 0x23
 1903 0ad0 7A0A0000 		.4byte	0xa7a
 1904 0ad4 23       		.uleb128 0x23
 1905 0ad5 24050000 		.4byte	0x524
 1906 0ad9 23       		.uleb128 0x23
 1907 0ada C5030000 		.4byte	0x3c5
 1908 0ade 23       		.uleb128 0x23
 1909 0adf 2C000000 		.4byte	0x2c
 1910 0ae3 23       		.uleb128 0x23
 1911 0ae4 22010000 		.4byte	0x122
 1912 0ae8 00       		.byte	0
 1913 0ae9 00       		.byte	0
 1914              		.section	.debug_abbrev,"",%progbits
 1915              	.Ldebug_abbrev0:
 1916 0000 01       		.uleb128 0x1
 1917 0001 11       		.uleb128 0x11
 1918 0002 01       		.byte	0x1
 1919 0003 25       		.uleb128 0x25
 1920 0004 0E       		.uleb128 0xe
 1921 0005 13       		.uleb128 0x13
 1922 0006 0B       		.uleb128 0xb
 1923 0007 03       		.uleb128 0x3
 1924 0008 0E       		.uleb128 0xe
 1925 0009 1B       		.uleb128 0x1b
 1926 000a 0E       		.uleb128 0xe
 1927 000b 55       		.uleb128 0x55
 1928 000c 17       		.uleb128 0x17
 1929 000d 11       		.uleb128 0x11
 1930 000e 01       		.uleb128 0x1
 1931 000f 10       		.uleb128 0x10
 1932 0010 17       		.uleb128 0x17
 1933 0011 00       		.byte	0
 1934 0012 00       		.byte	0
 1935 0013 02       		.uleb128 0x2
 1936 0014 24       		.uleb128 0x24
 1937 0015 00       		.byte	0
 1938 0016 0B       		.uleb128 0xb
ARM GAS  /tmp/cc5Er7FT.s 			page 35


 1939 0017 0B       		.uleb128 0xb
 1940 0018 3E       		.uleb128 0x3e
 1941 0019 0B       		.uleb128 0xb
 1942 001a 03       		.uleb128 0x3
 1943 001b 08       		.uleb128 0x8
 1944 001c 00       		.byte	0
 1945 001d 00       		.byte	0
 1946 001e 03       		.uleb128 0x3
 1947 001f 16       		.uleb128 0x16
 1948 0020 00       		.byte	0
 1949 0021 03       		.uleb128 0x3
 1950 0022 0E       		.uleb128 0xe
 1951 0023 3A       		.uleb128 0x3a
 1952 0024 0B       		.uleb128 0xb
 1953 0025 3B       		.uleb128 0x3b
 1954 0026 0B       		.uleb128 0xb
 1955 0027 49       		.uleb128 0x49
 1956 0028 13       		.uleb128 0x13
 1957 0029 00       		.byte	0
 1958 002a 00       		.byte	0
 1959 002b 04       		.uleb128 0x4
 1960 002c 24       		.uleb128 0x24
 1961 002d 00       		.byte	0
 1962 002e 0B       		.uleb128 0xb
 1963 002f 0B       		.uleb128 0xb
 1964 0030 3E       		.uleb128 0x3e
 1965 0031 0B       		.uleb128 0xb
 1966 0032 03       		.uleb128 0x3
 1967 0033 0E       		.uleb128 0xe
 1968 0034 00       		.byte	0
 1969 0035 00       		.byte	0
 1970 0036 05       		.uleb128 0x5
 1971 0037 13       		.uleb128 0x13
 1972 0038 01       		.byte	0x1
 1973 0039 03       		.uleb128 0x3
 1974 003a 0E       		.uleb128 0xe
 1975 003b 0B       		.uleb128 0xb
 1976 003c 0B       		.uleb128 0xb
 1977 003d 3A       		.uleb128 0x3a
 1978 003e 0B       		.uleb128 0xb
 1979 003f 3B       		.uleb128 0x3b
 1980 0040 0B       		.uleb128 0xb
 1981 0041 01       		.uleb128 0x1
 1982 0042 13       		.uleb128 0x13
 1983 0043 00       		.byte	0
 1984 0044 00       		.byte	0
 1985 0045 06       		.uleb128 0x6
 1986 0046 0D       		.uleb128 0xd
 1987 0047 00       		.byte	0
 1988 0048 03       		.uleb128 0x3
 1989 0049 0E       		.uleb128 0xe
 1990 004a 3A       		.uleb128 0x3a
 1991 004b 0B       		.uleb128 0xb
 1992 004c 3B       		.uleb128 0x3b
 1993 004d 0B       		.uleb128 0xb
 1994 004e 49       		.uleb128 0x49
 1995 004f 13       		.uleb128 0x13
ARM GAS  /tmp/cc5Er7FT.s 			page 36


 1996 0050 38       		.uleb128 0x38
 1997 0051 0B       		.uleb128 0xb
 1998 0052 00       		.byte	0
 1999 0053 00       		.byte	0
 2000 0054 07       		.uleb128 0x7
 2001 0055 0D       		.uleb128 0xd
 2002 0056 00       		.byte	0
 2003 0057 03       		.uleb128 0x3
 2004 0058 08       		.uleb128 0x8
 2005 0059 3A       		.uleb128 0x3a
 2006 005a 0B       		.uleb128 0xb
 2007 005b 3B       		.uleb128 0x3b
 2008 005c 0B       		.uleb128 0xb
 2009 005d 49       		.uleb128 0x49
 2010 005e 13       		.uleb128 0x13
 2011 005f 38       		.uleb128 0x38
 2012 0060 0B       		.uleb128 0xb
 2013 0061 00       		.byte	0
 2014 0062 00       		.byte	0
 2015 0063 08       		.uleb128 0x8
 2016 0064 13       		.uleb128 0x13
 2017 0065 01       		.byte	0x1
 2018 0066 0B       		.uleb128 0xb
 2019 0067 0B       		.uleb128 0xb
 2020 0068 3A       		.uleb128 0x3a
 2021 0069 0B       		.uleb128 0xb
 2022 006a 3B       		.uleb128 0x3b
 2023 006b 0B       		.uleb128 0xb
 2024 006c 01       		.uleb128 0x1
 2025 006d 13       		.uleb128 0x13
 2026 006e 00       		.byte	0
 2027 006f 00       		.byte	0
 2028 0070 09       		.uleb128 0x9
 2029 0071 0F       		.uleb128 0xf
 2030 0072 00       		.byte	0
 2031 0073 0B       		.uleb128 0xb
 2032 0074 0B       		.uleb128 0xb
 2033 0075 49       		.uleb128 0x49
 2034 0076 13       		.uleb128 0x13
 2035 0077 00       		.byte	0
 2036 0078 00       		.byte	0
 2037 0079 0A       		.uleb128 0xa
 2038 007a 0F       		.uleb128 0xf
 2039 007b 00       		.byte	0
 2040 007c 0B       		.uleb128 0xb
 2041 007d 0B       		.uleb128 0xb
 2042 007e 00       		.byte	0
 2043 007f 00       		.byte	0
 2044 0080 0B       		.uleb128 0xb
 2045 0081 35       		.uleb128 0x35
 2046 0082 00       		.byte	0
 2047 0083 49       		.uleb128 0x49
 2048 0084 13       		.uleb128 0x13
 2049 0085 00       		.byte	0
 2050 0086 00       		.byte	0
 2051 0087 0C       		.uleb128 0xc
 2052 0088 17       		.uleb128 0x17
ARM GAS  /tmp/cc5Er7FT.s 			page 37


 2053 0089 01       		.byte	0x1
 2054 008a 0B       		.uleb128 0xb
 2055 008b 0B       		.uleb128 0xb
 2056 008c 3A       		.uleb128 0x3a
 2057 008d 0B       		.uleb128 0xb
 2058 008e 3B       		.uleb128 0x3b
 2059 008f 0B       		.uleb128 0xb
 2060 0090 01       		.uleb128 0x1
 2061 0091 13       		.uleb128 0x13
 2062 0092 00       		.byte	0
 2063 0093 00       		.byte	0
 2064 0094 0D       		.uleb128 0xd
 2065 0095 0D       		.uleb128 0xd
 2066 0096 00       		.byte	0
 2067 0097 03       		.uleb128 0x3
 2068 0098 0E       		.uleb128 0xe
 2069 0099 3A       		.uleb128 0x3a
 2070 009a 0B       		.uleb128 0xb
 2071 009b 3B       		.uleb128 0x3b
 2072 009c 0B       		.uleb128 0xb
 2073 009d 49       		.uleb128 0x49
 2074 009e 13       		.uleb128 0x13
 2075 009f 00       		.byte	0
 2076 00a0 00       		.byte	0
 2077 00a1 0E       		.uleb128 0xe
 2078 00a2 26       		.uleb128 0x26
 2079 00a3 00       		.byte	0
 2080 00a4 49       		.uleb128 0x49
 2081 00a5 13       		.uleb128 0x13
 2082 00a6 00       		.byte	0
 2083 00a7 00       		.byte	0
 2084 00a8 0F       		.uleb128 0xf
 2085 00a9 0D       		.uleb128 0xd
 2086 00aa 00       		.byte	0
 2087 00ab 49       		.uleb128 0x49
 2088 00ac 13       		.uleb128 0x13
 2089 00ad 00       		.byte	0
 2090 00ae 00       		.byte	0
 2091 00af 10       		.uleb128 0x10
 2092 00b0 01       		.uleb128 0x1
 2093 00b1 01       		.byte	0x1
 2094 00b2 49       		.uleb128 0x49
 2095 00b3 13       		.uleb128 0x13
 2096 00b4 01       		.uleb128 0x1
 2097 00b5 13       		.uleb128 0x13
 2098 00b6 00       		.byte	0
 2099 00b7 00       		.byte	0
 2100 00b8 11       		.uleb128 0x11
 2101 00b9 21       		.uleb128 0x21
 2102 00ba 00       		.byte	0
 2103 00bb 49       		.uleb128 0x49
 2104 00bc 13       		.uleb128 0x13
 2105 00bd 2F       		.uleb128 0x2f
 2106 00be 0B       		.uleb128 0xb
 2107 00bf 00       		.byte	0
 2108 00c0 00       		.byte	0
 2109 00c1 12       		.uleb128 0x12
ARM GAS  /tmp/cc5Er7FT.s 			page 38


 2110 00c2 0D       		.uleb128 0xd
 2111 00c3 00       		.byte	0
 2112 00c4 49       		.uleb128 0x49
 2113 00c5 13       		.uleb128 0x13
 2114 00c6 38       		.uleb128 0x38
 2115 00c7 0B       		.uleb128 0xb
 2116 00c8 00       		.byte	0
 2117 00c9 00       		.byte	0
 2118 00ca 13       		.uleb128 0x13
 2119 00cb 04       		.uleb128 0x4
 2120 00cc 01       		.byte	0x1
 2121 00cd 0B       		.uleb128 0xb
 2122 00ce 0B       		.uleb128 0xb
 2123 00cf 3A       		.uleb128 0x3a
 2124 00d0 0B       		.uleb128 0xb
 2125 00d1 3B       		.uleb128 0x3b
 2126 00d2 0B       		.uleb128 0xb
 2127 00d3 01       		.uleb128 0x1
 2128 00d4 13       		.uleb128 0x13
 2129 00d5 00       		.byte	0
 2130 00d6 00       		.byte	0
 2131 00d7 14       		.uleb128 0x14
 2132 00d8 28       		.uleb128 0x28
 2133 00d9 00       		.byte	0
 2134 00da 03       		.uleb128 0x3
 2135 00db 0E       		.uleb128 0xe
 2136 00dc 1C       		.uleb128 0x1c
 2137 00dd 0D       		.uleb128 0xd
 2138 00de 00       		.byte	0
 2139 00df 00       		.byte	0
 2140 00e0 15       		.uleb128 0x15
 2141 00e1 26       		.uleb128 0x26
 2142 00e2 00       		.byte	0
 2143 00e3 00       		.byte	0
 2144 00e4 00       		.byte	0
 2145 00e5 16       		.uleb128 0x16
 2146 00e6 2E       		.uleb128 0x2e
 2147 00e7 01       		.byte	0x1
 2148 00e8 3F       		.uleb128 0x3f
 2149 00e9 19       		.uleb128 0x19
 2150 00ea 03       		.uleb128 0x3
 2151 00eb 0E       		.uleb128 0xe
 2152 00ec 3A       		.uleb128 0x3a
 2153 00ed 0B       		.uleb128 0xb
 2154 00ee 3B       		.uleb128 0x3b
 2155 00ef 0B       		.uleb128 0xb
 2156 00f0 27       		.uleb128 0x27
 2157 00f1 19       		.uleb128 0x19
 2158 00f2 11       		.uleb128 0x11
 2159 00f3 01       		.uleb128 0x1
 2160 00f4 12       		.uleb128 0x12
 2161 00f5 06       		.uleb128 0x6
 2162 00f6 40       		.uleb128 0x40
 2163 00f7 18       		.uleb128 0x18
 2164 00f8 9742     		.uleb128 0x2117
 2165 00fa 19       		.uleb128 0x19
 2166 00fb 01       		.uleb128 0x1
ARM GAS  /tmp/cc5Er7FT.s 			page 39


 2167 00fc 13       		.uleb128 0x13
 2168 00fd 00       		.byte	0
 2169 00fe 00       		.byte	0
 2170 00ff 17       		.uleb128 0x17
 2171 0100 34       		.uleb128 0x34
 2172 0101 00       		.byte	0
 2173 0102 03       		.uleb128 0x3
 2174 0103 08       		.uleb128 0x8
 2175 0104 3A       		.uleb128 0x3a
 2176 0105 0B       		.uleb128 0xb
 2177 0106 3B       		.uleb128 0x3b
 2178 0107 0B       		.uleb128 0xb
 2179 0108 49       		.uleb128 0x49
 2180 0109 13       		.uleb128 0x13
 2181 010a 02       		.uleb128 0x2
 2182 010b 17       		.uleb128 0x17
 2183 010c 00       		.byte	0
 2184 010d 00       		.byte	0
 2185 010e 18       		.uleb128 0x18
 2186 010f 34       		.uleb128 0x34
 2187 0110 00       		.byte	0
 2188 0111 03       		.uleb128 0x3
 2189 0112 0E       		.uleb128 0xe
 2190 0113 3A       		.uleb128 0x3a
 2191 0114 0B       		.uleb128 0xb
 2192 0115 3B       		.uleb128 0x3b
 2193 0116 0B       		.uleb128 0xb
 2194 0117 49       		.uleb128 0x49
 2195 0118 13       		.uleb128 0x13
 2196 0119 02       		.uleb128 0x2
 2197 011a 18       		.uleb128 0x18
 2198 011b 00       		.byte	0
 2199 011c 00       		.byte	0
 2200 011d 19       		.uleb128 0x19
 2201 011e 34       		.uleb128 0x34
 2202 011f 00       		.byte	0
 2203 0120 03       		.uleb128 0x3
 2204 0121 0E       		.uleb128 0xe
 2205 0122 3A       		.uleb128 0x3a
 2206 0123 0B       		.uleb128 0xb
 2207 0124 3B       		.uleb128 0x3b
 2208 0125 0B       		.uleb128 0xb
 2209 0126 49       		.uleb128 0x49
 2210 0127 13       		.uleb128 0x13
 2211 0128 00       		.byte	0
 2212 0129 00       		.byte	0
 2213 012a 1A       		.uleb128 0x1a
 2214 012b 898201   		.uleb128 0x4109
 2215 012e 01       		.byte	0x1
 2216 012f 11       		.uleb128 0x11
 2217 0130 01       		.uleb128 0x1
 2218 0131 31       		.uleb128 0x31
 2219 0132 13       		.uleb128 0x13
 2220 0133 01       		.uleb128 0x1
 2221 0134 13       		.uleb128 0x13
 2222 0135 00       		.byte	0
 2223 0136 00       		.byte	0
ARM GAS  /tmp/cc5Er7FT.s 			page 40


 2224 0137 1B       		.uleb128 0x1b
 2225 0138 8A8201   		.uleb128 0x410a
 2226 013b 00       		.byte	0
 2227 013c 02       		.uleb128 0x2
 2228 013d 18       		.uleb128 0x18
 2229 013e 9142     		.uleb128 0x2111
 2230 0140 18       		.uleb128 0x18
 2231 0141 00       		.byte	0
 2232 0142 00       		.byte	0
 2233 0143 1C       		.uleb128 0x1c
 2234 0144 898201   		.uleb128 0x4109
 2235 0147 01       		.byte	0x1
 2236 0148 11       		.uleb128 0x11
 2237 0149 01       		.uleb128 0x1
 2238 014a 31       		.uleb128 0x31
 2239 014b 13       		.uleb128 0x13
 2240 014c 00       		.byte	0
 2241 014d 00       		.byte	0
 2242 014e 1D       		.uleb128 0x1d
 2243 014f 2E       		.uleb128 0x2e
 2244 0150 01       		.byte	0x1
 2245 0151 3F       		.uleb128 0x3f
 2246 0152 19       		.uleb128 0x19
 2247 0153 03       		.uleb128 0x3
 2248 0154 0E       		.uleb128 0xe
 2249 0155 3A       		.uleb128 0x3a
 2250 0156 0B       		.uleb128 0xb
 2251 0157 3B       		.uleb128 0x3b
 2252 0158 0B       		.uleb128 0xb
 2253 0159 27       		.uleb128 0x27
 2254 015a 19       		.uleb128 0x19
 2255 015b 11       		.uleb128 0x11
 2256 015c 01       		.uleb128 0x1
 2257 015d 12       		.uleb128 0x12
 2258 015e 06       		.uleb128 0x6
 2259 015f 40       		.uleb128 0x40
 2260 0160 18       		.uleb128 0x18
 2261 0161 9642     		.uleb128 0x2116
 2262 0163 19       		.uleb128 0x19
 2263 0164 01       		.uleb128 0x1
 2264 0165 13       		.uleb128 0x13
 2265 0166 00       		.byte	0
 2266 0167 00       		.byte	0
 2267 0168 1E       		.uleb128 0x1e
 2268 0169 05       		.uleb128 0x5
 2269 016a 00       		.byte	0
 2270 016b 03       		.uleb128 0x3
 2271 016c 0E       		.uleb128 0xe
 2272 016d 3A       		.uleb128 0x3a
 2273 016e 0B       		.uleb128 0xb
 2274 016f 3B       		.uleb128 0x3b
 2275 0170 0B       		.uleb128 0xb
 2276 0171 49       		.uleb128 0x49
 2277 0172 13       		.uleb128 0x13
 2278 0173 02       		.uleb128 0x2
 2279 0174 18       		.uleb128 0x18
 2280 0175 00       		.byte	0
ARM GAS  /tmp/cc5Er7FT.s 			page 41


 2281 0176 00       		.byte	0
 2282 0177 1F       		.uleb128 0x1f
 2283 0178 34       		.uleb128 0x34
 2284 0179 00       		.byte	0
 2285 017a 03       		.uleb128 0x3
 2286 017b 0E       		.uleb128 0xe
 2287 017c 3A       		.uleb128 0x3a
 2288 017d 0B       		.uleb128 0xb
 2289 017e 3B       		.uleb128 0x3b
 2290 017f 0B       		.uleb128 0xb
 2291 0180 49       		.uleb128 0x49
 2292 0181 13       		.uleb128 0x13
 2293 0182 02       		.uleb128 0x2
 2294 0183 17       		.uleb128 0x17
 2295 0184 00       		.byte	0
 2296 0185 00       		.byte	0
 2297 0186 20       		.uleb128 0x20
 2298 0187 2E       		.uleb128 0x2e
 2299 0188 01       		.byte	0x1
 2300 0189 3F       		.uleb128 0x3f
 2301 018a 19       		.uleb128 0x19
 2302 018b 03       		.uleb128 0x3
 2303 018c 0E       		.uleb128 0xe
 2304 018d 3A       		.uleb128 0x3a
 2305 018e 0B       		.uleb128 0xb
 2306 018f 3B       		.uleb128 0x3b
 2307 0190 0B       		.uleb128 0xb
 2308 0191 27       		.uleb128 0x27
 2309 0192 19       		.uleb128 0x19
 2310 0193 49       		.uleb128 0x49
 2311 0194 13       		.uleb128 0x13
 2312 0195 11       		.uleb128 0x11
 2313 0196 01       		.uleb128 0x1
 2314 0197 12       		.uleb128 0x12
 2315 0198 06       		.uleb128 0x6
 2316 0199 40       		.uleb128 0x40
 2317 019a 18       		.uleb128 0x18
 2318 019b 9742     		.uleb128 0x2117
 2319 019d 19       		.uleb128 0x19
 2320 019e 01       		.uleb128 0x1
 2321 019f 13       		.uleb128 0x13
 2322 01a0 00       		.byte	0
 2323 01a1 00       		.byte	0
 2324 01a2 21       		.uleb128 0x21
 2325 01a3 34       		.uleb128 0x34
 2326 01a4 00       		.byte	0
 2327 01a5 03       		.uleb128 0x3
 2328 01a6 0E       		.uleb128 0xe
 2329 01a7 3A       		.uleb128 0x3a
 2330 01a8 0B       		.uleb128 0xb
 2331 01a9 3B       		.uleb128 0x3b
 2332 01aa 0B       		.uleb128 0xb
 2333 01ab 49       		.uleb128 0x49
 2334 01ac 13       		.uleb128 0x13
 2335 01ad 3F       		.uleb128 0x3f
 2336 01ae 19       		.uleb128 0x19
 2337 01af 3C       		.uleb128 0x3c
ARM GAS  /tmp/cc5Er7FT.s 			page 42


 2338 01b0 19       		.uleb128 0x19
 2339 01b1 00       		.byte	0
 2340 01b2 00       		.byte	0
 2341 01b3 22       		.uleb128 0x22
 2342 01b4 2E       		.uleb128 0x2e
 2343 01b5 01       		.byte	0x1
 2344 01b6 3F       		.uleb128 0x3f
 2345 01b7 19       		.uleb128 0x19
 2346 01b8 03       		.uleb128 0x3
 2347 01b9 0E       		.uleb128 0xe
 2348 01ba 27       		.uleb128 0x27
 2349 01bb 19       		.uleb128 0x19
 2350 01bc 49       		.uleb128 0x49
 2351 01bd 13       		.uleb128 0x13
 2352 01be 34       		.uleb128 0x34
 2353 01bf 19       		.uleb128 0x19
 2354 01c0 3C       		.uleb128 0x3c
 2355 01c1 19       		.uleb128 0x19
 2356 01c2 01       		.uleb128 0x1
 2357 01c3 13       		.uleb128 0x13
 2358 01c4 00       		.byte	0
 2359 01c5 00       		.byte	0
 2360 01c6 23       		.uleb128 0x23
 2361 01c7 05       		.uleb128 0x5
 2362 01c8 00       		.byte	0
 2363 01c9 49       		.uleb128 0x49
 2364 01ca 13       		.uleb128 0x13
 2365 01cb 00       		.byte	0
 2366 01cc 00       		.byte	0
 2367 01cd 24       		.uleb128 0x24
 2368 01ce 2E       		.uleb128 0x2e
 2369 01cf 01       		.byte	0x1
 2370 01d0 3F       		.uleb128 0x3f
 2371 01d1 19       		.uleb128 0x19
 2372 01d2 03       		.uleb128 0x3
 2373 01d3 0E       		.uleb128 0xe
 2374 01d4 3A       		.uleb128 0x3a
 2375 01d5 0B       		.uleb128 0xb
 2376 01d6 3B       		.uleb128 0x3b
 2377 01d7 0B       		.uleb128 0xb
 2378 01d8 27       		.uleb128 0x27
 2379 01d9 19       		.uleb128 0x19
 2380 01da 3C       		.uleb128 0x3c
 2381 01db 19       		.uleb128 0x19
 2382 01dc 01       		.uleb128 0x1
 2383 01dd 13       		.uleb128 0x13
 2384 01de 00       		.byte	0
 2385 01df 00       		.byte	0
 2386 01e0 25       		.uleb128 0x25
 2387 01e1 2E       		.uleb128 0x2e
 2388 01e2 01       		.byte	0x1
 2389 01e3 3F       		.uleb128 0x3f
 2390 01e4 19       		.uleb128 0x19
 2391 01e5 03       		.uleb128 0x3
 2392 01e6 0E       		.uleb128 0xe
 2393 01e7 3A       		.uleb128 0x3a
 2394 01e8 0B       		.uleb128 0xb
ARM GAS  /tmp/cc5Er7FT.s 			page 43


 2395 01e9 3B       		.uleb128 0x3b
 2396 01ea 0B       		.uleb128 0xb
 2397 01eb 27       		.uleb128 0x27
 2398 01ec 19       		.uleb128 0x19
 2399 01ed 49       		.uleb128 0x49
 2400 01ee 13       		.uleb128 0x13
 2401 01ef 3C       		.uleb128 0x3c
 2402 01f0 19       		.uleb128 0x19
 2403 01f1 01       		.uleb128 0x1
 2404 01f2 13       		.uleb128 0x13
 2405 01f3 00       		.byte	0
 2406 01f4 00       		.byte	0
 2407 01f5 26       		.uleb128 0x26
 2408 01f6 2E       		.uleb128 0x2e
 2409 01f7 01       		.byte	0x1
 2410 01f8 3F       		.uleb128 0x3f
 2411 01f9 19       		.uleb128 0x19
 2412 01fa 03       		.uleb128 0x3
 2413 01fb 0E       		.uleb128 0xe
 2414 01fc 3A       		.uleb128 0x3a
 2415 01fd 0B       		.uleb128 0xb
 2416 01fe 3B       		.uleb128 0x3b
 2417 01ff 0B       		.uleb128 0xb
 2418 0200 27       		.uleb128 0x27
 2419 0201 19       		.uleb128 0x19
 2420 0202 49       		.uleb128 0x49
 2421 0203 13       		.uleb128 0x13
 2422 0204 3C       		.uleb128 0x3c
 2423 0205 19       		.uleb128 0x19
 2424 0206 00       		.byte	0
 2425 0207 00       		.byte	0
 2426 0208 00       		.byte	0
 2427              		.section	.debug_loc,"",%progbits
 2428              	.Ldebug_loc0:
 2429              	.LLST0:
 2430 0000 04000000 		.4byte	.LVL0
 2431 0004 2E000000 		.4byte	.LVL3
 2432 0008 0200     		.2byte	0x2
 2433 000a 30       		.byte	0x30
 2434 000b 9F       		.byte	0x9f
 2435 000c 00000000 		.4byte	0
 2436 0010 00000000 		.4byte	0
 2437              	.LLST1:
 2438 0014 12000000 		.4byte	.LVL5
 2439 0018 78000000 		.4byte	.LVL14
 2440 001c 0200     		.2byte	0x2
 2441 001e 30       		.byte	0x30
 2442 001f 9F       		.byte	0x9f
 2443 0020 00000000 		.4byte	0
 2444 0024 00000000 		.4byte	0
 2445              	.LLST2:
 2446 0028 12000000 		.4byte	.LVL5
 2447 002c 2C000000 		.4byte	.LVL8
 2448 0030 0200     		.2byte	0x2
 2449 0032 31       		.byte	0x31
 2450 0033 9F       		.byte	0x9f
 2451 0034 2C000000 		.4byte	.LVL8
ARM GAS  /tmp/cc5Er7FT.s 			page 44


 2452 0038 42000000 		.4byte	.LVL10
 2453 003c 0200     		.2byte	0x2
 2454 003e 32       		.byte	0x32
 2455 003f 9F       		.byte	0x9f
 2456 0040 42000000 		.4byte	.LVL10
 2457 0044 5A000000 		.4byte	.LVL12
 2458 0048 0200     		.2byte	0x2
 2459 004a 33       		.byte	0x33
 2460 004b 9F       		.byte	0x9f
 2461 004c 5A000000 		.4byte	.LVL12
 2462 0050 8C000000 		.4byte	.LFE40
 2463 0054 0200     		.2byte	0x2
 2464 0056 34       		.byte	0x34
 2465 0057 9F       		.byte	0x9f
 2466 0058 00000000 		.4byte	0
 2467 005c 00000000 		.4byte	0
 2468              	.LLST3:
 2469 0060 16000000 		.4byte	.LVL6
 2470 0064 80000000 		.4byte	.LVL16
 2471 0068 0100     		.2byte	0x1
 2472 006a 56       		.byte	0x56
 2473 006b 80000000 		.4byte	.LVL16
 2474 006f 8C000000 		.4byte	.LFE40
 2475 0073 0300     		.2byte	0x3
 2476 0075 91       		.byte	0x91
 2477 0076 64       		.sleb128 -28
 2478 0077 9F       		.byte	0x9f
 2479 0078 00000000 		.4byte	0
 2480 007c 00000000 		.4byte	0
 2481              	.LLST4:
 2482 0080 0A000000 		.4byte	.LVL17
 2483 0084 2E000000 		.4byte	.LVL19
 2484 0088 0200     		.2byte	0x2
 2485 008a 30       		.byte	0x30
 2486 008b 9F       		.byte	0x9f
 2487 008c 00000000 		.4byte	0
 2488 0090 00000000 		.4byte	0
 2489              	.LLST5:
 2490 0094 04000000 		.4byte	.LVL21
 2491 0098 24000000 		.4byte	.LVL24
 2492 009c 0200     		.2byte	0x2
 2493 009e 30       		.byte	0x30
 2494 009f 9F       		.byte	0x9f
 2495 00a0 00000000 		.4byte	0
 2496 00a4 00000000 		.4byte	0
 2497              	.LLST6:
 2498 00a8 0A000000 		.4byte	.LVL22
 2499 00ac 30000000 		.4byte	.LVL26
 2500 00b0 0200     		.2byte	0x2
 2501 00b2 30       		.byte	0x30
 2502 00b3 9F       		.byte	0x9f
 2503 00b4 30000000 		.4byte	.LVL26
 2504 00b8 3E000000 		.4byte	.LVL27
 2505 00bc 0100     		.2byte	0x1
 2506 00be 53       		.byte	0x53
 2507 00bf 3E000000 		.4byte	.LVL27
 2508 00c3 40000000 		.4byte	.LVL28
ARM GAS  /tmp/cc5Er7FT.s 			page 45


 2509 00c7 0300     		.2byte	0x3
 2510 00c9 73       		.byte	0x73
 2511 00ca 01       		.sleb128 1
 2512 00cb 9F       		.byte	0x9f
 2513 00cc 40000000 		.4byte	.LVL28
 2514 00d0 46000000 		.4byte	.LVL29
 2515 00d4 0300     		.2byte	0x3
 2516 00d6 73       		.byte	0x73
 2517 00d7 00       		.sleb128 0
 2518 00d8 9F       		.byte	0x9f
 2519 00d9 00000000 		.4byte	0
 2520 00dd 00000000 		.4byte	0
 2521              	.LLST7:
 2522 00e1 0A000000 		.4byte	.LVL22
 2523 00e5 2A000000 		.4byte	.LVL25
 2524 00e9 0100     		.2byte	0x1
 2525 00eb 55       		.byte	0x55
 2526 00ec 2A000000 		.4byte	.LVL25
 2527 00f0 78000000 		.4byte	.LFE42
 2528 00f4 0300     		.2byte	0x3
 2529 00f6 91       		.byte	0x91
 2530 00f7 69       		.sleb128 -23
 2531 00f8 9F       		.byte	0x9f
 2532 00f9 00000000 		.4byte	0
 2533 00fd 00000000 		.4byte	0
 2534              	.LLST8:
 2535 0101 06000000 		.4byte	.LVL31
 2536 0105 2E000000 		.4byte	.LVL34
 2537 0109 0200     		.2byte	0x2
 2538 010b 30       		.byte	0x30
 2539 010c 9F       		.byte	0x9f
 2540 010d 00000000 		.4byte	0
 2541 0111 00000000 		.4byte	0
 2542              		.section	.debug_aranges,"",%progbits
 2543 0000 3C000000 		.4byte	0x3c
 2544 0004 0200     		.2byte	0x2
 2545 0006 00000000 		.4byte	.Ldebug_info0
 2546 000a 04       		.byte	0x4
 2547 000b 00       		.byte	0
 2548 000c 0000     		.2byte	0
 2549 000e 0000     		.2byte	0
 2550 0010 00000000 		.4byte	.LFB39
 2551 0014 40000000 		.4byte	.LFE39-.LFB39
 2552 0018 00000000 		.4byte	.LFB40
 2553 001c 8C000000 		.4byte	.LFE40-.LFB40
 2554 0020 00000000 		.4byte	.LFB41
 2555 0024 3C000000 		.4byte	.LFE41-.LFB41
 2556 0028 00000000 		.4byte	.LFB42
 2557 002c 78000000 		.4byte	.LFE42-.LFB42
 2558 0030 00000000 		.4byte	.LFB43
 2559 0034 48000000 		.4byte	.LFE43-.LFB43
 2560 0038 00000000 		.4byte	0
 2561 003c 00000000 		.4byte	0
 2562              		.section	.debug_ranges,"",%progbits
 2563              	.Ldebug_ranges0:
 2564 0000 00000000 		.4byte	.LFB39
 2565 0004 40000000 		.4byte	.LFE39
ARM GAS  /tmp/cc5Er7FT.s 			page 46


 2566 0008 00000000 		.4byte	.LFB40
 2567 000c 8C000000 		.4byte	.LFE40
 2568 0010 00000000 		.4byte	.LFB41
 2569 0014 3C000000 		.4byte	.LFE41
 2570 0018 00000000 		.4byte	.LFB42
 2571 001c 78000000 		.4byte	.LFE42
 2572 0020 00000000 		.4byte	.LFB43
 2573 0024 48000000 		.4byte	.LFE43
 2574 0028 00000000 		.4byte	0
 2575 002c 00000000 		.4byte	0
 2576              		.section	.debug_line,"",%progbits
 2577              	.Ldebug_line0:
 2578 0000 D8020000 		.section	.debug_str,"MS",%progbits,1
 2578      02005702 
 2578      00000201 
 2578      FB0E0D00 
 2578      01010101 
 2579              	.LASF2:
 2580 0000 73697A65 		.ascii	"size_t\000"
 2580      5F7400
 2581              	.LASF57:
 2582 0007 7264796D 		.ascii	"rdymsg\000"
 2582      736700
 2583              	.LASF3:
 2584 000e 5F5F7569 		.ascii	"__uint8_t\000"
 2584      6E74385F 
 2584      7400
 2585              	.LASF104:
 2586 0018 72786275 		.ascii	"rxbuf\000"
 2586      6600
 2587              	.LASF13:
 2588 001e 6C6F6E67 		.ascii	"long long unsigned int\000"
 2588      206C6F6E 
 2588      6720756E 
 2588      7369676E 
 2588      65642069 
 2589              	.LASF101:
 2590 0035 61646472 		.ascii	"addr\000"
 2590      00
 2591              	.LASF58:
 2592 003a 65786974 		.ascii	"exitcode\000"
 2592      636F6465 
 2592      00
 2593              	.LASF133:
 2594 0043 69326352 		.ascii	"i2cReleaseBus\000"
 2594      656C6561 
 2594      73654275 
 2594      7300
 2595              	.LASF126:
 2596 0051 74696D65 		.ascii	"timeBuffer\000"
 2596      42756666 
 2596      657200
 2597              	.LASF91:
 2598 005c 6932636D 		.ascii	"i2cmode_t\000"
 2598      6F64655F 
 2598      7400
 2599              	.LASF30:
ARM GAS  /tmp/cc5Er7FT.s 			page 47


 2600 0066 705F7072 		.ascii	"p_prio\000"
 2600      696F00
 2601              	.LASF140:
 2602 006d 6932634D 		.ascii	"i2cMasterTransmitTimeout\000"
 2602      61737465 
 2602      72547261 
 2602      6E736D69 
 2602      7454696D 
 2603              	.LASF12:
 2604 0086 6C6F6E67 		.ascii	"long long int\000"
 2604      206C6F6E 
 2604      6720696E 
 2604      7400
 2605              	.LASF1:
 2606 0094 7369676E 		.ascii	"signed char\000"
 2606      65642063 
 2606      68617200 
 2607              	.LASF46:
 2608 00a0 705F6D70 		.ascii	"p_mpool\000"
 2608      6F6F6C00 
 2609              	.LASF54:
 2610 00a8 6D5F7175 		.ascii	"m_queue\000"
 2610      65756500 
 2611              	.LASF108:
 2612 00b0 7365636F 		.ascii	"second\000"
 2612      6E6400
 2613              	.LASF117:
 2614 00b7 79656172 		.ascii	"year\000"
 2614      00
 2615              	.LASF86:
 2616 00bc 69326361 		.ascii	"i2caddr_t\000"
 2616      6464725F 
 2616      7400
 2617              	.LASF96:
 2618 00c6 73746174 		.ascii	"state\000"
 2618      6500
 2619              	.LASF9:
 2620 00cc 6C6F6E67 		.ascii	"long int\000"
 2620      20696E74 
 2620      00
 2621              	.LASF20:
 2622 00d5 74737461 		.ascii	"tstate_t\000"
 2622      74655F74 
 2622      00
 2623              	.LASF66:
 2624 00de 4D41534B 		.ascii	"MASK\000"
 2624      00
 2625              	.LASF100:
 2626 00e3 74687265 		.ascii	"thread\000"
 2626      616400
 2627              	.LASF77:
 2628 00ea 44415441 		.ascii	"DATA_BUFFER\000"
 2628      5F425546 
 2628      46455200 
 2629              	.LASF94:
 2630 00f6 49324343 		.ascii	"I2CConfig\000"
 2630      6F6E6669 
ARM GAS  /tmp/cc5Er7FT.s 			page 48


 2630      6700
 2631              	.LASF39:
 2632 0100 705F7469 		.ascii	"p_time\000"
 2632      6D6500
 2633              	.LASF90:
 2634 0107 4932435F 		.ascii	"I2C_FAST_MODE_PLUS\000"
 2634      46415354 
 2634      5F4D4F44 
 2634      455F504C 
 2634      555300
 2635              	.LASF32:
 2636 011a 705F6E65 		.ascii	"p_newer\000"
 2636      77657200 
 2637              	.LASF88:
 2638 0122 4932435F 		.ascii	"I2C_STANDARD_MODE\000"
 2638      5354414E 
 2638      44415244 
 2638      5F4D4F44 
 2638      4500
 2639              	.LASF10:
 2640 0134 5F5F7569 		.ascii	"__uint32_t\000"
 2640      6E743332 
 2640      5F7400
 2641              	.LASF49:
 2642 013f 72656761 		.ascii	"regarm_t\000"
 2642      726D5F74 
 2642      00
 2643              	.LASF27:
 2644 0148 54687265 		.ascii	"Thread\000"
 2644      616400
 2645              	.LASF112:
 2646 014f 5254435F 		.ascii	"RTC_date_s\000"
 2646      64617465 
 2646      5F7300
 2647              	.LASF118:
 2648 015a 5254435F 		.ascii	"RTC_date_t\000"
 2648      64617465 
 2648      5F7400
 2649              	.LASF123:
 2650 0165 5254435F 		.ascii	"RTC_setDate\000"
 2650      73657444 
 2650      61746500 
 2651              	.LASF116:
 2652 0171 6D6F6E74 		.ascii	"month\000"
 2652      6800
 2653              	.LASF22:
 2654 0177 74736C69 		.ascii	"tslices_t\000"
 2654      6365735F 
 2654      7400
 2655              	.LASF0:
 2656 0181 756E7369 		.ascii	"unsigned int\000"
 2656      676E6564 
 2656      20696E74 
 2656      00
 2657              	.LASF63:
 2658 018e 4D41534B 		.ascii	"MASK1\000"
 2658      3100
ARM GAS  /tmp/cc5Er7FT.s 			page 49


 2659              	.LASF102:
 2660 0194 74786275 		.ascii	"txbuf\000"
 2660      6600
 2661              	.LASF138:
 2662 019a 74696D65 		.ascii	"timeToSet\000"
 2662      546F5365 
 2662      7400
 2663              	.LASF65:
 2664 01a4 4D41534B 		.ascii	"MASK3\000"
 2664      3300
 2665              	.LASF98:
 2666 01aa 6572726F 		.ascii	"errors\000"
 2666      727300
 2667              	.LASF130:
 2668 01b1 64617465 		.ascii	"dateBuffer\000"
 2668      42756666 
 2668      657200
 2669              	.LASF41:
 2670 01bc 705F6D73 		.ascii	"p_msgqueue\000"
 2670      67717565 
 2670      756500
 2671              	.LASF70:
 2672 01c7 53434C48 		.ascii	"SCLH\000"
 2672      00
 2673              	.LASF71:
 2674 01cc 53434C4C 		.ascii	"SCLL\000"
 2674      00
 2675              	.LASF7:
 2676 01d1 73686F72 		.ascii	"short unsigned int\000"
 2676      7420756E 
 2676      7369676E 
 2676      65642069 
 2676      6E7400
 2677              	.LASF95:
 2678 01e4 49324344 		.ascii	"I2CDriver\000"
 2678      72697665 
 2678      7200
 2679              	.LASF107:
 2680 01ee 74696D65 		.ascii	"timeCounterAddress\000"
 2680      436F756E 
 2680      74657241 
 2680      64647265 
 2680      737300
 2681              	.LASF19:
 2682 0201 746D6F64 		.ascii	"tmode_t\000"
 2682      655F7400 
 2683              	.LASF15:
 2684 0209 75696E74 		.ascii	"uint16_t\000"
 2684      31365F74 
 2684      00
 2685              	.LASF48:
 2686 0212 54687265 		.ascii	"ThreadsList\000"
 2686      6164734C 
 2686      69737400 
 2687              	.LASF25:
 2688 021e 6576656E 		.ascii	"eventmask_t\000"
 2688      746D6173 
ARM GAS  /tmp/cc5Er7FT.s 			page 50


 2688      6B5F7400 
 2689              	.LASF5:
 2690 022a 73686F72 		.ascii	"short int\000"
 2690      7420696E 
 2690      7400
 2691              	.LASF53:
 2692 0234 4D757465 		.ascii	"Mutex\000"
 2692      7800
 2693              	.LASF135:
 2694 023a 474E5520 		.ascii	"GNU C 4.8.4 20140526 (release) [ARM/embedded-4_8-br"
 2694      4320342E 
 2694      382E3420 
 2694      32303134 
 2694      30353236 
 2695 026d 616E6368 		.ascii	"anch revision 211358] -mcpu=cortex-m0 -mno-thumb-in"
 2695      20726576 
 2695      6973696F 
 2695      6E203231 
 2695      31333538 
 2696 02a0 74657277 		.ascii	"terwork -mthumb -ggdb -O1 -fomit-frame-pointer -ffu"
 2696      6F726B20 
 2696      2D6D7468 
 2696      756D6220 
 2696      2D676764 
 2697 02d3 6E637469 		.ascii	"nction-sections -fdata-sections -fno-common\000"
 2697      6F6E2D73 
 2697      65637469 
 2697      6F6E7320 
 2697      2D666461 
 2698              	.LASF115:
 2699 02ff 6461794F 		.ascii	"dayOfWeek\000"
 2699      66576565 
 2699      6B00
 2700              	.LASF121:
 2701 0309 5254435F 		.ascii	"RTC_setTime\000"
 2701      73657454 
 2701      696D6500 
 2702              	.LASF80:
 2703 0315 4932435F 		.ascii	"I2C_STOP\000"
 2703      53544F50 
 2703      00
 2704              	.LASF73:
 2705 031e 4D4D4354 		.ascii	"MMCTRL\000"
 2705      524C00
 2706              	.LASF52:
 2707 0325 73697A65 		.ascii	"sizetype\000"
 2707      74797065 
 2707      00
 2708              	.LASF119:
 2709 032e 5254435F 		.ascii	"RTC_control_regs\000"
 2709      636F6E74 
 2709      726F6C5F 
 2709      72656773 
 2709      00
 2710              	.LASF125:
 2711 033f 64617465 		.ascii	"dateToBeSet\000"
 2711      546F4265 
ARM GAS  /tmp/cc5Er7FT.s 			page 51


 2711      53657400 
 2712              	.LASF33:
 2713 034b 705F6F6C 		.ascii	"p_older\000"
 2713      64657200 
 2714              	.LASF105:
 2715 0353 72786279 		.ascii	"rxbytes\000"
 2715      74657300 
 2716              	.LASF47:
 2717 035b 54687265 		.ascii	"ThreadsQueue\000"
 2717      61647351 
 2717      75657565 
 2717      00
 2718              	.LASF120:
 2719 0368 5254435F 		.ascii	"RTC_init\000"
 2719      696E6974 
 2719      00
 2720              	.LASF93:
 2721 0371 636C6F63 		.ascii	"clock_timing\000"
 2721      6B5F7469 
 2721      6D696E67 
 2721      00
 2722              	.LASF106:
 2723 037e 5254435F 		.ascii	"RTC_time_s\000"
 2723      74696D65 
 2723      5F7300
 2724              	.LASF111:
 2725 0389 5254435F 		.ascii	"RTC_time_t\000"
 2725      74696D65 
 2725      5F7400
 2726              	.LASF103:
 2727 0394 74786279 		.ascii	"txbytes\000"
 2727      74657300 
 2728              	.LASF110:
 2729 039c 686F7572 		.ascii	"hour\000"
 2729      00
 2730              	.LASF21:
 2731 03a1 74726566 		.ascii	"trefs_t\000"
 2731      735F7400 
 2732              	.LASF85:
 2733 03a9 69326373 		.ascii	"i2cstate_t\000"
 2733      74617465 
 2733      5F7400
 2734              	.LASF29:
 2735 03b4 705F7072 		.ascii	"p_prev\000"
 2735      657600
 2736              	.LASF24:
 2737 03bb 6D73675F 		.ascii	"msg_t\000"
 2737      7400
 2738              	.LASF132:
 2739 03c1 69326341 		.ascii	"i2cAcquireBus\000"
 2739      63717569 
 2739      72654275 
 2739      7300
 2740              	.LASF23:
 2741 03cf 74707269 		.ascii	"tprio_t\000"
 2741      6F5F7400 
 2742              	.LASF82:
ARM GAS  /tmp/cc5Er7FT.s 			page 52


 2743 03d7 4932435F 		.ascii	"I2C_ACTIVE_TX\000"
 2743      41435449 
 2743      56455F54 
 2743      5800
 2744              	.LASF87:
 2745 03e5 69326366 		.ascii	"i2cflags_t\000"
 2745      6C616773 
 2745      5F7400
 2746              	.LASF99:
 2747 03f0 6D757465 		.ascii	"mutex\000"
 2747      7800
 2748              	.LASF62:
 2749 03f6 4D41534B 		.ascii	"MASK0\000"
 2749      3000
 2750              	.LASF18:
 2751 03fc 5F426F6F 		.ascii	"_Bool\000"
 2751      6C00
 2752              	.LASF16:
 2753 0402 696E7433 		.ascii	"int32_t\000"
 2753      325F7400 
 2754              	.LASF4:
 2755 040a 756E7369 		.ascii	"unsigned char\000"
 2755      676E6564 
 2755      20636861 
 2755      7200
 2756              	.LASF44:
 2757 0418 705F6D74 		.ascii	"p_mtxlist\000"
 2757      786C6973 
 2757      7400
 2758              	.LASF79:
 2759 0422 4932435F 		.ascii	"I2C_UNINIT\000"
 2759      554E494E 
 2759      495400
 2760              	.LASF35:
 2761 042d 705F7374 		.ascii	"p_state\000"
 2761      61746500 
 2762              	.LASF38:
 2763 0435 705F7072 		.ascii	"p_preempt\000"
 2763      65656D70 
 2763      7400
 2764              	.LASF60:
 2765 043f 65776D61 		.ascii	"ewmask\000"
 2765      736B00
 2766              	.LASF28:
 2767 0446 705F6E65 		.ascii	"p_next\000"
 2767      787400
 2768              	.LASF36:
 2769 044d 705F666C 		.ascii	"p_flags\000"
 2769      61677300 
 2770              	.LASF114:
 2771 0455 63616C65 		.ascii	"calendarCounterAddress\000"
 2771      6E646172 
 2771      436F756E 
 2771      74657241 
 2771      64647265 
 2772              	.LASF128:
 2773 046c 5254435F 		.ascii	"RTC_getTime\000"
ARM GAS  /tmp/cc5Er7FT.s 			page 53


 2773      67657454 
 2773      696D6500 
 2774              	.LASF64:
 2775 0478 4D41534B 		.ascii	"MASK2\000"
 2775      3200
 2776              	.LASF84:
 2777 047e 4932435F 		.ascii	"I2C_LOCKED\000"
 2777      4C4F434B 
 2777      454400
 2778              	.LASF43:
 2779 0489 705F6570 		.ascii	"p_epending\000"
 2779      656E6469 
 2779      6E6700
 2780              	.LASF17:
 2781 0494 75696E74 		.ascii	"uint32_t\000"
 2781      33325F74 
 2781      00
 2782              	.LASF139:
 2783 049d 49324344 		.ascii	"I2CD1\000"
 2783      3100
 2784              	.LASF83:
 2785 04a3 4932435F 		.ascii	"I2C_ACTIVE_RX\000"
 2785      41435449 
 2785      56455F52 
 2785      5800
 2786              	.LASF11:
 2787 04b1 6C6F6E67 		.ascii	"long unsigned int\000"
 2787      20756E73 
 2787      69676E65 
 2787      6420696E 
 2787      7400
 2788              	.LASF61:
 2789 04c3 63686172 		.ascii	"char\000"
 2789      00
 2790              	.LASF92:
 2791 04c8 6D6F6465 		.ascii	"mode\000"
 2791      00
 2792              	.LASF67:
 2793 04cd 434F4E53 		.ascii	"CONSET\000"
 2793      455400
 2794              	.LASF97:
 2795 04d4 636F6E66 		.ascii	"config\000"
 2795      696700
 2796              	.LASF6:
 2797 04db 5F5F7569 		.ascii	"__uint16_t\000"
 2797      6E743136 
 2797      5F7400
 2798              	.LASF136:
 2799 04e6 7372632F 		.ascii	"src/RTC_r2051.c\000"
 2799      5254435F 
 2799      72323035 
 2799      312E6300 
 2800              	.LASF113:
 2801 04f6 72656164 		.ascii	"readFrom_Fh\000"
 2801      46726F6D 
 2801      5F466800 
 2802              	.LASF56:
ARM GAS  /tmp/cc5Er7FT.s 			page 54


 2803 0502 6D5F6E65 		.ascii	"m_next\000"
 2803      787400
 2804              	.LASF26:
 2805 0509 73797374 		.ascii	"systime_t\000"
 2805      696D655F 
 2805      7400
 2806              	.LASF45:
 2807 0513 705F7265 		.ascii	"p_realprio\000"
 2807      616C7072 
 2807      696F00
 2808              	.LASF8:
 2809 051e 5F5F696E 		.ascii	"__int32_t\000"
 2809      7433325F 
 2809      7400
 2810              	.LASF81:
 2811 0528 4932435F 		.ascii	"I2C_READY\000"
 2811      52454144 
 2811      5900
 2812              	.LASF131:
 2813 0532 6D656D63 		.ascii	"memcpy\000"
 2813      707900
 2814              	.LASF51:
 2815 0539 636F6E74 		.ascii	"context\000"
 2815      65787400 
 2816              	.LASF129:
 2817 0541 5254435F 		.ascii	"RTC_getDate\000"
 2817      67657444 
 2817      61746500 
 2818              	.LASF72:
 2819 054d 434F4E43 		.ascii	"CONCLR\000"
 2819      4C5200
 2820              	.LASF137:
 2821 0554 2F484444 		.ascii	"/HDD/GIT/variometer/Altimeter/\000"
 2821      2F474954 
 2821      2F766172 
 2821      696F6D65 
 2821      7465722F 
 2822              	.LASF50:
 2823 0573 696E7463 		.ascii	"intctx\000"
 2823      747800
 2824              	.LASF109:
 2825 057a 6D696E75 		.ascii	"minute\000"
 2825      746500
 2826              	.LASF68:
 2827 0581 53544154 		.ascii	"STAT\000"
 2827      00
 2828              	.LASF127:
 2829 0586 74696D65 		.ascii	"timeBuffer_p\000"
 2829      42756666 
 2829      65725F70 
 2829      00
 2830              	.LASF37:
 2831 0593 705F7265 		.ascii	"p_refs\000"
 2831      667300
 2832              	.LASF78:
 2833 059a 4C50435F 		.ascii	"LPC_I2C_Type\000"
 2833      4932435F 
ARM GAS  /tmp/cc5Er7FT.s 			page 55


 2833      54797065 
 2833      00
 2834              	.LASF124:
 2835 05a7 74696D65 		.ascii	"timeToBeSet\000"
 2835      546F4265 
 2835      53657400 
 2836              	.LASF14:
 2837 05b3 75696E74 		.ascii	"uint8_t\000"
 2837      385F7400 
 2838              	.LASF69:
 2839 05bb 41445230 		.ascii	"ADR0\000"
 2839      00
 2840              	.LASF74:
 2841 05c0 41445231 		.ascii	"ADR1\000"
 2841      00
 2842              	.LASF75:
 2843 05c5 41445232 		.ascii	"ADR2\000"
 2843      00
 2844              	.LASF76:
 2845 05ca 41445233 		.ascii	"ADR3\000"
 2845      00
 2846              	.LASF134:
 2847 05cf 6932634D 		.ascii	"i2cMasterReceiveTimeout\000"
 2847      61737465 
 2847      72526563 
 2847      65697665 
 2847      54696D65 
 2848              	.LASF59:
 2849 05e7 77746F62 		.ascii	"wtobjp\000"
 2849      6A7000
 2850              	.LASF89:
 2851 05ee 4932435F 		.ascii	"I2C_FAST_MODE\000"
 2851      46415354 
 2851      5F4D4F44 
 2851      4500
 2852              	.LASF34:
 2853 05fc 705F6E61 		.ascii	"p_name\000"
 2853      6D6500
 2854              	.LASF42:
 2855 0603 705F6D73 		.ascii	"p_msg\000"
 2855      6700
 2856              	.LASF55:
 2857 0609 6D5F6F77 		.ascii	"m_owner\000"
 2857      6E657200 
 2858              	.LASF122:
 2859 0611 74696D65 		.ascii	"timeToBeSet_p\000"
 2859      546F4265 
 2859      5365745F 
 2859      7000
 2860              	.LASF31:
 2861 061f 705F6374 		.ascii	"p_ctx\000"
 2861      7800
 2862              	.LASF40:
 2863 0625 705F7761 		.ascii	"p_waiting\000"
 2863      6974696E 
 2863      6700
 2864              		.ident	"GCC: (GNU Tools for ARM Embedded Processors) 4.8.4 20140526 (release) [ARM/embedded-4_8-br
ARM GAS  /tmp/cc5Er7FT.s 			page 56


ARM GAS  /tmp/cc5Er7FT.s 			page 57


DEFINED SYMBOLS
                            *ABS*:00000000 RTC_r2051.c
     /tmp/cc5Er7FT.s:18     .text.RTC_init:00000000 $t
     /tmp/cc5Er7FT.s:23     .text.RTC_init:00000000 RTC_init
     /tmp/cc5Er7FT.s:70     .text.RTC_init:00000038 $d
     /tmp/cc5Er7FT.s:77     .text.RTC_setTime:00000000 $t
     /tmp/cc5Er7FT.s:82     .text.RTC_setTime:00000000 RTC_setTime
     /tmp/cc5Er7FT.s:178    .text.RTC_setTime:00000088 $d
     /tmp/cc5Er7FT.s:183    .text.RTC_setDate:00000000 $t
     /tmp/cc5Er7FT.s:188    .text.RTC_setDate:00000000 RTC_setDate
     /tmp/cc5Er7FT.s:235    .text.RTC_setDate:00000038 $d
     /tmp/cc5Er7FT.s:240    .text.RTC_getTime:00000000 $t
     /tmp/cc5Er7FT.s:245    .text.RTC_getTime:00000000 RTC_getTime
     /tmp/cc5Er7FT.s:329    .text.RTC_getTime:00000070 $d
     /tmp/cc5Er7FT.s:335    .text.RTC_getDate:00000000 $t
     /tmp/cc5Er7FT.s:340    .text.RTC_getDate:00000000 RTC_getDate
     /tmp/cc5Er7FT.s:398    .text.RTC_getDate:00000044 $d
     /tmp/cc5Er7FT.s:403    .rodata:00000000 $d
                     .debug_frame:00000010 $d

UNDEFINED SYMBOLS
memcpy
i2cAcquireBus
i2cMasterTransmitTimeout
i2cReleaseBus
I2CD1
__aeabi_uidiv
i2cMasterReceiveTimeout
