ARM GAS  /tmp/cctbMVK7.s 			page 1


   1              		.cpu cortex-m0
   2              		.fpu softvfp
   3              		.eabi_attribute 20, 1
   4              		.eabi_attribute 21, 1
   5              		.eabi_attribute 23, 3
   6              		.eabi_attribute 24, 1
   7              		.eabi_attribute 25, 1
   8              		.eabi_attribute 26, 1
   9              		.eabi_attribute 30, 1
  10              		.eabi_attribute 34, 0
  11              		.eabi_attribute 18, 4
  12              		.code	16
  13              		.file	"serial.c"
  14              		.text
  15              	.Ltext0:
  16              		.cfi_sections	.debug_frame
  17              		.section	.text.readt,"ax",%progbits
  18              		.align	2
  19              		.code	16
  20              		.thumb_func
  21              		.type	readt, %function
  22              	readt:
  23              	.LFB46:
  24              		.file 1 "ChibiOS_2.6.5/os/hal/src/serial.c"
  25              		.loc 1 99 0
  26              		.cfi_startproc
  27              	.LVL0:
  28 0000 08B5     		push	{r3, lr}
  29              		.cfi_def_cfa_offset 8
  30              		.cfi_offset 3, -8
  31              		.cfi_offset 14, -4
  32              		.loc 1 101 0
  33 0002 0C30     		add	r0, r0, #12
  34              	.LVL1:
  35 0004 FFF7FEFF 		bl	chIQReadTimeout
  36              	.LVL2:
  37              		.loc 1 102 0
  38              		@ sp needed
  39 0008 08BD     		pop	{r3, pc}
  40              		.cfi_endproc
  41              	.LFE46:
  42              		.size	readt, .-readt
  43 000a C046     		.section	.text.read,"ax",%progbits
  44              		.align	2
  45              		.code	16
  46              		.thumb_func
  47              		.type	read, %function
  48              	read:
  49              	.LFB40:
  50              		.loc 1 68 0
  51              		.cfi_startproc
  52              	.LVL3:
  53 0000 08B5     		push	{r3, lr}
  54              		.cfi_def_cfa_offset 8
  55              		.cfi_offset 3, -8
  56              		.cfi_offset 14, -4
  57              		.loc 1 70 0
ARM GAS  /tmp/cctbMVK7.s 			page 2


  58 0002 0C30     		add	r0, r0, #12
  59              	.LVL4:
  60 0004 0123     		mov	r3, #1
  61 0006 5B42     		neg	r3, r3
  62 0008 FFF7FEFF 		bl	chIQReadTimeout
  63              	.LVL5:
  64              		.loc 1 72 0
  65              		@ sp needed
  66 000c 08BD     		pop	{r3, pc}
  67              		.cfi_endproc
  68              	.LFE40:
  69              		.size	read, .-read
  70 000e C046     		.section	.text.writet,"ax",%progbits
  71              		.align	2
  72              		.code	16
  73              		.thumb_func
  74              		.type	writet, %function
  75              	writet:
  76              	.LFB45:
  77              		.loc 1 94 0
  78              		.cfi_startproc
  79              	.LVL6:
  80 0000 08B5     		push	{r3, lr}
  81              		.cfi_def_cfa_offset 8
  82              		.cfi_offset 3, -8
  83              		.cfi_offset 14, -4
  84              		.loc 1 96 0
  85 0002 3030     		add	r0, r0, #48
  86              	.LVL7:
  87 0004 FFF7FEFF 		bl	chOQWriteTimeout
  88              	.LVL8:
  89              		.loc 1 97 0
  90              		@ sp needed
  91 0008 08BD     		pop	{r3, pc}
  92              		.cfi_endproc
  93              	.LFE45:
  94              		.size	writet, .-writet
  95              		.section	.text.write,"ax",%progbits
  96              		.align	2
  97              		.code	16
  98              		.thumb_func
  99              		.type	write, %function
 100              	write:
 101              	.LFB39:
 102              		.loc 1 62 0
 103              		.cfi_startproc
 104              	.LVL9:
 105 0000 08B5     		push	{r3, lr}
 106              		.cfi_def_cfa_offset 8
 107              		.cfi_offset 3, -8
 108              		.cfi_offset 14, -4
 109              		.loc 1 64 0
 110 0002 3030     		add	r0, r0, #48
 111              	.LVL10:
 112 0004 0123     		mov	r3, #1
 113 0006 5B42     		neg	r3, r3
 114 0008 FFF7FEFF 		bl	chOQWriteTimeout
ARM GAS  /tmp/cctbMVK7.s 			page 3


 115              	.LVL11:
 116              		.loc 1 66 0
 117              		@ sp needed
 118 000c 08BD     		pop	{r3, pc}
 119              		.cfi_endproc
 120              	.LFE39:
 121              		.size	write, .-write
 122 000e C046     		.section	.text.gett,"ax",%progbits
 123              		.align	2
 124              		.code	16
 125              		.thumb_func
 126              		.type	gett, %function
 127              	gett:
 128              	.LFB44:
 129              		.loc 1 89 0
 130              		.cfi_startproc
 131              	.LVL12:
 132 0000 08B5     		push	{r3, lr}
 133              		.cfi_def_cfa_offset 8
 134              		.cfi_offset 3, -8
 135              		.cfi_offset 14, -4
 136              		.loc 1 91 0
 137 0002 0C30     		add	r0, r0, #12
 138              	.LVL13:
 139 0004 FFF7FEFF 		bl	chIQGetTimeout
 140              	.LVL14:
 141              		.loc 1 92 0
 142              		@ sp needed
 143 0008 08BD     		pop	{r3, pc}
 144              		.cfi_endproc
 145              	.LFE44:
 146              		.size	gett, .-gett
 147              		.section	.text.get,"ax",%progbits
 148              		.align	2
 149              		.code	16
 150              		.thumb_func
 151              		.type	get, %function
 152              	get:
 153              	.LFB42:
 154              		.loc 1 79 0
 155              		.cfi_startproc
 156              	.LVL15:
 157 0000 08B5     		push	{r3, lr}
 158              		.cfi_def_cfa_offset 8
 159              		.cfi_offset 3, -8
 160              		.cfi_offset 14, -4
 161              		.loc 1 81 0
 162 0002 0C30     		add	r0, r0, #12
 163              	.LVL16:
 164 0004 0121     		mov	r1, #1
 165 0006 4942     		neg	r1, r1
 166 0008 FFF7FEFF 		bl	chIQGetTimeout
 167              	.LVL17:
 168              		.loc 1 82 0
 169              		@ sp needed
 170 000c 08BD     		pop	{r3, pc}
 171              		.cfi_endproc
ARM GAS  /tmp/cctbMVK7.s 			page 4


 172              	.LFE42:
 173              		.size	get, .-get
 174 000e C046     		.section	.text.putt,"ax",%progbits
 175              		.align	2
 176              		.code	16
 177              		.thumb_func
 178              		.type	putt, %function
 179              	putt:
 180              	.LFB43:
 181              		.loc 1 84 0
 182              		.cfi_startproc
 183              	.LVL18:
 184 0000 08B5     		push	{r3, lr}
 185              		.cfi_def_cfa_offset 8
 186              		.cfi_offset 3, -8
 187              		.cfi_offset 14, -4
 188              		.loc 1 86 0
 189 0002 3030     		add	r0, r0, #48
 190              	.LVL19:
 191 0004 FFF7FEFF 		bl	chOQPutTimeout
 192              	.LVL20:
 193              		.loc 1 87 0
 194              		@ sp needed
 195 0008 08BD     		pop	{r3, pc}
 196              		.cfi_endproc
 197              	.LFE43:
 198              		.size	putt, .-putt
 199              		.section	.text.put,"ax",%progbits
 200              		.align	2
 201              		.code	16
 202              		.thumb_func
 203              		.type	put, %function
 204              	put:
 205              	.LFB41:
 206              		.loc 1 74 0
 207              		.cfi_startproc
 208              	.LVL21:
 209 0000 08B5     		push	{r3, lr}
 210              		.cfi_def_cfa_offset 8
 211              		.cfi_offset 3, -8
 212              		.cfi_offset 14, -4
 213              		.loc 1 76 0
 214 0002 3030     		add	r0, r0, #48
 215              	.LVL22:
 216 0004 0122     		mov	r2, #1
 217 0006 5242     		neg	r2, r2
 218 0008 FFF7FEFF 		bl	chOQPutTimeout
 219              	.LVL23:
 220              		.loc 1 77 0
 221              		@ sp needed
 222 000c 08BD     		pop	{r3, pc}
 223              		.cfi_endproc
 224              	.LFE41:
 225              		.size	put, .-put
 226 000e C046     		.section	.text.sdInit,"ax",%progbits
 227              		.align	2
 228              		.global	sdInit
ARM GAS  /tmp/cctbMVK7.s 			page 5


 229              		.code	16
 230              		.thumb_func
 231              		.type	sdInit, %function
 232              	sdInit:
 233              	.LFB47:
 234              		.loc 1 120 0
 235              		.cfi_startproc
 236 0000 08B5     		push	{r3, lr}
 237              		.cfi_def_cfa_offset 8
 238              		.cfi_offset 3, -8
 239              		.cfi_offset 14, -4
 240              		.loc 1 122 0
 241 0002 FFF7FEFF 		bl	sd_lld_init
 242              	.LVL24:
 243              		.loc 1 123 0
 244              		@ sp needed
 245 0006 08BD     		pop	{r3, pc}
 246              		.cfi_endproc
 247              	.LFE47:
 248              		.size	sdInit, .-sdInit
 249              		.section	.text.sdObjectInit,"ax",%progbits
 250              		.align	2
 251              		.global	sdObjectInit
 252              		.code	16
 253              		.thumb_func
 254              		.type	sdObjectInit, %function
 255              	sdObjectInit:
 256              	.LFB48:
 257              		.loc 1 140 0
 258              		.cfi_startproc
 259              	.LVL25:
 260 0000 30B5     		push	{r4, r5, lr}
 261              		.cfi_def_cfa_offset 12
 262              		.cfi_offset 4, -12
 263              		.cfi_offset 5, -8
 264              		.cfi_offset 14, -4
 265 0002 83B0     		sub	sp, sp, #12
 266              		.cfi_def_cfa_offset 24
 267 0004 041C     		mov	r4, r0
 268 0006 0B1C     		mov	r3, r1
 269 0008 151C     		mov	r5, r2
 270              		.loc 1 142 0
 271 000a 0C4A     		ldr	r2, .L11
 272              	.LVL26:
 273 000c 04C0     		stmia	r0!, {r2}
 274              	.LVL27:
 275              		.loc 1 143 0
 276 000e 6060     		str	r0, [r4, #4]
 277              		.loc 1 144 0
 278 0010 0122     		mov	r2, #1
 279 0012 2272     		strb	r2, [r4, #8]
 280              		.loc 1 145 0
 281 0014 201C     		mov	r0, r4
 282 0016 0C30     		add	r0, r0, #12
 283 0018 211C     		mov	r1, r4
 284              	.LVL28:
 285 001a 5431     		add	r1, r1, #84
ARM GAS  /tmp/cctbMVK7.s 			page 6


 286 001c 0094     		str	r4, [sp]
 287 001e 1022     		mov	r2, #16
 288 0020 FFF7FEFF 		bl	chIQInit
 289              	.LVL29:
 290              		.loc 1 146 0
 291 0024 201C     		mov	r0, r4
 292 0026 3030     		add	r0, r0, #48
 293 0028 211C     		mov	r1, r4
 294 002a 6431     		add	r1, r1, #100
 295 002c 0094     		str	r4, [sp]
 296 002e 1022     		mov	r2, #16
 297 0030 2B1C     		mov	r3, r5
 298 0032 FFF7FEFF 		bl	chOQInit
 299              	.LVL30:
 300              		.loc 1 147 0
 301 0036 03B0     		add	sp, sp, #12
 302              		@ sp needed
 303              	.LVL31:
 304              	.LVL32:
 305 0038 30BD     		pop	{r4, r5, pc}
 306              	.L12:
 307 003a C046     		.align	2
 308              	.L11:
 309 003c 00000000 		.word	.LANCHOR0
 310              		.cfi_endproc
 311              	.LFE48:
 312              		.size	sdObjectInit, .-sdObjectInit
 313              		.section	.text.sdStart,"ax",%progbits
 314              		.align	2
 315              		.global	sdStart
 316              		.code	16
 317              		.thumb_func
 318              		.type	sdStart, %function
 319              	sdStart:
 320              	.LFB49:
 321              		.loc 1 159 0
 322              		.cfi_startproc
 323              	.LVL33:
 324 0000 10B5     		push	{r4, lr}
 325              		.cfi_def_cfa_offset 8
 326              		.cfi_offset 4, -8
 327              		.cfi_offset 14, -4
 328 0002 041C     		mov	r4, r0
 329              		.loc 1 163 0
 330              	@ 163 "ChibiOS_2.6.5/os/hal/src/serial.c" 1
 331 0004 72B6     		cpsid   i
 332              	@ 0 "" 2
 333              		.loc 1 167 0
 334              		.code	16
 335 0006 FFF7FEFF 		bl	sd_lld_start
 336              	.LVL34:
 337              		.loc 1 168 0
 338 000a 0223     		mov	r3, #2
 339 000c 2372     		strb	r3, [r4, #8]
 340              		.loc 1 169 0
 341              	@ 169 "ChibiOS_2.6.5/os/hal/src/serial.c" 1
 342 000e 62B6     		cpsie   i
ARM GAS  /tmp/cctbMVK7.s 			page 7


 343              	@ 0 "" 2
 344              		.loc 1 170 0
 345              		.code	16
 346              		@ sp needed
 347              	.LVL35:
 348 0010 10BD     		pop	{r4, pc}
 349              		.cfi_endproc
 350              	.LFE49:
 351              		.size	sdStart, .-sdStart
 352 0012 C046     		.section	.text.sdStop,"ax",%progbits
 353              		.align	2
 354              		.global	sdStop
 355              		.code	16
 356              		.thumb_func
 357              		.type	sdStop, %function
 358              	sdStop:
 359              	.LFB50:
 360              		.loc 1 181 0
 361              		.cfi_startproc
 362              	.LVL36:
 363 0000 10B5     		push	{r4, lr}
 364              		.cfi_def_cfa_offset 8
 365              		.cfi_offset 4, -8
 366              		.cfi_offset 14, -4
 367 0002 041C     		mov	r4, r0
 368              		.loc 1 185 0
 369              	@ 185 "ChibiOS_2.6.5/os/hal/src/serial.c" 1
 370 0004 72B6     		cpsid   i
 371              	@ 0 "" 2
 372              		.loc 1 189 0
 373              		.code	16
 374 0006 FFF7FEFF 		bl	sd_lld_stop
 375              	.LVL37:
 376              		.loc 1 190 0
 377 000a 0123     		mov	r3, #1
 378 000c 2372     		strb	r3, [r4, #8]
 379              		.loc 1 191 0
 380 000e 201C     		mov	r0, r4
 381 0010 3030     		add	r0, r0, #48
 382 0012 FFF7FEFF 		bl	chOQResetI
 383              	.LVL38:
 384              		.loc 1 192 0
 385 0016 201C     		mov	r0, r4
 386 0018 0C30     		add	r0, r0, #12
 387 001a FFF7FEFF 		bl	chIQResetI
 388              	.LVL39:
 389              		.loc 1 193 0
 390 001e FFF7FEFF 		bl	chSchRescheduleS
 391              	.LVL40:
 392              		.loc 1 194 0
 393              	@ 194 "ChibiOS_2.6.5/os/hal/src/serial.c" 1
 394 0022 62B6     		cpsie   i
 395              	@ 0 "" 2
 396              		.loc 1 195 0
 397              		.code	16
 398              		@ sp needed
 399              	.LVL41:
ARM GAS  /tmp/cctbMVK7.s 			page 8


 400 0024 10BD     		pop	{r4, pc}
 401              		.cfi_endproc
 402              	.LFE50:
 403              		.size	sdStop, .-sdStop
 404 0026 C046     		.section	.text.sdIncomingDataI,"ax",%progbits
 405              		.align	2
 406              		.global	sdIncomingDataI
 407              		.code	16
 408              		.thumb_func
 409              		.type	sdIncomingDataI, %function
 410              	sdIncomingDataI:
 411              	.LFB51:
 412              		.loc 1 213 0
 413              		.cfi_startproc
 414              	.LVL42:
 415 0000 38B5     		push	{r3, r4, r5, lr}
 416              		.cfi_def_cfa_offset 16
 417              		.cfi_offset 3, -16
 418              		.cfi_offset 4, -12
 419              		.cfi_offset 5, -8
 420              		.cfi_offset 14, -4
 421 0002 041C     		mov	r4, r0
 422 0004 0D1C     		mov	r5, r1
 423              		.loc 1 218 0
 424 0006 4369     		ldr	r3, [r0, #20]
 425 0008 002B     		cmp	r3, #0
 426 000a 03D1     		bne	.L16
 427              		.loc 1 219 0
 428 000c 0430     		add	r0, r0, #4
 429              	.LVL43:
 430 000e 0421     		mov	r1, #4
 431              	.LVL44:
 432 0010 FFF7FEFF 		bl	chEvtBroadcastFlagsI
 433              	.LVL45:
 434              	.L16:
 435              		.loc 1 220 0
 436 0014 201C     		mov	r0, r4
 437 0016 0C30     		add	r0, r0, #12
 438 0018 291C     		mov	r1, r5
 439 001a FFF7FEFF 		bl	chIQPutI
 440              	.LVL46:
 441 001e 0028     		cmp	r0, #0
 442 0020 03DA     		bge	.L15
 443              		.loc 1 221 0
 444 0022 201D     		add	r0, r4, #4
 445 0024 8021     		mov	r1, #128
 446 0026 FFF7FEFF 		bl	chEvtBroadcastFlagsI
 447              	.LVL47:
 448              	.L15:
 449              		.loc 1 222 0
 450              		@ sp needed
 451              	.LVL48:
 452 002a 38BD     		pop	{r3, r4, r5, pc}
 453              		.cfi_endproc
 454              	.LFE51:
 455              		.size	sdIncomingDataI, .-sdIncomingDataI
 456              		.section	.text.sdRequestDataI,"ax",%progbits
ARM GAS  /tmp/cctbMVK7.s 			page 9


 457              		.align	2
 458              		.global	sdRequestDataI
 459              		.code	16
 460              		.thumb_func
 461              		.type	sdRequestDataI, %function
 462              	sdRequestDataI:
 463              	.LFB52:
 464              		.loc 1 239 0
 465              		.cfi_startproc
 466              	.LVL49:
 467 0000 38B5     		push	{r3, r4, r5, lr}
 468              		.cfi_def_cfa_offset 16
 469              		.cfi_offset 3, -16
 470              		.cfi_offset 4, -12
 471              		.cfi_offset 5, -8
 472              		.cfi_offset 14, -4
 473 0002 051C     		mov	r5, r0
 474              		.loc 1 245 0
 475 0004 3030     		add	r0, r0, #48
 476              	.LVL50:
 477 0006 FFF7FEFF 		bl	chOQGetI
 478              	.LVL51:
 479 000a 041E     		sub	r4, r0, #0
 480              	.LVL52:
 481              		.loc 1 246 0
 482 000c 03DA     		bge	.L19
 483              		.loc 1 247 0
 484 000e 281D     		add	r0, r5, #4
 485              	.LVL53:
 486 0010 0821     		mov	r1, #8
 487 0012 FFF7FEFF 		bl	chEvtBroadcastFlagsI
 488              	.LVL54:
 489              	.L19:
 490              		.loc 1 249 0
 491 0016 201C     		mov	r0, r4
 492              		@ sp needed
 493              	.LVL55:
 494              	.LVL56:
 495 0018 38BD     		pop	{r3, r4, r5, pc}
 496              		.cfi_endproc
 497              	.LFE52:
 498              		.size	sdRequestDataI, .-sdRequestDataI
 499 001a C046     		.section	.rodata.vmt,"a",%progbits
 500              		.align	2
 501              		.set	.LANCHOR0,. + 0
 502              		.type	vmt, %object
 503              		.size	vmt, 32
 504              	vmt:
 505 0000 00000000 		.word	write
 506 0004 00000000 		.word	read
 507 0008 00000000 		.word	put
 508 000c 00000000 		.word	get
 509 0010 00000000 		.word	putt
 510 0014 00000000 		.word	gett
 511 0018 00000000 		.word	writet
 512 001c 00000000 		.word	readt
 513              		.text
ARM GAS  /tmp/cctbMVK7.s 			page 10


 514              	.Letext0:
 515              		.file 2 "/usr/local/lpcxpresso_7.3.0_186/lpcxpresso/tools/lib/gcc/arm-none-eabi/4.8.4/include/stdd
 516              		.file 3 "/usr/local/lpcxpresso_7.3.0_186/lpcxpresso/tools/arm-none-eabi/include/machine/_default_t
 517              		.file 4 "/usr/local/lpcxpresso_7.3.0_186/lpcxpresso/tools/arm-none-eabi/include/stdint.h"
 518              		.file 5 "ChibiOS_2.6.5/os/ports/GCC/ARMCMx/chtypes.h"
 519              		.file 6 "ChibiOS_2.6.5/os/kernel/include/chlists.h"
 520              		.file 7 "ChibiOS_2.6.5/os/kernel/include/chthreads.h"
 521              		.file 8 "ChibiOS_2.6.5/os/ports/GCC/ARMCMx/chcore_v6m.h"
 522              		.file 9 "ChibiOS_2.6.5/os/kernel/include/chmtx.h"
 523              		.file 10 "ChibiOS_2.6.5/os/kernel/include/chevents.h"
 524              		.file 11 "ChibiOS_2.6.5/os/kernel/include/chqueues.h"
 525              		.file 12 "CMSIS_CORE_LPC11Uxx/inc/LPC11Uxx.h"
 526              		.file 13 "ChibiOS_2.6.5/os/hal/include/serial.h"
 527              		.file 14 "ChibiOS_2.6.5/os/hal/platforms/LPC11Uxx/serial_lld.h"
 528              		.file 15 "ChibiOS_2.6.5/os/kernel/include/chschd.h"