ARM GAS  /tmp/cctbMVK7.s 			page 1


   1              		.cpu cortex-m0
   2              		.fpu softvfp
   3              		.eabi_attribute 20, 1
   4              		.eabi_attribute 21, 1
   5              		.eabi_attribute 23, 3
   6              		.eabi_attribute 24, 1
   7              		.eabi_attribute 25, 1
   8              		.eabi_attribute 26, 1
   9              		.eabi_attribute 30, 1
  10              		.eabi_attribute 34, 0
  11              		.eabi_attribute 18, 4
  12              		.code	16
  13              		.file	"serial.c"
  14              		.text
  15              	.Ltext0:
  16              		.cfi_sections	.debug_frame
  17              		.section	.text.readt,"ax",%progbits
  18              		.align	2
  19              		.code	16
  20              		.thumb_func
  21              		.type	readt, %function
  22              	readt:
  23              	.LFB46:
  24              		.file 1 "ChibiOS_2.6.5/os/hal/src/serial.c"
  25              		.loc 1 99 0
  26              		.cfi_startproc
  27              	.LVL0:
  28 0000 08B5     		push	{r3, lr}
  29              		.cfi_def_cfa_offset 8
  30              		.cfi_offset 3, -8
  31              		.cfi_offset 14, -4
  32              		.loc 1 101 0
  33 0002 0C30     		add	r0, r0, #12
  34              	.LVL1:
  35 0004 FFF7FEFF 		bl	chIQReadTimeout
  36              	.LVL2:
  37              		.loc 1 102 0
  38              		@ sp needed
  39 0008 08BD     		pop	{r3, pc}
  40              		.cfi_endproc
  41              	.LFE46:
  42              		.size	readt, .-readt
  43 000a C046     		.section	.text.read,"ax",%progbits
  44              		.align	2
  45              		.code	16
  46              		.thumb_func
  47              		.type	read, %function
  48              	read:
  49              	.LFB40:
  50              		.loc 1 68 0
  51              		.cfi_startproc
  52              	.LVL3:
  53 0000 08B5     		push	{r3, lr}
  54              		.cfi_def_cfa_offset 8
  55              		.cfi_offset 3, -8
  56              		.cfi_offset 14, -4
  57              		.loc 1 70 0
ARM GAS  /tmp/cctbMVK7.s 			page 2


  58 0002 0C30     		add	r0, r0, #12
  59              	.LVL4:
  60 0004 0123     		mov	r3, #1
  61 0006 5B42     		neg	r3, r3
  62 0008 FFF7FEFF 		bl	chIQReadTimeout
  63              	.LVL5:
  64              		.loc 1 72 0
  65              		@ sp needed
  66 000c 08BD     		pop	{r3, pc}
  67              		.cfi_endproc
  68              	.LFE40:
  69              		.size	read, .-read
  70 000e C046     		.section	.text.writet,"ax",%progbits
  71              		.align	2
  72              		.code	16
  73              		.thumb_func
  74              		.type	writet, %function
  75              	writet:
  76              	.LFB45:
  77              		.loc 1 94 0
  78              		.cfi_startproc
  79              	.LVL6:
  80 0000 08B5     		push	{r3, lr}
  81              		.cfi_def_cfa_offset 8
  82              		.cfi_offset 3, -8
  83              		.cfi_offset 14, -4
  84              		.loc 1 96 0
  85 0002 3030     		add	r0, r0, #48
  86              	.LVL7:
  87 0004 FFF7FEFF 		bl	chOQWriteTimeout
  88              	.LVL8:
  89              		.loc 1 97 0
  90              		@ sp needed
  91 0008 08BD     		pop	{r3, pc}
  92              		.cfi_endproc
  93              	.LFE45:
  94              		.size	writet, .-writet
  95              		.section	.text.write,"ax",%progbits
  96              		.align	2
  97              		.code	16
  98              		.thumb_func
  99              		.type	write, %function
 100              	write:
 101              	.LFB39:
 102              		.loc 1 62 0
 103              		.cfi_startproc
 104              	.LVL9:
 105 0000 08B5     		push	{r3, lr}
 106              		.cfi_def_cfa_offset 8
 107              		.cfi_offset 3, -8
 108              		.cfi_offset 14, -4
 109              		.loc 1 64 0
 110 0002 3030     		add	r0, r0, #48
 111              	.LVL10:
 112 0004 0123     		mov	r3, #1
 113 0006 5B42     		neg	r3, r3
 114 0008 FFF7FEFF 		bl	chOQWriteTimeout
ARM GAS  /tmp/cctbMVK7.s 			page 3


 115              	.LVL11:
 116              		.loc 1 66 0
 117              		@ sp needed
 118 000c 08BD     		pop	{r3, pc}
 119              		.cfi_endproc
 120              	.LFE39:
 121              		.size	write, .-write
 122 000e C046     		.section	.text.gett,"ax",%progbits
 123              		.align	2
 124              		.code	16
 125              		.thumb_func
 126              		.type	gett, %function
 127              	gett:
 128              	.LFB44:
 129              		.loc 1 89 0
 130              		.cfi_startproc
 131              	.LVL12:
 132 0000 08B5     		push	{r3, lr}
 133              		.cfi_def_cfa_offset 8
 134              		.cfi_offset 3, -8
 135              		.cfi_offset 14, -4
 136              		.loc 1 91 0
 137 0002 0C30     		add	r0, r0, #12
 138              	.LVL13:
 139 0004 FFF7FEFF 		bl	chIQGetTimeout
 140              	.LVL14:
 141              		.loc 1 92 0
 142              		@ sp needed
 143 0008 08BD     		pop	{r3, pc}
 144              		.cfi_endproc
 145              	.LFE44:
 146              		.size	gett, .-gett
 147              		.section	.text.get,"ax",%progbits
 148              		.align	2
 149              		.code	16
 150              		.thumb_func
 151              		.type	get, %function
 152              	get:
 153              	.LFB42:
 154              		.loc 1 79 0
 155              		.cfi_startproc
 156              	.LVL15:
 157 0000 08B5     		push	{r3, lr}
 158              		.cfi_def_cfa_offset 8
 159              		.cfi_offset 3, -8
 160              		.cfi_offset 14, -4
 161              		.loc 1 81 0
 162 0002 0C30     		add	r0, r0, #12
 163              	.LVL16:
 164 0004 0121     		mov	r1, #1
 165 0006 4942     		neg	r1, r1
 166 0008 FFF7FEFF 		bl	chIQGetTimeout
 167              	.LVL17:
 168              		.loc 1 82 0
 169              		@ sp needed
 170 000c 08BD     		pop	{r3, pc}
 171              		.cfi_endproc
ARM GAS  /tmp/cctbMVK7.s 			page 4


 172              	.LFE42:
 173              		.size	get, .-get
 174 000e C046     		.section	.text.putt,"ax",%progbits
 175              		.align	2
 176              		.code	16
 177              		.thumb_func
 178              		.type	putt, %function
 179              	putt:
 180              	.LFB43:
 181              		.loc 1 84 0
 182              		.cfi_startproc
 183              	.LVL18:
 184 0000 08B5     		push	{r3, lr}
 185              		.cfi_def_cfa_offset 8
 186              		.cfi_offset 3, -8
 187              		.cfi_offset 14, -4
 188              		.loc 1 86 0
 189 0002 3030     		add	r0, r0, #48
 190              	.LVL19:
 191 0004 FFF7FEFF 		bl	chOQPutTimeout
 192              	.LVL20:
 193              		.loc 1 87 0
 194              		@ sp needed
 195 0008 08BD     		pop	{r3, pc}
 196              		.cfi_endproc
 197              	.LFE43:
 198              		.size	putt, .-putt
 199              		.section	.text.put,"ax",%progbits
 200              		.align	2
 201              		.code	16
 202              		.thumb_func
 203              		.type	put, %function
 204              	put:
 205              	.LFB41:
 206              		.loc 1 74 0
 207              		.cfi_startproc
 208              	.LVL21:
 209 0000 08B5     		push	{r3, lr}
 210              		.cfi_def_cfa_offset 8
 211              		.cfi_offset 3, -8
 212              		.cfi_offset 14, -4
 213              		.loc 1 76 0
 214 0002 3030     		add	r0, r0, #48
 215              	.LVL22:
 216 0004 0122     		mov	r2, #1
 217 0006 5242     		neg	r2, r2
 218 0008 FFF7FEFF 		bl	chOQPutTimeout
 219              	.LVL23:
 220              		.loc 1 77 0
 221              		@ sp needed
 222 000c 08BD     		pop	{r3, pc}
 223              		.cfi_endproc
 224              	.LFE41:
 225              		.size	put, .-put
 226 000e C046     		.section	.text.sdInit,"ax",%progbits
 227              		.align	2
 228              		.global	sdInit
ARM GAS  /tmp/cctbMVK7.s 			page 5


 229              		.code	16
 230              		.thumb_func
 231              		.type	sdInit, %function
 232              	sdInit:
 233              	.LFB47:
 234              		.loc 1 120 0
 235              		.cfi_startproc
 236 0000 08B5     		push	{r3, lr}
 237              		.cfi_def_cfa_offset 8
 238              		.cfi_offset 3, -8
 239              		.cfi_offset 14, -4
 240              		.loc 1 122 0
 241 0002 FFF7FEFF 		bl	sd_lld_init
 242              	.LVL24:
 243              		.loc 1 123 0
 244              		@ sp needed
 245 0006 08BD     		pop	{r3, pc}
 246              		.cfi_endproc
 247              	.LFE47:
 248              		.size	sdInit, .-sdInit
 249              		.section	.text.sdObjectInit,"ax",%progbits
 250              		.align	2
 251              		.global	sdObjectInit
 252              		.code	16
 253              		.thumb_func
 254              		.type	sdObjectInit, %function
 255              	sdObjectInit:
 256              	.LFB48:
 257              		.loc 1 140 0
 258              		.cfi_startproc
 259              	.LVL25:
 260 0000 30B5     		push	{r4, r5, lr}
 261              		.cfi_def_cfa_offset 12
 262              		.cfi_offset 4, -12
 263              		.cfi_offset 5, -8
 264              		.cfi_offset 14, -4
 265 0002 83B0     		sub	sp, sp, #12
 266              		.cfi_def_cfa_offset 24
 267 0004 041C     		mov	r4, r0
 268 0006 0B1C     		mov	r3, r1
 269 0008 151C     		mov	r5, r2
 270              		.loc 1 142 0
 271 000a 0C4A     		ldr	r2, .L11
 272              	.LVL26:
 273 000c 04C0     		stmia	r0!, {r2}
 274              	.LVL27:
 275              		.loc 1 143 0
 276 000e 6060     		str	r0, [r4, #4]
 277              		.loc 1 144 0
 278 0010 0122     		mov	r2, #1
 279 0012 2272     		strb	r2, [r4, #8]
 280              		.loc 1 145 0
 281 0014 201C     		mov	r0, r4
 282 0016 0C30     		add	r0, r0, #12
 283 0018 211C     		mov	r1, r4
 284              	.LVL28:
 285 001a 5431     		add	r1, r1, #84
ARM GAS  /tmp/cctbMVK7.s 			page 6


 286 001c 0094     		str	r4, [sp]
 287 001e 1022     		mov	r2, #16
 288 0020 FFF7FEFF 		bl	chIQInit
 289              	.LVL29:
 290              		.loc 1 146 0
 291 0024 201C     		mov	r0, r4
 292 0026 3030     		add	r0, r0, #48
 293 0028 211C     		mov	r1, r4
 294 002a 6431     		add	r1, r1, #100
 295 002c 0094     		str	r4, [sp]
 296 002e 1022     		mov	r2, #16
 297 0030 2B1C     		mov	r3, r5
 298 0032 FFF7FEFF 		bl	chOQInit
 299              	.LVL30:
 300              		.loc 1 147 0
 301 0036 03B0     		add	sp, sp, #12
 302              		@ sp needed
 303              	.LVL31:
 304              	.LVL32:
 305 0038 30BD     		pop	{r4, r5, pc}
 306              	.L12:
 307 003a C046     		.align	2
 308              	.L11:
 309 003c 00000000 		.word	.LANCHOR0
 310              		.cfi_endproc
 311              	.LFE48:
 312              		.size	sdObjectInit, .-sdObjectInit
 313              		.section	.text.sdStart,"ax",%progbits
 314              		.align	2
 315              		.global	sdStart
 316              		.code	16
 317              		.thumb_func
 318              		.type	sdStart, %function
 319              	sdStart:
 320              	.LFB49:
 321              		.loc 1 159 0
 322              		.cfi_startproc
 323              	.LVL33:
 324 0000 10B5     		push	{r4, lr}
 325              		.cfi_def_cfa_offset 8
 326              		.cfi_offset 4, -8
 327              		.cfi_offset 14, -4
 328 0002 041C     		mov	r4, r0
 329              		.loc 1 163 0
 330              	@ 163 "ChibiOS_2.6.5/os/hal/src/serial.c" 1
 331 0004 72B6     		cpsid   i
 332              	@ 0 "" 2
 333              		.loc 1 167 0
 334              		.code	16
 335 0006 FFF7FEFF 		bl	sd_lld_start
 336              	.LVL34:
 337              		.loc 1 168 0
 338 000a 0223     		mov	r3, #2
 339 000c 2372     		strb	r3, [r4, #8]
 340              		.loc 1 169 0
 341              	@ 169 "ChibiOS_2.6.5/os/hal/src/serial.c" 1
 342 000e 62B6     		cpsie   i
ARM GAS  /tmp/cctbMVK7.s 			page 7


 343              	@ 0 "" 2
 344              		.loc 1 170 0
 345              		.code	16
 346              		@ sp needed
 347              	.LVL35:
 348 0010 10BD     		pop	{r4, pc}
 349              		.cfi_endproc
 350              	.LFE49:
 351              		.size	sdStart, .-sdStart
 352 0012 C046     		.section	.text.sdStop,"ax",%progbits
 353              		.align	2
 354              		.global	sdStop
 355              		.code	16
 356              		.thumb_func
 357              		.type	sdStop, %function
 358              	sdStop:
 359              	.LFB50:
 360              		.loc 1 181 0
 361              		.cfi_startproc
 362              	.LVL36:
 363 0000 10B5     		push	{r4, lr}
 364              		.cfi_def_cfa_offset 8
 365              		.cfi_offset 4, -8
 366              		.cfi_offset 14, -4
 367 0002 041C     		mov	r4, r0
 368              		.loc 1 185 0
 369              	@ 185 "ChibiOS_2.6.5/os/hal/src/serial.c" 1
 370 0004 72B6     		cpsid   i
 371              	@ 0 "" 2
 372              		.loc 1 189 0
 373              		.code	16
 374 0006 FFF7FEFF 		bl	sd_lld_stop
 375              	.LVL37:
 376              		.loc 1 190 0
 377 000a 0123     		mov	r3, #1
 378 000c 2372     		strb	r3, [r4, #8]
 379              		.loc 1 191 0
 380 000e 201C     		mov	r0, r4
 381 0010 3030     		add	r0, r0, #48
 382 0012 FFF7FEFF 		bl	chOQResetI
 383              	.LVL38:
 384              		.loc 1 192 0
 385 0016 201C     		mov	r0, r4
 386 0018 0C30     		add	r0, r0, #12
 387 001a FFF7FEFF 		bl	chIQResetI
 388              	.LVL39:
 389              		.loc 1 193 0
 390 001e FFF7FEFF 		bl	chSchRescheduleS
 391              	.LVL40:
 392              		.loc 1 194 0
 393              	@ 194 "ChibiOS_2.6.5/os/hal/src/serial.c" 1
 394 0022 62B6     		cpsie   i
 395              	@ 0 "" 2
 396              		.loc 1 195 0
 397              		.code	16
 398              		@ sp needed
 399              	.LVL41:
ARM GAS  /tmp/cctbMVK7.s 			page 8


 400 0024 10BD     		pop	{r4, pc}
 401              		.cfi_endproc
 402              	.LFE50:
 403              		.size	sdStop, .-sdStop
 404 0026 C046     		.section	.text.sdIncomingDataI,"ax",%progbits
 405              		.align	2
 406              		.global	sdIncomingDataI
 407              		.code	16
 408              		.thumb_func
 409              		.type	sdIncomingDataI, %function
 410              	sdIncomingDataI:
 411              	.LFB51:
 412              		.loc 1 213 0
 413              		.cfi_startproc
 414              	.LVL42:
 415 0000 38B5     		push	{r3, r4, r5, lr}
 416              		.cfi_def_cfa_offset 16
 417              		.cfi_offset 3, -16
 418              		.cfi_offset 4, -12
 419              		.cfi_offset 5, -8
 420              		.cfi_offset 14, -4
 421 0002 041C     		mov	r4, r0
 422 0004 0D1C     		mov	r5, r1
 423              		.loc 1 218 0
 424 0006 4369     		ldr	r3, [r0, #20]
 425 0008 002B     		cmp	r3, #0
 426 000a 03D1     		bne	.L16
 427              		.loc 1 219 0
 428 000c 0430     		add	r0, r0, #4
 429              	.LVL43:
 430 000e 0421     		mov	r1, #4
 431              	.LVL44:
 432 0010 FFF7FEFF 		bl	chEvtBroadcastFlagsI
 433              	.LVL45:
 434              	.L16:
 435              		.loc 1 220 0
 436 0014 201C     		mov	r0, r4
 437 0016 0C30     		add	r0, r0, #12
 438 0018 291C     		mov	r1, r5
 439 001a FFF7FEFF 		bl	chIQPutI
 440              	.LVL46:
 441 001e 0028     		cmp	r0, #0
 442 0020 03DA     		bge	.L15
 443              		.loc 1 221 0
 444 0022 201D     		add	r0, r4, #4
 445 0024 8021     		mov	r1, #128
 446 0026 FFF7FEFF 		bl	chEvtBroadcastFlagsI
 447              	.LVL47:
 448              	.L15:
 449              		.loc 1 222 0
 450              		@ sp needed
 451              	.LVL48:
 452 002a 38BD     		pop	{r3, r4, r5, pc}
 453              		.cfi_endproc
 454              	.LFE51:
 455              		.size	sdIncomingDataI, .-sdIncomingDataI
 456              		.section	.text.sdRequestDataI,"ax",%progbits
ARM GAS  /tmp/cctbMVK7.s 			page 9


 457              		.align	2
 458              		.global	sdRequestDataI
 459              		.code	16
 460              		.thumb_func
 461              		.type	sdRequestDataI, %function
 462              	sdRequestDataI:
 463              	.LFB52:
 464              		.loc 1 239 0
 465              		.cfi_startproc
 466              	.LVL49:
 467 0000 38B5     		push	{r3, r4, r5, lr}
 468              		.cfi_def_cfa_offset 16
 469              		.cfi_offset 3, -16
 470              		.cfi_offset 4, -12
 471              		.cfi_offset 5, -8
 472              		.cfi_offset 14, -4
 473 0002 051C     		mov	r5, r0
 474              		.loc 1 245 0
 475 0004 3030     		add	r0, r0, #48
 476              	.LVL50:
 477 0006 FFF7FEFF 		bl	chOQGetI
 478              	.LVL51:
 479 000a 041E     		sub	r4, r0, #0
 480              	.LVL52:
 481              		.loc 1 246 0
 482 000c 03DA     		bge	.L19
 483              		.loc 1 247 0
 484 000e 281D     		add	r0, r5, #4
 485              	.LVL53:
 486 0010 0821     		mov	r1, #8
 487 0012 FFF7FEFF 		bl	chEvtBroadcastFlagsI
 488              	.LVL54:
 489              	.L19:
 490              		.loc 1 249 0
 491 0016 201C     		mov	r0, r4
 492              		@ sp needed
 493              	.LVL55:
 494              	.LVL56:
 495 0018 38BD     		pop	{r3, r4, r5, pc}
 496              		.cfi_endproc
 497              	.LFE52:
 498              		.size	sdRequestDataI, .-sdRequestDataI
 499 001a C046     		.section	.rodata.vmt,"a",%progbits
 500              		.align	2
 501              		.set	.LANCHOR0,. + 0
 502              		.type	vmt, %object
 503              		.size	vmt, 32
 504              	vmt:
 505 0000 00000000 		.word	write
 506 0004 00000000 		.word	read
 507 0008 00000000 		.word	put
 508 000c 00000000 		.word	get
 509 0010 00000000 		.word	putt
 510 0014 00000000 		.word	gett
 511 0018 00000000 		.word	writet
 512 001c 00000000 		.word	readt
 513              		.text
ARM GAS  /tmp/cctbMVK7.s 			page 10


 514              	.Letext0:
 515              		.file 2 "/usr/local/lpcxpresso_7.3.0_186/lpcxpresso/tools/lib/gcc/arm-none-eabi/4.8.4/include/stdd
 516              		.file 3 "/usr/local/lpcxpresso_7.3.0_186/lpcxpresso/tools/arm-none-eabi/include/machine/_default_t
 517              		.file 4 "/usr/local/lpcxpresso_7.3.0_186/lpcxpresso/tools/arm-none-eabi/include/stdint.h"
 518              		.file 5 "ChibiOS_2.6.5/os/ports/GCC/ARMCMx/chtypes.h"
 519              		.file 6 "ChibiOS_2.6.5/os/kernel/include/chlists.h"
 520              		.file 7 "ChibiOS_2.6.5/os/kernel/include/chthreads.h"
 521              		.file 8 "ChibiOS_2.6.5/os/ports/GCC/ARMCMx/chcore_v6m.h"
 522              		.file 9 "ChibiOS_2.6.5/os/kernel/include/chmtx.h"
 523              		.file 10 "ChibiOS_2.6.5/os/kernel/include/chevents.h"
 524              		.file 11 "ChibiOS_2.6.5/os/kernel/include/chqueues.h"
 525              		.file 12 "CMSIS_CORE_LPC11Uxx/inc/LPC11Uxx.h"
 526              		.file 13 "ChibiOS_2.6.5/os/hal/include/serial.h"
 527              		.file 14 "ChibiOS_2.6.5/os/hal/platforms/LPC11Uxx/serial_lld.h"
 528              		.file 15 "ChibiOS_2.6.5/os/kernel/include/chschd.h"
 529              		.section	.debug_info,"",%progbits
 530              	.Ldebug_info0:
 531 0000 B90F0000 		.4byte	0xfb9
 532 0004 0400     		.2byte	0x4
 533 0006 00000000 		.4byte	.Ldebug_abbrev0
 534 000a 04       		.byte	0x4
 535 000b 01       		.uleb128 0x1
 536 000c 15020000 		.4byte	.LASF136
 537 0010 01       		.byte	0x1
 538 0011 E0030000 		.4byte	.LASF137
 539 0015 43050000 		.4byte	.LASF138
 540 0019 00000000 		.4byte	.Ldebug_ranges0+0
 541 001d 00000000 		.4byte	0
 542 0021 00000000 		.4byte	.Ldebug_line0
 543 0025 02       		.uleb128 0x2
 544 0026 04       		.byte	0x4
 545 0027 05       		.byte	0x5
 546 0028 696E7400 		.ascii	"int\000"
 547 002c 03       		.uleb128 0x3
 548 002d 00000000 		.4byte	.LASF2
 549 0031 02       		.byte	0x2
 550 0032 D4       		.byte	0xd4
 551 0033 37000000 		.4byte	0x37
 552 0037 04       		.uleb128 0x4
 553 0038 04       		.byte	0x4
 554 0039 07       		.byte	0x7
 555 003a 6C010000 		.4byte	.LASF0
 556 003e 04       		.uleb128 0x4
 557 003f 01       		.byte	0x1
 558 0040 06       		.byte	0x6
 559 0041 99000000 		.4byte	.LASF1
 560 0045 03       		.uleb128 0x3
 561 0046 1A000000 		.4byte	.LASF3
 562 004a 03       		.byte	0x3
 563 004b 1C       		.byte	0x1c
 564 004c 50000000 		.4byte	0x50
 565 0050 04       		.uleb128 0x4
 566 0051 01       		.byte	0x1
 567 0052 08       		.byte	0x8
 568 0053 C5030000 		.4byte	.LASF4
 569 0057 04       		.uleb128 0x4
 570 0058 02       		.byte	0x2
ARM GAS  /tmp/cctbMVK7.s 			page 11


 571 0059 05       		.byte	0x5
 572 005a 29040000 		.4byte	.LASF5
 573 005e 04       		.uleb128 0x4
 574 005f 02       		.byte	0x2
 575 0060 07       		.byte	0x7
 576 0061 BB010000 		.4byte	.LASF6
 577 0065 03       		.uleb128 0x3
 578 0066 06050000 		.4byte	.LASF7
 579 006a 03       		.byte	0x3
 580 006b 37       		.byte	0x37
 581 006c 70000000 		.4byte	0x70
 582 0070 04       		.uleb128 0x4
 583 0071 04       		.byte	0x4
 584 0072 05       		.byte	0x5
 585 0073 CC000000 		.4byte	.LASF8
 586 0077 03       		.uleb128 0x3
 587 0078 34010000 		.4byte	.LASF9
 588 007c 03       		.byte	0x3
 589 007d 38       		.byte	0x38
 590 007e 82000000 		.4byte	0x82
 591 0082 04       		.uleb128 0x4
 592 0083 04       		.byte	0x4
 593 0084 07       		.byte	0x7
 594 0085 A5040000 		.4byte	.LASF10
 595 0089 04       		.uleb128 0x4
 596 008a 08       		.byte	0x8
 597 008b 05       		.byte	0x5
 598 008c 8B000000 		.4byte	.LASF11
 599 0090 04       		.uleb128 0x4
 600 0091 08       		.byte	0x8
 601 0092 07       		.byte	0x7
 602 0093 34000000 		.4byte	.LASF12
 603 0097 03       		.uleb128 0x3
 604 0098 AB050000 		.4byte	.LASF13
 605 009c 04       		.byte	0x4
 606 009d 2A       		.byte	0x2a
 607 009e 45000000 		.4byte	0x45
 608 00a2 03       		.uleb128 0x3
 609 00a3 BD030000 		.4byte	.LASF14
 610 00a7 04       		.byte	0x4
 611 00a8 41       		.byte	0x41
 612 00a9 65000000 		.4byte	0x65
 613 00ad 03       		.uleb128 0x3
 614 00ae 85040000 		.4byte	.LASF15
 615 00b2 04       		.byte	0x4
 616 00b3 42       		.byte	0x42
 617 00b4 77000000 		.4byte	0x77
 618 00b8 03       		.uleb128 0x3
 619 00b9 AD000000 		.4byte	.LASF16
 620 00bd 05       		.byte	0x5
 621 00be 2B       		.byte	0x2b
 622 00bf C3000000 		.4byte	0xc3
 623 00c3 04       		.uleb128 0x4
 624 00c4 01       		.byte	0x1
 625 00c5 02       		.byte	0x2
 626 00c6 B7030000 		.4byte	.LASF17
 627 00ca 03       		.uleb128 0x3
ARM GAS  /tmp/cctbMVK7.s 			page 12


 628 00cb EA010000 		.4byte	.LASF18
 629 00cf 05       		.byte	0x5
 630 00d0 2C       		.byte	0x2c
 631 00d1 97000000 		.4byte	0x97
 632 00d5 03       		.uleb128 0x3
 633 00d6 D5000000 		.4byte	.LASF19
 634 00da 05       		.byte	0x5
 635 00db 2D       		.byte	0x2d
 636 00dc 97000000 		.4byte	0x97
 637 00e0 03       		.uleb128 0x3
 638 00e1 84030000 		.4byte	.LASF20
 639 00e5 05       		.byte	0x5
 640 00e6 2E       		.byte	0x2e
 641 00e7 97000000 		.4byte	0x97
 642 00eb 03       		.uleb128 0x3
 643 00ec BC000000 		.4byte	.LASF21
 644 00f0 05       		.byte	0x5
 645 00f1 2F       		.byte	0x2f
 646 00f2 97000000 		.4byte	0x97
 647 00f6 03       		.uleb128 0x3
 648 00f7 A7030000 		.4byte	.LASF22
 649 00fb 05       		.byte	0x5
 650 00fc 30       		.byte	0x30
 651 00fd AD000000 		.4byte	0xad
 652 0101 03       		.uleb128 0x3
 653 0102 CE010000 		.4byte	.LASF23
 654 0106 05       		.byte	0x5
 655 0107 31       		.byte	0x31
 656 0108 A2000000 		.4byte	0xa2
 657 010c 03       		.uleb128 0x3
 658 010d FE010000 		.4byte	.LASF24
 659 0111 05       		.byte	0x5
 660 0112 33       		.byte	0x33
 661 0113 AD000000 		.4byte	0xad
 662 0117 03       		.uleb128 0x3
 663 0118 72050000 		.4byte	.LASF25
 664 011c 05       		.byte	0x5
 665 011d 34       		.byte	0x34
 666 011e AD000000 		.4byte	0xad
 667 0122 03       		.uleb128 0x3
 668 0123 F1040000 		.4byte	.LASF26
 669 0127 05       		.byte	0x5
 670 0128 35       		.byte	0x35
 671 0129 AD000000 		.4byte	0xad
 672 012d 03       		.uleb128 0x3
 673 012e 69040000 		.4byte	.LASF27
 674 0132 06       		.byte	0x6
 675 0133 2A       		.byte	0x2a
 676 0134 38010000 		.4byte	0x138
 677 0138 05       		.uleb128 0x5
 678 0139 69040000 		.4byte	.LASF27
 679 013d 48       		.byte	0x48
 680 013e 07       		.byte	0x7
 681 013f 5E       		.byte	0x5e
 682 0140 35020000 		.4byte	0x235
 683 0144 06       		.uleb128 0x6
 684 0145 44040000 		.4byte	.LASF28
ARM GAS  /tmp/cctbMVK7.s 			page 13


 685 0149 07       		.byte	0x7
 686 014a 5F       		.byte	0x5f
 687 014b 56020000 		.4byte	0x256
 688 014f 00       		.byte	0
 689 0150 06       		.uleb128 0x6
 690 0151 A0030000 		.4byte	.LASF29
 691 0155 07       		.byte	0x7
 692 0156 61       		.byte	0x61
 693 0157 56020000 		.4byte	0x256
 694 015b 04       		.byte	0x4
 695 015c 06       		.uleb128 0x6
 696 015d 32030000 		.4byte	.LASF30
 697 0161 07       		.byte	0x7
 698 0162 63       		.byte	0x63
 699 0163 F6000000 		.4byte	0xf6
 700 0167 08       		.byte	0x8
 701 0168 06       		.uleb128 0x6
 702 0169 0B060000 		.4byte	.LASF31
 703 016d 07       		.byte	0x7
 704 016e 64       		.byte	0x64
 705 016f 06030000 		.4byte	0x306
 706 0173 0C       		.byte	0xc
 707 0174 06       		.uleb128 0x6
 708 0175 1B010000 		.4byte	.LASF32
 709 0179 07       		.byte	0x7
 710 017a 66       		.byte	0x66
 711 017b 56020000 		.4byte	0x256
 712 017f 10       		.byte	0x10
 713 0180 06       		.uleb128 0x6
 714 0181 41030000 		.4byte	.LASF33
 715 0185 07       		.byte	0x7
 716 0186 67       		.byte	0x67
 717 0187 56020000 		.4byte	0x256
 718 018b 14       		.byte	0x14
 719 018c 06       		.uleb128 0x6
 720 018d 84050000 		.4byte	.LASF34
 721 0191 07       		.byte	0x7
 722 0192 6E       		.byte	0x6e
 723 0193 1F040000 		.4byte	0x41f
 724 0197 18       		.byte	0x18
 725 0198 06       		.uleb128 0x6
 726 0199 17040000 		.4byte	.LASF35
 727 019d 07       		.byte	0x7
 728 019e 79       		.byte	0x79
 729 019f D5000000 		.4byte	0xd5
 730 01a3 1C       		.byte	0x1c
 731 01a4 06       		.uleb128 0x6
 732 01a5 4B040000 		.4byte	.LASF36
 733 01a9 07       		.byte	0x7
 734 01aa 7D       		.byte	0x7d
 735 01ab CA000000 		.4byte	0xca
 736 01af 1D       		.byte	0x1d
 737 01b0 06       		.uleb128 0x6
 738 01b1 E7000000 		.4byte	.LASF37
 739 01b5 07       		.byte	0x7
 740 01b6 82       		.byte	0x82
 741 01b7 E0000000 		.4byte	0xe0
ARM GAS  /tmp/cctbMVK7.s 			page 14


 742 01bb 1E       		.byte	0x1e
 743 01bc 06       		.uleb128 0x6
 744 01bd 33040000 		.4byte	.LASF38
 745 01c1 07       		.byte	0x7
 746 01c2 88       		.byte	0x88
 747 01c3 EB000000 		.4byte	0xeb
 748 01c7 1F       		.byte	0x1f
 749 01c8 06       		.uleb128 0x6
 750 01c9 89010000 		.4byte	.LASF39
 751 01cd 07       		.byte	0x7
 752 01ce 8F       		.byte	0x8f
 753 01cf 31030000 		.4byte	0x331
 754 01d3 20       		.byte	0x20
 755 01d4 07       		.uleb128 0x7
 756 01d5 705F7500 		.ascii	"p_u\000"
 757 01d9 07       		.byte	0x7
 758 01da B4       		.byte	0xb4
 759 01db EA030000 		.4byte	0x3ea
 760 01df 24       		.byte	0x24
 761 01e0 06       		.uleb128 0x6
 762 01e1 11060000 		.4byte	.LASF40
 763 01e5 07       		.byte	0x7
 764 01e6 B9       		.byte	0xb9
 765 01e7 7C020000 		.4byte	0x27c
 766 01eb 28       		.byte	0x28
 767 01ec 06       		.uleb128 0x6
 768 01ed 9F010000 		.4byte	.LASF41
 769 01f1 07       		.byte	0x7
 770 01f2 BF       		.byte	0xbf
 771 01f3 5C020000 		.4byte	0x25c
 772 01f7 2C       		.byte	0x2c
 773 01f8 06       		.uleb128 0x6
 774 01f9 D9050000 		.4byte	.LASF42
 775 01fd 07       		.byte	0x7
 776 01fe C3       		.byte	0xc3
 777 01ff 01010000 		.4byte	0x101
 778 0203 34       		.byte	0x34
 779 0204 06       		.uleb128 0x6
 780 0205 70040000 		.4byte	.LASF43
 781 0209 07       		.byte	0x7
 782 020a C9       		.byte	0xc9
 783 020b 0C010000 		.4byte	0x10c
 784 020f 38       		.byte	0x38
 785 0210 06       		.uleb128 0x6
 786 0211 1F040000 		.4byte	.LASF44
 787 0215 07       		.byte	0x7
 788 0216 D0       		.byte	0xd0
 789 0217 31040000 		.4byte	0x431
 790 021b 3C       		.byte	0x3c
 791 021c 06       		.uleb128 0x6
 792 021d FB040000 		.4byte	.LASF45
 793 0221 07       		.byte	0x7
 794 0222 D4       		.byte	0xd4
 795 0223 F6000000 		.4byte	0xf6
 796 0227 40       		.byte	0x40
 797 0228 06       		.uleb128 0x6
 798 0229 A5000000 		.4byte	.LASF46
ARM GAS  /tmp/cctbMVK7.s 			page 15


 799 022d 07       		.byte	0x7
 800 022e DA       		.byte	0xda
 801 022f 92020000 		.4byte	0x292
 802 0233 44       		.byte	0x44
 803 0234 00       		.byte	0
 804 0235 08       		.uleb128 0x8
 805 0236 08       		.byte	0x8
 806 0237 06       		.byte	0x6
 807 0238 61       		.byte	0x61
 808 0239 56020000 		.4byte	0x256
 809 023d 06       		.uleb128 0x6
 810 023e 44040000 		.4byte	.LASF28
 811 0242 06       		.byte	0x6
 812 0243 62       		.byte	0x62
 813 0244 56020000 		.4byte	0x256
 814 0248 00       		.byte	0
 815 0249 06       		.uleb128 0x6
 816 024a A0030000 		.4byte	.LASF29
 817 024e 06       		.byte	0x6
 818 024f 64       		.byte	0x64
 819 0250 56020000 		.4byte	0x256
 820 0254 04       		.byte	0x4
 821 0255 00       		.byte	0
 822 0256 09       		.uleb128 0x9
 823 0257 04       		.byte	0x4
 824 0258 2D010000 		.4byte	0x12d
 825 025c 03       		.uleb128 0x3
 826 025d 52030000 		.4byte	.LASF47
 827 0261 06       		.byte	0x6
 828 0262 66       		.byte	0x66
 829 0263 35020000 		.4byte	0x235
 830 0267 08       		.uleb128 0x8
 831 0268 04       		.byte	0x4
 832 0269 06       		.byte	0x6
 833 026a 6B       		.byte	0x6b
 834 026b 7C020000 		.4byte	0x27c
 835 026f 06       		.uleb128 0x6
 836 0270 44040000 		.4byte	.LASF28
 837 0274 06       		.byte	0x6
 838 0275 6D       		.byte	0x6d
 839 0276 56020000 		.4byte	0x256
 840 027a 00       		.byte	0
 841 027b 00       		.byte	0
 842 027c 03       		.uleb128 0x3
 843 027d F2010000 		.4byte	.LASF48
 844 0281 06       		.byte	0x6
 845 0282 70       		.byte	0x70
 846 0283 67020000 		.4byte	0x267
 847 0287 03       		.uleb128 0x3
 848 0288 3F010000 		.4byte	.LASF49
 849 028c 08       		.byte	0x8
 850 028d A7       		.byte	0xa7
 851 028e 92020000 		.4byte	0x292
 852 0292 0A       		.uleb128 0xa
 853 0293 04       		.byte	0x4
 854 0294 05       		.uleb128 0x5
 855 0295 62050000 		.4byte	.LASF50
ARM GAS  /tmp/cctbMVK7.s 			page 16


 856 0299 24       		.byte	0x24
 857 029a 08       		.byte	0x8
 858 029b BA       		.byte	0xba
 859 029c 06030000 		.4byte	0x306
 860 02a0 07       		.uleb128 0x7
 861 02a1 723800   		.ascii	"r8\000"
 862 02a4 08       		.byte	0x8
 863 02a5 BB       		.byte	0xbb
 864 02a6 87020000 		.4byte	0x287
 865 02aa 00       		.byte	0
 866 02ab 07       		.uleb128 0x7
 867 02ac 723900   		.ascii	"r9\000"
 868 02af 08       		.byte	0x8
 869 02b0 BC       		.byte	0xbc
 870 02b1 87020000 		.4byte	0x287
 871 02b5 04       		.byte	0x4
 872 02b6 07       		.uleb128 0x7
 873 02b7 72313000 		.ascii	"r10\000"
 874 02bb 08       		.byte	0x8
 875 02bc BD       		.byte	0xbd
 876 02bd 87020000 		.4byte	0x287
 877 02c1 08       		.byte	0x8
 878 02c2 07       		.uleb128 0x7
 879 02c3 72313100 		.ascii	"r11\000"
 880 02c7 08       		.byte	0x8
 881 02c8 BE       		.byte	0xbe
 882 02c9 87020000 		.4byte	0x287
 883 02cd 0C       		.byte	0xc
 884 02ce 07       		.uleb128 0x7
 885 02cf 723400   		.ascii	"r4\000"
 886 02d2 08       		.byte	0x8
 887 02d3 BF       		.byte	0xbf
 888 02d4 87020000 		.4byte	0x287
 889 02d8 10       		.byte	0x10
 890 02d9 07       		.uleb128 0x7
 891 02da 723500   		.ascii	"r5\000"
 892 02dd 08       		.byte	0x8
 893 02de C0       		.byte	0xc0
 894 02df 87020000 		.4byte	0x287
 895 02e3 14       		.byte	0x14
 896 02e4 07       		.uleb128 0x7
 897 02e5 723600   		.ascii	"r6\000"
 898 02e8 08       		.byte	0x8
 899 02e9 C1       		.byte	0xc1
 900 02ea 87020000 		.4byte	0x287
 901 02ee 18       		.byte	0x18
 902 02ef 07       		.uleb128 0x7
 903 02f0 723700   		.ascii	"r7\000"
 904 02f3 08       		.byte	0x8
 905 02f4 C2       		.byte	0xc2
 906 02f5 87020000 		.4byte	0x287
 907 02f9 1C       		.byte	0x1c
 908 02fa 07       		.uleb128 0x7
 909 02fb 6C7200   		.ascii	"lr\000"
 910 02fe 08       		.byte	0x8
 911 02ff C3       		.byte	0xc3
 912 0300 87020000 		.4byte	0x287
ARM GAS  /tmp/cctbMVK7.s 			page 17


 913 0304 20       		.byte	0x20
 914 0305 00       		.byte	0
 915 0306 05       		.uleb128 0x5
 916 0307 3B050000 		.4byte	.LASF51
 917 030b 04       		.byte	0x4
 918 030c 08       		.byte	0x8
 919 030d CD       		.byte	0xcd
 920 030e 1F030000 		.4byte	0x31f
 921 0312 07       		.uleb128 0x7
 922 0313 72313300 		.ascii	"r13\000"
 923 0317 08       		.byte	0x8
 924 0318 CE       		.byte	0xce
 925 0319 1F030000 		.4byte	0x31f
 926 031d 00       		.byte	0
 927 031e 00       		.byte	0
 928 031f 09       		.uleb128 0x9
 929 0320 04       		.byte	0x4
 930 0321 94020000 		.4byte	0x294
 931 0325 0B       		.uleb128 0xb
 932 0326 AD000000 		.4byte	0xad
 933 032a 04       		.uleb128 0x4
 934 032b 04       		.byte	0x4
 935 032c 07       		.byte	0x7
 936 032d 19030000 		.4byte	.LASF52
 937 0331 0B       		.uleb128 0xb
 938 0332 22010000 		.4byte	0x122
 939 0336 05       		.uleb128 0x5
 940 0337 2C030000 		.4byte	.LASF53
 941 033b 10       		.byte	0x10
 942 033c 09       		.byte	0x9
 943 033d 2C       		.byte	0x2c
 944 033e 67030000 		.4byte	0x367
 945 0342 06       		.uleb128 0x6
 946 0343 B4000000 		.4byte	.LASF54
 947 0347 09       		.byte	0x9
 948 0348 2D       		.byte	0x2d
 949 0349 5C020000 		.4byte	0x25c
 950 034d 00       		.byte	0
 951 034e 06       		.uleb128 0x6
 952 034f 03060000 		.4byte	.LASF55
 953 0353 09       		.byte	0x9
 954 0354 2F       		.byte	0x2f
 955 0355 56020000 		.4byte	0x256
 956 0359 08       		.byte	0x8
 957 035a 06       		.uleb128 0x6
 958 035b EA040000 		.4byte	.LASF56
 959 035f 09       		.byte	0x9
 960 0360 31       		.byte	0x31
 961 0361 67030000 		.4byte	0x367
 962 0365 0C       		.byte	0xc
 963 0366 00       		.byte	0
 964 0367 09       		.uleb128 0x9
 965 0368 04       		.byte	0x4
 966 0369 36030000 		.4byte	0x336
 967 036d 03       		.uleb128 0x3
 968 036e 2C030000 		.4byte	.LASF53
 969 0372 09       		.byte	0x9
ARM GAS  /tmp/cctbMVK7.s 			page 18


 970 0373 33       		.byte	0x33
 971 0374 36030000 		.4byte	0x336
 972 0378 03       		.uleb128 0x3
 973 0379 BB050000 		.4byte	.LASF57
 974 037d 0A       		.byte	0xa
 975 037e 2C       		.byte	0x2c
 976 037f 83030000 		.4byte	0x383
 977 0383 05       		.uleb128 0x5
 978 0384 BB050000 		.4byte	.LASF57
 979 0388 10       		.byte	0x10
 980 0389 0A       		.byte	0xa
 981 038a 31       		.byte	0x31
 982 038b C0030000 		.4byte	0x3c0
 983 038f 06       		.uleb128 0x6
 984 0390 DB010000 		.4byte	.LASF58
 985 0394 0A       		.byte	0xa
 986 0395 32       		.byte	0x32
 987 0396 C0030000 		.4byte	0x3c0
 988 039a 00       		.byte	0
 989 039b 06       		.uleb128 0x6
 990 039c 02040000 		.4byte	.LASF59
 991 03a0 0A       		.byte	0xa
 992 03a1 35       		.byte	0x35
 993 03a2 56020000 		.4byte	0x256
 994 03a6 04       		.byte	0x4
 995 03a7 06       		.uleb128 0x6
 996 03a8 39030000 		.4byte	.LASF60
 997 03ac 0A       		.byte	0xa
 998 03ad 37       		.byte	0x37
 999 03ae 0C010000 		.4byte	0x10c
 1000 03b2 08       		.byte	0x8
 1001 03b3 06       		.uleb128 0x6
 1002 03b4 0E040000 		.4byte	.LASF61
 1003 03b8 0A       		.byte	0xa
 1004 03b9 3A       		.byte	0x3a
 1005 03ba 17010000 		.4byte	0x117
 1006 03be 0C       		.byte	0xc
 1007 03bf 00       		.byte	0
 1008 03c0 09       		.uleb128 0x9
 1009 03c1 04       		.byte	0x4
 1010 03c2 78030000 		.4byte	0x378
 1011 03c6 05       		.uleb128 0x5
 1012 03c7 60010000 		.4byte	.LASF62
 1013 03cb 04       		.byte	0x4
 1014 03cc 0A       		.byte	0xa
 1015 03cd 41       		.byte	0x41
 1016 03ce DF030000 		.4byte	0x3df
 1017 03d2 06       		.uleb128 0x6
 1018 03d3 8B050000 		.4byte	.LASF63
 1019 03d7 0A       		.byte	0xa
 1020 03d8 42       		.byte	0x42
 1021 03d9 C0030000 		.4byte	0x3c0
 1022 03dd 00       		.byte	0
 1023 03de 00       		.byte	0
 1024 03df 03       		.uleb128 0x3
 1025 03e0 60010000 		.4byte	.LASF62
 1026 03e4 0A       		.byte	0xa
ARM GAS  /tmp/cctbMVK7.s 			page 19


 1027 03e5 45       		.byte	0x45
 1028 03e6 C6030000 		.4byte	0x3c6
 1029 03ea 0C       		.uleb128 0xc
 1030 03eb 04       		.byte	0x4
 1031 03ec 07       		.byte	0x7
 1032 03ed 96       		.byte	0x96
 1033 03ee 1F040000 		.4byte	0x41f
 1034 03f2 0D       		.uleb128 0xd
 1035 03f3 07000000 		.4byte	.LASF64
 1036 03f7 07       		.byte	0x7
 1037 03f8 9D       		.byte	0x9d
 1038 03f9 01010000 		.4byte	0x101
 1039 03fd 0D       		.uleb128 0xd
 1040 03fe 5F000000 		.4byte	.LASF65
 1041 0402 07       		.byte	0x7
 1042 0403 A4       		.byte	0xa4
 1043 0404 01010000 		.4byte	0x101
 1044 0408 0D       		.uleb128 0xd
 1045 0409 D2050000 		.4byte	.LASF66
 1046 040d 07       		.byte	0x7
 1047 040e AB       		.byte	0xab
 1048 040f 92020000 		.4byte	0x292
 1049 0413 0D       		.uleb128 0xd
 1050 0414 3D040000 		.4byte	.LASF67
 1051 0418 07       		.byte	0x7
 1052 0419 B2       		.byte	0xb2
 1053 041a 0C010000 		.4byte	0x10c
 1054 041e 00       		.byte	0
 1055 041f 09       		.uleb128 0x9
 1056 0420 04       		.byte	0x4
 1057 0421 25040000 		.4byte	0x425
 1058 0425 0E       		.uleb128 0xe
 1059 0426 2A040000 		.4byte	0x42a
 1060 042a 04       		.uleb128 0x4
 1061 042b 01       		.byte	0x1
 1062 042c 08       		.byte	0x8
 1063 042d BC040000 		.4byte	.LASF68
 1064 0431 09       		.uleb128 0x9
 1065 0432 04       		.byte	0x4
 1066 0433 6D030000 		.4byte	0x36d
 1067 0437 09       		.uleb128 0x9
 1068 0438 04       		.byte	0x4
 1069 0439 3D040000 		.4byte	0x43d
 1070 043d 0F       		.uleb128 0xf
 1071 043e 01010000 		.4byte	0x101
 1072 0442 4C040000 		.4byte	0x44c
 1073 0446 10       		.uleb128 0x10
 1074 0447 92020000 		.4byte	0x292
 1075 044b 00       		.byte	0
 1076 044c 03       		.uleb128 0x3
 1077 044d E4020000 		.4byte	.LASF69
 1078 0451 0B       		.byte	0xb
 1079 0452 37       		.byte	0x37
 1080 0453 57040000 		.4byte	0x457
 1081 0457 05       		.uleb128 0x5
 1082 0458 E4020000 		.4byte	.LASF69
 1083 045c 24       		.byte	0x24
ARM GAS  /tmp/cctbMVK7.s 			page 20


 1084 045d 0B       		.byte	0xb
 1085 045e 45       		.byte	0x45
 1086 045f C4040000 		.4byte	0x4c4
 1087 0463 06       		.uleb128 0x6
 1088 0464 81000000 		.4byte	.LASF70
 1089 0468 0B       		.byte	0xb
 1090 0469 46       		.byte	0x46
 1091 046a 5C020000 		.4byte	0x25c
 1092 046e 00       		.byte	0
 1093 046f 06       		.uleb128 0x6
 1094 0470 22030000 		.4byte	.LASF71
 1095 0474 0B       		.byte	0xb
 1096 0475 47       		.byte	0x47
 1097 0476 2C000000 		.4byte	0x2c
 1098 047a 08       		.byte	0x8
 1099 047b 06       		.uleb128 0x6
 1100 047c EE000000 		.4byte	.LASF72
 1101 0480 0B       		.byte	0xb
 1102 0481 48       		.byte	0x48
 1103 0482 E6040000 		.4byte	0x4e6
 1104 0486 0C       		.byte	0xc
 1105 0487 06       		.uleb128 0x6
 1106 0488 7E050000 		.4byte	.LASF73
 1107 048c 0B       		.byte	0xb
 1108 048d 49       		.byte	0x49
 1109 048e E6040000 		.4byte	0x4e6
 1110 0492 10       		.byte	0x10
 1111 0493 06       		.uleb128 0x6
 1112 0494 F7000000 		.4byte	.LASF74
 1113 0498 0B       		.byte	0xb
 1114 0499 4B       		.byte	0x4b
 1115 049a E6040000 		.4byte	0x4e6
 1116 049e 14       		.byte	0x14
 1117 049f 06       		.uleb128 0x6
 1118 04a0 AF030000 		.4byte	.LASF75
 1119 04a4 0B       		.byte	0xb
 1120 04a5 4C       		.byte	0x4c
 1121 04a6 E6040000 		.4byte	0x4e6
 1122 04aa 18       		.byte	0x18
 1123 04ab 06       		.uleb128 0x6
 1124 04ac 93050000 		.4byte	.LASF76
 1125 04b0 0B       		.byte	0xb
 1126 04b1 4D       		.byte	0x4d
 1127 04b2 C4040000 		.4byte	0x4c4
 1128 04b6 1C       		.byte	0x1c
 1129 04b7 06       		.uleb128 0x6
 1130 04b8 FF000000 		.4byte	.LASF77
 1131 04bc 0B       		.byte	0xb
 1132 04bd 4E       		.byte	0x4e
 1133 04be 92020000 		.4byte	0x292
 1134 04c2 20       		.byte	0x20
 1135 04c3 00       		.byte	0
 1136 04c4 03       		.uleb128 0x3
 1137 04c5 DA020000 		.4byte	.LASF78
 1138 04c9 0B       		.byte	0xb
 1139 04ca 3A       		.byte	0x3a
 1140 04cb CF040000 		.4byte	0x4cf
ARM GAS  /tmp/cctbMVK7.s 			page 21


 1141 04cf 09       		.uleb128 0x9
 1142 04d0 04       		.byte	0x4
 1143 04d1 D5040000 		.4byte	0x4d5
 1144 04d5 11       		.uleb128 0x11
 1145 04d6 E0040000 		.4byte	0x4e0
 1146 04da 10       		.uleb128 0x10
 1147 04db E0040000 		.4byte	0x4e0
 1148 04df 00       		.byte	0
 1149 04e0 09       		.uleb128 0x9
 1150 04e1 04       		.byte	0x4
 1151 04e2 4C040000 		.4byte	0x44c
 1152 04e6 09       		.uleb128 0x9
 1153 04e7 04       		.byte	0x4
 1154 04e8 97000000 		.4byte	0x97
 1155 04ec 03       		.uleb128 0x3
 1156 04ed 0A020000 		.4byte	.LASF79
 1157 04f1 0B       		.byte	0xb
 1158 04f2 82       		.byte	0x82
 1159 04f3 4C040000 		.4byte	0x44c
 1160 04f7 03       		.uleb128 0x3
 1161 04f8 0E000000 		.4byte	.LASF80
 1162 04fc 0B       		.byte	0xb
 1163 04fd F5       		.byte	0xf5
 1164 04fe 4C040000 		.4byte	0x44c
 1165 0502 0F       		.uleb128 0xf
 1166 0503 2C000000 		.4byte	0x2c
 1167 0507 1B050000 		.4byte	0x51b
 1168 050b 10       		.uleb128 0x10
 1169 050c 92020000 		.4byte	0x292
 1170 0510 10       		.uleb128 0x10
 1171 0511 1B050000 		.4byte	0x51b
 1172 0515 10       		.uleb128 0x10
 1173 0516 2C000000 		.4byte	0x2c
 1174 051a 00       		.byte	0
 1175 051b 09       		.uleb128 0x9
 1176 051c 04       		.byte	0x4
 1177 051d 21050000 		.4byte	0x521
 1178 0521 0E       		.uleb128 0xe
 1179 0522 97000000 		.4byte	0x97
 1180 0526 09       		.uleb128 0x9
 1181 0527 04       		.byte	0x4
 1182 0528 02050000 		.4byte	0x502
 1183 052c 0F       		.uleb128 0xf
 1184 052d 2C000000 		.4byte	0x2c
 1185 0531 45050000 		.4byte	0x545
 1186 0535 10       		.uleb128 0x10
 1187 0536 92020000 		.4byte	0x292
 1188 053a 10       		.uleb128 0x10
 1189 053b E6040000 		.4byte	0x4e6
 1190 053f 10       		.uleb128 0x10
 1191 0540 2C000000 		.4byte	0x2c
 1192 0544 00       		.byte	0
 1193 0545 09       		.uleb128 0x9
 1194 0546 04       		.byte	0x4
 1195 0547 2C050000 		.4byte	0x52c
 1196 054b 0F       		.uleb128 0xf
 1197 054c 01010000 		.4byte	0x101
ARM GAS  /tmp/cctbMVK7.s 			page 22


 1198 0550 5F050000 		.4byte	0x55f
 1199 0554 10       		.uleb128 0x10
 1200 0555 92020000 		.4byte	0x292
 1201 0559 10       		.uleb128 0x10
 1202 055a 97000000 		.4byte	0x97
 1203 055e 00       		.byte	0
 1204 055f 09       		.uleb128 0x9
 1205 0560 04       		.byte	0x4
 1206 0561 4B050000 		.4byte	0x54b
 1207 0565 0E       		.uleb128 0xe
 1208 0566 25030000 		.4byte	0x325
 1209 056a 0C       		.uleb128 0xc
 1210 056b 04       		.byte	0x4
 1211 056c 0C       		.byte	0xc
 1212 056d AE       		.byte	0xae
 1213 056e 94050000 		.4byte	0x594
 1214 0572 12       		.uleb128 0x12
 1215 0573 444C4C00 		.ascii	"DLL\000"
 1216 0577 0C       		.byte	0xc
 1217 0578 AF       		.byte	0xaf
 1218 0579 25030000 		.4byte	0x325
 1219 057d 12       		.uleb128 0x12
 1220 057e 54485200 		.ascii	"THR\000"
 1221 0582 0C       		.byte	0xc
 1222 0583 B0       		.byte	0xb0
 1223 0584 25030000 		.4byte	0x325
 1224 0588 12       		.uleb128 0x12
 1225 0589 52425200 		.ascii	"RBR\000"
 1226 058d 0C       		.byte	0xc
 1227 058e B1       		.byte	0xb1
 1228 058f 65050000 		.4byte	0x565
 1229 0593 00       		.byte	0
 1230 0594 0C       		.uleb128 0xc
 1231 0595 04       		.byte	0x4
 1232 0596 0C       		.byte	0xc
 1233 0597 B4       		.byte	0xb4
 1234 0598 B3050000 		.4byte	0x5b3
 1235 059c 12       		.uleb128 0x12
 1236 059d 49455200 		.ascii	"IER\000"
 1237 05a1 0C       		.byte	0xc
 1238 05a2 B5       		.byte	0xb5
 1239 05a3 25030000 		.4byte	0x325
 1240 05a7 12       		.uleb128 0x12
 1241 05a8 444C4D00 		.ascii	"DLM\000"
 1242 05ac 0C       		.byte	0xc
 1243 05ad B6       		.byte	0xb6
 1244 05ae 25030000 		.4byte	0x325
 1245 05b2 00       		.byte	0
 1246 05b3 0C       		.uleb128 0xc
 1247 05b4 04       		.byte	0x4
 1248 05b5 0C       		.byte	0xc
 1249 05b6 B9       		.byte	0xb9
 1250 05b7 D2050000 		.4byte	0x5d2
 1251 05bb 12       		.uleb128 0x12
 1252 05bc 46435200 		.ascii	"FCR\000"
 1253 05c0 0C       		.byte	0xc
 1254 05c1 BA       		.byte	0xba
ARM GAS  /tmp/cctbMVK7.s 			page 23


 1255 05c2 25030000 		.4byte	0x325
 1256 05c6 12       		.uleb128 0x12
 1257 05c7 49495200 		.ascii	"IIR\000"
 1258 05cb 0C       		.byte	0xc
 1259 05cc BB       		.byte	0xbb
 1260 05cd 65050000 		.4byte	0x565
 1261 05d1 00       		.byte	0
 1262 05d2 08       		.uleb128 0x8
 1263 05d3 5C       		.byte	0x5c
 1264 05d4 0C       		.byte	0xc
 1265 05d5 AC       		.byte	0xac
 1266 05d6 C5060000 		.4byte	0x6c5
 1267 05da 13       		.uleb128 0x13
 1268 05db 6A050000 		.4byte	0x56a
 1269 05df 00       		.byte	0
 1270 05e0 13       		.uleb128 0x13
 1271 05e1 94050000 		.4byte	0x594
 1272 05e5 04       		.byte	0x4
 1273 05e6 13       		.uleb128 0x13
 1274 05e7 B3050000 		.4byte	0x5b3
 1275 05eb 08       		.byte	0x8
 1276 05ec 07       		.uleb128 0x7
 1277 05ed 4C435200 		.ascii	"LCR\000"
 1278 05f1 0C       		.byte	0xc
 1279 05f2 BD       		.byte	0xbd
 1280 05f3 25030000 		.4byte	0x325
 1281 05f7 0C       		.byte	0xc
 1282 05f8 07       		.uleb128 0x7
 1283 05f9 4D435200 		.ascii	"MCR\000"
 1284 05fd 0C       		.byte	0xc
 1285 05fe BE       		.byte	0xbe
 1286 05ff 25030000 		.4byte	0x325
 1287 0603 10       		.byte	0x10
 1288 0604 07       		.uleb128 0x7
 1289 0605 4C535200 		.ascii	"LSR\000"
 1290 0609 0C       		.byte	0xc
 1291 060a BF       		.byte	0xbf
 1292 060b 65050000 		.4byte	0x565
 1293 060f 14       		.byte	0x14
 1294 0610 07       		.uleb128 0x7
 1295 0611 4D535200 		.ascii	"MSR\000"
 1296 0615 0C       		.byte	0xc
 1297 0616 C0       		.byte	0xc0
 1298 0617 65050000 		.4byte	0x565
 1299 061b 18       		.byte	0x18
 1300 061c 07       		.uleb128 0x7
 1301 061d 53435200 		.ascii	"SCR\000"
 1302 0621 0C       		.byte	0xc
 1303 0622 C1       		.byte	0xc1
 1304 0623 25030000 		.4byte	0x325
 1305 0627 1C       		.byte	0x1c
 1306 0628 07       		.uleb128 0x7
 1307 0629 41435200 		.ascii	"ACR\000"
 1308 062d 0C       		.byte	0xc
 1309 062e C2       		.byte	0xc2
 1310 062f 25030000 		.4byte	0x325
 1311 0633 20       		.byte	0x20
ARM GAS  /tmp/cctbMVK7.s 			page 24


 1312 0634 07       		.uleb128 0x7
 1313 0635 49435200 		.ascii	"ICR\000"
 1314 0639 0C       		.byte	0xc
 1315 063a C3       		.byte	0xc3
 1316 063b 25030000 		.4byte	0x325
 1317 063f 24       		.byte	0x24
 1318 0640 07       		.uleb128 0x7
 1319 0641 46445200 		.ascii	"FDR\000"
 1320 0645 0C       		.byte	0xc
 1321 0646 C4       		.byte	0xc4
 1322 0647 25030000 		.4byte	0x325
 1323 064b 28       		.byte	0x28
 1324 064c 07       		.uleb128 0x7
 1325 064d 4F535200 		.ascii	"OSR\000"
 1326 0651 0C       		.byte	0xc
 1327 0652 C5       		.byte	0xc5
 1328 0653 25030000 		.4byte	0x325
 1329 0657 2C       		.byte	0x2c
 1330 0658 07       		.uleb128 0x7
 1331 0659 54455200 		.ascii	"TER\000"
 1332 065d 0C       		.byte	0xc
 1333 065e C6       		.byte	0xc6
 1334 065f 25030000 		.4byte	0x325
 1335 0663 30       		.byte	0x30
 1336 0664 06       		.uleb128 0x6
 1337 0665 8C030000 		.4byte	.LASF81
 1338 0669 0C       		.byte	0xc
 1339 066a C7       		.byte	0xc7
 1340 066b D5060000 		.4byte	0x6d5
 1341 066f 34       		.byte	0x34
 1342 0670 06       		.uleb128 0x6
 1343 0671 08030000 		.4byte	.LASF82
 1344 0675 0C       		.byte	0xc
 1345 0676 C8       		.byte	0xc8
 1346 0677 25030000 		.4byte	0x325
 1347 067b 40       		.byte	0x40
 1348 067c 06       		.uleb128 0x6
 1349 067d 96030000 		.4byte	.LASF83
 1350 0681 0C       		.byte	0xc
 1351 0682 C9       		.byte	0xc9
 1352 0683 65050000 		.4byte	0x565
 1353 0687 44       		.byte	0x44
 1354 0688 06       		.uleb128 0x6
 1355 0689 28050000 		.4byte	.LASF84
 1356 068d 0C       		.byte	0xc
 1357 068e CA       		.byte	0xca
 1358 068f 25030000 		.4byte	0x325
 1359 0693 48       		.byte	0x48
 1360 0694 06       		.uleb128 0x6
 1361 0695 E0040000 		.4byte	.LASF85
 1362 0699 0C       		.byte	0xc
 1363 069a CB       		.byte	0xcb
 1364 069b 25030000 		.4byte	0x325
 1365 069f 4C       		.byte	0x4c
 1366 06a0 06       		.uleb128 0x6
 1367 06a1 53040000 		.4byte	.LASF86
 1368 06a5 0C       		.byte	0xc
ARM GAS  /tmp/cctbMVK7.s 			page 25


 1369 06a6 CC       		.byte	0xcc
 1370 06a7 25030000 		.4byte	0x325
 1371 06ab 50       		.byte	0x50
 1372 06ac 06       		.uleb128 0x6
 1373 06ad C9050000 		.4byte	.LASF87
 1374 06b1 0C       		.byte	0xc
 1375 06b2 CD       		.byte	0xcd
 1376 06b3 25030000 		.4byte	0x325
 1377 06b7 54       		.byte	0x54
 1378 06b8 06       		.uleb128 0x6
 1379 06b9 49030000 		.4byte	.LASF88
 1380 06bd 0C       		.byte	0xc
 1381 06be CE       		.byte	0xce
 1382 06bf 25030000 		.4byte	0x325
 1383 06c3 58       		.byte	0x58
 1384 06c4 00       		.byte	0
 1385 06c5 14       		.uleb128 0x14
 1386 06c6 AD000000 		.4byte	0xad
 1387 06ca D5060000 		.4byte	0x6d5
 1388 06ce 15       		.uleb128 0x15
 1389 06cf 2A030000 		.4byte	0x32a
 1390 06d3 02       		.byte	0x2
 1391 06d4 00       		.byte	0
 1392 06d5 0E       		.uleb128 0xe
 1393 06d6 DA060000 		.4byte	0x6da
 1394 06da 0B       		.uleb128 0xb
 1395 06db C5060000 		.4byte	0x6c5
 1396 06df 03       		.uleb128 0x3
 1397 06e0 10050000 		.4byte	.LASF89
 1398 06e4 0C       		.byte	0xc
 1399 06e5 CF       		.byte	0xcf
 1400 06e6 D2050000 		.4byte	0x5d2
 1401 06ea 0F       		.uleb128 0xf
 1402 06eb 01010000 		.4byte	0x101
 1403 06ef 03070000 		.4byte	0x703
 1404 06f3 10       		.uleb128 0x10
 1405 06f4 92020000 		.4byte	0x292
 1406 06f8 10       		.uleb128 0x10
 1407 06f9 97000000 		.4byte	0x97
 1408 06fd 10       		.uleb128 0x10
 1409 06fe 22010000 		.4byte	0x122
 1410 0702 00       		.byte	0
 1411 0703 09       		.uleb128 0x9
 1412 0704 04       		.byte	0x4
 1413 0705 EA060000 		.4byte	0x6ea
 1414 0709 0F       		.uleb128 0xf
 1415 070a 01010000 		.4byte	0x101
 1416 070e 1D070000 		.4byte	0x71d
 1417 0712 10       		.uleb128 0x10
 1418 0713 92020000 		.4byte	0x292
 1419 0717 10       		.uleb128 0x10
 1420 0718 22010000 		.4byte	0x122
 1421 071c 00       		.byte	0
 1422 071d 09       		.uleb128 0x9
 1423 071e 04       		.byte	0x4
 1424 071f 09070000 		.4byte	0x709
 1425 0723 0F       		.uleb128 0xf
ARM GAS  /tmp/cctbMVK7.s 			page 26


 1426 0724 2C000000 		.4byte	0x2c
 1427 0728 41070000 		.4byte	0x741
 1428 072c 10       		.uleb128 0x10
 1429 072d 92020000 		.4byte	0x292
 1430 0731 10       		.uleb128 0x10
 1431 0732 1B050000 		.4byte	0x51b
 1432 0736 10       		.uleb128 0x10
 1433 0737 2C000000 		.4byte	0x2c
 1434 073b 10       		.uleb128 0x10
 1435 073c 22010000 		.4byte	0x122
 1436 0740 00       		.byte	0
 1437 0741 09       		.uleb128 0x9
 1438 0742 04       		.byte	0x4
 1439 0743 23070000 		.4byte	0x723
 1440 0747 0F       		.uleb128 0xf
 1441 0748 2C000000 		.4byte	0x2c
 1442 074c 65070000 		.4byte	0x765
 1443 0750 10       		.uleb128 0x10
 1444 0751 92020000 		.4byte	0x292
 1445 0755 10       		.uleb128 0x10
 1446 0756 E6040000 		.4byte	0x4e6
 1447 075a 10       		.uleb128 0x10
 1448 075b 2C000000 		.4byte	0x2c
 1449 075f 10       		.uleb128 0x10
 1450 0760 22010000 		.4byte	0x122
 1451 0764 00       		.byte	0
 1452 0765 09       		.uleb128 0x9
 1453 0766 04       		.byte	0x4
 1454 0767 47070000 		.4byte	0x747
 1455 076b 16       		.uleb128 0x16
 1456 076c 01       		.byte	0x1
 1457 076d 0D       		.byte	0xd
 1458 076e 64       		.byte	0x64
 1459 076f 86070000 		.4byte	0x786
 1460 0773 17       		.uleb128 0x17
 1461 0774 7B040000 		.4byte	.LASF90
 1462 0778 00       		.sleb128 0
 1463 0779 17       		.uleb128 0x17
 1464 077a 61040000 		.4byte	.LASF91
 1465 077e 01       		.sleb128 1
 1466 077f 17       		.uleb128 0x17
 1467 0780 69050000 		.4byte	.LASF92
 1468 0784 02       		.sleb128 2
 1469 0785 00       		.byte	0
 1470 0786 03       		.uleb128 0x3
 1471 0787 8E040000 		.4byte	.LASF93
 1472 078b 0D       		.byte	0xd
 1473 078c 68       		.byte	0x68
 1474 078d 6B070000 		.4byte	0x76b
 1475 0791 03       		.uleb128 0x3
 1476 0792 98040000 		.4byte	.LASF94
 1477 0796 0D       		.byte	0xd
 1478 0797 6D       		.byte	0x6d
 1479 0798 9C070000 		.4byte	0x79c
 1480 079c 05       		.uleb128 0x5
 1481 079d 98040000 		.4byte	.LASF94
 1482 07a1 78       		.byte	0x78
ARM GAS  /tmp/cctbMVK7.s 			page 27


 1483 07a2 0D       		.byte	0xd
 1484 07a3 87       		.byte	0x87
 1485 07a4 07080000 		.4byte	0x807
 1486 07a8 07       		.uleb128 0x7
 1487 07a9 766D7400 		.ascii	"vmt\000"
 1488 07ad 0D       		.byte	0xd
 1489 07ae 89       		.byte	0x89
 1490 07af AC080000 		.4byte	0x8ac
 1491 07b3 00       		.byte	0
 1492 07b4 06       		.uleb128 0x6
 1493 07b5 68000000 		.4byte	.LASF95
 1494 07b9 0D       		.byte	0xd
 1495 07ba 8A       		.byte	0x8a
 1496 07bb DF030000 		.4byte	0x3df
 1497 07bf 04       		.byte	0x4
 1498 07c0 06       		.uleb128 0x6
 1499 07c1 C6000000 		.4byte	.LASF96
 1500 07c5 0D       		.byte	0xd
 1501 07c6 8A       		.byte	0x8a
 1502 07c7 86070000 		.4byte	0x786
 1503 07cb 08       		.byte	0x8
 1504 07cc 06       		.uleb128 0x6
 1505 07cd 98010000 		.4byte	.LASF97
 1506 07d1 0D       		.byte	0xd
 1507 07d2 8A       		.byte	0x8a
 1508 07d3 EC040000 		.4byte	0x4ec
 1509 07d7 0C       		.byte	0xc
 1510 07d8 06       		.uleb128 0x6
 1511 07d9 D4010000 		.4byte	.LASF98
 1512 07dd 0D       		.byte	0xd
 1513 07de 8A       		.byte	0x8a
 1514 07df F7040000 		.4byte	0x4f7
 1515 07e3 30       		.byte	0x30
 1516 07e4 07       		.uleb128 0x7
 1517 07e5 696200   		.ascii	"ib\000"
 1518 07e8 0D       		.byte	0xd
 1519 07e9 8A       		.byte	0x8a
 1520 07ea B7080000 		.4byte	0x8b7
 1521 07ee 54       		.byte	0x54
 1522 07ef 07       		.uleb128 0x7
 1523 07f0 6F6200   		.ascii	"ob\000"
 1524 07f3 0D       		.byte	0xd
 1525 07f4 8A       		.byte	0x8a
 1526 07f5 B7080000 		.4byte	0x8b7
 1527 07f9 64       		.byte	0x64
 1528 07fa 06       		.uleb128 0x6
 1529 07fb 7F030000 		.4byte	.LASF99
 1530 07ff 0D       		.byte	0xd
 1531 0800 8A       		.byte	0x8a
 1532 0801 C7080000 		.4byte	0x8c7
 1533 0805 74       		.byte	0x74
 1534 0806 00       		.byte	0
 1535 0807 08       		.uleb128 0x8
 1536 0808 0C       		.byte	0xc
 1537 0809 0E       		.byte	0xe
 1538 080a 92       		.byte	0x92
 1539 080b 34080000 		.4byte	0x834
ARM GAS  /tmp/cctbMVK7.s 			page 28


 1540 080f 06       		.uleb128 0x6
 1541 0810 1F050000 		.4byte	.LASF100
 1542 0814 0E       		.byte	0xe
 1543 0815 96       		.byte	0x96
 1544 0816 AD000000 		.4byte	0xad
 1545 081a 00       		.byte	0
 1546 081b 06       		.uleb128 0x6
 1547 081c 12030000 		.4byte	.LASF101
 1548 0820 0E       		.byte	0xe
 1549 0821 9A       		.byte	0x9a
 1550 0822 AD000000 		.4byte	0xad
 1551 0826 04       		.byte	0x4
 1552 0827 06       		.uleb128 0x6
 1553 0828 6B030000 		.4byte	.LASF102
 1554 082c 0E       		.byte	0xe
 1555 082d 9E       		.byte	0x9e
 1556 082e AD000000 		.4byte	0xad
 1557 0832 08       		.byte	0x8
 1558 0833 00       		.byte	0
 1559 0834 03       		.uleb128 0x3
 1560 0835 72030000 		.4byte	.LASF103
 1561 0839 0E       		.byte	0xe
 1562 083a 9F       		.byte	0x9f
 1563 083b 07080000 		.4byte	0x807
 1564 083f 05       		.uleb128 0x5
 1565 0840 79010000 		.4byte	.LASF104
 1566 0844 20       		.byte	0x20
 1567 0845 0D       		.byte	0xd
 1568 0846 7C       		.byte	0x7c
 1569 0847 AC080000 		.4byte	0x8ac
 1570 084b 06       		.uleb128 0x6
 1571 084c 02030000 		.4byte	.LASF105
 1572 0850 0D       		.byte	0xd
 1573 0851 7D       		.byte	0x7d
 1574 0852 26050000 		.4byte	0x526
 1575 0856 00       		.byte	0
 1576 0857 06       		.uleb128 0x6
 1577 0858 B7040000 		.4byte	.LASF106
 1578 085c 0D       		.byte	0xd
 1579 085d 7D       		.byte	0x7d
 1580 085e 45050000 		.4byte	0x545
 1581 0862 04       		.byte	0x4
 1582 0863 07       		.uleb128 0x7
 1583 0864 70757400 		.ascii	"put\000"
 1584 0868 0D       		.byte	0xd
 1585 0869 7D       		.byte	0x7d
 1586 086a 5F050000 		.4byte	0x55f
 1587 086e 08       		.byte	0x8
 1588 086f 07       		.uleb128 0x7
 1589 0870 67657400 		.ascii	"get\000"
 1590 0874 0D       		.byte	0xd
 1591 0875 7D       		.byte	0x7d
 1592 0876 37040000 		.4byte	0x437
 1593 087a 0C       		.byte	0xc
 1594 087b 06       		.uleb128 0x6
 1595 087c 0D030000 		.4byte	.LASF107
 1596 0880 0D       		.byte	0xd
ARM GAS  /tmp/cctbMVK7.s 			page 29


 1597 0881 7D       		.byte	0x7d
 1598 0882 03070000 		.4byte	0x703
 1599 0886 10       		.byte	0x10
 1600 0887 06       		.uleb128 0x6
 1601 0888 B6010000 		.4byte	.LASF108
 1602 088c 0D       		.byte	0xd
 1603 088d 7D       		.byte	0x7d
 1604 088e 1D070000 		.4byte	0x71d
 1605 0892 14       		.byte	0x14
 1606 0893 06       		.uleb128 0x6
 1607 0894 E3010000 		.4byte	.LASF109
 1608 0898 0D       		.byte	0xd
 1609 0899 7D       		.byte	0x7d
 1610 089a 41070000 		.4byte	0x741
 1611 089e 18       		.byte	0x18
 1612 089f 06       		.uleb128 0x6
 1613 08a0 7B000000 		.4byte	.LASF110
 1614 08a4 0D       		.byte	0xd
 1615 08a5 7D       		.byte	0x7d
 1616 08a6 65070000 		.4byte	0x765
 1617 08aa 1C       		.byte	0x1c
 1618 08ab 00       		.byte	0
 1619 08ac 09       		.uleb128 0x9
 1620 08ad 04       		.byte	0x4
 1621 08ae B2080000 		.4byte	0x8b2
 1622 08b2 0E       		.uleb128 0xe
 1623 08b3 3F080000 		.4byte	0x83f
 1624 08b7 14       		.uleb128 0x14
 1625 08b8 97000000 		.4byte	0x97
 1626 08bc C7080000 		.4byte	0x8c7
 1627 08c0 15       		.uleb128 0x15
 1628 08c1 2A030000 		.4byte	0x32a
 1629 08c5 0F       		.byte	0xf
 1630 08c6 00       		.byte	0
 1631 08c7 09       		.uleb128 0x9
 1632 08c8 04       		.byte	0x4
 1633 08c9 DF060000 		.4byte	0x6df
 1634 08cd 18       		.uleb128 0x18
 1635 08ce 7B000000 		.4byte	.LASF110
 1636 08d2 01       		.byte	0x1
 1637 08d3 63       		.byte	0x63
 1638 08d4 2C000000 		.4byte	0x2c
 1639 08d8 00000000 		.4byte	.LFB46
 1640 08dc 0A000000 		.4byte	.LFE46-.LFB46
 1641 08e0 01       		.uleb128 0x1
 1642 08e1 9C       		.byte	0x9c
 1643 08e2 47090000 		.4byte	0x947
 1644 08e6 19       		.uleb128 0x19
 1645 08e7 697000   		.ascii	"ip\000"
 1646 08ea 01       		.byte	0x1
 1647 08eb 63       		.byte	0x63
 1648 08ec 92020000 		.4byte	0x292
 1649 08f0 00000000 		.4byte	.LLST0
 1650 08f4 19       		.uleb128 0x19
 1651 08f5 627000   		.ascii	"bp\000"
 1652 08f8 01       		.byte	0x1
 1653 08f9 63       		.byte	0x63
ARM GAS  /tmp/cctbMVK7.s 			page 30


 1654 08fa E6040000 		.4byte	0x4e6
 1655 08fe 2E000000 		.4byte	.LLST1
 1656 0902 19       		.uleb128 0x19
 1657 0903 6E00     		.ascii	"n\000"
 1658 0905 01       		.byte	0x1
 1659 0906 63       		.byte	0x63
 1660 0907 2C000000 		.4byte	0x2c
 1661 090b 4F000000 		.4byte	.LLST2
 1662 090f 1A       		.uleb128 0x1a
 1663 0910 66030000 		.4byte	.LASF111
 1664 0914 01       		.byte	0x1
 1665 0915 63       		.byte	0x63
 1666 0916 22010000 		.4byte	0x122
 1667 091a 70000000 		.4byte	.LLST3
 1668 091e 1B       		.uleb128 0x1b
 1669 091f 08000000 		.4byte	.LVL2
 1670 0923 3D0E0000 		.4byte	0xe3d
 1671 0927 1C       		.uleb128 0x1c
 1672 0928 01       		.uleb128 0x1
 1673 0929 53       		.byte	0x53
 1674 092a 03       		.uleb128 0x3
 1675 092b F3       		.byte	0xf3
 1676 092c 01       		.uleb128 0x1
 1677 092d 53       		.byte	0x53
 1678 092e 1C       		.uleb128 0x1c
 1679 092f 01       		.uleb128 0x1
 1680 0930 52       		.byte	0x52
 1681 0931 03       		.uleb128 0x3
 1682 0932 F3       		.byte	0xf3
 1683 0933 01       		.uleb128 0x1
 1684 0934 52       		.byte	0x52
 1685 0935 1C       		.uleb128 0x1c
 1686 0936 01       		.uleb128 0x1
 1687 0937 51       		.byte	0x51
 1688 0938 03       		.uleb128 0x3
 1689 0939 F3       		.byte	0xf3
 1690 093a 01       		.uleb128 0x1
 1691 093b 51       		.byte	0x51
 1692 093c 1C       		.uleb128 0x1c
 1693 093d 01       		.uleb128 0x1
 1694 093e 50       		.byte	0x50
 1695 093f 05       		.uleb128 0x5
 1696 0940 F3       		.byte	0xf3
 1697 0941 01       		.uleb128 0x1
 1698 0942 50       		.byte	0x50
 1699 0943 23       		.byte	0x23
 1700 0944 0C       		.uleb128 0xc
 1701 0945 00       		.byte	0
 1702 0946 00       		.byte	0
 1703 0947 18       		.uleb128 0x18
 1704 0948 B7040000 		.4byte	.LASF106
 1705 094c 01       		.byte	0x1
 1706 094d 44       		.byte	0x44
 1707 094e 2C000000 		.4byte	0x2c
 1708 0952 00000000 		.4byte	.LFB40
 1709 0956 0E000000 		.4byte	.LFE40-.LFB40
 1710 095a 01       		.uleb128 0x1
ARM GAS  /tmp/cctbMVK7.s 			page 31


 1711 095b 9C       		.byte	0x9c
 1712 095c B1090000 		.4byte	0x9b1
 1713 0960 19       		.uleb128 0x19
 1714 0961 697000   		.ascii	"ip\000"
 1715 0964 01       		.byte	0x1
 1716 0965 44       		.byte	0x44
 1717 0966 92020000 		.4byte	0x292
 1718 096a 91000000 		.4byte	.LLST4
 1719 096e 19       		.uleb128 0x19
 1720 096f 627000   		.ascii	"bp\000"
 1721 0972 01       		.byte	0x1
 1722 0973 44       		.byte	0x44
 1723 0974 E6040000 		.4byte	0x4e6
 1724 0978 BF000000 		.4byte	.LLST5
 1725 097c 19       		.uleb128 0x19
 1726 097d 6E00     		.ascii	"n\000"
 1727 097f 01       		.byte	0x1
 1728 0980 44       		.byte	0x44
 1729 0981 2C000000 		.4byte	0x2c
 1730 0985 E0000000 		.4byte	.LLST6
 1731 0989 1B       		.uleb128 0x1b
 1732 098a 0C000000 		.4byte	.LVL5
 1733 098e 3D0E0000 		.4byte	0xe3d
 1734 0992 1C       		.uleb128 0x1c
 1735 0993 01       		.uleb128 0x1
 1736 0994 53       		.byte	0x53
 1737 0995 02       		.uleb128 0x2
 1738 0996 09       		.byte	0x9
 1739 0997 FF       		.byte	0xff
 1740 0998 1C       		.uleb128 0x1c
 1741 0999 01       		.uleb128 0x1
 1742 099a 52       		.byte	0x52
 1743 099b 03       		.uleb128 0x3
 1744 099c F3       		.byte	0xf3
 1745 099d 01       		.uleb128 0x1
 1746 099e 52       		.byte	0x52
 1747 099f 1C       		.uleb128 0x1c
 1748 09a0 01       		.uleb128 0x1
 1749 09a1 51       		.byte	0x51
 1750 09a2 03       		.uleb128 0x3
 1751 09a3 F3       		.byte	0xf3
 1752 09a4 01       		.uleb128 0x1
 1753 09a5 51       		.byte	0x51
 1754 09a6 1C       		.uleb128 0x1c
 1755 09a7 01       		.uleb128 0x1
 1756 09a8 50       		.byte	0x50
 1757 09a9 05       		.uleb128 0x5
 1758 09aa F3       		.byte	0xf3
 1759 09ab 01       		.uleb128 0x1
 1760 09ac 50       		.byte	0x50
 1761 09ad 23       		.byte	0x23
 1762 09ae 0C       		.uleb128 0xc
 1763 09af 00       		.byte	0
 1764 09b0 00       		.byte	0
 1765 09b1 18       		.uleb128 0x18
 1766 09b2 E3010000 		.4byte	.LASF109
 1767 09b6 01       		.byte	0x1
ARM GAS  /tmp/cctbMVK7.s 			page 32


 1768 09b7 5E       		.byte	0x5e
 1769 09b8 2C000000 		.4byte	0x2c
 1770 09bc 00000000 		.4byte	.LFB45
 1771 09c0 0A000000 		.4byte	.LFE45-.LFB45
 1772 09c4 01       		.uleb128 0x1
 1773 09c5 9C       		.byte	0x9c
 1774 09c6 2B0A0000 		.4byte	0xa2b
 1775 09ca 19       		.uleb128 0x19
 1776 09cb 697000   		.ascii	"ip\000"
 1777 09ce 01       		.byte	0x1
 1778 09cf 5E       		.byte	0x5e
 1779 09d0 92020000 		.4byte	0x292
 1780 09d4 01010000 		.4byte	.LLST7
 1781 09d8 19       		.uleb128 0x19
 1782 09d9 627000   		.ascii	"bp\000"
 1783 09dc 01       		.byte	0x1
 1784 09dd 5E       		.byte	0x5e
 1785 09de 1B050000 		.4byte	0x51b
 1786 09e2 2F010000 		.4byte	.LLST8
 1787 09e6 19       		.uleb128 0x19
 1788 09e7 6E00     		.ascii	"n\000"
 1789 09e9 01       		.byte	0x1
 1790 09ea 5E       		.byte	0x5e
 1791 09eb 2C000000 		.4byte	0x2c
 1792 09ef 50010000 		.4byte	.LLST9
 1793 09f3 1A       		.uleb128 0x1a
 1794 09f4 66030000 		.4byte	.LASF111
 1795 09f8 01       		.byte	0x1
 1796 09f9 5E       		.byte	0x5e
 1797 09fa 22010000 		.4byte	0x122
 1798 09fe 71010000 		.4byte	.LLST10
 1799 0a02 1B       		.uleb128 0x1b
 1800 0a03 08000000 		.4byte	.LVL8
 1801 0a07 680E0000 		.4byte	0xe68
 1802 0a0b 1C       		.uleb128 0x1c
 1803 0a0c 01       		.uleb128 0x1
 1804 0a0d 53       		.byte	0x53
 1805 0a0e 03       		.uleb128 0x3
 1806 0a0f F3       		.byte	0xf3
 1807 0a10 01       		.uleb128 0x1
 1808 0a11 53       		.byte	0x53
 1809 0a12 1C       		.uleb128 0x1c
 1810 0a13 01       		.uleb128 0x1
 1811 0a14 52       		.byte	0x52
 1812 0a15 03       		.uleb128 0x3
 1813 0a16 F3       		.byte	0xf3
 1814 0a17 01       		.uleb128 0x1
 1815 0a18 52       		.byte	0x52
 1816 0a19 1C       		.uleb128 0x1c
 1817 0a1a 01       		.uleb128 0x1
 1818 0a1b 51       		.byte	0x51
 1819 0a1c 03       		.uleb128 0x3
 1820 0a1d F3       		.byte	0xf3
 1821 0a1e 01       		.uleb128 0x1
 1822 0a1f 51       		.byte	0x51
 1823 0a20 1C       		.uleb128 0x1c
 1824 0a21 01       		.uleb128 0x1
ARM GAS  /tmp/cctbMVK7.s 			page 33


 1825 0a22 50       		.byte	0x50
 1826 0a23 05       		.uleb128 0x5
 1827 0a24 F3       		.byte	0xf3
 1828 0a25 01       		.uleb128 0x1
 1829 0a26 50       		.byte	0x50
 1830 0a27 23       		.byte	0x23
 1831 0a28 30       		.uleb128 0x30
 1832 0a29 00       		.byte	0
 1833 0a2a 00       		.byte	0
 1834 0a2b 18       		.uleb128 0x18
 1835 0a2c 02030000 		.4byte	.LASF105
 1836 0a30 01       		.byte	0x1
 1837 0a31 3E       		.byte	0x3e
 1838 0a32 2C000000 		.4byte	0x2c
 1839 0a36 00000000 		.4byte	.LFB39
 1840 0a3a 0E000000 		.4byte	.LFE39-.LFB39
 1841 0a3e 01       		.uleb128 0x1
 1842 0a3f 9C       		.byte	0x9c
 1843 0a40 950A0000 		.4byte	0xa95
 1844 0a44 19       		.uleb128 0x19
 1845 0a45 697000   		.ascii	"ip\000"
 1846 0a48 01       		.byte	0x1
 1847 0a49 3E       		.byte	0x3e
 1848 0a4a 92020000 		.4byte	0x292
 1849 0a4e 92010000 		.4byte	.LLST11
 1850 0a52 19       		.uleb128 0x19
 1851 0a53 627000   		.ascii	"bp\000"
 1852 0a56 01       		.byte	0x1
 1853 0a57 3E       		.byte	0x3e
 1854 0a58 1B050000 		.4byte	0x51b
 1855 0a5c C0010000 		.4byte	.LLST12
 1856 0a60 19       		.uleb128 0x19
 1857 0a61 6E00     		.ascii	"n\000"
 1858 0a63 01       		.byte	0x1
 1859 0a64 3E       		.byte	0x3e
 1860 0a65 2C000000 		.4byte	0x2c
 1861 0a69 E1010000 		.4byte	.LLST13
 1862 0a6d 1B       		.uleb128 0x1b
 1863 0a6e 0C000000 		.4byte	.LVL11
 1864 0a72 680E0000 		.4byte	0xe68
 1865 0a76 1C       		.uleb128 0x1c
 1866 0a77 01       		.uleb128 0x1
 1867 0a78 53       		.byte	0x53
 1868 0a79 02       		.uleb128 0x2
 1869 0a7a 09       		.byte	0x9
 1870 0a7b FF       		.byte	0xff
 1871 0a7c 1C       		.uleb128 0x1c
 1872 0a7d 01       		.uleb128 0x1
 1873 0a7e 52       		.byte	0x52
 1874 0a7f 03       		.uleb128 0x3
 1875 0a80 F3       		.byte	0xf3
 1876 0a81 01       		.uleb128 0x1
 1877 0a82 52       		.byte	0x52
 1878 0a83 1C       		.uleb128 0x1c
 1879 0a84 01       		.uleb128 0x1
 1880 0a85 51       		.byte	0x51
 1881 0a86 03       		.uleb128 0x3
ARM GAS  /tmp/cctbMVK7.s 			page 34


 1882 0a87 F3       		.byte	0xf3
 1883 0a88 01       		.uleb128 0x1
 1884 0a89 51       		.byte	0x51
 1885 0a8a 1C       		.uleb128 0x1c
 1886 0a8b 01       		.uleb128 0x1
 1887 0a8c 50       		.byte	0x50
 1888 0a8d 05       		.uleb128 0x5
 1889 0a8e F3       		.byte	0xf3
 1890 0a8f 01       		.uleb128 0x1
 1891 0a90 50       		.byte	0x50
 1892 0a91 23       		.byte	0x23
 1893 0a92 30       		.uleb128 0x30
 1894 0a93 00       		.byte	0
 1895 0a94 00       		.byte	0
 1896 0a95 18       		.uleb128 0x18
 1897 0a96 B6010000 		.4byte	.LASF108
 1898 0a9a 01       		.byte	0x1
 1899 0a9b 59       		.byte	0x59
 1900 0a9c 01010000 		.4byte	0x101
 1901 0aa0 00000000 		.4byte	.LFB44
 1902 0aa4 0A000000 		.4byte	.LFE44-.LFB44
 1903 0aa8 01       		.uleb128 0x1
 1904 0aa9 9C       		.byte	0x9c
 1905 0aaa E60A0000 		.4byte	0xae6
 1906 0aae 19       		.uleb128 0x19
 1907 0aaf 697000   		.ascii	"ip\000"
 1908 0ab2 01       		.byte	0x1
 1909 0ab3 59       		.byte	0x59
 1910 0ab4 92020000 		.4byte	0x292
 1911 0ab8 02020000 		.4byte	.LLST14
 1912 0abc 1A       		.uleb128 0x1a
 1913 0abd EB050000 		.4byte	.LASF112
 1914 0ac1 01       		.byte	0x1
 1915 0ac2 59       		.byte	0x59
 1916 0ac3 22010000 		.4byte	0x122
 1917 0ac7 30020000 		.4byte	.LLST15
 1918 0acb 1B       		.uleb128 0x1b
 1919 0acc 08000000 		.4byte	.LVL14
 1920 0ad0 930E0000 		.4byte	0xe93
 1921 0ad4 1C       		.uleb128 0x1c
 1922 0ad5 01       		.uleb128 0x1
 1923 0ad6 51       		.byte	0x51
 1924 0ad7 03       		.uleb128 0x3
 1925 0ad8 F3       		.byte	0xf3
 1926 0ad9 01       		.uleb128 0x1
 1927 0ada 51       		.byte	0x51
 1928 0adb 1C       		.uleb128 0x1c
 1929 0adc 01       		.uleb128 0x1
 1930 0add 50       		.byte	0x50
 1931 0ade 05       		.uleb128 0x5
 1932 0adf F3       		.byte	0xf3
 1933 0ae0 01       		.uleb128 0x1
 1934 0ae1 50       		.byte	0x50
 1935 0ae2 23       		.byte	0x23
 1936 0ae3 0C       		.uleb128 0xc
 1937 0ae4 00       		.byte	0
 1938 0ae5 00       		.byte	0
ARM GAS  /tmp/cctbMVK7.s 			page 35


 1939 0ae6 1D       		.uleb128 0x1d
 1940 0ae7 67657400 		.ascii	"get\000"
 1941 0aeb 01       		.byte	0x1
 1942 0aec 4F       		.byte	0x4f
 1943 0aed 01010000 		.4byte	0x101
 1944 0af1 00000000 		.4byte	.LFB42
 1945 0af5 0E000000 		.4byte	.LFE42-.LFB42
 1946 0af9 01       		.uleb128 0x1
 1947 0afa 9C       		.byte	0x9c
 1948 0afb 270B0000 		.4byte	0xb27
 1949 0aff 19       		.uleb128 0x19
 1950 0b00 697000   		.ascii	"ip\000"
 1951 0b03 01       		.byte	0x1
 1952 0b04 4F       		.byte	0x4f
 1953 0b05 92020000 		.4byte	0x292
 1954 0b09 51020000 		.4byte	.LLST16
 1955 0b0d 1B       		.uleb128 0x1b
 1956 0b0e 0C000000 		.4byte	.LVL17
 1957 0b12 930E0000 		.4byte	0xe93
 1958 0b16 1C       		.uleb128 0x1c
 1959 0b17 01       		.uleb128 0x1
 1960 0b18 51       		.byte	0x51
 1961 0b19 02       		.uleb128 0x2
 1962 0b1a 09       		.byte	0x9
 1963 0b1b FF       		.byte	0xff
 1964 0b1c 1C       		.uleb128 0x1c
 1965 0b1d 01       		.uleb128 0x1
 1966 0b1e 50       		.byte	0x50
 1967 0b1f 05       		.uleb128 0x5
 1968 0b20 F3       		.byte	0xf3
 1969 0b21 01       		.uleb128 0x1
 1970 0b22 50       		.byte	0x50
 1971 0b23 23       		.byte	0x23
 1972 0b24 0C       		.uleb128 0xc
 1973 0b25 00       		.byte	0
 1974 0b26 00       		.byte	0
 1975 0b27 18       		.uleb128 0x18
 1976 0b28 0D030000 		.4byte	.LASF107
 1977 0b2c 01       		.byte	0x1
 1978 0b2d 54       		.byte	0x54
 1979 0b2e 01010000 		.4byte	0x101
 1980 0b32 00000000 		.4byte	.LFB43
 1981 0b36 0A000000 		.4byte	.LFE43-.LFB43
 1982 0b3a 01       		.uleb128 0x1
 1983 0b3b 9C       		.byte	0x9c
 1984 0b3c 850B0000 		.4byte	0xb85
 1985 0b40 19       		.uleb128 0x19
 1986 0b41 697000   		.ascii	"ip\000"
 1987 0b44 01       		.byte	0x1
 1988 0b45 54       		.byte	0x54
 1989 0b46 92020000 		.4byte	0x292
 1990 0b4a 7F020000 		.4byte	.LLST17
 1991 0b4e 19       		.uleb128 0x19
 1992 0b4f 6200     		.ascii	"b\000"
 1993 0b51 01       		.byte	0x1
 1994 0b52 54       		.byte	0x54
 1995 0b53 97000000 		.4byte	0x97
ARM GAS  /tmp/cctbMVK7.s 			page 36


 1996 0b57 AD020000 		.4byte	.LLST18
 1997 0b5b 1A       		.uleb128 0x1a
 1998 0b5c EB050000 		.4byte	.LASF112
 1999 0b60 01       		.byte	0x1
 2000 0b61 54       		.byte	0x54
 2001 0b62 22010000 		.4byte	0x122
 2002 0b66 CE020000 		.4byte	.LLST19
 2003 0b6a 1B       		.uleb128 0x1b
 2004 0b6b 08000000 		.4byte	.LVL20
 2005 0b6f AE0E0000 		.4byte	0xeae
 2006 0b73 1C       		.uleb128 0x1c
 2007 0b74 01       		.uleb128 0x1
 2008 0b75 52       		.byte	0x52
 2009 0b76 03       		.uleb128 0x3
 2010 0b77 F3       		.byte	0xf3
 2011 0b78 01       		.uleb128 0x1
 2012 0b79 52       		.byte	0x52
 2013 0b7a 1C       		.uleb128 0x1c
 2014 0b7b 01       		.uleb128 0x1
 2015 0b7c 50       		.byte	0x50
 2016 0b7d 05       		.uleb128 0x5
 2017 0b7e F3       		.byte	0xf3
 2018 0b7f 01       		.uleb128 0x1
 2019 0b80 50       		.byte	0x50
 2020 0b81 23       		.byte	0x23
 2021 0b82 30       		.uleb128 0x30
 2022 0b83 00       		.byte	0
 2023 0b84 00       		.byte	0
 2024 0b85 1D       		.uleb128 0x1d
 2025 0b86 70757400 		.ascii	"put\000"
 2026 0b8a 01       		.byte	0x1
 2027 0b8b 4A       		.byte	0x4a
 2028 0b8c 01010000 		.4byte	0x101
 2029 0b90 00000000 		.4byte	.LFB41
 2030 0b94 0E000000 		.4byte	.LFE41-.LFB41
 2031 0b98 01       		.uleb128 0x1
 2032 0b99 9C       		.byte	0x9c
 2033 0b9a D30B0000 		.4byte	0xbd3
 2034 0b9e 19       		.uleb128 0x19
 2035 0b9f 697000   		.ascii	"ip\000"
 2036 0ba2 01       		.byte	0x1
 2037 0ba3 4A       		.byte	0x4a
 2038 0ba4 92020000 		.4byte	0x292
 2039 0ba8 EF020000 		.4byte	.LLST20
 2040 0bac 19       		.uleb128 0x19
 2041 0bad 6200     		.ascii	"b\000"
 2042 0baf 01       		.byte	0x1
 2043 0bb0 4A       		.byte	0x4a
 2044 0bb1 97000000 		.4byte	0x97
 2045 0bb5 1D030000 		.4byte	.LLST21
 2046 0bb9 1B       		.uleb128 0x1b
 2047 0bba 0C000000 		.4byte	.LVL23
 2048 0bbe AE0E0000 		.4byte	0xeae
 2049 0bc2 1C       		.uleb128 0x1c
 2050 0bc3 01       		.uleb128 0x1
 2051 0bc4 52       		.byte	0x52
 2052 0bc5 02       		.uleb128 0x2
ARM GAS  /tmp/cctbMVK7.s 			page 37


 2053 0bc6 09       		.byte	0x9
 2054 0bc7 FF       		.byte	0xff
 2055 0bc8 1C       		.uleb128 0x1c
 2056 0bc9 01       		.uleb128 0x1
 2057 0bca 50       		.byte	0x50
 2058 0bcb 05       		.uleb128 0x5
 2059 0bcc F3       		.byte	0xf3
 2060 0bcd 01       		.uleb128 0x1
 2061 0bce 50       		.byte	0x50
 2062 0bcf 23       		.byte	0x23
 2063 0bd0 30       		.uleb128 0x30
 2064 0bd1 00       		.byte	0
 2065 0bd2 00       		.byte	0
 2066 0bd3 1E       		.uleb128 0x1e
 2067 0bd4 F3050000 		.4byte	.LASF113
 2068 0bd8 01       		.byte	0x1
 2069 0bd9 78       		.byte	0x78
 2070 0bda 00000000 		.4byte	.LFB47
 2071 0bde 08000000 		.4byte	.LFE47-.LFB47
 2072 0be2 01       		.uleb128 0x1
 2073 0be3 9C       		.byte	0x9c
 2074 0be4 F20B0000 		.4byte	0xbf2
 2075 0be8 1F       		.uleb128 0x1f
 2076 0be9 06000000 		.4byte	.LVL24
 2077 0bed CE0E0000 		.4byte	0xece
 2078 0bf1 00       		.byte	0
 2079 0bf2 1E       		.uleb128 0x1e
 2080 0bf3 6E000000 		.4byte	.LASF114
 2081 0bf7 01       		.byte	0x1
 2082 0bf8 8C       		.byte	0x8c
 2083 0bf9 00000000 		.4byte	.LFB48
 2084 0bfd 40000000 		.4byte	.LFE48-.LFB48
 2085 0c01 01       		.uleb128 0x1
 2086 0c02 9C       		.byte	0x9c
 2087 0c03 8C0C0000 		.4byte	0xc8c
 2088 0c07 19       		.uleb128 0x19
 2089 0c08 73647000 		.ascii	"sdp\000"
 2090 0c0c 01       		.byte	0x1
 2091 0c0d 8C       		.byte	0x8c
 2092 0c0e 8C0C0000 		.4byte	0xc8c
 2093 0c12 3E030000 		.4byte	.LLST22
 2094 0c16 1A       		.uleb128 0x1a
 2095 0c17 90010000 		.4byte	.LASF115
 2096 0c1b 01       		.byte	0x1
 2097 0c1c 8C       		.byte	0x8c
 2098 0c1d C4040000 		.4byte	0x4c4
 2099 0c21 6A030000 		.4byte	.LLST23
 2100 0c25 1A       		.uleb128 0x1a
 2101 0c26 B3050000 		.4byte	.LASF116
 2102 0c2a 01       		.byte	0x1
 2103 0c2b 8C       		.byte	0x8c
 2104 0c2c C4040000 		.4byte	0x4c4
 2105 0c30 96030000 		.4byte	.LLST24
 2106 0c34 20       		.uleb128 0x20
 2107 0c35 24000000 		.4byte	.LVL29
 2108 0c39 D50E0000 		.4byte	0xed5
 2109 0c3d 620C0000 		.4byte	0xc62
ARM GAS  /tmp/cctbMVK7.s 			page 38


 2110 0c41 1C       		.uleb128 0x1c
 2111 0c42 01       		.uleb128 0x1
 2112 0c43 53       		.byte	0x53
 2113 0c44 03       		.uleb128 0x3
 2114 0c45 F3       		.byte	0xf3
 2115 0c46 01       		.uleb128 0x1
 2116 0c47 51       		.byte	0x51
 2117 0c48 1C       		.uleb128 0x1c
 2118 0c49 01       		.uleb128 0x1
 2119 0c4a 52       		.byte	0x52
 2120 0c4b 01       		.uleb128 0x1
 2121 0c4c 40       		.byte	0x40
 2122 0c4d 1C       		.uleb128 0x1c
 2123 0c4e 01       		.uleb128 0x1
 2124 0c4f 51       		.byte	0x51
 2125 0c50 03       		.uleb128 0x3
 2126 0c51 74       		.byte	0x74
 2127 0c52 D400     		.sleb128 84
 2128 0c54 1C       		.uleb128 0x1c
 2129 0c55 01       		.uleb128 0x1
 2130 0c56 50       		.byte	0x50
 2131 0c57 02       		.uleb128 0x2
 2132 0c58 74       		.byte	0x74
 2133 0c59 0C       		.sleb128 12
 2134 0c5a 1C       		.uleb128 0x1c
 2135 0c5b 02       		.uleb128 0x2
 2136 0c5c 7D       		.byte	0x7d
 2137 0c5d 00       		.sleb128 0
 2138 0c5e 02       		.uleb128 0x2
 2139 0c5f 74       		.byte	0x74
 2140 0c60 00       		.sleb128 0
 2141 0c61 00       		.byte	0
 2142 0c62 1B       		.uleb128 0x1b
 2143 0c63 36000000 		.4byte	.LVL30
 2144 0c67 FB0E0000 		.4byte	0xefb
 2145 0c6b 1C       		.uleb128 0x1c
 2146 0c6c 01       		.uleb128 0x1
 2147 0c6d 53       		.byte	0x53
 2148 0c6e 02       		.uleb128 0x2
 2149 0c6f 75       		.byte	0x75
 2150 0c70 00       		.sleb128 0
 2151 0c71 1C       		.uleb128 0x1c
 2152 0c72 01       		.uleb128 0x1
 2153 0c73 52       		.byte	0x52
 2154 0c74 01       		.uleb128 0x1
 2155 0c75 40       		.byte	0x40
 2156 0c76 1C       		.uleb128 0x1c
 2157 0c77 01       		.uleb128 0x1
 2158 0c78 51       		.byte	0x51
 2159 0c79 03       		.uleb128 0x3
 2160 0c7a 74       		.byte	0x74
 2161 0c7b E400     		.sleb128 100
 2162 0c7d 1C       		.uleb128 0x1c
 2163 0c7e 01       		.uleb128 0x1
 2164 0c7f 50       		.byte	0x50
 2165 0c80 02       		.uleb128 0x2
 2166 0c81 74       		.byte	0x74
ARM GAS  /tmp/cctbMVK7.s 			page 39


 2167 0c82 30       		.sleb128 48
 2168 0c83 1C       		.uleb128 0x1c
 2169 0c84 02       		.uleb128 0x2
 2170 0c85 7D       		.byte	0x7d
 2171 0c86 00       		.sleb128 0
 2172 0c87 02       		.uleb128 0x2
 2173 0c88 74       		.byte	0x74
 2174 0c89 00       		.sleb128 0
 2175 0c8a 00       		.byte	0
 2176 0c8b 00       		.byte	0
 2177 0c8c 09       		.uleb128 0x9
 2178 0c8d 04       		.byte	0x4
 2179 0c8e 91070000 		.4byte	0x791
 2180 0c92 1E       		.uleb128 0x1e
 2181 0c93 D8040000 		.4byte	.LASF117
 2182 0c97 01       		.byte	0x1
 2183 0c98 9F       		.byte	0x9f
 2184 0c99 00000000 		.4byte	.LFB49
 2185 0c9d 12000000 		.4byte	.LFE49-.LFB49
 2186 0ca1 01       		.uleb128 0x1
 2187 0ca2 9C       		.byte	0x9c
 2188 0ca3 DD0C0000 		.4byte	0xcdd
 2189 0ca7 19       		.uleb128 0x19
 2190 0ca8 73647000 		.ascii	"sdp\000"
 2191 0cac 01       		.byte	0x1
 2192 0cad 9F       		.byte	0x9f
 2193 0cae 8C0C0000 		.4byte	0xc8c
 2194 0cb2 C2030000 		.4byte	.LLST25
 2195 0cb6 1A       		.uleb128 0x1a
 2196 0cb7 D1040000 		.4byte	.LASF118
 2197 0cbb 01       		.byte	0x1
 2198 0cbc 9F       		.byte	0x9f
 2199 0cbd DD0C0000 		.4byte	0xcdd
 2200 0cc1 EE030000 		.4byte	.LLST26
 2201 0cc5 1B       		.uleb128 0x1b
 2202 0cc6 0A000000 		.4byte	.LVL34
 2203 0cca 210F0000 		.4byte	0xf21
 2204 0cce 1C       		.uleb128 0x1c
 2205 0ccf 01       		.uleb128 0x1
 2206 0cd0 51       		.byte	0x51
 2207 0cd1 03       		.uleb128 0x3
 2208 0cd2 F3       		.byte	0xf3
 2209 0cd3 01       		.uleb128 0x1
 2210 0cd4 51       		.byte	0x51
 2211 0cd5 1C       		.uleb128 0x1c
 2212 0cd6 01       		.uleb128 0x1
 2213 0cd7 50       		.byte	0x50
 2214 0cd8 02       		.uleb128 0x2
 2215 0cd9 74       		.byte	0x74
 2216 0cda 00       		.sleb128 0
 2217 0cdb 00       		.byte	0
 2218 0cdc 00       		.byte	0
 2219 0cdd 09       		.uleb128 0x9
 2220 0cde 04       		.byte	0x4
 2221 0cdf E30C0000 		.4byte	0xce3
 2222 0ce3 0E       		.uleb128 0xe
 2223 0ce4 34080000 		.4byte	0x834
ARM GAS  /tmp/cctbMVK7.s 			page 40


 2224 0ce8 1E       		.uleb128 0x1e
 2225 0ce9 5F030000 		.4byte	.LASF119
 2226 0ced 01       		.byte	0x1
 2227 0cee B5       		.byte	0xb5
 2228 0cef 00000000 		.4byte	.LFB50
 2229 0cf3 26000000 		.4byte	.LFE50-.LFB50
 2230 0cf7 01       		.uleb128 0x1
 2231 0cf8 9C       		.byte	0x9c
 2232 0cf9 520D0000 		.4byte	0xd52
 2233 0cfd 19       		.uleb128 0x19
 2234 0cfe 73647000 		.ascii	"sdp\000"
 2235 0d02 01       		.byte	0x1
 2236 0d03 B5       		.byte	0xb5
 2237 0d04 8C0C0000 		.4byte	0xc8c
 2238 0d08 0F040000 		.4byte	.LLST27
 2239 0d0c 20       		.uleb128 0x20
 2240 0d0d 0A000000 		.4byte	.LVL37
 2241 0d11 370F0000 		.4byte	0xf37
 2242 0d15 200D0000 		.4byte	0xd20
 2243 0d19 1C       		.uleb128 0x1c
 2244 0d1a 01       		.uleb128 0x1
 2245 0d1b 50       		.byte	0x50
 2246 0d1c 02       		.uleb128 0x2
 2247 0d1d 74       		.byte	0x74
 2248 0d1e 00       		.sleb128 0
 2249 0d1f 00       		.byte	0
 2250 0d20 20       		.uleb128 0x20
 2251 0d21 16000000 		.4byte	.LVL38
 2252 0d25 480F0000 		.4byte	0xf48
 2253 0d29 340D0000 		.4byte	0xd34
 2254 0d2d 1C       		.uleb128 0x1c
 2255 0d2e 01       		.uleb128 0x1
 2256 0d2f 50       		.byte	0x50
 2257 0d30 02       		.uleb128 0x2
 2258 0d31 74       		.byte	0x74
 2259 0d32 30       		.sleb128 48
 2260 0d33 00       		.byte	0
 2261 0d34 20       		.uleb128 0x20
 2262 0d35 1E000000 		.4byte	.LVL39
 2263 0d39 5A0F0000 		.4byte	0xf5a
 2264 0d3d 480D0000 		.4byte	0xd48
 2265 0d41 1C       		.uleb128 0x1c
 2266 0d42 01       		.uleb128 0x1
 2267 0d43 50       		.byte	0x50
 2268 0d44 02       		.uleb128 0x2
 2269 0d45 74       		.byte	0x74
 2270 0d46 0C       		.sleb128 12
 2271 0d47 00       		.byte	0
 2272 0d48 1F       		.uleb128 0x1f
 2273 0d49 22000000 		.4byte	.LVL40
 2274 0d4d 6C0F0000 		.4byte	0xf6c
 2275 0d51 00       		.byte	0
 2276 0d52 1E       		.uleb128 0x1e
 2277 0d53 C1040000 		.4byte	.LASF120
 2278 0d57 01       		.byte	0x1
 2279 0d58 D5       		.byte	0xd5
 2280 0d59 00000000 		.4byte	.LFB51
ARM GAS  /tmp/cctbMVK7.s 			page 41


 2281 0d5d 2C000000 		.4byte	.LFE51-.LFB51
 2282 0d61 01       		.uleb128 0x1
 2283 0d62 9C       		.byte	0x9c
 2284 0d63 CD0D0000 		.4byte	0xdcd
 2285 0d67 19       		.uleb128 0x19
 2286 0d68 73647000 		.ascii	"sdp\000"
 2287 0d6c 01       		.byte	0x1
 2288 0d6d D5       		.byte	0xd5
 2289 0d6e 8C0C0000 		.4byte	0xc8c
 2290 0d72 3B040000 		.4byte	.LLST28
 2291 0d76 19       		.uleb128 0x19
 2292 0d77 6200     		.ascii	"b\000"
 2293 0d79 01       		.byte	0x1
 2294 0d7a D5       		.byte	0xd5
 2295 0d7b 97000000 		.4byte	0x97
 2296 0d7f 67040000 		.4byte	.LLST29
 2297 0d83 20       		.uleb128 0x20
 2298 0d84 14000000 		.4byte	.LVL45
 2299 0d88 730F0000 		.4byte	0xf73
 2300 0d8c 9C0D0000 		.4byte	0xd9c
 2301 0d90 1C       		.uleb128 0x1c
 2302 0d91 01       		.uleb128 0x1
 2303 0d92 51       		.byte	0x51
 2304 0d93 01       		.uleb128 0x1
 2305 0d94 34       		.byte	0x34
 2306 0d95 1C       		.uleb128 0x1c
 2307 0d96 01       		.uleb128 0x1
 2308 0d97 50       		.byte	0x50
 2309 0d98 02       		.uleb128 0x2
 2310 0d99 74       		.byte	0x74
 2311 0d9a 04       		.sleb128 4
 2312 0d9b 00       		.byte	0
 2313 0d9c 20       		.uleb128 0x20
 2314 0d9d 1E000000 		.4byte	.LVL46
 2315 0da1 8F0F0000 		.4byte	0xf8f
 2316 0da5 B60D0000 		.4byte	0xdb6
 2317 0da9 1C       		.uleb128 0x1c
 2318 0daa 01       		.uleb128 0x1
 2319 0dab 51       		.byte	0x51
 2320 0dac 02       		.uleb128 0x2
 2321 0dad 75       		.byte	0x75
 2322 0dae 00       		.sleb128 0
 2323 0daf 1C       		.uleb128 0x1c
 2324 0db0 01       		.uleb128 0x1
 2325 0db1 50       		.byte	0x50
 2326 0db2 02       		.uleb128 0x2
 2327 0db3 74       		.byte	0x74
 2328 0db4 0C       		.sleb128 12
 2329 0db5 00       		.byte	0
 2330 0db6 1B       		.uleb128 0x1b
 2331 0db7 2A000000 		.4byte	.LVL47
 2332 0dbb 730F0000 		.4byte	0xf73
 2333 0dbf 1C       		.uleb128 0x1c
 2334 0dc0 01       		.uleb128 0x1
 2335 0dc1 51       		.byte	0x51
 2336 0dc2 02       		.uleb128 0x2
 2337 0dc3 08       		.byte	0x8
ARM GAS  /tmp/cctbMVK7.s 			page 42


 2338 0dc4 80       		.byte	0x80
 2339 0dc5 1C       		.uleb128 0x1c
 2340 0dc6 01       		.uleb128 0x1
 2341 0dc7 50       		.byte	0x50
 2342 0dc8 02       		.uleb128 0x2
 2343 0dc9 74       		.byte	0x74
 2344 0dca 04       		.sleb128 4
 2345 0dcb 00       		.byte	0
 2346 0dcc 00       		.byte	0
 2347 0dcd 21       		.uleb128 0x21
 2348 0dce 9C050000 		.4byte	.LASF139
 2349 0dd2 01       		.byte	0x1
 2350 0dd3 EF       		.byte	0xef
 2351 0dd4 01010000 		.4byte	0x101
 2352 0dd8 00000000 		.4byte	.LFB52
 2353 0ddc 1A000000 		.4byte	.LFE52-.LFB52
 2354 0de0 01       		.uleb128 0x1
 2355 0de1 9C       		.byte	0x9c
 2356 0de2 2C0E0000 		.4byte	0xe2c
 2357 0de6 19       		.uleb128 0x19
 2358 0de7 73647000 		.ascii	"sdp\000"
 2359 0deb 01       		.byte	0x1
 2360 0dec EF       		.byte	0xef
 2361 0ded 8C0C0000 		.4byte	0xc8c
 2362 0df1 88040000 		.4byte	.LLST30
 2363 0df5 22       		.uleb128 0x22
 2364 0df6 6200     		.ascii	"b\000"
 2365 0df8 01       		.byte	0x1
 2366 0df9 F0       		.byte	0xf0
 2367 0dfa 01010000 		.4byte	0x101
 2368 0dfe B4040000 		.4byte	.LLST31
 2369 0e02 20       		.uleb128 0x20
 2370 0e03 0A000000 		.4byte	.LVL51
 2371 0e07 AA0F0000 		.4byte	0xfaa
 2372 0e0b 160E0000 		.4byte	0xe16
 2373 0e0f 1C       		.uleb128 0x1c
 2374 0e10 01       		.uleb128 0x1
 2375 0e11 50       		.byte	0x50
 2376 0e12 02       		.uleb128 0x2
 2377 0e13 75       		.byte	0x75
 2378 0e14 30       		.sleb128 48
 2379 0e15 00       		.byte	0
 2380 0e16 1B       		.uleb128 0x1b
 2381 0e17 16000000 		.4byte	.LVL54
 2382 0e1b 730F0000 		.4byte	0xf73
 2383 0e1f 1C       		.uleb128 0x1c
 2384 0e20 01       		.uleb128 0x1
 2385 0e21 51       		.byte	0x51
 2386 0e22 01       		.uleb128 0x1
 2387 0e23 38       		.byte	0x38
 2388 0e24 1C       		.uleb128 0x1c
 2389 0e25 01       		.uleb128 0x1
 2390 0e26 50       		.byte	0x50
 2391 0e27 02       		.uleb128 0x2
 2392 0e28 75       		.byte	0x75
 2393 0e29 04       		.sleb128 4
 2394 0e2a 00       		.byte	0
ARM GAS  /tmp/cctbMVK7.s 			page 43


 2395 0e2b 00       		.byte	0
 2396 0e2c 23       		.uleb128 0x23
 2397 0e2d 766D7400 		.ascii	"vmt\000"
 2398 0e31 01       		.byte	0x1
 2399 0e32 68       		.byte	0x68
 2400 0e33 B2080000 		.4byte	0x8b2
 2401 0e37 05       		.uleb128 0x5
 2402 0e38 03       		.byte	0x3
 2403 0e39 00000000 		.4byte	vmt
 2404 0e3d 24       		.uleb128 0x24
 2405 0e3e 24000000 		.4byte	.LASF121
 2406 0e42 0B       		.byte	0xb
 2407 0e43 6701     		.2byte	0x167
 2408 0e45 2C000000 		.4byte	0x2c
 2409 0e49 620E0000 		.4byte	0xe62
 2410 0e4d 10       		.uleb128 0x10
 2411 0e4e 620E0000 		.4byte	0xe62
 2412 0e52 10       		.uleb128 0x10
 2413 0e53 E6040000 		.4byte	0x4e6
 2414 0e57 10       		.uleb128 0x10
 2415 0e58 2C000000 		.4byte	0x2c
 2416 0e5c 10       		.uleb128 0x10
 2417 0e5d 22010000 		.4byte	0x122
 2418 0e61 00       		.byte	0
 2419 0e62 09       		.uleb128 0x9
 2420 0e63 04       		.byte	0x4
 2421 0e64 EC040000 		.4byte	0x4ec
 2422 0e68 24       		.uleb128 0x24
 2423 0e69 F1020000 		.4byte	.LASF122
 2424 0e6d 0B       		.byte	0xb
 2425 0e6e 6F01     		.2byte	0x16f
 2426 0e70 2C000000 		.4byte	0x2c
 2427 0e74 8D0E0000 		.4byte	0xe8d
 2428 0e78 10       		.uleb128 0x10
 2429 0e79 8D0E0000 		.4byte	0xe8d
 2430 0e7d 10       		.uleb128 0x10
 2431 0e7e 1B050000 		.4byte	0x51b
 2432 0e82 10       		.uleb128 0x10
 2433 0e83 2C000000 		.4byte	0x2c
 2434 0e87 10       		.uleb128 0x10
 2435 0e88 22010000 		.4byte	0x122
 2436 0e8c 00       		.byte	0
 2437 0e8d 09       		.uleb128 0x9
 2438 0e8e 04       		.byte	0x4
 2439 0e8f F7040000 		.4byte	0x4f7
 2440 0e93 24       		.uleb128 0x24
 2441 0e94 1B060000 		.4byte	.LASF123
 2442 0e98 0B       		.byte	0xb
 2443 0e99 6601     		.2byte	0x166
 2444 0e9b 01010000 		.4byte	0x101
 2445 0e9f AE0E0000 		.4byte	0xeae
 2446 0ea3 10       		.uleb128 0x10
 2447 0ea4 620E0000 		.4byte	0xe62
 2448 0ea8 10       		.uleb128 0x10
 2449 0ea9 22010000 		.4byte	0x122
 2450 0ead 00       		.byte	0
 2451 0eae 24       		.uleb128 0x24
ARM GAS  /tmp/cctbMVK7.s 			page 44


 2452 0eaf 48010000 		.4byte	.LASF124
 2453 0eb3 0B       		.byte	0xb
 2454 0eb4 6D01     		.2byte	0x16d
 2455 0eb6 01010000 		.4byte	0x101
 2456 0eba CE0E0000 		.4byte	0xece
 2457 0ebe 10       		.uleb128 0x10
 2458 0ebf 8D0E0000 		.4byte	0xe8d
 2459 0ec3 10       		.uleb128 0x10
 2460 0ec4 97000000 		.4byte	0x97
 2461 0ec8 10       		.uleb128 0x10
 2462 0ec9 22010000 		.4byte	0x122
 2463 0ecd 00       		.byte	0
 2464 0ece 25       		.uleb128 0x25
 2465 0ecf AA010000 		.4byte	.LASF131
 2466 0ed3 0E       		.byte	0xe
 2467 0ed4 C3       		.byte	0xc3
 2468 0ed5 26       		.uleb128 0x26
 2469 0ed6 FA050000 		.4byte	.LASF125
 2470 0eda 0B       		.byte	0xb
 2471 0edb 6201     		.2byte	0x162
 2472 0edd FB0E0000 		.4byte	0xefb
 2473 0ee1 10       		.uleb128 0x10
 2474 0ee2 620E0000 		.4byte	0xe62
 2475 0ee6 10       		.uleb128 0x10
 2476 0ee7 E6040000 		.4byte	0x4e6
 2477 0eeb 10       		.uleb128 0x10
 2478 0eec 2C000000 		.4byte	0x2c
 2479 0ef0 10       		.uleb128 0x10
 2480 0ef1 C4040000 		.4byte	0x4c4
 2481 0ef5 10       		.uleb128 0x10
 2482 0ef6 92020000 		.4byte	0x292
 2483 0efa 00       		.byte	0
 2484 0efb 26       		.uleb128 0x26
 2485 0efc 56000000 		.4byte	.LASF126
 2486 0f00 0B       		.byte	0xb
 2487 0f01 6A01     		.2byte	0x16a
 2488 0f03 210F0000 		.4byte	0xf21
 2489 0f07 10       		.uleb128 0x10
 2490 0f08 8D0E0000 		.4byte	0xe8d
 2491 0f0c 10       		.uleb128 0x10
 2492 0f0d E6040000 		.4byte	0x4e6
 2493 0f11 10       		.uleb128 0x10
 2494 0f12 2C000000 		.4byte	0x2c
 2495 0f16 10       		.uleb128 0x10
 2496 0f17 C4040000 		.4byte	0x4c4
 2497 0f1b 10       		.uleb128 0x10
 2498 0f1c 92020000 		.4byte	0x292
 2499 0f20 00       		.byte	0
 2500 0f21 27       		.uleb128 0x27
 2501 0f22 D3030000 		.4byte	.LASF127
 2502 0f26 0E       		.byte	0xe
 2503 0f27 C4       		.byte	0xc4
 2504 0f28 370F0000 		.4byte	0xf37
 2505 0f2c 10       		.uleb128 0x10
 2506 0f2d 8C0C0000 		.4byte	0xc8c
 2507 0f31 10       		.uleb128 0x10
 2508 0f32 DD0C0000 		.4byte	0xcdd
ARM GAS  /tmp/cctbMVK7.s 			page 45


 2509 0f36 00       		.byte	0
 2510 0f37 27       		.uleb128 0x27
 2511 0f38 DF050000 		.4byte	.LASF128
 2512 0f3c 0E       		.byte	0xe
 2513 0f3d C5       		.byte	0xc5
 2514 0f3e 480F0000 		.4byte	0xf48
 2515 0f42 10       		.uleb128 0x10
 2516 0f43 8C0C0000 		.4byte	0xc8c
 2517 0f47 00       		.byte	0
 2518 0f48 26       		.uleb128 0x26
 2519 0f49 30050000 		.4byte	.LASF129
 2520 0f4d 0B       		.byte	0xb
 2521 0f4e 6C01     		.2byte	0x16c
 2522 0f50 5A0F0000 		.4byte	0xf5a
 2523 0f54 10       		.uleb128 0x10
 2524 0f55 8D0E0000 		.4byte	0xe8d
 2525 0f59 00       		.byte	0
 2526 0f5a 26       		.uleb128 0x26
 2527 0f5b 4B000000 		.4byte	.LASF130
 2528 0f5f 0B       		.byte	0xb
 2529 0f60 6401     		.2byte	0x164
 2530 0f62 6C0F0000 		.4byte	0xf6c
 2531 0f66 10       		.uleb128 0x10
 2532 0f67 620E0000 		.4byte	0xe62
 2533 0f6b 00       		.byte	0
 2534 0f6c 25       		.uleb128 0x25
 2535 0f6d 23010000 		.4byte	.LASF132
 2536 0f71 0F       		.byte	0xf
 2537 0f72 9C       		.byte	0x9c
 2538 0f73 27       		.uleb128 0x27
 2539 0f74 06010000 		.4byte	.LASF133
 2540 0f78 0A       		.byte	0xa
 2541 0f79 BA       		.byte	0xba
 2542 0f7a 890F0000 		.4byte	0xf89
 2543 0f7e 10       		.uleb128 0x10
 2544 0f7f 890F0000 		.4byte	0xf89
 2545 0f83 10       		.uleb128 0x10
 2546 0f84 17010000 		.4byte	0x117
 2547 0f88 00       		.byte	0
 2548 0f89 09       		.uleb128 0x9
 2549 0f8a 04       		.byte	0x4
 2550 0f8b DF030000 		.4byte	0x3df
 2551 0f8f 24       		.uleb128 0x24
 2552 0f90 57010000 		.4byte	.LASF134
 2553 0f94 0B       		.byte	0xb
 2554 0f95 6501     		.2byte	0x165
 2555 0f97 01010000 		.4byte	0x101
 2556 0f9b AA0F0000 		.4byte	0xfaa
 2557 0f9f 10       		.uleb128 0x10
 2558 0fa0 620E0000 		.4byte	0xe62
 2559 0fa4 10       		.uleb128 0x10
 2560 0fa5 97000000 		.4byte	0x97
 2561 0fa9 00       		.byte	0
 2562 0faa 28       		.uleb128 0x28
 2563 0fab DE000000 		.4byte	.LASF135
 2564 0faf 0B       		.byte	0xb
 2565 0fb0 6E01     		.2byte	0x16e
ARM GAS  /tmp/cctbMVK7.s 			page 46


 2566 0fb2 01010000 		.4byte	0x101
 2567 0fb6 10       		.uleb128 0x10
 2568 0fb7 8D0E0000 		.4byte	0xe8d
 2569 0fbb 00       		.byte	0
 2570 0fbc 00       		.byte	0
 2571              		.section	.debug_abbrev,"",%progbits
 2572              	.Ldebug_abbrev0:
 2573 0000 01       		.uleb128 0x1
 2574 0001 11       		.uleb128 0x11
 2575 0002 01       		.byte	0x1
 2576 0003 25       		.uleb128 0x25
 2577 0004 0E       		.uleb128 0xe
 2578 0005 13       		.uleb128 0x13
 2579 0006 0B       		.uleb128 0xb
 2580 0007 03       		.uleb128 0x3
 2581 0008 0E       		.uleb128 0xe
 2582 0009 1B       		.uleb128 0x1b
 2583 000a 0E       		.uleb128 0xe
 2584 000b 55       		.uleb128 0x55
 2585 000c 17       		.uleb128 0x17
 2586 000d 11       		.uleb128 0x11
 2587 000e 01       		.uleb128 0x1
 2588 000f 10       		.uleb128 0x10
 2589 0010 17       		.uleb128 0x17
 2590 0011 00       		.byte	0
 2591 0012 00       		.byte	0
 2592 0013 02       		.uleb128 0x2
 2593 0014 24       		.uleb128 0x24
 2594 0015 00       		.byte	0
 2595 0016 0B       		.uleb128 0xb
 2596 0017 0B       		.uleb128 0xb
 2597 0018 3E       		.uleb128 0x3e
 2598 0019 0B       		.uleb128 0xb
 2599 001a 03       		.uleb128 0x3
 2600 001b 08       		.uleb128 0x8
 2601 001c 00       		.byte	0
 2602 001d 00       		.byte	0
 2603 001e 03       		.uleb128 0x3
 2604 001f 16       		.uleb128 0x16
 2605 0020 00       		.byte	0
 2606 0021 03       		.uleb128 0x3
 2607 0022 0E       		.uleb128 0xe
 2608 0023 3A       		.uleb128 0x3a
 2609 0024 0B       		.uleb128 0xb
 2610 0025 3B       		.uleb128 0x3b
 2611 0026 0B       		.uleb128 0xb
 2612 0027 49       		.uleb128 0x49
 2613 0028 13       		.uleb128 0x13
 2614 0029 00       		.byte	0
 2615 002a 00       		.byte	0
 2616 002b 04       		.uleb128 0x4
 2617 002c 24       		.uleb128 0x24
 2618 002d 00       		.byte	0
 2619 002e 0B       		.uleb128 0xb
 2620 002f 0B       		.uleb128 0xb
 2621 0030 3E       		.uleb128 0x3e
 2622 0031 0B       		.uleb128 0xb
ARM GAS  /tmp/cctbMVK7.s 			page 47


 2623 0032 03       		.uleb128 0x3
 2624 0033 0E       		.uleb128 0xe
 2625 0034 00       		.byte	0
 2626 0035 00       		.byte	0
 2627 0036 05       		.uleb128 0x5
 2628 0037 13       		.uleb128 0x13
 2629 0038 01       		.byte	0x1
 2630 0039 03       		.uleb128 0x3
 2631 003a 0E       		.uleb128 0xe
 2632 003b 0B       		.uleb128 0xb
 2633 003c 0B       		.uleb128 0xb
 2634 003d 3A       		.uleb128 0x3a
 2635 003e 0B       		.uleb128 0xb
 2636 003f 3B       		.uleb128 0x3b
 2637 0040 0B       		.uleb128 0xb
 2638 0041 01       		.uleb128 0x1
 2639 0042 13       		.uleb128 0x13
 2640 0043 00       		.byte	0
 2641 0044 00       		.byte	0
 2642 0045 06       		.uleb128 0x6
 2643 0046 0D       		.uleb128 0xd
 2644 0047 00       		.byte	0
 2645 0048 03       		.uleb128 0x3
 2646 0049 0E       		.uleb128 0xe
 2647 004a 3A       		.uleb128 0x3a
 2648 004b 0B       		.uleb128 0xb
 2649 004c 3B       		.uleb128 0x3b
 2650 004d 0B       		.uleb128 0xb
 2651 004e 49       		.uleb128 0x49
 2652 004f 13       		.uleb128 0x13
 2653 0050 38       		.uleb128 0x38
 2654 0051 0B       		.uleb128 0xb
 2655 0052 00       		.byte	0
 2656 0053 00       		.byte	0
 2657 0054 07       		.uleb128 0x7
 2658 0055 0D       		.uleb128 0xd
 2659 0056 00       		.byte	0
 2660 0057 03       		.uleb128 0x3
 2661 0058 08       		.uleb128 0x8
 2662 0059 3A       		.uleb128 0x3a
 2663 005a 0B       		.uleb128 0xb
 2664 005b 3B       		.uleb128 0x3b
 2665 005c 0B       		.uleb128 0xb
 2666 005d 49       		.uleb128 0x49
 2667 005e 13       		.uleb128 0x13
 2668 005f 38       		.uleb128 0x38
 2669 0060 0B       		.uleb128 0xb
 2670 0061 00       		.byte	0
 2671 0062 00       		.byte	0
 2672 0063 08       		.uleb128 0x8
 2673 0064 13       		.uleb128 0x13
 2674 0065 01       		.byte	0x1
 2675 0066 0B       		.uleb128 0xb
 2676 0067 0B       		.uleb128 0xb
 2677 0068 3A       		.uleb128 0x3a
 2678 0069 0B       		.uleb128 0xb
 2679 006a 3B       		.uleb128 0x3b
ARM GAS  /tmp/cctbMVK7.s 			page 48


 2680 006b 0B       		.uleb128 0xb
 2681 006c 01       		.uleb128 0x1
 2682 006d 13       		.uleb128 0x13
 2683 006e 00       		.byte	0
 2684 006f 00       		.byte	0
 2685 0070 09       		.uleb128 0x9
 2686 0071 0F       		.uleb128 0xf
 2687 0072 00       		.byte	0
 2688 0073 0B       		.uleb128 0xb
 2689 0074 0B       		.uleb128 0xb
 2690 0075 49       		.uleb128 0x49
 2691 0076 13       		.uleb128 0x13
 2692 0077 00       		.byte	0
 2693 0078 00       		.byte	0
 2694 0079 0A       		.uleb128 0xa
 2695 007a 0F       		.uleb128 0xf
 2696 007b 00       		.byte	0
 2697 007c 0B       		.uleb128 0xb
 2698 007d 0B       		.uleb128 0xb
 2699 007e 00       		.byte	0
 2700 007f 00       		.byte	0
 2701 0080 0B       		.uleb128 0xb
 2702 0081 35       		.uleb128 0x35
 2703 0082 00       		.byte	0
 2704 0083 49       		.uleb128 0x49
 2705 0084 13       		.uleb128 0x13
 2706 0085 00       		.byte	0
 2707 0086 00       		.byte	0
 2708 0087 0C       		.uleb128 0xc
 2709 0088 17       		.uleb128 0x17
 2710 0089 01       		.byte	0x1
 2711 008a 0B       		.uleb128 0xb
 2712 008b 0B       		.uleb128 0xb
 2713 008c 3A       		.uleb128 0x3a
 2714 008d 0B       		.uleb128 0xb
 2715 008e 3B       		.uleb128 0x3b
 2716 008f 0B       		.uleb128 0xb
 2717 0090 01       		.uleb128 0x1
 2718 0091 13       		.uleb128 0x13
 2719 0092 00       		.byte	0
 2720 0093 00       		.byte	0
 2721 0094 0D       		.uleb128 0xd
 2722 0095 0D       		.uleb128 0xd
 2723 0096 00       		.byte	0
 2724 0097 03       		.uleb128 0x3
 2725 0098 0E       		.uleb128 0xe
 2726 0099 3A       		.uleb128 0x3a
 2727 009a 0B       		.uleb128 0xb
 2728 009b 3B       		.uleb128 0x3b
 2729 009c 0B       		.uleb128 0xb
 2730 009d 49       		.uleb128 0x49
 2731 009e 13       		.uleb128 0x13
 2732 009f 00       		.byte	0
 2733 00a0 00       		.byte	0
 2734 00a1 0E       		.uleb128 0xe
 2735 00a2 26       		.uleb128 0x26
 2736 00a3 00       		.byte	0
ARM GAS  /tmp/cctbMVK7.s 			page 49


 2737 00a4 49       		.uleb128 0x49
 2738 00a5 13       		.uleb128 0x13
 2739 00a6 00       		.byte	0
 2740 00a7 00       		.byte	0
 2741 00a8 0F       		.uleb128 0xf
 2742 00a9 15       		.uleb128 0x15
 2743 00aa 01       		.byte	0x1
 2744 00ab 27       		.uleb128 0x27
 2745 00ac 19       		.uleb128 0x19
 2746 00ad 49       		.uleb128 0x49
 2747 00ae 13       		.uleb128 0x13
 2748 00af 01       		.uleb128 0x1
 2749 00b0 13       		.uleb128 0x13
 2750 00b1 00       		.byte	0
 2751 00b2 00       		.byte	0
 2752 00b3 10       		.uleb128 0x10
 2753 00b4 05       		.uleb128 0x5
 2754 00b5 00       		.byte	0
 2755 00b6 49       		.uleb128 0x49
 2756 00b7 13       		.uleb128 0x13
 2757 00b8 00       		.byte	0
 2758 00b9 00       		.byte	0
 2759 00ba 11       		.uleb128 0x11
 2760 00bb 15       		.uleb128 0x15
 2761 00bc 01       		.byte	0x1
 2762 00bd 27       		.uleb128 0x27
 2763 00be 19       		.uleb128 0x19
 2764 00bf 01       		.uleb128 0x1
 2765 00c0 13       		.uleb128 0x13
 2766 00c1 00       		.byte	0
 2767 00c2 00       		.byte	0
 2768 00c3 12       		.uleb128 0x12
 2769 00c4 0D       		.uleb128 0xd
 2770 00c5 00       		.byte	0
 2771 00c6 03       		.uleb128 0x3
 2772 00c7 08       		.uleb128 0x8
 2773 00c8 3A       		.uleb128 0x3a
 2774 00c9 0B       		.uleb128 0xb
 2775 00ca 3B       		.uleb128 0x3b
 2776 00cb 0B       		.uleb128 0xb
 2777 00cc 49       		.uleb128 0x49
 2778 00cd 13       		.uleb128 0x13
 2779 00ce 00       		.byte	0
 2780 00cf 00       		.byte	0
 2781 00d0 13       		.uleb128 0x13
 2782 00d1 0D       		.uleb128 0xd
 2783 00d2 00       		.byte	0
 2784 00d3 49       		.uleb128 0x49
 2785 00d4 13       		.uleb128 0x13
 2786 00d5 38       		.uleb128 0x38
 2787 00d6 0B       		.uleb128 0xb
 2788 00d7 00       		.byte	0
 2789 00d8 00       		.byte	0
 2790 00d9 14       		.uleb128 0x14
 2791 00da 01       		.uleb128 0x1
 2792 00db 01       		.byte	0x1
 2793 00dc 49       		.uleb128 0x49
ARM GAS  /tmp/cctbMVK7.s 			page 50


 2794 00dd 13       		.uleb128 0x13
 2795 00de 01       		.uleb128 0x1
 2796 00df 13       		.uleb128 0x13
 2797 00e0 00       		.byte	0
 2798 00e1 00       		.byte	0
 2799 00e2 15       		.uleb128 0x15
 2800 00e3 21       		.uleb128 0x21
 2801 00e4 00       		.byte	0
 2802 00e5 49       		.uleb128 0x49
 2803 00e6 13       		.uleb128 0x13
 2804 00e7 2F       		.uleb128 0x2f
 2805 00e8 0B       		.uleb128 0xb
 2806 00e9 00       		.byte	0
 2807 00ea 00       		.byte	0
 2808 00eb 16       		.uleb128 0x16
 2809 00ec 04       		.uleb128 0x4
 2810 00ed 01       		.byte	0x1
 2811 00ee 0B       		.uleb128 0xb
 2812 00ef 0B       		.uleb128 0xb
 2813 00f0 3A       		.uleb128 0x3a
 2814 00f1 0B       		.uleb128 0xb
 2815 00f2 3B       		.uleb128 0x3b
 2816 00f3 0B       		.uleb128 0xb
 2817 00f4 01       		.uleb128 0x1
 2818 00f5 13       		.uleb128 0x13
 2819 00f6 00       		.byte	0
 2820 00f7 00       		.byte	0
 2821 00f8 17       		.uleb128 0x17
 2822 00f9 28       		.uleb128 0x28
 2823 00fa 00       		.byte	0
 2824 00fb 03       		.uleb128 0x3
 2825 00fc 0E       		.uleb128 0xe
 2826 00fd 1C       		.uleb128 0x1c
 2827 00fe 0D       		.uleb128 0xd
 2828 00ff 00       		.byte	0
 2829 0100 00       		.byte	0
 2830 0101 18       		.uleb128 0x18
 2831 0102 2E       		.uleb128 0x2e
 2832 0103 01       		.byte	0x1
 2833 0104 03       		.uleb128 0x3
 2834 0105 0E       		.uleb128 0xe
 2835 0106 3A       		.uleb128 0x3a
 2836 0107 0B       		.uleb128 0xb
 2837 0108 3B       		.uleb128 0x3b
 2838 0109 0B       		.uleb128 0xb
 2839 010a 27       		.uleb128 0x27
 2840 010b 19       		.uleb128 0x19
 2841 010c 49       		.uleb128 0x49
 2842 010d 13       		.uleb128 0x13
 2843 010e 11       		.uleb128 0x11
 2844 010f 01       		.uleb128 0x1
 2845 0110 12       		.uleb128 0x12
 2846 0111 06       		.uleb128 0x6
 2847 0112 40       		.uleb128 0x40
 2848 0113 18       		.uleb128 0x18
 2849 0114 9742     		.uleb128 0x2117
 2850 0116 19       		.uleb128 0x19
ARM GAS  /tmp/cctbMVK7.s 			page 51


 2851 0117 01       		.uleb128 0x1
 2852 0118 13       		.uleb128 0x13
 2853 0119 00       		.byte	0
 2854 011a 00       		.byte	0
 2855 011b 19       		.uleb128 0x19
 2856 011c 05       		.uleb128 0x5
 2857 011d 00       		.byte	0
 2858 011e 03       		.uleb128 0x3
 2859 011f 08       		.uleb128 0x8
 2860 0120 3A       		.uleb128 0x3a
 2861 0121 0B       		.uleb128 0xb
 2862 0122 3B       		.uleb128 0x3b
 2863 0123 0B       		.uleb128 0xb
 2864 0124 49       		.uleb128 0x49
 2865 0125 13       		.uleb128 0x13
 2866 0126 02       		.uleb128 0x2
 2867 0127 17       		.uleb128 0x17
 2868 0128 00       		.byte	0
 2869 0129 00       		.byte	0
 2870 012a 1A       		.uleb128 0x1a
 2871 012b 05       		.uleb128 0x5
 2872 012c 00       		.byte	0
 2873 012d 03       		.uleb128 0x3
 2874 012e 0E       		.uleb128 0xe
 2875 012f 3A       		.uleb128 0x3a
 2876 0130 0B       		.uleb128 0xb
 2877 0131 3B       		.uleb128 0x3b
 2878 0132 0B       		.uleb128 0xb
 2879 0133 49       		.uleb128 0x49
 2880 0134 13       		.uleb128 0x13
 2881 0135 02       		.uleb128 0x2
 2882 0136 17       		.uleb128 0x17
 2883 0137 00       		.byte	0
 2884 0138 00       		.byte	0
 2885 0139 1B       		.uleb128 0x1b
 2886 013a 898201   		.uleb128 0x4109
 2887 013d 01       		.byte	0x1
 2888 013e 11       		.uleb128 0x11
 2889 013f 01       		.uleb128 0x1
 2890 0140 31       		.uleb128 0x31
 2891 0141 13       		.uleb128 0x13
 2892 0142 00       		.byte	0
 2893 0143 00       		.byte	0
 2894 0144 1C       		.uleb128 0x1c
 2895 0145 8A8201   		.uleb128 0x410a
 2896 0148 00       		.byte	0
 2897 0149 02       		.uleb128 0x2
 2898 014a 18       		.uleb128 0x18
 2899 014b 9142     		.uleb128 0x2111
 2900 014d 18       		.uleb128 0x18
 2901 014e 00       		.byte	0
 2902 014f 00       		.byte	0
 2903 0150 1D       		.uleb128 0x1d
 2904 0151 2E       		.uleb128 0x2e
 2905 0152 01       		.byte	0x1
 2906 0153 03       		.uleb128 0x3
 2907 0154 08       		.uleb128 0x8
ARM GAS  /tmp/cctbMVK7.s 			page 52


 2908 0155 3A       		.uleb128 0x3a
 2909 0156 0B       		.uleb128 0xb
 2910 0157 3B       		.uleb128 0x3b
 2911 0158 0B       		.uleb128 0xb
 2912 0159 27       		.uleb128 0x27
 2913 015a 19       		.uleb128 0x19
 2914 015b 49       		.uleb128 0x49
 2915 015c 13       		.uleb128 0x13
 2916 015d 11       		.uleb128 0x11
 2917 015e 01       		.uleb128 0x1
 2918 015f 12       		.uleb128 0x12
 2919 0160 06       		.uleb128 0x6
 2920 0161 40       		.uleb128 0x40
 2921 0162 18       		.uleb128 0x18
 2922 0163 9742     		.uleb128 0x2117
 2923 0165 19       		.uleb128 0x19
 2924 0166 01       		.uleb128 0x1
 2925 0167 13       		.uleb128 0x13
 2926 0168 00       		.byte	0
 2927 0169 00       		.byte	0
 2928 016a 1E       		.uleb128 0x1e
 2929 016b 2E       		.uleb128 0x2e
 2930 016c 01       		.byte	0x1
 2931 016d 3F       		.uleb128 0x3f
 2932 016e 19       		.uleb128 0x19
 2933 016f 03       		.uleb128 0x3
 2934 0170 0E       		.uleb128 0xe
 2935 0171 3A       		.uleb128 0x3a
 2936 0172 0B       		.uleb128 0xb
 2937 0173 3B       		.uleb128 0x3b
 2938 0174 0B       		.uleb128 0xb
 2939 0175 27       		.uleb128 0x27
 2940 0176 19       		.uleb128 0x19
 2941 0177 11       		.uleb128 0x11
 2942 0178 01       		.uleb128 0x1
 2943 0179 12       		.uleb128 0x12
 2944 017a 06       		.uleb128 0x6
 2945 017b 40       		.uleb128 0x40
 2946 017c 18       		.uleb128 0x18
 2947 017d 9742     		.uleb128 0x2117
 2948 017f 19       		.uleb128 0x19
 2949 0180 01       		.uleb128 0x1
 2950 0181 13       		.uleb128 0x13
 2951 0182 00       		.byte	0
 2952 0183 00       		.byte	0
 2953 0184 1F       		.uleb128 0x1f
 2954 0185 898201   		.uleb128 0x4109
 2955 0188 00       		.byte	0
 2956 0189 11       		.uleb128 0x11
 2957 018a 01       		.uleb128 0x1
 2958 018b 31       		.uleb128 0x31
 2959 018c 13       		.uleb128 0x13
 2960 018d 00       		.byte	0
 2961 018e 00       		.byte	0
 2962 018f 20       		.uleb128 0x20
 2963 0190 898201   		.uleb128 0x4109
 2964 0193 01       		.byte	0x1
ARM GAS  /tmp/cctbMVK7.s 			page 53


 2965 0194 11       		.uleb128 0x11
 2966 0195 01       		.uleb128 0x1
 2967 0196 31       		.uleb128 0x31
 2968 0197 13       		.uleb128 0x13
 2969 0198 01       		.uleb128 0x1
 2970 0199 13       		.uleb128 0x13
 2971 019a 00       		.byte	0
 2972 019b 00       		.byte	0
 2973 019c 21       		.uleb128 0x21
 2974 019d 2E       		.uleb128 0x2e
 2975 019e 01       		.byte	0x1
 2976 019f 3F       		.uleb128 0x3f
 2977 01a0 19       		.uleb128 0x19
 2978 01a1 03       		.uleb128 0x3
 2979 01a2 0E       		.uleb128 0xe
 2980 01a3 3A       		.uleb128 0x3a
 2981 01a4 0B       		.uleb128 0xb
 2982 01a5 3B       		.uleb128 0x3b
 2983 01a6 0B       		.uleb128 0xb
 2984 01a7 27       		.uleb128 0x27
 2985 01a8 19       		.uleb128 0x19
 2986 01a9 49       		.uleb128 0x49
 2987 01aa 13       		.uleb128 0x13
 2988 01ab 11       		.uleb128 0x11
 2989 01ac 01       		.uleb128 0x1
 2990 01ad 12       		.uleb128 0x12
 2991 01ae 06       		.uleb128 0x6
 2992 01af 40       		.uleb128 0x40
 2993 01b0 18       		.uleb128 0x18
 2994 01b1 9742     		.uleb128 0x2117
 2995 01b3 19       		.uleb128 0x19
 2996 01b4 01       		.uleb128 0x1
 2997 01b5 13       		.uleb128 0x13
 2998 01b6 00       		.byte	0
 2999 01b7 00       		.byte	0
 3000 01b8 22       		.uleb128 0x22
 3001 01b9 34       		.uleb128 0x34
 3002 01ba 00       		.byte	0
 3003 01bb 03       		.uleb128 0x3
 3004 01bc 08       		.uleb128 0x8
 3005 01bd 3A       		.uleb128 0x3a
 3006 01be 0B       		.uleb128 0xb
 3007 01bf 3B       		.uleb128 0x3b
 3008 01c0 0B       		.uleb128 0xb
 3009 01c1 49       		.uleb128 0x49
 3010 01c2 13       		.uleb128 0x13
 3011 01c3 02       		.uleb128 0x2
 3012 01c4 17       		.uleb128 0x17
 3013 01c5 00       		.byte	0
 3014 01c6 00       		.byte	0
 3015 01c7 23       		.uleb128 0x23
 3016 01c8 34       		.uleb128 0x34
 3017 01c9 00       		.byte	0
 3018 01ca 03       		.uleb128 0x3
 3019 01cb 08       		.uleb128 0x8
 3020 01cc 3A       		.uleb128 0x3a
 3021 01cd 0B       		.uleb128 0xb
ARM GAS  /tmp/cctbMVK7.s 			page 54


 3022 01ce 3B       		.uleb128 0x3b
 3023 01cf 0B       		.uleb128 0xb
 3024 01d0 49       		.uleb128 0x49
 3025 01d1 13       		.uleb128 0x13
 3026 01d2 02       		.uleb128 0x2
 3027 01d3 18       		.uleb128 0x18
 3028 01d4 00       		.byte	0
 3029 01d5 00       		.byte	0
 3030 01d6 24       		.uleb128 0x24
 3031 01d7 2E       		.uleb128 0x2e
 3032 01d8 01       		.byte	0x1
 3033 01d9 3F       		.uleb128 0x3f
 3034 01da 19       		.uleb128 0x19
 3035 01db 03       		.uleb128 0x3
 3036 01dc 0E       		.uleb128 0xe
 3037 01dd 3A       		.uleb128 0x3a
 3038 01de 0B       		.uleb128 0xb
 3039 01df 3B       		.uleb128 0x3b
 3040 01e0 05       		.uleb128 0x5
 3041 01e1 27       		.uleb128 0x27
 3042 01e2 19       		.uleb128 0x19
 3043 01e3 49       		.uleb128 0x49
 3044 01e4 13       		.uleb128 0x13
 3045 01e5 3C       		.uleb128 0x3c
 3046 01e6 19       		.uleb128 0x19
 3047 01e7 01       		.uleb128 0x1
 3048 01e8 13       		.uleb128 0x13
 3049 01e9 00       		.byte	0
 3050 01ea 00       		.byte	0
 3051 01eb 25       		.uleb128 0x25
 3052 01ec 2E       		.uleb128 0x2e
 3053 01ed 00       		.byte	0
 3054 01ee 3F       		.uleb128 0x3f
 3055 01ef 19       		.uleb128 0x19
 3056 01f0 03       		.uleb128 0x3
 3057 01f1 0E       		.uleb128 0xe
 3058 01f2 3A       		.uleb128 0x3a
 3059 01f3 0B       		.uleb128 0xb
 3060 01f4 3B       		.uleb128 0x3b
 3061 01f5 0B       		.uleb128 0xb
 3062 01f6 27       		.uleb128 0x27
 3063 01f7 19       		.uleb128 0x19
 3064 01f8 3C       		.uleb128 0x3c
 3065 01f9 19       		.uleb128 0x19
 3066 01fa 00       		.byte	0
 3067 01fb 00       		.byte	0
 3068 01fc 26       		.uleb128 0x26
 3069 01fd 2E       		.uleb128 0x2e
 3070 01fe 01       		.byte	0x1
 3071 01ff 3F       		.uleb128 0x3f
 3072 0200 19       		.uleb128 0x19
 3073 0201 03       		.uleb128 0x3
 3074 0202 0E       		.uleb128 0xe
 3075 0203 3A       		.uleb128 0x3a
 3076 0204 0B       		.uleb128 0xb
 3077 0205 3B       		.uleb128 0x3b
 3078 0206 05       		.uleb128 0x5
ARM GAS  /tmp/cctbMVK7.s 			page 55


 3079 0207 27       		.uleb128 0x27
 3080 0208 19       		.uleb128 0x19
 3081 0209 3C       		.uleb128 0x3c
 3082 020a 19       		.uleb128 0x19
 3083 020b 01       		.uleb128 0x1
 3084 020c 13       		.uleb128 0x13
 3085 020d 00       		.byte	0
 3086 020e 00       		.byte	0
 3087 020f 27       		.uleb128 0x27
 3088 0210 2E       		.uleb128 0x2e
 3089 0211 01       		.byte	0x1
 3090 0212 3F       		.uleb128 0x3f
 3091 0213 19       		.uleb128 0x19
 3092 0214 03       		.uleb128 0x3
 3093 0215 0E       		.uleb128 0xe
 3094 0216 3A       		.uleb128 0x3a
 3095 0217 0B       		.uleb128 0xb
 3096 0218 3B       		.uleb128 0x3b
 3097 0219 0B       		.uleb128 0xb
 3098 021a 27       		.uleb128 0x27
 3099 021b 19       		.uleb128 0x19
 3100 021c 3C       		.uleb128 0x3c
 3101 021d 19       		.uleb128 0x19
 3102 021e 01       		.uleb128 0x1
 3103 021f 13       		.uleb128 0x13
 3104 0220 00       		.byte	0
 3105 0221 00       		.byte	0
 3106 0222 28       		.uleb128 0x28
 3107 0223 2E       		.uleb128 0x2e
 3108 0224 01       		.byte	0x1
 3109 0225 3F       		.uleb128 0x3f
 3110 0226 19       		.uleb128 0x19
 3111 0227 03       		.uleb128 0x3
 3112 0228 0E       		.uleb128 0xe
 3113 0229 3A       		.uleb128 0x3a
 3114 022a 0B       		.uleb128 0xb
 3115 022b 3B       		.uleb128 0x3b
 3116 022c 05       		.uleb128 0x5
 3117 022d 27       		.uleb128 0x27
 3118 022e 19       		.uleb128 0x19
 3119 022f 49       		.uleb128 0x49
 3120 0230 13       		.uleb128 0x13
 3121 0231 3C       		.uleb128 0x3c
 3122 0232 19       		.uleb128 0x19
 3123 0233 00       		.byte	0
 3124 0234 00       		.byte	0
 3125 0235 00       		.byte	0
 3126              		.section	.debug_loc,"",%progbits
 3127              	.Ldebug_loc0:
 3128              	.LLST0:
 3129 0000 00000000 		.4byte	.LVL0
 3130 0004 04000000 		.4byte	.LVL1
 3131 0008 0100     		.2byte	0x1
 3132 000a 50       		.byte	0x50
 3133 000b 04000000 		.4byte	.LVL1
 3134 000f 07000000 		.4byte	.LVL2-1
 3135 0013 0300     		.2byte	0x3
ARM GAS  /tmp/cctbMVK7.s 			page 56


 3136 0015 70       		.byte	0x70
 3137 0016 74       		.sleb128 -12
 3138 0017 9F       		.byte	0x9f
 3139 0018 07000000 		.4byte	.LVL2-1
 3140 001c 0A000000 		.4byte	.LFE46
 3141 0020 0400     		.2byte	0x4
 3142 0022 F3       		.byte	0xf3
 3143 0023 01       		.uleb128 0x1
 3144 0024 50       		.byte	0x50
 3145 0025 9F       		.byte	0x9f
 3146 0026 00000000 		.4byte	0
 3147 002a 00000000 		.4byte	0
 3148              	.LLST1:
 3149 002e 00000000 		.4byte	.LVL0
 3150 0032 07000000 		.4byte	.LVL2-1
 3151 0036 0100     		.2byte	0x1
 3152 0038 51       		.byte	0x51
 3153 0039 07000000 		.4byte	.LVL2-1
 3154 003d 0A000000 		.4byte	.LFE46
 3155 0041 0400     		.2byte	0x4
 3156 0043 F3       		.byte	0xf3
 3157 0044 01       		.uleb128 0x1
 3158 0045 51       		.byte	0x51
 3159 0046 9F       		.byte	0x9f
 3160 0047 00000000 		.4byte	0
 3161 004b 00000000 		.4byte	0
 3162              	.LLST2:
 3163 004f 00000000 		.4byte	.LVL0
 3164 0053 07000000 		.4byte	.LVL2-1
 3165 0057 0100     		.2byte	0x1
 3166 0059 52       		.byte	0x52
 3167 005a 07000000 		.4byte	.LVL2-1
 3168 005e 0A000000 		.4byte	.LFE46
 3169 0062 0400     		.2byte	0x4
 3170 0064 F3       		.byte	0xf3
 3171 0065 01       		.uleb128 0x1
 3172 0066 52       		.byte	0x52
 3173 0067 9F       		.byte	0x9f
 3174 0068 00000000 		.4byte	0
 3175 006c 00000000 		.4byte	0
 3176              	.LLST3:
 3177 0070 00000000 		.4byte	.LVL0
 3178 0074 07000000 		.4byte	.LVL2-1
 3179 0078 0100     		.2byte	0x1
 3180 007a 53       		.byte	0x53
 3181 007b 07000000 		.4byte	.LVL2-1
 3182 007f 0A000000 		.4byte	.LFE46
 3183 0083 0400     		.2byte	0x4
 3184 0085 F3       		.byte	0xf3
 3185 0086 01       		.uleb128 0x1
 3186 0087 53       		.byte	0x53
 3187 0088 9F       		.byte	0x9f
 3188 0089 00000000 		.4byte	0
 3189 008d 00000000 		.4byte	0
 3190              	.LLST4:
 3191 0091 00000000 		.4byte	.LVL3
 3192 0095 04000000 		.4byte	.LVL4
ARM GAS  /tmp/cctbMVK7.s 			page 57


 3193 0099 0100     		.2byte	0x1
 3194 009b 50       		.byte	0x50
 3195 009c 04000000 		.4byte	.LVL4
 3196 00a0 0B000000 		.4byte	.LVL5-1
 3197 00a4 0300     		.2byte	0x3
 3198 00a6 70       		.byte	0x70
 3199 00a7 74       		.sleb128 -12
 3200 00a8 9F       		.byte	0x9f
 3201 00a9 0B000000 		.4byte	.LVL5-1
 3202 00ad 0E000000 		.4byte	.LFE40
 3203 00b1 0400     		.2byte	0x4
 3204 00b3 F3       		.byte	0xf3
 3205 00b4 01       		.uleb128 0x1
 3206 00b5 50       		.byte	0x50
 3207 00b6 9F       		.byte	0x9f
 3208 00b7 00000000 		.4byte	0
 3209 00bb 00000000 		.4byte	0
 3210              	.LLST5:
 3211 00bf 00000000 		.4byte	.LVL3
 3212 00c3 0B000000 		.4byte	.LVL5-1
 3213 00c7 0100     		.2byte	0x1
 3214 00c9 51       		.byte	0x51
 3215 00ca 0B000000 		.4byte	.LVL5-1
 3216 00ce 0E000000 		.4byte	.LFE40
 3217 00d2 0400     		.2byte	0x4
 3218 00d4 F3       		.byte	0xf3
 3219 00d5 01       		.uleb128 0x1
 3220 00d6 51       		.byte	0x51
 3221 00d7 9F       		.byte	0x9f
 3222 00d8 00000000 		.4byte	0
 3223 00dc 00000000 		.4byte	0
 3224              	.LLST6:
 3225 00e0 00000000 		.4byte	.LVL3
 3226 00e4 0B000000 		.4byte	.LVL5-1
 3227 00e8 0100     		.2byte	0x1
 3228 00ea 52       		.byte	0x52
 3229 00eb 0B000000 		.4byte	.LVL5-1
 3230 00ef 0E000000 		.4byte	.LFE40
 3231 00f3 0400     		.2byte	0x4
 3232 00f5 F3       		.byte	0xf3
 3233 00f6 01       		.uleb128 0x1
 3234 00f7 52       		.byte	0x52
 3235 00f8 9F       		.byte	0x9f
 3236 00f9 00000000 		.4byte	0
 3237 00fd 00000000 		.4byte	0
 3238              	.LLST7:
 3239 0101 00000000 		.4byte	.LVL6
 3240 0105 04000000 		.4byte	.LVL7
 3241 0109 0100     		.2byte	0x1
 3242 010b 50       		.byte	0x50
 3243 010c 04000000 		.4byte	.LVL7
 3244 0110 07000000 		.4byte	.LVL8-1
 3245 0114 0300     		.2byte	0x3
 3246 0116 70       		.byte	0x70
 3247 0117 50       		.sleb128 -48
 3248 0118 9F       		.byte	0x9f
 3249 0119 07000000 		.4byte	.LVL8-1
ARM GAS  /tmp/cctbMVK7.s 			page 58


 3250 011d 0A000000 		.4byte	.LFE45
 3251 0121 0400     		.2byte	0x4
 3252 0123 F3       		.byte	0xf3
 3253 0124 01       		.uleb128 0x1
 3254 0125 50       		.byte	0x50
 3255 0126 9F       		.byte	0x9f
 3256 0127 00000000 		.4byte	0
 3257 012b 00000000 		.4byte	0
 3258              	.LLST8:
 3259 012f 00000000 		.4byte	.LVL6
 3260 0133 07000000 		.4byte	.LVL8-1
 3261 0137 0100     		.2byte	0x1
 3262 0139 51       		.byte	0x51
 3263 013a 07000000 		.4byte	.LVL8-1
 3264 013e 0A000000 		.4byte	.LFE45
 3265 0142 0400     		.2byte	0x4
 3266 0144 F3       		.byte	0xf3
 3267 0145 01       		.uleb128 0x1
 3268 0146 51       		.byte	0x51
 3269 0147 9F       		.byte	0x9f
 3270 0148 00000000 		.4byte	0
 3271 014c 00000000 		.4byte	0
 3272              	.LLST9:
 3273 0150 00000000 		.4byte	.LVL6
 3274 0154 07000000 		.4byte	.LVL8-1
 3275 0158 0100     		.2byte	0x1
 3276 015a 52       		.byte	0x52
 3277 015b 07000000 		.4byte	.LVL8-1
 3278 015f 0A000000 		.4byte	.LFE45
 3279 0163 0400     		.2byte	0x4
 3280 0165 F3       		.byte	0xf3
 3281 0166 01       		.uleb128 0x1
 3282 0167 52       		.byte	0x52
 3283 0168 9F       		.byte	0x9f
 3284 0169 00000000 		.4byte	0
 3285 016d 00000000 		.4byte	0
 3286              	.LLST10:
 3287 0171 00000000 		.4byte	.LVL6
 3288 0175 07000000 		.4byte	.LVL8-1
 3289 0179 0100     		.2byte	0x1
 3290 017b 53       		.byte	0x53
 3291 017c 07000000 		.4byte	.LVL8-1
 3292 0180 0A000000 		.4byte	.LFE45
 3293 0184 0400     		.2byte	0x4
 3294 0186 F3       		.byte	0xf3
 3295 0187 01       		.uleb128 0x1
 3296 0188 53       		.byte	0x53
 3297 0189 9F       		.byte	0x9f
 3298 018a 00000000 		.4byte	0
 3299 018e 00000000 		.4byte	0
 3300              	.LLST11:
 3301 0192 00000000 		.4byte	.LVL9
 3302 0196 04000000 		.4byte	.LVL10
 3303 019a 0100     		.2byte	0x1
 3304 019c 50       		.byte	0x50
 3305 019d 04000000 		.4byte	.LVL10
 3306 01a1 0B000000 		.4byte	.LVL11-1
ARM GAS  /tmp/cctbMVK7.s 			page 59


 3307 01a5 0300     		.2byte	0x3
 3308 01a7 70       		.byte	0x70
 3309 01a8 50       		.sleb128 -48
 3310 01a9 9F       		.byte	0x9f
 3311 01aa 0B000000 		.4byte	.LVL11-1
 3312 01ae 0E000000 		.4byte	.LFE39
 3313 01b2 0400     		.2byte	0x4
 3314 01b4 F3       		.byte	0xf3
 3315 01b5 01       		.uleb128 0x1
 3316 01b6 50       		.byte	0x50
 3317 01b7 9F       		.byte	0x9f
 3318 01b8 00000000 		.4byte	0
 3319 01bc 00000000 		.4byte	0
 3320              	.LLST12:
 3321 01c0 00000000 		.4byte	.LVL9
 3322 01c4 0B000000 		.4byte	.LVL11-1
 3323 01c8 0100     		.2byte	0x1
 3324 01ca 51       		.byte	0x51
 3325 01cb 0B000000 		.4byte	.LVL11-1
 3326 01cf 0E000000 		.4byte	.LFE39
 3327 01d3 0400     		.2byte	0x4
 3328 01d5 F3       		.byte	0xf3
 3329 01d6 01       		.uleb128 0x1
 3330 01d7 51       		.byte	0x51
 3331 01d8 9F       		.byte	0x9f
 3332 01d9 00000000 		.4byte	0
 3333 01dd 00000000 		.4byte	0
 3334              	.LLST13:
 3335 01e1 00000000 		.4byte	.LVL9
 3336 01e5 0B000000 		.4byte	.LVL11-1
 3337 01e9 0100     		.2byte	0x1
 3338 01eb 52       		.byte	0x52
 3339 01ec 0B000000 		.4byte	.LVL11-1
 3340 01f0 0E000000 		.4byte	.LFE39
 3341 01f4 0400     		.2byte	0x4
 3342 01f6 F3       		.byte	0xf3
 3343 01f7 01       		.uleb128 0x1
 3344 01f8 52       		.byte	0x52
 3345 01f9 9F       		.byte	0x9f
 3346 01fa 00000000 		.4byte	0
 3347 01fe 00000000 		.4byte	0
 3348              	.LLST14:
 3349 0202 00000000 		.4byte	.LVL12
 3350 0206 04000000 		.4byte	.LVL13
 3351 020a 0100     		.2byte	0x1
 3352 020c 50       		.byte	0x50
 3353 020d 04000000 		.4byte	.LVL13
 3354 0211 07000000 		.4byte	.LVL14-1
 3355 0215 0300     		.2byte	0x3
 3356 0217 70       		.byte	0x70
 3357 0218 74       		.sleb128 -12
 3358 0219 9F       		.byte	0x9f
 3359 021a 07000000 		.4byte	.LVL14-1
 3360 021e 0A000000 		.4byte	.LFE44
 3361 0222 0400     		.2byte	0x4
 3362 0224 F3       		.byte	0xf3
 3363 0225 01       		.uleb128 0x1
ARM GAS  /tmp/cctbMVK7.s 			page 60


 3364 0226 50       		.byte	0x50
 3365 0227 9F       		.byte	0x9f
 3366 0228 00000000 		.4byte	0
 3367 022c 00000000 		.4byte	0
 3368              	.LLST15:
 3369 0230 00000000 		.4byte	.LVL12
 3370 0234 07000000 		.4byte	.LVL14-1
 3371 0238 0100     		.2byte	0x1
 3372 023a 51       		.byte	0x51
 3373 023b 07000000 		.4byte	.LVL14-1
 3374 023f 0A000000 		.4byte	.LFE44
 3375 0243 0400     		.2byte	0x4
 3376 0245 F3       		.byte	0xf3
 3377 0246 01       		.uleb128 0x1
 3378 0247 51       		.byte	0x51
 3379 0248 9F       		.byte	0x9f
 3380 0249 00000000 		.4byte	0
 3381 024d 00000000 		.4byte	0
 3382              	.LLST16:
 3383 0251 00000000 		.4byte	.LVL15
 3384 0255 04000000 		.4byte	.LVL16
 3385 0259 0100     		.2byte	0x1
 3386 025b 50       		.byte	0x50
 3387 025c 04000000 		.4byte	.LVL16
 3388 0260 0B000000 		.4byte	.LVL17-1
 3389 0264 0300     		.2byte	0x3
 3390 0266 70       		.byte	0x70
 3391 0267 74       		.sleb128 -12
 3392 0268 9F       		.byte	0x9f
 3393 0269 0B000000 		.4byte	.LVL17-1
 3394 026d 0E000000 		.4byte	.LFE42
 3395 0271 0400     		.2byte	0x4
 3396 0273 F3       		.byte	0xf3
 3397 0274 01       		.uleb128 0x1
 3398 0275 50       		.byte	0x50
 3399 0276 9F       		.byte	0x9f
 3400 0277 00000000 		.4byte	0
 3401 027b 00000000 		.4byte	0
 3402              	.LLST17:
 3403 027f 00000000 		.4byte	.LVL18
 3404 0283 04000000 		.4byte	.LVL19
 3405 0287 0100     		.2byte	0x1
 3406 0289 50       		.byte	0x50
 3407 028a 04000000 		.4byte	.LVL19
 3408 028e 07000000 		.4byte	.LVL20-1
 3409 0292 0300     		.2byte	0x3
 3410 0294 70       		.byte	0x70
 3411 0295 50       		.sleb128 -48
 3412 0296 9F       		.byte	0x9f
 3413 0297 07000000 		.4byte	.LVL20-1
 3414 029b 0A000000 		.4byte	.LFE43
 3415 029f 0400     		.2byte	0x4
 3416 02a1 F3       		.byte	0xf3
 3417 02a2 01       		.uleb128 0x1
 3418 02a3 50       		.byte	0x50
 3419 02a4 9F       		.byte	0x9f
 3420 02a5 00000000 		.4byte	0
ARM GAS  /tmp/cctbMVK7.s 			page 61


 3421 02a9 00000000 		.4byte	0
 3422              	.LLST18:
 3423 02ad 00000000 		.4byte	.LVL18
 3424 02b1 07000000 		.4byte	.LVL20-1
 3425 02b5 0100     		.2byte	0x1
 3426 02b7 51       		.byte	0x51
 3427 02b8 07000000 		.4byte	.LVL20-1
 3428 02bc 0A000000 		.4byte	.LFE43
 3429 02c0 0400     		.2byte	0x4
 3430 02c2 F3       		.byte	0xf3
 3431 02c3 01       		.uleb128 0x1
 3432 02c4 51       		.byte	0x51
 3433 02c5 9F       		.byte	0x9f
 3434 02c6 00000000 		.4byte	0
 3435 02ca 00000000 		.4byte	0
 3436              	.LLST19:
 3437 02ce 00000000 		.4byte	.LVL18
 3438 02d2 07000000 		.4byte	.LVL20-1
 3439 02d6 0100     		.2byte	0x1
 3440 02d8 52       		.byte	0x52
 3441 02d9 07000000 		.4byte	.LVL20-1
 3442 02dd 0A000000 		.4byte	.LFE43
 3443 02e1 0400     		.2byte	0x4
 3444 02e3 F3       		.byte	0xf3
 3445 02e4 01       		.uleb128 0x1
 3446 02e5 52       		.byte	0x52
 3447 02e6 9F       		.byte	0x9f
 3448 02e7 00000000 		.4byte	0
 3449 02eb 00000000 		.4byte	0
 3450              	.LLST20:
 3451 02ef 00000000 		.4byte	.LVL21
 3452 02f3 04000000 		.4byte	.LVL22
 3453 02f7 0100     		.2byte	0x1
 3454 02f9 50       		.byte	0x50
 3455 02fa 04000000 		.4byte	.LVL22
 3456 02fe 0B000000 		.4byte	.LVL23-1
 3457 0302 0300     		.2byte	0x3
 3458 0304 70       		.byte	0x70
 3459 0305 50       		.sleb128 -48
 3460 0306 9F       		.byte	0x9f
 3461 0307 0B000000 		.4byte	.LVL23-1
 3462 030b 0E000000 		.4byte	.LFE41
 3463 030f 0400     		.2byte	0x4
 3464 0311 F3       		.byte	0xf3
 3465 0312 01       		.uleb128 0x1
 3466 0313 50       		.byte	0x50
 3467 0314 9F       		.byte	0x9f
 3468 0315 00000000 		.4byte	0
 3469 0319 00000000 		.4byte	0
 3470              	.LLST21:
 3471 031d 00000000 		.4byte	.LVL21
 3472 0321 0B000000 		.4byte	.LVL23-1
 3473 0325 0100     		.2byte	0x1
 3474 0327 51       		.byte	0x51
 3475 0328 0B000000 		.4byte	.LVL23-1
 3476 032c 0E000000 		.4byte	.LFE41
 3477 0330 0400     		.2byte	0x4
ARM GAS  /tmp/cctbMVK7.s 			page 62


 3478 0332 F3       		.byte	0xf3
 3479 0333 01       		.uleb128 0x1
 3480 0334 51       		.byte	0x51
 3481 0335 9F       		.byte	0x9f
 3482 0336 00000000 		.4byte	0
 3483 033a 00000000 		.4byte	0
 3484              	.LLST22:
 3485 033e 00000000 		.4byte	.LVL25
 3486 0342 0E000000 		.4byte	.LVL27
 3487 0346 0100     		.2byte	0x1
 3488 0348 50       		.byte	0x50
 3489 0349 0E000000 		.4byte	.LVL27
 3490 034d 38000000 		.4byte	.LVL31
 3491 0351 0100     		.2byte	0x1
 3492 0353 54       		.byte	0x54
 3493 0354 38000000 		.4byte	.LVL31
 3494 0358 40000000 		.4byte	.LFE48
 3495 035c 0400     		.2byte	0x4
 3496 035e F3       		.byte	0xf3
 3497 035f 01       		.uleb128 0x1
 3498 0360 50       		.byte	0x50
 3499 0361 9F       		.byte	0x9f
 3500 0362 00000000 		.4byte	0
 3501 0366 00000000 		.4byte	0
 3502              	.LLST23:
 3503 036a 00000000 		.4byte	.LVL25
 3504 036e 1A000000 		.4byte	.LVL28
 3505 0372 0100     		.2byte	0x1
 3506 0374 51       		.byte	0x51
 3507 0375 1A000000 		.4byte	.LVL28
 3508 0379 23000000 		.4byte	.LVL29-1
 3509 037d 0100     		.2byte	0x1
 3510 037f 53       		.byte	0x53
 3511 0380 23000000 		.4byte	.LVL29-1
 3512 0384 40000000 		.4byte	.LFE48
 3513 0388 0400     		.2byte	0x4
 3514 038a F3       		.byte	0xf3
 3515 038b 01       		.uleb128 0x1
 3516 038c 51       		.byte	0x51
 3517 038d 9F       		.byte	0x9f
 3518 038e 00000000 		.4byte	0
 3519 0392 00000000 		.4byte	0
 3520              	.LLST24:
 3521 0396 00000000 		.4byte	.LVL25
 3522 039a 0C000000 		.4byte	.LVL26
 3523 039e 0100     		.2byte	0x1
 3524 03a0 52       		.byte	0x52
 3525 03a1 0C000000 		.4byte	.LVL26
 3526 03a5 38000000 		.4byte	.LVL32
 3527 03a9 0100     		.2byte	0x1
 3528 03ab 55       		.byte	0x55
 3529 03ac 38000000 		.4byte	.LVL32
 3530 03b0 40000000 		.4byte	.LFE48
 3531 03b4 0400     		.2byte	0x4
 3532 03b6 F3       		.byte	0xf3
 3533 03b7 01       		.uleb128 0x1
 3534 03b8 52       		.byte	0x52
ARM GAS  /tmp/cctbMVK7.s 			page 63


 3535 03b9 9F       		.byte	0x9f
 3536 03ba 00000000 		.4byte	0
 3537 03be 00000000 		.4byte	0
 3538              	.LLST25:
 3539 03c2 00000000 		.4byte	.LVL33
 3540 03c6 09000000 		.4byte	.LVL34-1
 3541 03ca 0100     		.2byte	0x1
 3542 03cc 50       		.byte	0x50
 3543 03cd 09000000 		.4byte	.LVL34-1
 3544 03d1 10000000 		.4byte	.LVL35
 3545 03d5 0100     		.2byte	0x1
 3546 03d7 54       		.byte	0x54
 3547 03d8 10000000 		.4byte	.LVL35
 3548 03dc 12000000 		.4byte	.LFE49
 3549 03e0 0400     		.2byte	0x4
 3550 03e2 F3       		.byte	0xf3
 3551 03e3 01       		.uleb128 0x1
 3552 03e4 50       		.byte	0x50
 3553 03e5 9F       		.byte	0x9f
 3554 03e6 00000000 		.4byte	0
 3555 03ea 00000000 		.4byte	0
 3556              	.LLST26:
 3557 03ee 00000000 		.4byte	.LVL33
 3558 03f2 09000000 		.4byte	.LVL34-1
 3559 03f6 0100     		.2byte	0x1
 3560 03f8 51       		.byte	0x51
 3561 03f9 09000000 		.4byte	.LVL34-1
 3562 03fd 12000000 		.4byte	.LFE49
 3563 0401 0400     		.2byte	0x4
 3564 0403 F3       		.byte	0xf3
 3565 0404 01       		.uleb128 0x1
 3566 0405 51       		.byte	0x51
 3567 0406 9F       		.byte	0x9f
 3568 0407 00000000 		.4byte	0
 3569 040b 00000000 		.4byte	0
 3570              	.LLST27:
 3571 040f 00000000 		.4byte	.LVL36
 3572 0413 09000000 		.4byte	.LVL37-1
 3573 0417 0100     		.2byte	0x1
 3574 0419 50       		.byte	0x50
 3575 041a 09000000 		.4byte	.LVL37-1
 3576 041e 24000000 		.4byte	.LVL41
 3577 0422 0100     		.2byte	0x1
 3578 0424 54       		.byte	0x54
 3579 0425 24000000 		.4byte	.LVL41
 3580 0429 26000000 		.4byte	.LFE50
 3581 042d 0400     		.2byte	0x4
 3582 042f F3       		.byte	0xf3
 3583 0430 01       		.uleb128 0x1
 3584 0431 50       		.byte	0x50
 3585 0432 9F       		.byte	0x9f
 3586 0433 00000000 		.4byte	0
 3587 0437 00000000 		.4byte	0
 3588              	.LLST28:
 3589 043b 00000000 		.4byte	.LVL42
 3590 043f 0E000000 		.4byte	.LVL43
 3591 0443 0100     		.2byte	0x1
ARM GAS  /tmp/cctbMVK7.s 			page 64


 3592 0445 50       		.byte	0x50
 3593 0446 0E000000 		.4byte	.LVL43
 3594 044a 2A000000 		.4byte	.LVL48
 3595 044e 0100     		.2byte	0x1
 3596 0450 54       		.byte	0x54
 3597 0451 2A000000 		.4byte	.LVL48
 3598 0455 2C000000 		.4byte	.LFE51
 3599 0459 0400     		.2byte	0x4
 3600 045b F3       		.byte	0xf3
 3601 045c 01       		.uleb128 0x1
 3602 045d 50       		.byte	0x50
 3603 045e 9F       		.byte	0x9f
 3604 045f 00000000 		.4byte	0
 3605 0463 00000000 		.4byte	0
 3606              	.LLST29:
 3607 0467 00000000 		.4byte	.LVL42
 3608 046b 10000000 		.4byte	.LVL44
 3609 046f 0100     		.2byte	0x1
 3610 0471 51       		.byte	0x51
 3611 0472 10000000 		.4byte	.LVL44
 3612 0476 2C000000 		.4byte	.LFE51
 3613 047a 0400     		.2byte	0x4
 3614 047c F3       		.byte	0xf3
 3615 047d 01       		.uleb128 0x1
 3616 047e 51       		.byte	0x51
 3617 047f 9F       		.byte	0x9f
 3618 0480 00000000 		.4byte	0
 3619 0484 00000000 		.4byte	0
 3620              	.LLST30:
 3621 0488 00000000 		.4byte	.LVL49
 3622 048c 06000000 		.4byte	.LVL50
 3623 0490 0100     		.2byte	0x1
 3624 0492 50       		.byte	0x50
 3625 0493 06000000 		.4byte	.LVL50
 3626 0497 18000000 		.4byte	.LVL56
 3627 049b 0100     		.2byte	0x1
 3628 049d 55       		.byte	0x55
 3629 049e 18000000 		.4byte	.LVL56
 3630 04a2 1A000000 		.4byte	.LFE52
 3631 04a6 0400     		.2byte	0x4
 3632 04a8 F3       		.byte	0xf3
 3633 04a9 01       		.uleb128 0x1
 3634 04aa 50       		.byte	0x50
 3635 04ab 9F       		.byte	0x9f
 3636 04ac 00000000 		.4byte	0
 3637 04b0 00000000 		.4byte	0
 3638              	.LLST31:
 3639 04b4 0C000000 		.4byte	.LVL52
 3640 04b8 10000000 		.4byte	.LVL53
 3641 04bc 0100     		.2byte	0x1
 3642 04be 50       		.byte	0x50
 3643 04bf 10000000 		.4byte	.LVL53
 3644 04c3 18000000 		.4byte	.LVL55
 3645 04c7 0100     		.2byte	0x1
 3646 04c9 54       		.byte	0x54
 3647 04ca 18000000 		.4byte	.LVL55
 3648 04ce 1A000000 		.4byte	.LFE52
ARM GAS  /tmp/cctbMVK7.s 			page 65


 3649 04d2 0100     		.2byte	0x1
 3650 04d4 50       		.byte	0x50
 3651 04d5 00000000 		.4byte	0
 3652 04d9 00000000 		.4byte	0
 3653              		.section	.debug_aranges,"",%progbits
 3654 0000 84000000 		.4byte	0x84
 3655 0004 0200     		.2byte	0x2
 3656 0006 00000000 		.4byte	.Ldebug_info0
 3657 000a 04       		.byte	0x4
 3658 000b 00       		.byte	0
 3659 000c 0000     		.2byte	0
 3660 000e 0000     		.2byte	0
 3661 0010 00000000 		.4byte	.LFB46
 3662 0014 0A000000 		.4byte	.LFE46-.LFB46
 3663 0018 00000000 		.4byte	.LFB40
 3664 001c 0E000000 		.4byte	.LFE40-.LFB40
 3665 0020 00000000 		.4byte	.LFB45
 3666 0024 0A000000 		.4byte	.LFE45-.LFB45
 3667 0028 00000000 		.4byte	.LFB39
 3668 002c 0E000000 		.4byte	.LFE39-.LFB39
 3669 0030 00000000 		.4byte	.LFB44
 3670 0034 0A000000 		.4byte	.LFE44-.LFB44
 3671 0038 00000000 		.4byte	.LFB42
 3672 003c 0E000000 		.4byte	.LFE42-.LFB42
 3673 0040 00000000 		.4byte	.LFB43
 3674 0044 0A000000 		.4byte	.LFE43-.LFB43
 3675 0048 00000000 		.4byte	.LFB41
 3676 004c 0E000000 		.4byte	.LFE41-.LFB41
 3677 0050 00000000 		.4byte	.LFB47
 3678 0054 08000000 		.4byte	.LFE47-.LFB47
 3679 0058 00000000 		.4byte	.LFB48
 3680 005c 40000000 		.4byte	.LFE48-.LFB48
 3681 0060 00000000 		.4byte	.LFB49
 3682 0064 12000000 		.4byte	.LFE49-.LFB49
 3683 0068 00000000 		.4byte	.LFB50
 3684 006c 26000000 		.4byte	.LFE50-.LFB50
 3685 0070 00000000 		.4byte	.LFB51
 3686 0074 2C000000 		.4byte	.LFE51-.LFB51
 3687 0078 00000000 		.4byte	.LFB52
 3688 007c 1A000000 		.4byte	.LFE52-.LFB52
 3689 0080 00000000 		.4byte	0
 3690 0084 00000000 		.4byte	0
 3691              		.section	.debug_ranges,"",%progbits
 3692              	.Ldebug_ranges0:
 3693 0000 00000000 		.4byte	.LFB46
 3694 0004 0A000000 		.4byte	.LFE46
 3695 0008 00000000 		.4byte	.LFB40
 3696 000c 0E000000 		.4byte	.LFE40
 3697 0010 00000000 		.4byte	.LFB45
 3698 0014 0A000000 		.4byte	.LFE45
 3699 0018 00000000 		.4byte	.LFB39
 3700 001c 0E000000 		.4byte	.LFE39
 3701 0020 00000000 		.4byte	.LFB44
 3702 0024 0A000000 		.4byte	.LFE44
 3703 0028 00000000 		.4byte	.LFB42
 3704 002c 0E000000 		.4byte	.LFE42
 3705 0030 00000000 		.4byte	.LFB43
ARM GAS  /tmp/cctbMVK7.s 			page 66


 3706 0034 0A000000 		.4byte	.LFE43
 3707 0038 00000000 		.4byte	.LFB41
 3708 003c 0E000000 		.4byte	.LFE41
 3709 0040 00000000 		.4byte	.LFB47
 3710 0044 08000000 		.4byte	.LFE47
 3711 0048 00000000 		.4byte	.LFB48
 3712 004c 40000000 		.4byte	.LFE48
 3713 0050 00000000 		.4byte	.LFB49
 3714 0054 12000000 		.4byte	.LFE49
 3715 0058 00000000 		.4byte	.LFB50
 3716 005c 26000000 		.4byte	.LFE50
 3717 0060 00000000 		.4byte	.LFB51
 3718 0064 2C000000 		.4byte	.LFE51
 3719 0068 00000000 		.4byte	.LFB52
 3720 006c 1A000000 		.4byte	.LFE52
 3721 0070 00000000 		.4byte	0
 3722 0074 00000000 		.4byte	0
 3723              		.section	.debug_line,"",%progbits
 3724              	.Ldebug_line0:
 3725 0000 97030000 		.section	.debug_str,"MS",%progbits,1
 3725      02008402 
 3725      00000201 
 3725      FB0E0D00 
 3725      01010101 
 3726              	.LASF2:
 3727 0000 73697A65 		.ascii	"size_t\000"
 3727      5F7400
 3728              	.LASF64:
 3729 0007 7264796D 		.ascii	"rdymsg\000"
 3729      736700
 3730              	.LASF80:
 3731 000e 4F757470 		.ascii	"OutputQueue\000"
 3731      75745175 
 3731      65756500 
 3732              	.LASF3:
 3733 001a 5F5F7569 		.ascii	"__uint8_t\000"
 3733      6E74385F 
 3733      7400
 3734              	.LASF121:
 3735 0024 63684951 		.ascii	"chIQReadTimeout\000"
 3735      52656164 
 3735      54696D65 
 3735      6F757400 
 3736              	.LASF12:
 3737 0034 6C6F6E67 		.ascii	"long long unsigned int\000"
 3737      206C6F6E 
 3737      6720756E 
 3737      7369676E 
 3737      65642069 
 3738              	.LASF130:
 3739 004b 63684951 		.ascii	"chIQResetI\000"
 3739      52657365 
 3739      744900
 3740              	.LASF126:
 3741 0056 63684F51 		.ascii	"chOQInit\000"
 3741      496E6974 
 3741      00
ARM GAS  /tmp/cctbMVK7.s 			page 67


 3742              	.LASF65:
 3743 005f 65786974 		.ascii	"exitcode\000"
 3743      636F6465 
 3743      00
 3744              	.LASF95:
 3745 0068 6576656E 		.ascii	"event\000"
 3745      7400
 3746              	.LASF114:
 3747 006e 73644F62 		.ascii	"sdObjectInit\000"
 3747      6A656374 
 3747      496E6974 
 3747      00
 3748              	.LASF110:
 3749 007b 72656164 		.ascii	"readt\000"
 3749      7400
 3750              	.LASF70:
 3751 0081 715F7761 		.ascii	"q_waiting\000"
 3751      6974696E 
 3751      6700
 3752              	.LASF11:
 3753 008b 6C6F6E67 		.ascii	"long long int\000"
 3753      206C6F6E 
 3753      6720696E 
 3753      7400
 3754              	.LASF1:
 3755 0099 7369676E 		.ascii	"signed char\000"
 3755      65642063 
 3755      68617200 
 3756              	.LASF46:
 3757 00a5 705F6D70 		.ascii	"p_mpool\000"
 3757      6F6F6C00 
 3758              	.LASF16:
 3759 00ad 626F6F6C 		.ascii	"bool_t\000"
 3759      5F7400
 3760              	.LASF54:
 3761 00b4 6D5F7175 		.ascii	"m_queue\000"
 3761      65756500 
 3762              	.LASF21:
 3763 00bc 74736C69 		.ascii	"tslices_t\000"
 3763      6365735F 
 3763      7400
 3764              	.LASF96:
 3765 00c6 73746174 		.ascii	"state\000"
 3765      6500
 3766              	.LASF8:
 3767 00cc 6C6F6E67 		.ascii	"long int\000"
 3767      20696E74 
 3767      00
 3768              	.LASF19:
 3769 00d5 74737461 		.ascii	"tstate_t\000"
 3769      74655F74 
 3769      00
 3770              	.LASF135:
 3771 00de 63684F51 		.ascii	"chOQGetI\000"
 3771      47657449 
 3771      00
 3772              	.LASF37:
ARM GAS  /tmp/cctbMVK7.s 			page 68


 3773 00e7 705F7265 		.ascii	"p_refs\000"
 3773      667300
 3774              	.LASF72:
 3775 00ee 715F6275 		.ascii	"q_buffer\000"
 3775      66666572 
 3775      00
 3776              	.LASF74:
 3777 00f7 715F7772 		.ascii	"q_wrptr\000"
 3777      70747200 
 3778              	.LASF77:
 3779 00ff 715F6C69 		.ascii	"q_link\000"
 3779      6E6B00
 3780              	.LASF133:
 3781 0106 63684576 		.ascii	"chEvtBroadcastFlagsI\000"
 3781      7442726F 
 3781      61646361 
 3781      7374466C 
 3781      61677349 
 3782              	.LASF32:
 3783 011b 705F6E65 		.ascii	"p_newer\000"
 3783      77657200 
 3784              	.LASF132:
 3785 0123 63685363 		.ascii	"chSchRescheduleS\000"
 3785      68526573 
 3785      63686564 
 3785      756C6553 
 3785      00
 3786              	.LASF9:
 3787 0134 5F5F7569 		.ascii	"__uint32_t\000"
 3787      6E743332 
 3787      5F7400
 3788              	.LASF49:
 3789 013f 72656761 		.ascii	"regarm_t\000"
 3789      726D5F74 
 3789      00
 3790              	.LASF124:
 3791 0148 63684F51 		.ascii	"chOQPutTimeout\000"
 3791      50757454 
 3791      696D656F 
 3791      757400
 3792              	.LASF134:
 3793 0157 63684951 		.ascii	"chIQPutI\000"
 3793      50757449 
 3793      00
 3794              	.LASF62:
 3795 0160 4576656E 		.ascii	"EventSource\000"
 3795      74536F75 
 3795      72636500 
 3796              	.LASF0:
 3797 016c 756E7369 		.ascii	"unsigned int\000"
 3797      676E6564 
 3797      20696E74 
 3797      00
 3798              	.LASF104:
 3799 0179 53657269 		.ascii	"SerialDriverVMT\000"
 3799      616C4472 
 3799      69766572 
ARM GAS  /tmp/cctbMVK7.s 			page 69


 3799      564D5400 
 3800              	.LASF39:
 3801 0189 705F7469 		.ascii	"p_time\000"
 3801      6D6500
 3802              	.LASF115:
 3803 0190 696E6F74 		.ascii	"inotify\000"
 3803      69667900 
 3804              	.LASF97:
 3805 0198 69717565 		.ascii	"iqueue\000"
 3805      756500
 3806              	.LASF41:
 3807 019f 705F6D73 		.ascii	"p_msgqueue\000"
 3807      67717565 
 3807      756500
 3808              	.LASF131:
 3809 01aa 73645F6C 		.ascii	"sd_lld_init\000"
 3809      6C645F69 
 3809      6E697400 
 3810              	.LASF108:
 3811 01b6 67657474 		.ascii	"gett\000"
 3811      00
 3812              	.LASF6:
 3813 01bb 73686F72 		.ascii	"short unsigned int\000"
 3813      7420756E 
 3813      7369676E 
 3813      65642069 
 3813      6E7400
 3814              	.LASF23:
 3815 01ce 6D73675F 		.ascii	"msg_t\000"
 3815      7400
 3816              	.LASF98:
 3817 01d4 6F717565 		.ascii	"oqueue\000"
 3817      756500
 3818              	.LASF58:
 3819 01db 656C5F6E 		.ascii	"el_next\000"
 3819      65787400 
 3820              	.LASF109:
 3821 01e3 77726974 		.ascii	"writet\000"
 3821      657400
 3822              	.LASF18:
 3823 01ea 746D6F64 		.ascii	"tmode_t\000"
 3823      655F7400 
 3824              	.LASF48:
 3825 01f2 54687265 		.ascii	"ThreadsList\000"
 3825      6164734C 
 3825      69737400 
 3826              	.LASF24:
 3827 01fe 6576656E 		.ascii	"eventmask_t\000"
 3827      746D6173 
 3827      6B5F7400 
 3828              	.LASF79:
 3829 020a 496E7075 		.ascii	"InputQueue\000"
 3829      74517565 
 3829      756500
 3830              	.LASF136:
 3831 0215 474E5520 		.ascii	"GNU C 4.8.4 20140526 (release) [ARM/embedded-4_8-br"
 3831      4320342E 
ARM GAS  /tmp/cctbMVK7.s 			page 70


 3831      382E3420 
 3831      32303134 
 3831      30353236 
 3832 0248 616E6368 		.ascii	"anch revision 211358] -mcpu=cortex-m0 -mno-thumb-in"
 3832      20726576 
 3832      6973696F 
 3832      6E203231 
 3832      31333538 
 3833 027b 74657277 		.ascii	"terwork -mthumb -ggdb -O1 -fomit-frame-pointer -ffu"
 3833      6F726B20 
 3833      2D6D7468 
 3833      756D6220 
 3833      2D676764 
 3834 02ae 6E637469 		.ascii	"nction-sections -fdata-sections -fno-common\000"
 3834      6F6E2D73 
 3834      65637469 
 3834      6F6E7320 
 3834      2D666461 
 3835              	.LASF78:
 3836 02da 716E6F74 		.ascii	"qnotify_t\000"
 3836      6966795F 
 3836      7400
 3837              	.LASF69:
 3838 02e4 47656E65 		.ascii	"GenericQueue\000"
 3838      72696351 
 3838      75657565 
 3838      00
 3839              	.LASF122:
 3840 02f1 63684F51 		.ascii	"chOQWriteTimeout\000"
 3840      57726974 
 3840      6554696D 
 3840      656F7574 
 3840      00
 3841              	.LASF105:
 3842 0302 77726974 		.ascii	"write\000"
 3842      6500
 3843              	.LASF82:
 3844 0308 4844454E 		.ascii	"HDEN\000"
 3844      00
 3845              	.LASF107:
 3846 030d 70757474 		.ascii	"putt\000"
 3846      00
 3847              	.LASF101:
 3848 0312 73635F6C 		.ascii	"sc_lcr\000"
 3848      637200
 3849              	.LASF52:
 3850 0319 73697A65 		.ascii	"sizetype\000"
 3850      74797065 
 3850      00
 3851              	.LASF71:
 3852 0322 715F636F 		.ascii	"q_counter\000"
 3852      756E7465 
 3852      7200
 3853              	.LASF53:
 3854 032c 4D757465 		.ascii	"Mutex\000"
 3854      7800
 3855              	.LASF30:
ARM GAS  /tmp/cctbMVK7.s 			page 71


 3856 0332 705F7072 		.ascii	"p_prio\000"
 3856      696F00
 3857              	.LASF60:
 3858 0339 656C5F6D 		.ascii	"el_mask\000"
 3858      61736B00 
 3859              	.LASF33:
 3860 0341 705F6F6C 		.ascii	"p_older\000"
 3860      64657200 
 3861              	.LASF88:
 3862 0349 53594E43 		.ascii	"SYNCCTRL\000"
 3862      4354524C 
 3862      00
 3863              	.LASF47:
 3864 0352 54687265 		.ascii	"ThreadsQueue\000"
 3864      61647351 
 3864      75657565 
 3864      00
 3865              	.LASF119:
 3866 035f 73645374 		.ascii	"sdStop\000"
 3866      6F7000
 3867              	.LASF111:
 3868 0366 74696D65 		.ascii	"time\000"
 3868      00
 3869              	.LASF102:
 3870 036b 73635F66 		.ascii	"sc_fcr\000"
 3870      637200
 3871              	.LASF103:
 3872 0372 53657269 		.ascii	"SerialConfig\000"
 3872      616C436F 
 3872      6E666967 
 3872      00
 3873              	.LASF99:
 3874 037f 75617274 		.ascii	"uart\000"
 3874      00
 3875              	.LASF20:
 3876 0384 74726566 		.ascii	"trefs_t\000"
 3876      735F7400 
 3877              	.LASF81:
 3878 038c 52455345 		.ascii	"RESERVED0\000"
 3878      52564544 
 3878      3000
 3879              	.LASF83:
 3880 0396 52455345 		.ascii	"RESERVED1\000"
 3880      52564544 
 3880      3100
 3881              	.LASF29:
 3882 03a0 705F7072 		.ascii	"p_prev\000"
 3882      657600
 3883              	.LASF22:
 3884 03a7 74707269 		.ascii	"tprio_t\000"
 3884      6F5F7400 
 3885              	.LASF75:
 3886 03af 715F7264 		.ascii	"q_rdptr\000"
 3886      70747200 
 3887              	.LASF17:
 3888 03b7 5F426F6F 		.ascii	"_Bool\000"
 3888      6C00
ARM GAS  /tmp/cctbMVK7.s 			page 72


 3889              	.LASF14:
 3890 03bd 696E7433 		.ascii	"int32_t\000"
 3890      325F7400 
 3891              	.LASF4:
 3892 03c5 756E7369 		.ascii	"unsigned char\000"
 3892      676E6564 
 3892      20636861 
 3892      7200
 3893              	.LASF127:
 3894 03d3 73645F6C 		.ascii	"sd_lld_start\000"
 3894      6C645F73 
 3894      74617274 
 3894      00
 3895              	.LASF137:
 3896 03e0 43686962 		.ascii	"ChibiOS_2.6.5/os/hal/src/serial.c\000"
 3896      694F535F 
 3896      322E362E 
 3896      352F6F73 
 3896      2F68616C 
 3897              	.LASF59:
 3898 0402 656C5F6C 		.ascii	"el_listener\000"
 3898      69737465 
 3898      6E657200 
 3899              	.LASF61:
 3900 040e 656C5F66 		.ascii	"el_flags\000"
 3900      6C616773 
 3900      00
 3901              	.LASF35:
 3902 0417 705F7374 		.ascii	"p_state\000"
 3902      61746500 
 3903              	.LASF44:
 3904 041f 705F6D74 		.ascii	"p_mtxlist\000"
 3904      786C6973 
 3904      7400
 3905              	.LASF5:
 3906 0429 73686F72 		.ascii	"short int\000"
 3906      7420696E 
 3906      7400
 3907              	.LASF38:
 3908 0433 705F7072 		.ascii	"p_preempt\000"
 3908      65656D70 
 3908      7400
 3909              	.LASF67:
 3910 043d 65776D61 		.ascii	"ewmask\000"
 3910      736B00
 3911              	.LASF28:
 3912 0444 705F6E65 		.ascii	"p_next\000"
 3912      787400
 3913              	.LASF36:
 3914 044b 705F666C 		.ascii	"p_flags\000"
 3914      61677300 
 3915              	.LASF86:
 3916 0453 52533438 		.ascii	"RS485ADRMATCH\000"
 3916      35414452 
 3916      4D415443 
 3916      4800
 3917              	.LASF91:
ARM GAS  /tmp/cctbMVK7.s 			page 73


 3918 0461 53445F53 		.ascii	"SD_STOP\000"
 3918      544F5000 
 3919              	.LASF27:
 3920 0469 54687265 		.ascii	"Thread\000"
 3920      616400
 3921              	.LASF43:
 3922 0470 705F6570 		.ascii	"p_epending\000"
 3922      656E6469 
 3922      6E6700
 3923              	.LASF90:
 3924 047b 53445F55 		.ascii	"SD_UNINIT\000"
 3924      4E494E49 
 3924      5400
 3925              	.LASF15:
 3926 0485 75696E74 		.ascii	"uint32_t\000"
 3926      33325F74 
 3926      00
 3927              	.LASF93:
 3928 048e 73647374 		.ascii	"sdstate_t\000"
 3928      6174655F 
 3928      7400
 3929              	.LASF94:
 3930 0498 53657269 		.ascii	"SerialDriver\000"
 3930      616C4472 
 3930      69766572 
 3930      00
 3931              	.LASF10:
 3932 04a5 6C6F6E67 		.ascii	"long unsigned int\000"
 3932      20756E73 
 3932      69676E65 
 3932      6420696E 
 3932      7400
 3933              	.LASF106:
 3934 04b7 72656164 		.ascii	"read\000"
 3934      00
 3935              	.LASF68:
 3936 04bc 63686172 		.ascii	"char\000"
 3936      00
 3937              	.LASF120:
 3938 04c1 7364496E 		.ascii	"sdIncomingDataI\000"
 3938      636F6D69 
 3938      6E674461 
 3938      74614900 
 3939              	.LASF118:
 3940 04d1 636F6E66 		.ascii	"config\000"
 3940      696700
 3941              	.LASF117:
 3942 04d8 73645374 		.ascii	"sdStart\000"
 3942      61727400 
 3943              	.LASF85:
 3944 04e0 52533438 		.ascii	"RS485CTRL\000"
 3944      35435452 
 3944      4C00
 3945              	.LASF56:
 3946 04ea 6D5F6E65 		.ascii	"m_next\000"
 3946      787400
 3947              	.LASF26:
ARM GAS  /tmp/cctbMVK7.s 			page 74


 3948 04f1 73797374 		.ascii	"systime_t\000"
 3948      696D655F 
 3948      7400
 3949              	.LASF45:
 3950 04fb 705F7265 		.ascii	"p_realprio\000"
 3950      616C7072 
 3950      696F00
 3951              	.LASF7:
 3952 0506 5F5F696E 		.ascii	"__int32_t\000"
 3952      7433325F 
 3952      7400
 3953              	.LASF89:
 3954 0510 4C50435F 		.ascii	"LPC_USART_Type\000"
 3954      55534152 
 3954      545F5479 
 3954      706500
 3955              	.LASF100:
 3956 051f 73635F73 		.ascii	"sc_speed\000"
 3956      70656564 
 3956      00
 3957              	.LASF84:
 3958 0528 53434943 		.ascii	"SCICTRL\000"
 3958      54524C00 
 3959              	.LASF129:
 3960 0530 63684F51 		.ascii	"chOQResetI\000"
 3960      52657365 
 3960      744900
 3961              	.LASF51:
 3962 053b 636F6E74 		.ascii	"context\000"
 3962      65787400 
 3963              	.LASF138:
 3964 0543 2F484444 		.ascii	"/HDD/GIT/variometer/Altimeter/\000"
 3964      2F474954 
 3964      2F766172 
 3964      696F6D65 
 3964      7465722F 
 3965              	.LASF50:
 3966 0562 696E7463 		.ascii	"intctx\000"
 3966      747800
 3967              	.LASF92:
 3968 0569 53445F52 		.ascii	"SD_READY\000"
 3968      45414459 
 3968      00
 3969              	.LASF25:
 3970 0572 666C6167 		.ascii	"flagsmask_t\000"
 3970      736D6173 
 3970      6B5F7400 
 3971              	.LASF73:
 3972 057e 715F746F 		.ascii	"q_top\000"
 3972      7000
 3973              	.LASF34:
 3974 0584 705F6E61 		.ascii	"p_name\000"
 3974      6D6500
 3975              	.LASF63:
 3976 058b 65735F6E 		.ascii	"es_next\000"
 3976      65787400 
 3977              	.LASF76:
ARM GAS  /tmp/cctbMVK7.s 			page 75


 3978 0593 715F6E6F 		.ascii	"q_notify\000"
 3978      74696679 
 3978      00
 3979              	.LASF139:
 3980 059c 73645265 		.ascii	"sdRequestDataI\000"
 3980      71756573 
 3980      74446174 
 3980      614900
 3981              	.LASF13:
 3982 05ab 75696E74 		.ascii	"uint8_t\000"
 3982      385F7400 
 3983              	.LASF116:
 3984 05b3 6F6E6F74 		.ascii	"onotify\000"
 3984      69667900 
 3985              	.LASF57:
 3986 05bb 4576656E 		.ascii	"EventListener\000"
 3986      744C6973 
 3986      74656E65 
 3986      7200
 3987              	.LASF87:
 3988 05c9 52533438 		.ascii	"RS485DLY\000"
 3988      35444C59 
 3988      00
 3989              	.LASF66:
 3990 05d2 77746F62 		.ascii	"wtobjp\000"
 3990      6A7000
 3991              	.LASF42:
 3992 05d9 705F6D73 		.ascii	"p_msg\000"
 3992      6700
 3993              	.LASF128:
 3994 05df 73645F6C 		.ascii	"sd_lld_stop\000"
 3994      6C645F73 
 3994      746F7000 
 3995              	.LASF112:
 3996 05eb 74696D65 		.ascii	"timeout\000"
 3996      6F757400 
 3997              	.LASF113:
 3998 05f3 7364496E 		.ascii	"sdInit\000"
 3998      697400
 3999              	.LASF125:
 4000 05fa 63684951 		.ascii	"chIQInit\000"
 4000      496E6974 
 4000      00
 4001              	.LASF55:
 4002 0603 6D5F6F77 		.ascii	"m_owner\000"
 4002      6E657200 
 4003              	.LASF31:
 4004 060b 705F6374 		.ascii	"p_ctx\000"
 4004      7800
 4005              	.LASF40:
 4006 0611 705F7761 		.ascii	"p_waiting\000"
 4006      6974696E 
 4006      6700
 4007              	.LASF123:
 4008 061b 63684951 		.ascii	"chIQGetTimeout\000"
 4008      47657454 
 4008      696D656F 
ARM GAS  /tmp/cctbMVK7.s 			page 76


 4008      757400
 4009              		.ident	"GCC: (GNU Tools for ARM Embedded Processors) 4.8.4 20140526 (release) [ARM/embedded-4_8-br
ARM GAS  /tmp/cctbMVK7.s 			page 77


DEFINED SYMBOLS
                            *ABS*:00000000 serial.c
     /tmp/cctbMVK7.s:18     .text.readt:00000000 $t
     /tmp/cctbMVK7.s:22     .text.readt:00000000 readt
     /tmp/cctbMVK7.s:44     .text.read:00000000 $t
     /tmp/cctbMVK7.s:48     .text.read:00000000 read
     /tmp/cctbMVK7.s:71     .text.writet:00000000 $t
     /tmp/cctbMVK7.s:75     .text.writet:00000000 writet
     /tmp/cctbMVK7.s:96     .text.write:00000000 $t
     /tmp/cctbMVK7.s:100    .text.write:00000000 write
     /tmp/cctbMVK7.s:123    .text.gett:00000000 $t
     /tmp/cctbMVK7.s:127    .text.gett:00000000 gett
     /tmp/cctbMVK7.s:148    .text.get:00000000 $t
     /tmp/cctbMVK7.s:152    .text.get:00000000 get
     /tmp/cctbMVK7.s:175    .text.putt:00000000 $t
     /tmp/cctbMVK7.s:179    .text.putt:00000000 putt
     /tmp/cctbMVK7.s:200    .text.put:00000000 $t
     /tmp/cctbMVK7.s:204    .text.put:00000000 put
     /tmp/cctbMVK7.s:227    .text.sdInit:00000000 $t
     /tmp/cctbMVK7.s:232    .text.sdInit:00000000 sdInit
     /tmp/cctbMVK7.s:250    .text.sdObjectInit:00000000 $t
     /tmp/cctbMVK7.s:255    .text.sdObjectInit:00000000 sdObjectInit
     /tmp/cctbMVK7.s:309    .text.sdObjectInit:0000003c $d
     /tmp/cctbMVK7.s:314    .text.sdStart:00000000 $t
     /tmp/cctbMVK7.s:319    .text.sdStart:00000000 sdStart
     /tmp/cctbMVK7.s:353    .text.sdStop:00000000 $t
     /tmp/cctbMVK7.s:358    .text.sdStop:00000000 sdStop
     /tmp/cctbMVK7.s:405    .text.sdIncomingDataI:00000000 $t
     /tmp/cctbMVK7.s:410    .text.sdIncomingDataI:00000000 sdIncomingDataI
     /tmp/cctbMVK7.s:457    .text.sdRequestDataI:00000000 $t
     /tmp/cctbMVK7.s:462    .text.sdRequestDataI:00000000 sdRequestDataI
     /tmp/cctbMVK7.s:500    .rodata.vmt:00000000 $d
     /tmp/cctbMVK7.s:504    .rodata.vmt:00000000 vmt
                     .debug_frame:00000010 $d

UNDEFINED SYMBOLS
chIQReadTimeout
chOQWriteTimeout
chIQGetTimeout
chOQPutTimeout
sd_lld_init
chIQInit
chOQInit
sd_lld_start
sd_lld_stop
chOQResetI
chIQResetI
chSchRescheduleS
chEvtBroadcastFlagsI
chIQPutI
chOQGetI
