ARM GAS  /tmp/cctKLj6v.s 			page 1


   1              		.cpu cortex-m0
   2              		.fpu softvfp
   3              		.eabi_attribute 20, 1
   4              		.eabi_attribute 21, 1
   5              		.eabi_attribute 23, 3
   6              		.eabi_attribute 24, 1
   7              		.eabi_attribute 25, 1
   8              		.eabi_attribute 26, 1
   9              		.eabi_attribute 30, 1
  10              		.eabi_attribute 34, 0
  11              		.eabi_attribute 18, 4
  12              		.code	16
  13              		.file	"serial_lld.c"
  14              		.text
  15              	.Ltext0:
  16              		.cfi_sections	.debug_frame
  17              		.section	.text.notify1,"ax",%progbits
  18              		.align	2
  19              		.code	16
  20              		.thumb_func
  21              		.type	notify1, %function
  22              	notify1:
  23              	.LFB44:
  24              		.file 1 "ChibiOS_2.6.5/os/hal/platforms/LPC11Uxx/serial_lld.c"
  25              		.loc 1 198 0
  26              		.cfi_startproc
  27              	.LVL0:
  28 0000 70B5     		push	{r4, r5, r6, lr}
  29              		.cfi_def_cfa_offset 16
  30              		.cfi_offset 4, -16
  31              		.cfi_offset 5, -12
  32              		.cfi_offset 6, -8
  33              		.cfi_offset 14, -4
  34              	.LVL1:
  35              	.LBB6:
  36              	.LBB7:
  37              		.loc 1 178 0
  38 0002 0E4B     		ldr	r3, .L6
  39 0004 5D6F     		ldr	r5, [r3, #116]
  40              	.LVL2:
  41              		.loc 1 180 0
  42 0006 6B69     		ldr	r3, [r5, #20]
  43 0008 9A06     		lsl	r2, r3, #26
  44 000a 11D5     		bpl	.L2
  45 000c 1024     		mov	r4, #16
  46              	.LBB8:
  47              	.LBB9:
  48              		.loc 1 183 0
  49 000e 0B4E     		ldr	r6, .L6
  50 0010 3036     		add	r6, r6, #48
  51              	.LVL3:
  52              	.L5:
  53 0012 301C     		mov	r0, r6
  54 0014 FFF7FEFF 		bl	chOQGetI
  55              	.LVL4:
  56              		.loc 1 184 0
  57 0018 0028     		cmp	r0, #0
ARM GAS  /tmp/cctKLj6v.s 			page 2


  58 001a 05DA     		bge	.L3
  59              		.loc 1 185 0
  60 001c 0748     		ldr	r0, .L6
  61              	.LVL5:
  62 001e 0430     		add	r0, r0, #4
  63 0020 0821     		mov	r1, #8
  64 0022 FFF7FEFF 		bl	chEvtBroadcastFlagsI
  65              	.LVL6:
  66 0026 07E0     		b	.L1
  67              	.LVL7:
  68              	.L3:
  69              		.loc 1 188 0
  70 0028 2860     		str	r0, [r5]
  71              	.LVL8:
  72 002a 013C     		sub	r4, r4, #1
  73              	.LVL9:
  74              	.LBE9:
  75              		.loc 1 189 0
  76 002c 002C     		cmp	r4, #0
  77 002e F0D1     		bne	.L5
  78              	.LVL10:
  79              	.L2:
  80              	.LBE8:
  81              		.loc 1 191 0
  82 0030 6A68     		ldr	r2, [r5, #4]
  83 0032 0223     		mov	r3, #2
  84 0034 1343     		orr	r3, r2
  85 0036 6B60     		str	r3, [r5, #4]
  86              	.L1:
  87              	.LBE7:
  88              	.LBE6:
  89              		.loc 1 202 0
  90              		@ sp needed
  91              	.LVL11:
  92 0038 70BD     		pop	{r4, r5, r6, pc}
  93              	.L7:
  94 003a C046     		.align	2
  95              	.L6:
  96 003c 00000000 		.word	.LANCHOR0
  97              		.cfi_endproc
  98              	.LFE44:
  99              		.size	notify1, .-notify1
 100              		.section	.text.Vector94,"ax",%progbits
 101              		.align	2
 102              		.global	Vector94
 103              		.code	16
 104              		.thumb_func
 105              		.type	Vector94, %function
 106              	Vector94:
 107              	.LFB45:
 108              		.loc 1 215 0
 109              		.cfi_startproc
 110 0000 F8B5     		push	{r3, r4, r5, r6, r7, lr}
 111              		.cfi_def_cfa_offset 24
 112              		.cfi_offset 3, -24
 113              		.cfi_offset 4, -20
 114              		.cfi_offset 5, -16
ARM GAS  /tmp/cctKLj6v.s 			page 3


 115              		.cfi_offset 6, -12
 116              		.cfi_offset 7, -8
 117              		.cfi_offset 14, -4
 118 0002 5F46     		mov	r7, fp
 119 0004 5646     		mov	r6, r10
 120 0006 4D46     		mov	r5, r9
 121 0008 4446     		mov	r4, r8
 122 000a F0B4     		push	{r4, r5, r6, r7}
 123              		.cfi_def_cfa_offset 40
 124              		.cfi_offset 8, -40
 125              		.cfi_offset 9, -36
 126              		.cfi_offset 10, -32
 127              		.cfi_offset 11, -28
 128              		.loc 1 217 0
 129              	@ 217 "ChibiOS_2.6.5/os/hal/platforms/LPC11Uxx/serial_lld.c" 1
 130 000c F046     		mov     r8, lr
 131              	@ 0 "" 2
 132              	.LVL12:
 133              		.code	16
 134              	.LBB16:
 135              	.LBB17:
 136              		.loc 1 125 0
 137 000e 394B     		ldr	r3, .L27
 138 0010 5C6F     		ldr	r4, [r3, #116]
 139              	.LVL13:
 140              		.loc 1 128 0
 141 0012 394E     		ldr	r6, .L27+4
 142              	.LBB18:
 143              	.LBB19:
 144              		.loc 1 154 0
 145 0014 1F1C     		mov	r7, r3
 146 0016 3037     		add	r7, r7, #48
 147              		.loc 1 159 0
 148 0018 9A46     		mov	r10, r3
 149 001a 0422     		mov	r2, #4
 150 001c 9244     		add	r10, r10, r2
 151              	.LBE19:
 152              	.LBE18:
 153              		.loc 1 137 0
 154 001e 9946     		mov	r9, r3
 155              	.L9:
 156              		.loc 1 128 0
 157 0020 A368     		ldr	r3, [r4, #8]
 158 0022 0F22     		mov	r2, #15
 159 0024 1340     		and	r3, r2
 160 0026 0C2B     		cmp	r3, #12
 161 0028 57D8     		bhi	.L10
 162 002a 9B00     		lsl	r3, r3, #2
 163 002c F358     		ldr	r3, [r6, r3]
 164 002e 9F46     		mov	pc, r3
 165              		.section	.rodata.Vector94,"a",%progbits
 166              		.align	2
 167              	.L12:
 168 0000 DA000000 		.word	.L10
 169 0004 E0000000 		.word	.L11
 170 0008 AA000000 		.word	.L13
 171 000c DA000000 		.word	.L10
ARM GAS  /tmp/cctKLj6v.s 			page 4


 172 0010 60000000 		.word	.L14
 173 0014 DA000000 		.word	.L10
 174 0018 30000000 		.word	.L15
 175 001c DA000000 		.word	.L10
 176 0020 DA000000 		.word	.L10
 177 0024 DA000000 		.word	.L10
 178 0028 DA000000 		.word	.L10
 179 002c DA000000 		.word	.L10
 180 0030 60000000 		.word	.L14
 181              		.section	.text.Vector94
 182              	.L15:
 183              		.loc 1 132 0
 184 0030 6369     		ldr	r3, [r4, #20]
 185              	.LVL14:
 186              	.LBB21:
 187              	.LBB22:
 188              		.loc 1 102 0
 189 0032 9907     		lsl	r1, r3, #30
 190              		.loc 1 100 0
 191 0034 C90F     		lsr	r1, r1, #31
 192 0036 C901     		lsl	r1, r1, #7
 193              	.LVL15:
 194              		.loc 1 104 0
 195 0038 5A07     		lsl	r2, r3, #29
 196 003a 01D5     		bpl	.L17
 197              		.loc 1 105 0
 198 003c 2022     		mov	r2, #32
 199 003e 1143     		orr	r1, r2
 200              	.LVL16:
 201              	.L17:
 202              		.loc 1 106 0
 203 0040 1A07     		lsl	r2, r3, #28
 204 0042 01D5     		bpl	.L18
 205              		.loc 1 107 0
 206 0044 4022     		mov	r2, #64
 207 0046 1143     		orr	r1, r2
 208              	.LVL17:
 209              	.L18:
 210              		.loc 1 108 0
 211 0048 DA06     		lsl	r2, r3, #27
 212 004a 02D5     		bpl	.L19
 213              		.loc 1 109 0
 214 004c 8023     		mov	r3, #128
 215              	.LVL18:
 216 004e 9B00     		lsl	r3, r3, #2
 217 0050 1943     		orr	r1, r3
 218              	.LVL19:
 219              	.L19:
 220              		.loc 1 110 0
 221              	@ 110 "ChibiOS_2.6.5/os/hal/platforms/LPC11Uxx/serial_lld.c" 1
 222 0052 72B6     		cpsid   i
 223              	@ 0 "" 2
 224              		.loc 1 111 0
 225              		.code	16
 226 0054 2748     		ldr	r0, .L27
 227 0056 0430     		add	r0, r0, #4
 228 0058 FFF7FEFF 		bl	chEvtBroadcastFlagsI
ARM GAS  /tmp/cctKLj6v.s 			page 5


 229              	.LVL20:
 230              		.loc 1 112 0
 231              	@ 112 "ChibiOS_2.6.5/os/hal/platforms/LPC11Uxx/serial_lld.c" 1
 232 005c 62B6     		cpsie   i
 233              	@ 0 "" 2
 234              		.code	16
 235 005e DFE7     		b	.L9
 236              	.LVL21:
 237              	.L14:
 238              	.LBE22:
 239              	.LBE21:
 240              		.loc 1 136 0
 241              	@ 136 "ChibiOS_2.6.5/os/hal/platforms/LPC11Uxx/serial_lld.c" 1
 242 0060 72B6     		cpsid   i
 243              	@ 0 "" 2
 244              		.loc 1 137 0
 245              		.code	16
 246 0062 4B46     		mov	r3, r9
 247 0064 5B69     		ldr	r3, [r3, #20]
 248 0066 002B     		cmp	r3, #0
 249 0068 04D1     		bne	.L21
 250              		.loc 1 138 0
 251 006a 2248     		ldr	r0, .L27
 252 006c 0430     		add	r0, r0, #4
 253 006e 0421     		mov	r1, #4
 254 0070 FFF7FEFF 		bl	chEvtBroadcastFlagsI
 255              	.LVL22:
 256              	.L21:
 257              		.loc 1 139 0
 258              	@ 139 "ChibiOS_2.6.5/os/hal/platforms/LPC11Uxx/serial_lld.c" 1
 259 0074 62B6     		cpsie   i
 260              	@ 0 "" 2
 261              		.loc 1 140 0
 262              		.code	16
 263 0076 6369     		ldr	r3, [r4, #20]
 264 0078 DA07     		lsl	r2, r3, #31
 265 007a D1D5     		bpl	.L9
 266              		.loc 1 142 0
 267 007c 1D4D     		ldr	r5, .L27
 268 007e 0C35     		add	r5, r5, #12
 269              		.loc 1 143 0
 270 0080 1C4B     		ldr	r3, .L27
 271 0082 9B46     		mov	fp, r3
 272 0084 0423     		mov	r3, #4
 273 0086 9B44     		add	fp, fp, r3
 274              	.L23:
 275              		.loc 1 141 0
 276              	@ 141 "ChibiOS_2.6.5/os/hal/platforms/LPC11Uxx/serial_lld.c" 1
 277 0088 72B6     		cpsid   i
 278              	@ 0 "" 2
 279              		.loc 1 142 0
 280              		.code	16
 281 008a 2168     		ldr	r1, [r4]
 282 008c C9B2     		uxtb	r1, r1
 283 008e 281C     		mov	r0, r5
 284 0090 FFF7FEFF 		bl	chIQPutI
 285              	.LVL23:
ARM GAS  /tmp/cctKLj6v.s 			page 6


 286 0094 0028     		cmp	r0, #0
 287 0096 03DA     		bge	.L22
 288              		.loc 1 143 0
 289 0098 5846     		mov	r0, fp
 290 009a 8021     		mov	r1, #128
 291 009c FFF7FEFF 		bl	chEvtBroadcastFlagsI
 292              	.LVL24:
 293              	.L22:
 294              		.loc 1 144 0
 295              	@ 144 "ChibiOS_2.6.5/os/hal/platforms/LPC11Uxx/serial_lld.c" 1
 296 00a0 62B6     		cpsie   i
 297              	@ 0 "" 2
 298              		.loc 1 140 0
 299              		.code	16
 300 00a2 6369     		ldr	r3, [r4, #20]
 301 00a4 DA07     		lsl	r2, r3, #31
 302 00a6 EFD4     		bmi	.L23
 303 00a8 BAE7     		b	.L9
 304              	.L13:
 305              		.loc 1 128 0
 306 00aa 1025     		mov	r5, #16
 307              	.L25:
 308              	.LVL25:
 309              	.LBB23:
 310              	.LBB20:
 311              		.loc 1 153 0
 312              	@ 153 "ChibiOS_2.6.5/os/hal/platforms/LPC11Uxx/serial_lld.c" 1
 313 00ac 72B6     		cpsid   i
 314              	@ 0 "" 2
 315              		.loc 1 154 0
 316              		.code	16
 317 00ae 381C     		mov	r0, r7
 318 00b0 FFF7FEFF 		bl	chOQGetI
 319              	.LVL26:
 320              		.loc 1 155 0
 321              	@ 155 "ChibiOS_2.6.5/os/hal/platforms/LPC11Uxx/serial_lld.c" 1
 322 00b4 62B6     		cpsie   i
 323              	@ 0 "" 2
 324              		.loc 1 156 0
 325              		.code	16
 326 00b6 0028     		cmp	r0, #0
 327 00b8 0ADA     		bge	.L24
 328              		.loc 1 157 0
 329 00ba 6368     		ldr	r3, [r4, #4]
 330 00bc 0222     		mov	r2, #2
 331 00be 9343     		bic	r3, r2
 332 00c0 6360     		str	r3, [r4, #4]
 333              		.loc 1 158 0
 334              	@ 158 "ChibiOS_2.6.5/os/hal/platforms/LPC11Uxx/serial_lld.c" 1
 335 00c2 72B6     		cpsid   i
 336              	@ 0 "" 2
 337              		.loc 1 159 0
 338              		.code	16
 339 00c4 5046     		mov	r0, r10
 340              	.LVL27:
 341 00c6 0821     		mov	r1, #8
 342 00c8 FFF7FEFF 		bl	chEvtBroadcastFlagsI
ARM GAS  /tmp/cctKLj6v.s 			page 7


 343              	.LVL28:
 344              		.loc 1 160 0
 345              	@ 160 "ChibiOS_2.6.5/os/hal/platforms/LPC11Uxx/serial_lld.c" 1
 346 00cc 62B6     		cpsie   i
 347              	@ 0 "" 2
 348              		.code	16
 349 00ce A7E7     		b	.L9
 350              	.LVL29:
 351              	.L24:
 352              		.loc 1 163 0
 353 00d0 2060     		str	r0, [r4]
 354              	.LVL30:
 355 00d2 013D     		sub	r5, r5, #1
 356              	.LVL31:
 357              	.LBE20:
 358              		.loc 1 164 0
 359 00d4 002D     		cmp	r5, #0
 360 00d6 E9D1     		bne	.L25
 361 00d8 A2E7     		b	.L9
 362              	.LVL32:
 363              	.L10:
 364              	.LBE23:
 365              		.loc 1 168 0
 366 00da 2368     		ldr	r3, [r4]
 367              		.loc 1 169 0
 368 00dc 2368     		ldr	r3, [r4]
 369 00de 9FE7     		b	.L9
 370              	.L11:
 371              	.LBE17:
 372              	.LBE16:
 373              		.loc 1 221 0
 374 00e0 4046     		mov	r0, r8
 375 00e2 FFF7FEFF 		bl	_port_irq_epilogue
 376              	.LVL33:
 377              		.loc 1 222 0
 378              		@ sp needed
 379              	.LVL34:
 380              	.LVL35:
 381 00e6 3CBC     		pop	{r2, r3, r4, r5}
 382 00e8 9046     		mov	r8, r2
 383 00ea 9946     		mov	r9, r3
 384 00ec A246     		mov	r10, r4
 385 00ee AB46     		mov	fp, r5
 386 00f0 F8BD     		pop	{r3, r4, r5, r6, r7, pc}
 387              	.L28:
 388 00f2 C046     		.align	2
 389              	.L27:
 390 00f4 00000000 		.word	.LANCHOR0
 391 00f8 00000000 		.word	.L12
 392              		.cfi_endproc
 393              	.LFE45:
 394              		.size	Vector94, .-Vector94
 395              		.section	.text.sd_lld_init,"ax",%progbits
 396              		.align	2
 397              		.global	sd_lld_init
 398              		.code	16
 399              		.thumb_func
ARM GAS  /tmp/cctKLj6v.s 			page 8


 400              		.type	sd_lld_init, %function
 401              	sd_lld_init:
 402              	.LFB46:
 403              		.loc 1 234 0
 404              		.cfi_startproc
 405 0000 10B5     		push	{r4, lr}
 406              		.cfi_def_cfa_offset 8
 407              		.cfi_offset 4, -8
 408              		.cfi_offset 14, -4
 409              		.loc 1 237 0
 410 0002 044C     		ldr	r4, .L30
 411 0004 201C     		mov	r0, r4
 412 0006 0021     		mov	r1, #0
 413 0008 034A     		ldr	r2, .L30+4
 414 000a FFF7FEFF 		bl	sdObjectInit
 415              	.LVL36:
 416              		.loc 1 238 0
 417 000e 034B     		ldr	r3, .L30+8
 418 0010 6367     		str	r3, [r4, #116]
 419              		.loc 1 240 0
 420              		@ sp needed
 421 0012 10BD     		pop	{r4, pc}
 422              	.L31:
 423              		.align	2
 424              	.L30:
 425 0014 00000000 		.word	.LANCHOR0
 426 0018 00000000 		.word	notify1
 427 001c 00800040 		.word	1073774592
 428              		.cfi_endproc
 429              	.LFE46:
 430              		.size	sd_lld_init, .-sd_lld_init
 431              		.global	__aeabi_uidiv
 432              		.section	.text.sd_lld_start,"ax",%progbits
 433              		.align	2
 434              		.global	sd_lld_start
 435              		.code	16
 436              		.thumb_func
 437              		.type	sd_lld_start, %function
 438              	sd_lld_start:
 439              	.LFB47:
 440              		.loc 1 252 0
 441              		.cfi_startproc
 442              	.LVL37:
 443 0000 38B5     		push	{r3, r4, r5, lr}
 444              		.cfi_def_cfa_offset 16
 445              		.cfi_offset 3, -16
 446              		.cfi_offset 4, -12
 447              		.cfi_offset 5, -8
 448              		.cfi_offset 14, -4
 449 0002 041C     		mov	r4, r0
 450 0004 0D1E     		sub	r5, r1, #0
 451              		.loc 1 254 0
 452 0006 00D1     		bne	.L33
 453              		.loc 1 255 0
 454 0008 174D     		ldr	r5, .L36
 455              	.L33:
 456              	.LVL38:
ARM GAS  /tmp/cctKLj6v.s 			page 9


 457              		.loc 1 257 0
 458 000a 237A     		ldrb	r3, [r4, #8]
 459 000c 012B     		cmp	r3, #1
 460 000e 10D1     		bne	.L34
 461              		.loc 1 259 0
 462 0010 164B     		ldr	r3, .L36+4
 463 0012 9C42     		cmp	r4, r3
 464 0014 0DD1     		bne	.L34
 465              		.loc 1 260 0
 466 0016 164B     		ldr	r3, .L36+8
 467 0018 8022     		mov	r2, #128
 468 001a 9858     		ldr	r0, [r3, r2]
 469              	.LVL39:
 470 001c 8021     		mov	r1, #128
 471 001e 4901     		lsl	r1, r1, #5
 472 0020 0143     		orr	r1, r0
 473 0022 9950     		str	r1, [r3, r2]
 474              		.loc 1 261 0
 475 0024 0121     		mov	r1, #1
 476 0026 9822     		mov	r2, #152
 477 0028 9950     		str	r1, [r3, r2]
 478              		.loc 1 262 0
 479 002a 1520     		mov	r0, #21
 480 002c C021     		mov	r1, #192
 481 002e FFF7FEFF 		bl	nvicEnableVector
 482              	.LVL40:
 483              	.L34:
 484              	.LBB26:
 485              	.LBB27:
 486              		.loc 1 61 0
 487 0032 646F     		ldr	r4, [r4, #116]
 488              	.LVL41:
 489              		.loc 1 63 0
 490 0034 2A68     		ldr	r2, [r5]
 491 0036 1101     		lsl	r1, r2, #4
 492 0038 0E48     		ldr	r0, .L36+12
 493 003a FFF7FEFF 		bl	__aeabi_uidiv
 494              	.LVL42:
 495              		.loc 1 64 0
 496 003e 8023     		mov	r3, #128
 497 0040 6A68     		ldr	r2, [r5, #4]
 498 0042 1A43     		orr	r2, r3
 499 0044 E260     		str	r2, [r4, #12]
 500              		.loc 1 65 0
 501 0046 2060     		str	r0, [r4]
 502              		.loc 1 66 0
 503 0048 000A     		lsr	r0, r0, #8
 504              	.LVL43:
 505 004a 6060     		str	r0, [r4, #4]
 506              	.LVL44:
 507              		.loc 1 67 0
 508 004c 6A68     		ldr	r2, [r5, #4]
 509 004e E260     		str	r2, [r4, #12]
 510              		.loc 1 68 0
 511 0050 AA68     		ldr	r2, [r5, #8]
 512 0052 0721     		mov	r1, #7
 513 0054 0A43     		orr	r2, r1
ARM GAS  /tmp/cctKLj6v.s 			page 10


 514 0056 A260     		str	r2, [r4, #8]
 515              		.loc 1 69 0
 516 0058 0022     		mov	r2, #0
 517 005a 2262     		str	r2, [r4, #32]
 518              		.loc 1 70 0
 519 005c 1022     		mov	r2, #16
 520 005e A262     		str	r2, [r4, #40]
 521              		.loc 1 71 0
 522 0060 2363     		str	r3, [r4, #48]
 523              		.loc 1 72 0
 524 0062 0523     		mov	r3, #5
 525 0064 6360     		str	r3, [r4, #4]
 526              	.LBE27:
 527              	.LBE26:
 528              		.loc 1 268 0
 529              		@ sp needed
 530              	.LVL45:
 531              	.LVL46:
 532 0066 38BD     		pop	{r3, r4, r5, pc}
 533              	.L37:
 534              		.align	2
 535              	.L36:
 536 0068 00000000 		.word	.LANCHOR1
 537 006c 00000000 		.word	.LANCHOR0
 538 0070 00800440 		.word	1074036736
 539 0074 006CDC02 		.word	48000000
 540              		.cfi_endproc
 541              	.LFE47:
 542              		.size	sd_lld_start, .-sd_lld_start
 543              		.section	.text.sd_lld_stop,"ax",%progbits
 544              		.align	2
 545              		.global	sd_lld_stop
 546              		.code	16
 547              		.thumb_func
 548              		.type	sd_lld_stop, %function
 549              	sd_lld_stop:
 550              	.LFB48:
 551              		.loc 1 279 0
 552              		.cfi_startproc
 553              	.LVL47:
 554 0000 10B5     		push	{r4, lr}
 555              		.cfi_def_cfa_offset 8
 556              		.cfi_offset 4, -8
 557              		.cfi_offset 14, -4
 558              		.loc 1 281 0
 559 0002 037A     		ldrb	r3, [r0, #8]
 560 0004 022B     		cmp	r3, #2
 561 0006 1DD1     		bne	.L38
 562              		.loc 1 282 0
 563 0008 436F     		ldr	r3, [r0, #116]
 564              	.LVL48:
 565              	.LBB30:
 566              	.LBB31:
 567              		.loc 1 82 0
 568 000a 8021     		mov	r1, #128
 569 000c D960     		str	r1, [r3, #12]
 570              		.loc 1 83 0
ARM GAS  /tmp/cctKLj6v.s 			page 11


 571 000e 0122     		mov	r2, #1
 572 0010 1A60     		str	r2, [r3]
 573              		.loc 1 84 0
 574 0012 0022     		mov	r2, #0
 575 0014 5A60     		str	r2, [r3, #4]
 576              		.loc 1 85 0
 577 0016 DA60     		str	r2, [r3, #12]
 578              		.loc 1 86 0
 579 0018 1024     		mov	r4, #16
 580 001a 9C62     		str	r4, [r3, #40]
 581              		.loc 1 87 0
 582 001c 5A60     		str	r2, [r3, #4]
 583              		.loc 1 88 0
 584 001e 0624     		mov	r4, #6
 585 0020 9C60     		str	r4, [r3, #8]
 586              		.loc 1 89 0
 587 0022 1A62     		str	r2, [r3, #32]
 588              		.loc 1 90 0
 589 0024 1963     		str	r1, [r3, #48]
 590              	.LBE31:
 591              	.LBE30:
 592              		.loc 1 284 0
 593 0026 084B     		ldr	r3, .L40
 594              	.LVL49:
 595 0028 9842     		cmp	r0, r3
 596 002a 0BD1     		bne	.L38
 597              		.loc 1 285 0
 598 002c 074B     		ldr	r3, .L40+4
 599 002e 0021     		mov	r1, #0
 600 0030 9822     		mov	r2, #152
 601 0032 9950     		str	r1, [r3, r2]
 602              		.loc 1 286 0
 603 0034 8022     		mov	r2, #128
 604 0036 9858     		ldr	r0, [r3, r2]
 605              	.LVL50:
 606 0038 0549     		ldr	r1, .L40+8
 607 003a 0140     		and	r1, r0
 608 003c 9950     		str	r1, [r3, r2]
 609              		.loc 1 287 0
 610 003e 1520     		mov	r0, #21
 611 0040 FFF7FEFF 		bl	nvicDisableVector
 612              	.LVL51:
 613              	.L38:
 614              		.loc 1 292 0
 615              		@ sp needed
 616 0044 10BD     		pop	{r4, pc}
 617              	.L41:
 618 0046 C046     		.align	2
 619              	.L40:
 620 0048 00000000 		.word	.LANCHOR0
 621 004c 00800440 		.word	1074036736
 622 0050 FFEFFFFF 		.word	-4097
 623              		.cfi_endproc
 624              	.LFE48:
 625              		.size	sd_lld_stop, .-sd_lld_stop
 626              		.global	SD1
 627              		.section	.rodata.default_config,"a",%progbits
ARM GAS  /tmp/cctKLj6v.s 			page 12


 628              		.align	2
 629              		.set	.LANCHOR1,. + 0
 630              		.type	default_config, %object
 631              		.size	default_config, 12
 632              	default_config:
 633 0000 00960000 		.word	38400
 634 0004 03000000 		.word	3
 635 0008 00000000 		.word	0
 636              		.section	.bss.SD1,"aw",%nobits
 637              		.align	2
 638              		.set	.LANCHOR0,. + 0
 639              		.type	SD1, %object
 640              		.size	SD1, 120
 641              	SD1:
 642 0000 00000000 		.space	120
 642      00000000 
 642      00000000 
 642      00000000 
 642      00000000 
 643              		.text
 644              	.Letext0:
 645              		.file 2 "/usr/local/lpcxpresso_7.3.0_186/lpcxpresso/tools/lib/gcc/arm-none-eabi/4.8.4/include/stdd
 646              		.file 3 "/usr/local/lpcxpresso_7.3.0_186/lpcxpresso/tools/arm-none-eabi/include/machine/_default_t
 647              		.file 4 "/usr/local/lpcxpresso_7.3.0_186/lpcxpresso/tools/arm-none-eabi/include/stdint.h"
 648              		.file 5 "ChibiOS_2.6.5/os/ports/GCC/ARMCMx/chtypes.h"
 649              		.file 6 "ChibiOS_2.6.5/os/kernel/include/chlists.h"
 650              		.file 7 "ChibiOS_2.6.5/os/kernel/include/chthreads.h"
 651              		.file 8 "ChibiOS_2.6.5/os/ports/GCC/ARMCMx/chcore_v6m.h"
 652              		.file 9 "CMSIS_CORE_LPC11Uxx/inc/nvic.h"
 653              		.file 10 "ChibiOS_2.6.5/os/kernel/include/chmtx.h"
 654              		.file 11 "ChibiOS_2.6.5/os/kernel/include/chevents.h"
 655              		.file 12 "ChibiOS_2.6.5/os/kernel/include/chqueues.h"
 656              		.file 13 "CMSIS_CORE_LPC11Uxx/inc/LPC11Uxx.h"
 657              		.file 14 "ChibiOS_2.6.5/os/hal/include/serial.h"
 658              		.file 15 "ChibiOS_2.6.5/os/hal/platforms/LPC11Uxx/serial_lld.h"
 659              		.section	.debug_info,"",%progbits
 660              	.Ldebug_info0:
 661 0000 B7120000 		.4byte	0x12b7
 662 0004 0400     		.2byte	0x4
 663 0006 00000000 		.4byte	.Ldebug_abbrev0
 664 000a 04       		.byte	0x4
 665 000b 01       		.uleb128 0x1
 666 000c F5080000 		.4byte	.LASF224
 667 0010 01       		.byte	0x1
 668 0011 24060000 		.4byte	.LASF225
 669 0015 C7040000 		.4byte	.LASF226
 670 0019 30000000 		.4byte	.Ldebug_ranges0+0x30
 671 001d 00000000 		.4byte	0
 672 0021 00000000 		.4byte	.Ldebug_line0
 673 0025 02       		.uleb128 0x2
 674 0026 04       		.byte	0x4
 675 0027 05       		.byte	0x5
 676 0028 696E7400 		.ascii	"int\000"
 677 002c 03       		.uleb128 0x3
 678 002d 00000000 		.4byte	.LASF2
 679 0031 02       		.byte	0x2
 680 0032 D4       		.byte	0xd4
ARM GAS  /tmp/cctKLj6v.s 			page 13


 681 0033 37000000 		.4byte	0x37
 682 0037 04       		.uleb128 0x4
 683 0038 04       		.byte	0x4
 684 0039 07       		.byte	0x7
 685 003a 30050000 		.4byte	.LASF0
 686 003e 04       		.uleb128 0x4
 687 003f 01       		.byte	0x1
 688 0040 06       		.byte	0x6
 689 0041 00020000 		.4byte	.LASF1
 690 0045 03       		.uleb128 0x3
 691 0046 00010000 		.4byte	.LASF3
 692 004a 03       		.byte	0x3
 693 004b 1C       		.byte	0x1c
 694 004c 50000000 		.4byte	0x50
 695 0050 04       		.uleb128 0x4
 696 0051 01       		.byte	0x1
 697 0052 08       		.byte	0x8
 698 0053 5F020000 		.4byte	.LASF4
 699 0057 04       		.uleb128 0x4
 700 0058 02       		.byte	0x2
 701 0059 05       		.byte	0x5
 702 005a BE070000 		.4byte	.LASF5
 703 005e 04       		.uleb128 0x4
 704 005f 02       		.byte	0x2
 705 0060 07       		.byte	0x7
 706 0061 B4080000 		.4byte	.LASF6
 707 0065 03       		.uleb128 0x3
 708 0066 C9090000 		.4byte	.LASF7
 709 006a 03       		.byte	0x3
 710 006b 37       		.byte	0x37
 711 006c 70000000 		.4byte	0x70
 712 0070 04       		.uleb128 0x4
 713 0071 04       		.byte	0x4
 714 0072 05       		.byte	0x5
 715 0073 59010000 		.4byte	.LASF8
 716 0077 03       		.uleb128 0x3
 717 0078 6F040000 		.4byte	.LASF9
 718 007c 03       		.byte	0x3
 719 007d 38       		.byte	0x38
 720 007e 82000000 		.4byte	0x82
 721 0082 04       		.uleb128 0x4
 722 0083 04       		.byte	0x4
 723 0084 07       		.byte	0x7
 724 0085 E9030000 		.4byte	.LASF10
 725 0089 04       		.uleb128 0x4
 726 008a 08       		.byte	0x8
 727 008b 05       		.byte	0x5
 728 008c 80040000 		.4byte	.LASF11
 729 0090 04       		.uleb128 0x4
 730 0091 08       		.byte	0x8
 731 0092 07       		.byte	0x7
 732 0093 A4060000 		.4byte	.LASF12
 733 0097 03       		.uleb128 0x3
 734 0098 16020000 		.4byte	.LASF13
 735 009c 04       		.byte	0x4
 736 009d 2A       		.byte	0x2a
 737 009e 45000000 		.4byte	0x45
ARM GAS  /tmp/cctKLj6v.s 			page 14


 738 00a2 03       		.uleb128 0x3
 739 00a3 3F000000 		.4byte	.LASF14
 740 00a7 04       		.byte	0x4
 741 00a8 41       		.byte	0x41
 742 00a9 65000000 		.4byte	0x65
 743 00ad 03       		.uleb128 0x3
 744 00ae 6E080000 		.4byte	.LASF15
 745 00b2 04       		.byte	0x4
 746 00b3 42       		.byte	0x42
 747 00b4 77000000 		.4byte	0x77
 748 00b8 03       		.uleb128 0x3
 749 00b9 13080000 		.4byte	.LASF16
 750 00bd 05       		.byte	0x5
 751 00be 2B       		.byte	0x2b
 752 00bf C3000000 		.4byte	0xc3
 753 00c3 04       		.uleb128 0x4
 754 00c4 01       		.byte	0x1
 755 00c5 02       		.byte	0x2
 756 00c6 D9020000 		.4byte	.LASF17
 757 00ca 03       		.uleb128 0x3
 758 00cb 5C070000 		.4byte	.LASF18
 759 00cf 05       		.byte	0x5
 760 00d0 2C       		.byte	0x2c
 761 00d1 97000000 		.4byte	0x97
 762 00d5 03       		.uleb128 0x3
 763 00d6 BA010000 		.4byte	.LASF19
 764 00da 05       		.byte	0x5
 765 00db 2D       		.byte	0x2d
 766 00dc 97000000 		.4byte	0x97
 767 00e0 03       		.uleb128 0x3
 768 00e1 47080000 		.4byte	.LASF20
 769 00e5 05       		.byte	0x5
 770 00e6 2E       		.byte	0x2e
 771 00e7 97000000 		.4byte	0x97
 772 00eb 03       		.uleb128 0x3
 773 00ec 00070000 		.4byte	.LASF21
 774 00f0 05       		.byte	0x5
 775 00f1 2F       		.byte	0x2f
 776 00f2 97000000 		.4byte	0x97
 777 00f6 03       		.uleb128 0x3
 778 00f7 2C000000 		.4byte	.LASF22
 779 00fb 05       		.byte	0x5
 780 00fc 30       		.byte	0x30
 781 00fd AD000000 		.4byte	0xad
 782 0101 03       		.uleb128 0x3
 783 0102 C3060000 		.4byte	.LASF23
 784 0106 05       		.byte	0x5
 785 0107 31       		.byte	0x31
 786 0108 A2000000 		.4byte	0xa2
 787 010c 03       		.uleb128 0x3
 788 010d 37020000 		.4byte	.LASF24
 789 0111 05       		.byte	0x5
 790 0112 33       		.byte	0x33
 791 0113 AD000000 		.4byte	0xad
 792 0117 03       		.uleb128 0x3
 793 0118 E0050000 		.4byte	.LASF25
 794 011c 05       		.byte	0x5
ARM GAS  /tmp/cctKLj6v.s 			page 15


 795 011d 34       		.byte	0x34
 796 011e AD000000 		.4byte	0xad
 797 0122 03       		.uleb128 0x3
 798 0123 1C000000 		.4byte	.LASF26
 799 0127 05       		.byte	0x5
 800 0128 35       		.byte	0x35
 801 0129 AD000000 		.4byte	0xad
 802 012d 03       		.uleb128 0x3
 803 012e 2A080000 		.4byte	.LASF27
 804 0132 06       		.byte	0x6
 805 0133 2A       		.byte	0x2a
 806 0134 38010000 		.4byte	0x138
 807 0138 05       		.uleb128 0x5
 808 0139 2A080000 		.4byte	.LASF27
 809 013d 48       		.byte	0x48
 810 013e 07       		.byte	0x7
 811 013f 5E       		.byte	0x5e
 812 0140 35020000 		.4byte	0x235
 813 0144 06       		.uleb128 0x6
 814 0145 62010000 		.4byte	.LASF28
 815 0149 07       		.byte	0x7
 816 014a 5F       		.byte	0x5f
 817 014b 56020000 		.4byte	0x256
 818 014f 00       		.byte	0
 819 0150 06       		.uleb128 0x6
 820 0151 8D010000 		.4byte	.LASF29
 821 0155 07       		.byte	0x7
 822 0156 61       		.byte	0x61
 823 0157 56020000 		.4byte	0x256
 824 015b 04       		.byte	0x4
 825 015c 06       		.uleb128 0x6
 826 015d F8020000 		.4byte	.LASF30
 827 0161 07       		.byte	0x7
 828 0162 63       		.byte	0x63
 829 0163 F6000000 		.4byte	0xf6
 830 0167 08       		.byte	0x8
 831 0168 06       		.uleb128 0x6
 832 0169 26000000 		.4byte	.LASF31
 833 016d 07       		.byte	0x7
 834 016e 64       		.byte	0x64
 835 016f 06030000 		.4byte	0x306
 836 0173 0C       		.byte	0xc
 837 0174 06       		.uleb128 0x6
 838 0175 51010000 		.4byte	.LASF32
 839 0179 07       		.byte	0x7
 840 017a 66       		.byte	0x66
 841 017b 56020000 		.4byte	0x256
 842 017f 10       		.byte	0x10
 843 0180 06       		.uleb128 0x6
 844 0181 BB060000 		.4byte	.LASF33
 845 0185 07       		.byte	0x7
 846 0186 67       		.byte	0x67
 847 0187 56020000 		.4byte	0x256
 848 018b 14       		.byte	0x14
 849 018c 06       		.uleb128 0x6
 850 018d 1C0A0000 		.4byte	.LASF34
 851 0191 07       		.byte	0x7
ARM GAS  /tmp/cctKLj6v.s 			page 16


 852 0192 6E       		.byte	0x6e
 853 0193 2A040000 		.4byte	0x42a
 854 0197 18       		.byte	0x18
 855 0198 06       		.uleb128 0x6
 856 0199 630A0000 		.4byte	.LASF35
 857 019d 07       		.byte	0x7
 858 019e 79       		.byte	0x79
 859 019f D5000000 		.4byte	0xd5
 860 01a3 1C       		.byte	0x1c
 861 01a4 06       		.uleb128 0x6
 862 01a5 13050000 		.4byte	.LASF36
 863 01a9 07       		.byte	0x7
 864 01aa 7D       		.byte	0x7d
 865 01ab CA000000 		.4byte	0xca
 866 01af 1D       		.byte	0x1d
 867 01b0 06       		.uleb128 0x6
 868 01b1 70050000 		.4byte	.LASF37
 869 01b5 07       		.byte	0x7
 870 01b6 82       		.byte	0x82
 871 01b7 E0000000 		.4byte	0xe0
 872 01bb 1E       		.byte	0x1e
 873 01bc 06       		.uleb128 0x6
 874 01bd 0C020000 		.4byte	.LASF38
 875 01c1 07       		.byte	0x7
 876 01c2 88       		.byte	0x88
 877 01c3 EB000000 		.4byte	0xeb
 878 01c7 1F       		.byte	0x1f
 879 01c8 06       		.uleb128 0x6
 880 01c9 EC050000 		.4byte	.LASF39
 881 01cd 07       		.byte	0x7
 882 01ce 8F       		.byte	0x8f
 883 01cf 3C030000 		.4byte	0x33c
 884 01d3 20       		.byte	0x20
 885 01d4 07       		.uleb128 0x7
 886 01d5 705F7500 		.ascii	"p_u\000"
 887 01d9 07       		.byte	0x7
 888 01da B4       		.byte	0xb4
 889 01db F5030000 		.4byte	0x3f5
 890 01df 24       		.byte	0x24
 891 01e0 06       		.uleb128 0x6
 892 01e1 03050000 		.4byte	.LASF40
 893 01e5 07       		.byte	0x7
 894 01e6 B9       		.byte	0xb9
 895 01e7 7C020000 		.4byte	0x27c
 896 01eb 28       		.byte	0x28
 897 01ec 06       		.uleb128 0x6
 898 01ed 34000000 		.4byte	.LASF41
 899 01f1 07       		.byte	0x7
 900 01f2 BF       		.byte	0xbf
 901 01f3 5C020000 		.4byte	0x25c
 902 01f7 2C       		.byte	0x2c
 903 01f8 06       		.uleb128 0x6
 904 01f9 510A0000 		.4byte	.LASF42
 905 01fd 07       		.byte	0x7
 906 01fe C3       		.byte	0xc3
 907 01ff 01010000 		.4byte	0x101
 908 0203 34       		.byte	0x34
ARM GAS  /tmp/cctKLj6v.s 			page 17


 909 0204 06       		.uleb128 0x6
 910 0205 83030000 		.4byte	.LASF43
 911 0209 07       		.byte	0x7
 912 020a C9       		.byte	0xc9
 913 020b 0C010000 		.4byte	0x10c
 914 020f 38       		.byte	0x38
 915 0210 06       		.uleb128 0x6
 916 0211 C3010000 		.4byte	.LASF44
 917 0215 07       		.byte	0x7
 918 0216 D0       		.byte	0xd0
 919 0217 3C040000 		.4byte	0x43c
 920 021b 3C       		.byte	0x3c
 921 021c 06       		.uleb128 0x6
 922 021d 64060000 		.4byte	.LASF45
 923 0221 07       		.byte	0x7
 924 0222 D4       		.byte	0xd4
 925 0223 F6000000 		.4byte	0xf6
 926 0227 40       		.byte	0x40
 927 0228 06       		.uleb128 0x6
 928 0229 68050000 		.4byte	.LASF46
 929 022d 07       		.byte	0x7
 930 022e DA       		.byte	0xda
 931 022f 92020000 		.4byte	0x292
 932 0233 44       		.byte	0x44
 933 0234 00       		.byte	0
 934 0235 08       		.uleb128 0x8
 935 0236 08       		.byte	0x8
 936 0237 06       		.byte	0x6
 937 0238 61       		.byte	0x61
 938 0239 56020000 		.4byte	0x256
 939 023d 06       		.uleb128 0x6
 940 023e 62010000 		.4byte	.LASF28
 941 0242 06       		.byte	0x6
 942 0243 62       		.byte	0x62
 943 0244 56020000 		.4byte	0x256
 944 0248 00       		.byte	0
 945 0249 06       		.uleb128 0x6
 946 024a 8D010000 		.4byte	.LASF29
 947 024e 06       		.byte	0x6
 948 024f 64       		.byte	0x64
 949 0250 56020000 		.4byte	0x256
 950 0254 04       		.byte	0x4
 951 0255 00       		.byte	0
 952 0256 09       		.uleb128 0x9
 953 0257 04       		.byte	0x4
 954 0258 2D010000 		.4byte	0x12d
 955 025c 03       		.uleb128 0x3
 956 025d 80080000 		.4byte	.LASF47
 957 0261 06       		.byte	0x6
 958 0262 66       		.byte	0x66
 959 0263 35020000 		.4byte	0x235
 960 0267 08       		.uleb128 0x8
 961 0268 04       		.byte	0x4
 962 0269 06       		.byte	0x6
 963 026a 6B       		.byte	0x6b
 964 026b 7C020000 		.4byte	0x27c
 965 026f 06       		.uleb128 0x6
ARM GAS  /tmp/cctKLj6v.s 			page 18


 966 0270 62010000 		.4byte	.LASF28
 967 0274 06       		.byte	0x6
 968 0275 6D       		.byte	0x6d
 969 0276 56020000 		.4byte	0x256
 970 027a 00       		.byte	0
 971 027b 00       		.byte	0
 972 027c 03       		.uleb128 0x3
 973 027d C0050000 		.4byte	.LASF48
 974 0281 06       		.byte	0x6
 975 0282 70       		.byte	0x70
 976 0283 67020000 		.4byte	0x267
 977 0287 03       		.uleb128 0x3
 978 0288 E1010000 		.4byte	.LASF49
 979 028c 08       		.byte	0x8
 980 028d A7       		.byte	0xa7
 981 028e 92020000 		.4byte	0x292
 982 0292 0A       		.uleb128 0xa
 983 0293 04       		.byte	0x4
 984 0294 05       		.uleb128 0x5
 985 0295 7C030000 		.4byte	.LASF50
 986 0299 24       		.byte	0x24
 987 029a 08       		.byte	0x8
 988 029b BA       		.byte	0xba
 989 029c 06030000 		.4byte	0x306
 990 02a0 07       		.uleb128 0x7
 991 02a1 723800   		.ascii	"r8\000"
 992 02a4 08       		.byte	0x8
 993 02a5 BB       		.byte	0xbb
 994 02a6 87020000 		.4byte	0x287
 995 02aa 00       		.byte	0
 996 02ab 07       		.uleb128 0x7
 997 02ac 723900   		.ascii	"r9\000"
 998 02af 08       		.byte	0x8
 999 02b0 BC       		.byte	0xbc
 1000 02b1 87020000 		.4byte	0x287
 1001 02b5 04       		.byte	0x4
 1002 02b6 07       		.uleb128 0x7
 1003 02b7 72313000 		.ascii	"r10\000"
 1004 02bb 08       		.byte	0x8
 1005 02bc BD       		.byte	0xbd
 1006 02bd 87020000 		.4byte	0x287
 1007 02c1 08       		.byte	0x8
 1008 02c2 07       		.uleb128 0x7
 1009 02c3 72313100 		.ascii	"r11\000"
 1010 02c7 08       		.byte	0x8
 1011 02c8 BE       		.byte	0xbe
 1012 02c9 87020000 		.4byte	0x287
 1013 02cd 0C       		.byte	0xc
 1014 02ce 07       		.uleb128 0x7
 1015 02cf 723400   		.ascii	"r4\000"
 1016 02d2 08       		.byte	0x8
 1017 02d3 BF       		.byte	0xbf
 1018 02d4 87020000 		.4byte	0x287
 1019 02d8 10       		.byte	0x10
 1020 02d9 07       		.uleb128 0x7
 1021 02da 723500   		.ascii	"r5\000"
 1022 02dd 08       		.byte	0x8
ARM GAS  /tmp/cctKLj6v.s 			page 19


 1023 02de C0       		.byte	0xc0
 1024 02df 87020000 		.4byte	0x287
 1025 02e3 14       		.byte	0x14
 1026 02e4 07       		.uleb128 0x7
 1027 02e5 723600   		.ascii	"r6\000"
 1028 02e8 08       		.byte	0x8
 1029 02e9 C1       		.byte	0xc1
 1030 02ea 87020000 		.4byte	0x287
 1031 02ee 18       		.byte	0x18
 1032 02ef 07       		.uleb128 0x7
 1033 02f0 723700   		.ascii	"r7\000"
 1034 02f3 08       		.byte	0x8
 1035 02f4 C2       		.byte	0xc2
 1036 02f5 87020000 		.4byte	0x287
 1037 02f9 1C       		.byte	0x1c
 1038 02fa 07       		.uleb128 0x7
 1039 02fb 6C7200   		.ascii	"lr\000"
 1040 02fe 08       		.byte	0x8
 1041 02ff C3       		.byte	0xc3
 1042 0300 87020000 		.4byte	0x287
 1043 0304 20       		.byte	0x20
 1044 0305 00       		.byte	0
 1045 0306 05       		.uleb128 0x5
 1046 0307 43020000 		.4byte	.LASF51
 1047 030b 04       		.byte	0x4
 1048 030c 08       		.byte	0x8
 1049 030d CD       		.byte	0xcd
 1050 030e 1F030000 		.4byte	0x31f
 1051 0312 07       		.uleb128 0x7
 1052 0313 72313300 		.ascii	"r13\000"
 1053 0317 08       		.byte	0x8
 1054 0318 CE       		.byte	0xce
 1055 0319 1F030000 		.4byte	0x31f
 1056 031d 00       		.byte	0
 1057 031e 00       		.byte	0
 1058 031f 09       		.uleb128 0x9
 1059 0320 04       		.byte	0x4
 1060 0321 94020000 		.4byte	0x294
 1061 0325 03       		.uleb128 0x3
 1062 0326 8D050000 		.4byte	.LASF52
 1063 032a 09       		.byte	0x9
 1064 032b 3A       		.byte	0x3a
 1065 032c 30030000 		.4byte	0x330
 1066 0330 0B       		.uleb128 0xb
 1067 0331 AD000000 		.4byte	0xad
 1068 0335 04       		.uleb128 0x4
 1069 0336 04       		.byte	0x4
 1070 0337 07       		.byte	0x7
 1071 0338 07000000 		.4byte	.LASF53
 1072 033c 0B       		.uleb128 0xb
 1073 033d 22010000 		.4byte	0x122
 1074 0341 05       		.uleb128 0x5
 1075 0342 7A040000 		.4byte	.LASF54
 1076 0346 10       		.byte	0x10
 1077 0347 0A       		.byte	0xa
 1078 0348 2C       		.byte	0x2c
 1079 0349 72030000 		.4byte	0x372
ARM GAS  /tmp/cctKLj6v.s 			page 20


 1080 034d 06       		.uleb128 0x6
 1081 034e 9D040000 		.4byte	.LASF55
 1082 0352 0A       		.byte	0xa
 1083 0353 2D       		.byte	0x2d
 1084 0354 5C020000 		.4byte	0x25c
 1085 0358 00       		.byte	0
 1086 0359 06       		.uleb128 0x6
 1087 035a EF000000 		.4byte	.LASF56
 1088 035e 0A       		.byte	0xa
 1089 035f 2F       		.byte	0x2f
 1090 0360 56020000 		.4byte	0x256
 1091 0364 08       		.byte	0x8
 1092 0365 06       		.uleb128 0x6
 1093 0366 230A0000 		.4byte	.LASF57
 1094 036a 0A       		.byte	0xa
 1095 036b 31       		.byte	0x31
 1096 036c 72030000 		.4byte	0x372
 1097 0370 0C       		.byte	0xc
 1098 0371 00       		.byte	0
 1099 0372 09       		.uleb128 0x9
 1100 0373 04       		.byte	0x4
 1101 0374 41030000 		.4byte	0x341
 1102 0378 03       		.uleb128 0x3
 1103 0379 7A040000 		.4byte	.LASF54
 1104 037d 0A       		.byte	0xa
 1105 037e 33       		.byte	0x33
 1106 037f 41030000 		.4byte	0x341
 1107 0383 03       		.uleb128 0x3
 1108 0384 4F080000 		.4byte	.LASF58
 1109 0388 0B       		.byte	0xb
 1110 0389 2C       		.byte	0x2c
 1111 038a 8E030000 		.4byte	0x38e
 1112 038e 05       		.uleb128 0x5
 1113 038f 4F080000 		.4byte	.LASF58
 1114 0393 10       		.byte	0x10
 1115 0394 0B       		.byte	0xb
 1116 0395 31       		.byte	0x31
 1117 0396 CB030000 		.4byte	0x3cb
 1118 039a 06       		.uleb128 0x6
 1119 039b 00040000 		.4byte	.LASF59
 1120 039f 0B       		.byte	0xb
 1121 03a0 32       		.byte	0x32
 1122 03a1 CB030000 		.4byte	0x3cb
 1123 03a5 00       		.byte	0
 1124 03a6 06       		.uleb128 0x6
 1125 03a7 570A0000 		.4byte	.LASF60
 1126 03ab 0B       		.byte	0xb
 1127 03ac 35       		.byte	0x35
 1128 03ad 56020000 		.4byte	0x256
 1129 03b1 04       		.byte	0x4
 1130 03b2 06       		.uleb128 0x6
 1131 03b3 E5090000 		.4byte	.LASF61
 1132 03b7 0B       		.byte	0xb
 1133 03b8 37       		.byte	0x37
 1134 03b9 0C010000 		.4byte	0x10c
 1135 03bd 08       		.byte	0x8
 1136 03be 06       		.uleb128 0x6
ARM GAS  /tmp/cctKLj6v.s 			page 21


 1137 03bf 89000000 		.4byte	.LASF62
 1138 03c3 0B       		.byte	0xb
 1139 03c4 3A       		.byte	0x3a
 1140 03c5 17010000 		.4byte	0x117
 1141 03c9 0C       		.byte	0xc
 1142 03ca 00       		.byte	0
 1143 03cb 09       		.uleb128 0x9
 1144 03cc 04       		.byte	0x4
 1145 03cd 83030000 		.4byte	0x383
 1146 03d1 05       		.uleb128 0x5
 1147 03d2 DD030000 		.4byte	.LASF63
 1148 03d6 04       		.byte	0x4
 1149 03d7 0B       		.byte	0xb
 1150 03d8 41       		.byte	0x41
 1151 03d9 EA030000 		.4byte	0x3ea
 1152 03dd 06       		.uleb128 0x6
 1153 03de B7030000 		.4byte	.LASF64
 1154 03e2 0B       		.byte	0xb
 1155 03e3 42       		.byte	0x42
 1156 03e4 CB030000 		.4byte	0x3cb
 1157 03e8 00       		.byte	0
 1158 03e9 00       		.byte	0
 1159 03ea 03       		.uleb128 0x3
 1160 03eb DD030000 		.4byte	.LASF63
 1161 03ef 0B       		.byte	0xb
 1162 03f0 45       		.byte	0x45
 1163 03f1 D1030000 		.4byte	0x3d1
 1164 03f5 0C       		.uleb128 0xc
 1165 03f6 04       		.byte	0x4
 1166 03f7 07       		.byte	0x7
 1167 03f8 96       		.byte	0x96
 1168 03f9 2A040000 		.4byte	0x42a
 1169 03fd 0D       		.uleb128 0xd
 1170 03fe A2080000 		.4byte	.LASF65
 1171 0402 07       		.byte	0x7
 1172 0403 9D       		.byte	0x9d
 1173 0404 01010000 		.4byte	0x101
 1174 0408 0D       		.uleb128 0xd
 1175 0409 F7000000 		.4byte	.LASF66
 1176 040d 07       		.byte	0x7
 1177 040e A4       		.byte	0xa4
 1178 040f 01010000 		.4byte	0x101
 1179 0413 0D       		.uleb128 0xd
 1180 0414 0C030000 		.4byte	.LASF67
 1181 0418 07       		.byte	0x7
 1182 0419 AB       		.byte	0xab
 1183 041a 92020000 		.4byte	0x292
 1184 041e 0D       		.uleb128 0xd
 1185 041f 10010000 		.4byte	.LASF68
 1186 0423 07       		.byte	0x7
 1187 0424 B2       		.byte	0xb2
 1188 0425 0C010000 		.4byte	0x10c
 1189 0429 00       		.byte	0
 1190 042a 09       		.uleb128 0x9
 1191 042b 04       		.byte	0x4
 1192 042c 30040000 		.4byte	0x430
 1193 0430 0E       		.uleb128 0xe
ARM GAS  /tmp/cctKLj6v.s 			page 22


 1194 0431 35040000 		.4byte	0x435
 1195 0435 04       		.uleb128 0x4
 1196 0436 01       		.byte	0x1
 1197 0437 08       		.byte	0x8
 1198 0438 F3020000 		.4byte	.LASF69
 1199 043c 09       		.uleb128 0x9
 1200 043d 04       		.byte	0x4
 1201 043e 78030000 		.4byte	0x378
 1202 0442 09       		.uleb128 0x9
 1203 0443 04       		.byte	0x4
 1204 0444 48040000 		.4byte	0x448
 1205 0448 0F       		.uleb128 0xf
 1206 0449 01010000 		.4byte	0x101
 1207 044d 57040000 		.4byte	0x457
 1208 0451 10       		.uleb128 0x10
 1209 0452 92020000 		.4byte	0x292
 1210 0456 00       		.byte	0
 1211 0457 03       		.uleb128 0x3
 1212 0458 FF020000 		.4byte	.LASF70
 1213 045c 0C       		.byte	0xc
 1214 045d 37       		.byte	0x37
 1215 045e 62040000 		.4byte	0x462
 1216 0462 05       		.uleb128 0x5
 1217 0463 FF020000 		.4byte	.LASF70
 1218 0467 24       		.byte	0x24
 1219 0468 0C       		.byte	0xc
 1220 0469 45       		.byte	0x45
 1221 046a CF040000 		.4byte	0x4cf
 1222 046e 06       		.uleb128 0x6
 1223 046f 52070000 		.4byte	.LASF71
 1224 0473 0C       		.byte	0xc
 1225 0474 46       		.byte	0x46
 1226 0475 5C020000 		.4byte	0x25c
 1227 0479 00       		.byte	0
 1228 047a 06       		.uleb128 0x6
 1229 047b BF030000 		.4byte	.LASF72
 1230 047f 0C       		.byte	0xc
 1231 0480 47       		.byte	0x47
 1232 0481 2C000000 		.4byte	0x2c
 1233 0485 08       		.byte	0x8
 1234 0486 06       		.uleb128 0x6
 1235 0487 32010000 		.4byte	.LASF73
 1236 048b 0C       		.byte	0xc
 1237 048c 48       		.byte	0x48
 1238 048d F1040000 		.4byte	0x4f1
 1239 0491 0C       		.byte	0xc
 1240 0492 06       		.uleb128 0x6
 1241 0493 0A010000 		.4byte	.LASF74
 1242 0497 0C       		.byte	0xc
 1243 0498 49       		.byte	0x49
 1244 0499 F1040000 		.4byte	0x4f1
 1245 049d 10       		.byte	0x10
 1246 049e 06       		.uleb128 0x6
 1247 049f 08040000 		.4byte	.LASF75
 1248 04a3 0C       		.byte	0xc
 1249 04a4 4B       		.byte	0x4b
 1250 04a5 F1040000 		.4byte	0x4f1
ARM GAS  /tmp/cctKLj6v.s 			page 23


 1251 04a9 14       		.byte	0x14
 1252 04aa 06       		.uleb128 0x6
 1253 04ab 69010000 		.4byte	.LASF76
 1254 04af 0C       		.byte	0xc
 1255 04b0 4C       		.byte	0x4c
 1256 04b1 F1040000 		.4byte	0x4f1
 1257 04b5 18       		.byte	0x18
 1258 04b6 06       		.uleb128 0x6
 1259 04b7 3B010000 		.4byte	.LASF77
 1260 04bb 0C       		.byte	0xc
 1261 04bc 4D       		.byte	0x4d
 1262 04bd CF040000 		.4byte	0x4cf
 1263 04c1 1C       		.byte	0x1c
 1264 04c2 06       		.uleb128 0x6
 1265 04c3 81020000 		.4byte	.LASF78
 1266 04c7 0C       		.byte	0xc
 1267 04c8 4E       		.byte	0x4e
 1268 04c9 92020000 		.4byte	0x292
 1269 04cd 20       		.byte	0x20
 1270 04ce 00       		.byte	0
 1271 04cf 03       		.uleb128 0x3
 1272 04d0 F0040000 		.4byte	.LASF79
 1273 04d4 0C       		.byte	0xc
 1274 04d5 3A       		.byte	0x3a
 1275 04d6 DA040000 		.4byte	0x4da
 1276 04da 09       		.uleb128 0x9
 1277 04db 04       		.byte	0x4
 1278 04dc E0040000 		.4byte	0x4e0
 1279 04e0 11       		.uleb128 0x11
 1280 04e1 EB040000 		.4byte	0x4eb
 1281 04e5 10       		.uleb128 0x10
 1282 04e6 EB040000 		.4byte	0x4eb
 1283 04ea 00       		.byte	0
 1284 04eb 09       		.uleb128 0x9
 1285 04ec 04       		.byte	0x4
 1286 04ed 57040000 		.4byte	0x457
 1287 04f1 09       		.uleb128 0x9
 1288 04f2 04       		.byte	0x4
 1289 04f3 97000000 		.4byte	0x97
 1290 04f7 03       		.uleb128 0x3
 1291 04f8 DE080000 		.4byte	.LASF80
 1292 04fc 0C       		.byte	0xc
 1293 04fd 82       		.byte	0x82
 1294 04fe 57040000 		.4byte	0x457
 1295 0502 03       		.uleb128 0x3
 1296 0503 23030000 		.4byte	.LASF81
 1297 0507 0C       		.byte	0xc
 1298 0508 F5       		.byte	0xf5
 1299 0509 57040000 		.4byte	0x457
 1300 050d 0F       		.uleb128 0xf
 1301 050e 2C000000 		.4byte	0x2c
 1302 0512 26050000 		.4byte	0x526
 1303 0516 10       		.uleb128 0x10
 1304 0517 92020000 		.4byte	0x292
 1305 051b 10       		.uleb128 0x10
 1306 051c 26050000 		.4byte	0x526
 1307 0520 10       		.uleb128 0x10
ARM GAS  /tmp/cctKLj6v.s 			page 24


 1308 0521 2C000000 		.4byte	0x2c
 1309 0525 00       		.byte	0
 1310 0526 09       		.uleb128 0x9
 1311 0527 04       		.byte	0x4
 1312 0528 2C050000 		.4byte	0x52c
 1313 052c 0E       		.uleb128 0xe
 1314 052d 97000000 		.4byte	0x97
 1315 0531 09       		.uleb128 0x9
 1316 0532 04       		.byte	0x4
 1317 0533 0D050000 		.4byte	0x50d
 1318 0537 0F       		.uleb128 0xf
 1319 0538 2C000000 		.4byte	0x2c
 1320 053c 50050000 		.4byte	0x550
 1321 0540 10       		.uleb128 0x10
 1322 0541 92020000 		.4byte	0x292
 1323 0545 10       		.uleb128 0x10
 1324 0546 F1040000 		.4byte	0x4f1
 1325 054a 10       		.uleb128 0x10
 1326 054b 2C000000 		.4byte	0x2c
 1327 054f 00       		.byte	0
 1328 0550 09       		.uleb128 0x9
 1329 0551 04       		.byte	0x4
 1330 0552 37050000 		.4byte	0x537
 1331 0556 0F       		.uleb128 0xf
 1332 0557 01010000 		.4byte	0x101
 1333 055b 6A050000 		.4byte	0x56a
 1334 055f 10       		.uleb128 0x10
 1335 0560 92020000 		.4byte	0x292
 1336 0564 10       		.uleb128 0x10
 1337 0565 97000000 		.4byte	0x97
 1338 0569 00       		.byte	0
 1339 056a 09       		.uleb128 0x9
 1340 056b 04       		.byte	0x4
 1341 056c 56050000 		.4byte	0x556
 1342 0570 12       		.uleb128 0x12
 1343 0571 01       		.byte	0x1
 1344 0572 0D       		.byte	0xd
 1345 0573 2D       		.byte	0x2d
 1346 0574 63060000 		.4byte	0x663
 1347 0578 13       		.uleb128 0x13
 1348 0579 D4060000 		.4byte	.LASF82
 1349 057d 71       		.sleb128 -15
 1350 057e 13       		.uleb128 0x13
 1351 057f C9030000 		.4byte	.LASF83
 1352 0583 72       		.sleb128 -14
 1353 0584 13       		.uleb128 0x13
 1354 0585 F5090000 		.4byte	.LASF84
 1355 0589 73       		.sleb128 -13
 1356 058a 13       		.uleb128 0x13
 1357 058b BB040000 		.4byte	.LASF85
 1358 058f 7B       		.sleb128 -5
 1359 0590 13       		.uleb128 0x13
 1360 0591 6E070000 		.4byte	.LASF86
 1361 0595 7C       		.sleb128 -4
 1362 0596 13       		.uleb128 0x13
 1363 0597 E9080000 		.4byte	.LASF87
 1364 059b 7E       		.sleb128 -2
ARM GAS  /tmp/cctKLj6v.s 			page 25


 1365 059c 13       		.uleb128 0x13
 1366 059d EA010000 		.4byte	.LASF88
 1367 05a1 7F       		.sleb128 -1
 1368 05a2 13       		.uleb128 0x13
 1369 05a3 A8030000 		.4byte	.LASF89
 1370 05a7 00       		.sleb128 0
 1371 05a8 13       		.uleb128 0x13
 1372 05a9 2F030000 		.4byte	.LASF90
 1373 05ad 01       		.sleb128 1
 1374 05ae 13       		.uleb128 0x13
 1375 05af BA090000 		.4byte	.LASF91
 1376 05b3 02       		.sleb128 2
 1377 05b4 13       		.uleb128 0x13
 1378 05b5 59050000 		.4byte	.LASF92
 1379 05b9 03       		.sleb128 3
 1380 05ba 13       		.uleb128 0x13
 1381 05bb A5040000 		.4byte	.LASF93
 1382 05bf 04       		.sleb128 4
 1383 05c0 13       		.uleb128 0x13
 1384 05c1 8E040000 		.4byte	.LASF94
 1385 05c5 05       		.sleb128 5
 1386 05c6 13       		.uleb128 0x13
 1387 05c7 2C070000 		.4byte	.LASF95
 1388 05cb 06       		.sleb128 6
 1389 05cc 13       		.uleb128 0x13
 1390 05cd 78060000 		.4byte	.LASF96
 1391 05d1 07       		.sleb128 7
 1392 05d2 13       		.uleb128 0x13
 1393 05d3 D7070000 		.4byte	.LASF97
 1394 05d7 08       		.sleb128 8
 1395 05d8 13       		.uleb128 0x13
 1396 05d9 01080000 		.4byte	.LASF98
 1397 05dd 09       		.sleb128 9
 1398 05de 13       		.uleb128 0x13
 1399 05df 0D0A0000 		.4byte	.LASF99
 1400 05e3 0A       		.sleb128 10
 1401 05e4 13       		.uleb128 0x13
 1402 05e5 95050000 		.4byte	.LASF100
 1403 05e9 0B       		.sleb128 11
 1404 05ea 13       		.uleb128 0x13
 1405 05eb 1E020000 		.4byte	.LASF101
 1406 05ef 0C       		.sleb128 12
 1407 05f0 13       		.uleb128 0x13
 1408 05f1 C8070000 		.4byte	.LASF102
 1409 05f5 0D       		.sleb128 13
 1410 05f6 13       		.uleb128 0x13
 1411 05f7 BD000000 		.4byte	.LASF103
 1412 05fb 0E       		.sleb128 14
 1413 05fc 13       		.uleb128 0x13
 1414 05fd CC050000 		.4byte	.LASF104
 1415 0601 0F       		.sleb128 15
 1416 0602 13       		.uleb128 0x13
 1417 0603 1B050000 		.4byte	.LASF105
 1418 0607 10       		.sleb128 16
 1419 0608 13       		.uleb128 0x13
 1420 0609 5F040000 		.4byte	.LASF106
 1421 060d 11       		.sleb128 17
ARM GAS  /tmp/cctKLj6v.s 			page 26


 1422 060e 13       		.uleb128 0x13
 1423 060f 69000000 		.4byte	.LASF107
 1424 0613 12       		.sleb128 18
 1425 0614 13       		.uleb128 0x13
 1426 0615 79000000 		.4byte	.LASF108
 1427 0619 13       		.sleb128 19
 1428 061a 13       		.uleb128 0x13
 1429 061b 71010000 		.4byte	.LASF109
 1430 061f 14       		.sleb128 20
 1431 0620 13       		.uleb128 0x13
 1432 0621 1A060000 		.4byte	.LASF110
 1433 0625 15       		.sleb128 21
 1434 0626 13       		.uleb128 0x13
 1435 0627 BB020000 		.4byte	.LASF111
 1436 062b 16       		.sleb128 22
 1437 062c 13       		.uleb128 0x13
 1438 062d 77080000 		.4byte	.LASF112
 1439 0631 17       		.sleb128 23
 1440 0632 13       		.uleb128 0x13
 1441 0633 18070000 		.4byte	.LASF113
 1442 0637 18       		.sleb128 24
 1443 0638 13       		.uleb128 0x13
 1444 0639 2B040000 		.4byte	.LASF114
 1445 063d 19       		.sleb128 25
 1446 063e 13       		.uleb128 0x13
 1447 063f 1A080000 		.4byte	.LASF115
 1448 0643 1A       		.sleb128 26
 1449 0644 13       		.uleb128 0x13
 1450 0645 91060000 		.4byte	.LASF116
 1451 0649 1B       		.sleb128 27
 1452 064a 13       		.uleb128 0x13
 1453 064b 43070000 		.4byte	.LASF117
 1454 064f 1C       		.sleb128 28
 1455 0650 13       		.uleb128 0x13
 1456 0651 99030000 		.4byte	.LASF118
 1457 0655 1D       		.sleb128 29
 1458 0656 13       		.uleb128 0x13
 1459 0657 4A050000 		.4byte	.LASF119
 1460 065b 1E       		.sleb128 30
 1461 065c 13       		.uleb128 0x13
 1462 065d 420A0000 		.4byte	.LASF120
 1463 0661 1F       		.sleb128 31
 1464 0662 00       		.byte	0
 1465 0663 14       		.uleb128 0x14
 1466 0664 AD000000 		.4byte	0xad
 1467 0668 73060000 		.4byte	0x673
 1468 066c 15       		.uleb128 0x15
 1469 066d 35030000 		.4byte	0x335
 1470 0671 00       		.byte	0
 1471 0672 00       		.byte	0
 1472 0673 14       		.uleb128 0x14
 1473 0674 AD000000 		.4byte	0xad
 1474 0678 83060000 		.4byte	0x683
 1475 067c 15       		.uleb128 0x15
 1476 067d 35030000 		.4byte	0x335
 1477 0681 07       		.byte	0x7
 1478 0682 00       		.byte	0
ARM GAS  /tmp/cctKLj6v.s 			page 27


 1479 0683 0E       		.uleb128 0xe
 1480 0684 30030000 		.4byte	0x330
 1481 0688 14       		.uleb128 0x14
 1482 0689 AD000000 		.4byte	0xad
 1483 068d 98060000 		.4byte	0x698
 1484 0691 15       		.uleb128 0x15
 1485 0692 35030000 		.4byte	0x335
 1486 0696 01       		.byte	0x1
 1487 0697 00       		.byte	0
 1488 0698 14       		.uleb128 0x14
 1489 0699 AD000000 		.4byte	0xad
 1490 069d A8060000 		.4byte	0x6a8
 1491 06a1 15       		.uleb128 0x15
 1492 06a2 35030000 		.4byte	0x335
 1493 06a6 03       		.byte	0x3
 1494 06a7 00       		.byte	0
 1495 06a8 0C       		.uleb128 0xc
 1496 06a9 04       		.byte	0x4
 1497 06aa 0D       		.byte	0xd
 1498 06ab AE       		.byte	0xae
 1499 06ac D2060000 		.4byte	0x6d2
 1500 06b0 16       		.uleb128 0x16
 1501 06b1 444C4C00 		.ascii	"DLL\000"
 1502 06b5 0D       		.byte	0xd
 1503 06b6 AF       		.byte	0xaf
 1504 06b7 30030000 		.4byte	0x330
 1505 06bb 16       		.uleb128 0x16
 1506 06bc 54485200 		.ascii	"THR\000"
 1507 06c0 0D       		.byte	0xd
 1508 06c1 B0       		.byte	0xb0
 1509 06c2 30030000 		.4byte	0x330
 1510 06c6 16       		.uleb128 0x16
 1511 06c7 52425200 		.ascii	"RBR\000"
 1512 06cb 0D       		.byte	0xd
 1513 06cc B1       		.byte	0xb1
 1514 06cd 83060000 		.4byte	0x683
 1515 06d1 00       		.byte	0
 1516 06d2 0C       		.uleb128 0xc
 1517 06d3 04       		.byte	0x4
 1518 06d4 0D       		.byte	0xd
 1519 06d5 B4       		.byte	0xb4
 1520 06d6 F1060000 		.4byte	0x6f1
 1521 06da 16       		.uleb128 0x16
 1522 06db 49455200 		.ascii	"IER\000"
 1523 06df 0D       		.byte	0xd
 1524 06e0 B5       		.byte	0xb5
 1525 06e1 30030000 		.4byte	0x330
 1526 06e5 16       		.uleb128 0x16
 1527 06e6 444C4D00 		.ascii	"DLM\000"
 1528 06ea 0D       		.byte	0xd
 1529 06eb B6       		.byte	0xb6
 1530 06ec 30030000 		.4byte	0x330
 1531 06f0 00       		.byte	0
 1532 06f1 0C       		.uleb128 0xc
 1533 06f2 04       		.byte	0x4
 1534 06f3 0D       		.byte	0xd
 1535 06f4 B9       		.byte	0xb9
ARM GAS  /tmp/cctKLj6v.s 			page 28


 1536 06f5 10070000 		.4byte	0x710
 1537 06f9 16       		.uleb128 0x16
 1538 06fa 46435200 		.ascii	"FCR\000"
 1539 06fe 0D       		.byte	0xd
 1540 06ff BA       		.byte	0xba
 1541 0700 30030000 		.4byte	0x330
 1542 0704 16       		.uleb128 0x16
 1543 0705 49495200 		.ascii	"IIR\000"
 1544 0709 0D       		.byte	0xd
 1545 070a BB       		.byte	0xbb
 1546 070b 83060000 		.4byte	0x683
 1547 070f 00       		.byte	0
 1548 0710 08       		.uleb128 0x8
 1549 0711 5C       		.byte	0x5c
 1550 0712 0D       		.byte	0xd
 1551 0713 AC       		.byte	0xac
 1552 0714 03080000 		.4byte	0x803
 1553 0718 17       		.uleb128 0x17
 1554 0719 A8060000 		.4byte	0x6a8
 1555 071d 00       		.byte	0
 1556 071e 17       		.uleb128 0x17
 1557 071f D2060000 		.4byte	0x6d2
 1558 0723 04       		.byte	0x4
 1559 0724 17       		.uleb128 0x17
 1560 0725 F1060000 		.4byte	0x6f1
 1561 0729 08       		.byte	0x8
 1562 072a 07       		.uleb128 0x7
 1563 072b 4C435200 		.ascii	"LCR\000"
 1564 072f 0D       		.byte	0xd
 1565 0730 BD       		.byte	0xbd
 1566 0731 30030000 		.4byte	0x330
 1567 0735 0C       		.byte	0xc
 1568 0736 07       		.uleb128 0x7
 1569 0737 4D435200 		.ascii	"MCR\000"
 1570 073b 0D       		.byte	0xd
 1571 073c BE       		.byte	0xbe
 1572 073d 30030000 		.4byte	0x330
 1573 0741 10       		.byte	0x10
 1574 0742 07       		.uleb128 0x7
 1575 0743 4C535200 		.ascii	"LSR\000"
 1576 0747 0D       		.byte	0xd
 1577 0748 BF       		.byte	0xbf
 1578 0749 83060000 		.4byte	0x683
 1579 074d 14       		.byte	0x14
 1580 074e 07       		.uleb128 0x7
 1581 074f 4D535200 		.ascii	"MSR\000"
 1582 0753 0D       		.byte	0xd
 1583 0754 C0       		.byte	0xc0
 1584 0755 83060000 		.4byte	0x683
 1585 0759 18       		.byte	0x18
 1586 075a 07       		.uleb128 0x7
 1587 075b 53435200 		.ascii	"SCR\000"
 1588 075f 0D       		.byte	0xd
 1589 0760 C1       		.byte	0xc1
 1590 0761 30030000 		.4byte	0x330
 1591 0765 1C       		.byte	0x1c
 1592 0766 07       		.uleb128 0x7
ARM GAS  /tmp/cctKLj6v.s 			page 29


 1593 0767 41435200 		.ascii	"ACR\000"
 1594 076b 0D       		.byte	0xd
 1595 076c C2       		.byte	0xc2
 1596 076d 30030000 		.4byte	0x330
 1597 0771 20       		.byte	0x20
 1598 0772 07       		.uleb128 0x7
 1599 0773 49435200 		.ascii	"ICR\000"
 1600 0777 0D       		.byte	0xd
 1601 0778 C3       		.byte	0xc3
 1602 0779 30030000 		.4byte	0x330
 1603 077d 24       		.byte	0x24
 1604 077e 07       		.uleb128 0x7
 1605 077f 46445200 		.ascii	"FDR\000"
 1606 0783 0D       		.byte	0xd
 1607 0784 C4       		.byte	0xc4
 1608 0785 30030000 		.4byte	0x330
 1609 0789 28       		.byte	0x28
 1610 078a 07       		.uleb128 0x7
 1611 078b 4F535200 		.ascii	"OSR\000"
 1612 078f 0D       		.byte	0xd
 1613 0790 C5       		.byte	0xc5
 1614 0791 30030000 		.4byte	0x330
 1615 0795 2C       		.byte	0x2c
 1616 0796 07       		.uleb128 0x7
 1617 0797 54455200 		.ascii	"TER\000"
 1618 079b 0D       		.byte	0xd
 1619 079c C6       		.byte	0xc6
 1620 079d 30030000 		.4byte	0x330
 1621 07a1 30       		.byte	0x30
 1622 07a2 06       		.uleb128 0x6
 1623 07a3 4B020000 		.4byte	.LASF121
 1624 07a7 0D       		.byte	0xd
 1625 07a8 C7       		.byte	0xc7
 1626 07a9 13080000 		.4byte	0x813
 1627 07ad 34       		.byte	0x34
 1628 07ae 06       		.uleb128 0x6
 1629 07af FB030000 		.4byte	.LASF122
 1630 07b3 0D       		.byte	0xd
 1631 07b4 C8       		.byte	0xc8
 1632 07b5 30030000 		.4byte	0x330
 1633 07b9 40       		.byte	0x40
 1634 07ba 06       		.uleb128 0x6
 1635 07bb 55020000 		.4byte	.LASF123
 1636 07bf 0D       		.byte	0xd
 1637 07c0 C9       		.byte	0xc9
 1638 07c1 83060000 		.4byte	0x683
 1639 07c5 44       		.byte	0x44
 1640 07c6 06       		.uleb128 0x6
 1641 07c7 3B070000 		.4byte	.LASF124
 1642 07cb 0D       		.byte	0xd
 1643 07cc CA       		.byte	0xca
 1644 07cd 30030000 		.4byte	0x330
 1645 07d1 48       		.byte	0x48
 1646 07d2 06       		.uleb128 0x6
 1647 07d3 87060000 		.4byte	.LASF125
 1648 07d7 0D       		.byte	0xd
 1649 07d8 CB       		.byte	0xcb
ARM GAS  /tmp/cctKLj6v.s 			page 30


 1650 07d9 30030000 		.4byte	0x330
 1651 07dd 4C       		.byte	0x4c
 1652 07de 06       		.uleb128 0x6
 1653 07df E1000000 		.4byte	.LASF126
 1654 07e3 0D       		.byte	0xd
 1655 07e4 CC       		.byte	0xcc
 1656 07e5 30030000 		.4byte	0x330
 1657 07e9 50       		.byte	0x50
 1658 07ea 06       		.uleb128 0x6
 1659 07eb 69030000 		.4byte	.LASF127
 1660 07ef 0D       		.byte	0xd
 1661 07f0 CD       		.byte	0xcd
 1662 07f1 30030000 		.4byte	0x330
 1663 07f5 54       		.byte	0x54
 1664 07f6 06       		.uleb128 0x6
 1665 07f7 6F060000 		.4byte	.LASF128
 1666 07fb 0D       		.byte	0xd
 1667 07fc CE       		.byte	0xce
 1668 07fd 30030000 		.4byte	0x330
 1669 0801 58       		.byte	0x58
 1670 0802 00       		.byte	0
 1671 0803 14       		.uleb128 0x14
 1672 0804 AD000000 		.4byte	0xad
 1673 0808 13080000 		.4byte	0x813
 1674 080c 15       		.uleb128 0x15
 1675 080d 35030000 		.4byte	0x335
 1676 0811 02       		.byte	0x2
 1677 0812 00       		.byte	0
 1678 0813 0E       		.uleb128 0xe
 1679 0814 18080000 		.4byte	0x818
 1680 0818 0B       		.uleb128 0xb
 1681 0819 03080000 		.4byte	0x803
 1682 081d 03       		.uleb128 0x3
 1683 081e 34040000 		.4byte	.LASF129
 1684 0822 0D       		.byte	0xd
 1685 0823 CF       		.byte	0xcf
 1686 0824 10070000 		.4byte	0x710
 1687 0828 18       		.uleb128 0x18
 1688 0829 F803     		.2byte	0x3f8
 1689 082b 0D       		.byte	0xd
 1690 082c B301     		.2byte	0x1b3
 1691 082e 200B0000 		.4byte	0xb20
 1692 0832 19       		.uleb128 0x19
 1693 0833 5D030000 		.4byte	.LASF130
 1694 0837 0D       		.byte	0xd
 1695 0838 B401     		.2byte	0x1b4
 1696 083a 30030000 		.4byte	0x330
 1697 083e 00       		.byte	0
 1698 083f 19       		.uleb128 0x19
 1699 0840 21070000 		.4byte	.LASF131
 1700 0844 0D       		.byte	0xd
 1701 0845 B501     		.2byte	0x1b5
 1702 0847 30030000 		.4byte	0x330
 1703 084b 04       		.byte	0x4
 1704 084c 19       		.uleb128 0x19
 1705 084d 47030000 		.4byte	.LASF132
 1706 0851 0D       		.byte	0xd
ARM GAS  /tmp/cctKLj6v.s 			page 31


 1707 0852 B601     		.2byte	0x1b6
 1708 0854 30030000 		.4byte	0x330
 1709 0858 08       		.byte	0x8
 1710 0859 19       		.uleb128 0x19
 1711 085a 31080000 		.4byte	.LASF133
 1712 085e 0D       		.byte	0xd
 1713 085f B701     		.2byte	0x1b7
 1714 0861 83060000 		.4byte	0x683
 1715 0865 0C       		.byte	0xc
 1716 0866 19       		.uleb128 0x19
 1717 0867 D5050000 		.4byte	.LASF134
 1718 086b 0D       		.byte	0xd
 1719 086c B801     		.2byte	0x1b8
 1720 086e 30030000 		.4byte	0x330
 1721 0872 10       		.byte	0x10
 1722 0873 19       		.uleb128 0x19
 1723 0874 2A0A0000 		.4byte	.LASF135
 1724 0878 0D       		.byte	0xd
 1725 0879 B901     		.2byte	0x1b9
 1726 087b 83060000 		.4byte	0x683
 1727 087f 14       		.byte	0x14
 1728 0880 19       		.uleb128 0x19
 1729 0881 4B020000 		.4byte	.LASF121
 1730 0885 0D       		.byte	0xd
 1731 0886 BA01     		.2byte	0x1ba
 1732 0888 200B0000 		.4byte	0xb20
 1733 088c 18       		.byte	0x18
 1734 088d 19       		.uleb128 0x19
 1735 088e 59060000 		.4byte	.LASF136
 1736 0892 0D       		.byte	0xd
 1737 0893 BB01     		.2byte	0x1bb
 1738 0895 30030000 		.4byte	0x330
 1739 0899 20       		.byte	0x20
 1740 089a 19       		.uleb128 0x19
 1741 089b 8D080000 		.4byte	.LASF137
 1742 089f 0D       		.byte	0xd
 1743 08a0 BC01     		.2byte	0x1bc
 1744 08a2 30030000 		.4byte	0x330
 1745 08a6 24       		.byte	0x24
 1746 08a7 19       		.uleb128 0x19
 1747 08a8 55020000 		.4byte	.LASF123
 1748 08ac 0D       		.byte	0xd
 1749 08ad BD01     		.2byte	0x1bd
 1750 08af 2A0B0000 		.4byte	0xb2a
 1751 08b3 28       		.byte	0x28
 1752 08b4 19       		.uleb128 0x19
 1753 08b5 52030000 		.4byte	.LASF138
 1754 08b9 0D       		.byte	0xd
 1755 08ba BE01     		.2byte	0x1be
 1756 08bc 30030000 		.4byte	0x330
 1757 08c0 30       		.byte	0x30
 1758 08c1 19       		.uleb128 0x19
 1759 08c2 DF020000 		.4byte	.LASF139
 1760 08c6 0D       		.byte	0xd
 1761 08c7 BF01     		.2byte	0x1bf
 1762 08c9 340B0000 		.4byte	0xb34
 1763 08cd 34       		.byte	0x34
ARM GAS  /tmp/cctKLj6v.s 			page 32


 1764 08ce 19       		.uleb128 0x19
 1765 08cf 94010000 		.4byte	.LASF140
 1766 08d3 0D       		.byte	0xd
 1767 08d4 C001     		.2byte	0x1c0
 1768 08d6 30030000 		.4byte	0x330
 1769 08da 40       		.byte	0x40
 1770 08db 19       		.uleb128 0x19
 1771 08dc 3D050000 		.4byte	.LASF141
 1772 08e0 0D       		.byte	0xd
 1773 08e1 C101     		.2byte	0x1c1
 1774 08e3 30030000 		.4byte	0x330
 1775 08e7 44       		.byte	0x44
 1776 08e8 19       		.uleb128 0x19
 1777 08e9 350A0000 		.4byte	.LASF142
 1778 08ed 0D       		.byte	0xd
 1779 08ee C201     		.2byte	0x1c2
 1780 08f0 30030000 		.4byte	0x330
 1781 08f4 48       		.byte	0x48
 1782 08f5 19       		.uleb128 0x19
 1783 08f6 91070000 		.4byte	.LASF143
 1784 08fa 0D       		.byte	0xd
 1785 08fb C301     		.2byte	0x1c3
 1786 08fd 30030000 		.4byte	0x330
 1787 0901 4C       		.byte	0x4c
 1788 0902 19       		.uleb128 0x19
 1789 0903 6D020000 		.4byte	.LASF144
 1790 0907 0D       		.byte	0xd
 1791 0908 C401     		.2byte	0x1c4
 1792 090a 3E0B0000 		.4byte	0xb3e
 1793 090e 50       		.byte	0x50
 1794 090f 19       		.uleb128 0x19
 1795 0910 B0020000 		.4byte	.LASF145
 1796 0914 0D       		.byte	0xd
 1797 0915 C501     		.2byte	0x1c5
 1798 0917 30030000 		.4byte	0x330
 1799 091b 70       		.byte	0x70
 1800 091c 19       		.uleb128 0x19
 1801 091d FA050000 		.4byte	.LASF146
 1802 0921 0D       		.byte	0xd
 1803 0922 C601     		.2byte	0x1c6
 1804 0924 30030000 		.4byte	0x330
 1805 0928 74       		.byte	0x74
 1806 0929 19       		.uleb128 0x19
 1807 092a 80050000 		.4byte	.LASF147
 1808 092e 0D       		.byte	0xd
 1809 092f C701     		.2byte	0x1c7
 1810 0931 30030000 		.4byte	0x330
 1811 0935 78       		.byte	0x78
 1812 0936 19       		.uleb128 0x19
 1813 0937 77020000 		.4byte	.LASF148
 1814 093b 0D       		.byte	0xd
 1815 093c C801     		.2byte	0x1c8
 1816 093e 480B0000 		.4byte	0xb48
 1817 0942 7C       		.byte	0x7c
 1818 0943 19       		.uleb128 0x19
 1819 0944 0A070000 		.4byte	.LASF149
 1820 0948 0D       		.byte	0xd
ARM GAS  /tmp/cctKLj6v.s 			page 33


 1821 0949 C901     		.2byte	0x1c9
 1822 094b 30030000 		.4byte	0x330
 1823 094f 80       		.byte	0x80
 1824 0950 19       		.uleb128 0x19
 1825 0951 E9020000 		.4byte	.LASF150
 1826 0955 0D       		.byte	0xd
 1827 0956 CA01     		.2byte	0x1ca
 1828 0958 520B0000 		.4byte	0xb52
 1829 095c 84       		.byte	0x84
 1830 095d 19       		.uleb128 0x19
 1831 095e 3C080000 		.4byte	.LASF151
 1832 0962 0D       		.byte	0xd
 1833 0963 CB01     		.2byte	0x1cb
 1834 0965 30030000 		.4byte	0x330
 1835 0969 94       		.byte	0x94
 1836 096a 19       		.uleb128 0x19
 1837 096b CE020000 		.4byte	.LASF152
 1838 096f 0D       		.byte	0xd
 1839 0970 CC01     		.2byte	0x1cc
 1840 0972 30030000 		.4byte	0x330
 1841 0976 98       		.byte	0x98
 1842 0977 19       		.uleb128 0x19
 1843 0978 A9080000 		.4byte	.LASF153
 1844 097c 0D       		.byte	0xd
 1845 097d CD01     		.2byte	0x1cd
 1846 097f 30030000 		.4byte	0x330
 1847 0983 9C       		.byte	0x9c
 1848 0984 19       		.uleb128 0x19
 1849 0985 88020000 		.4byte	.LASF154
 1850 0989 0D       		.byte	0xd
 1851 098a CE01     		.2byte	0x1ce
 1852 098c 5C0B0000 		.4byte	0xb5c
 1853 0990 A0       		.byte	0xa0
 1854 0991 19       		.uleb128 0x19
 1855 0992 9A060000 		.4byte	.LASF155
 1856 0996 0D       		.byte	0xd
 1857 0997 CF01     		.2byte	0x1cf
 1858 0999 30030000 		.4byte	0x330
 1859 099d C0       		.byte	0xc0
 1860 099e 19       		.uleb128 0x19
 1861 099f 72030000 		.4byte	.LASF156
 1862 09a3 0D       		.byte	0xd
 1863 09a4 D001     		.2byte	0x1d0
 1864 09a6 30030000 		.4byte	0x330
 1865 09aa C4       		.byte	0xc4
 1866 09ab 19       		.uleb128 0x19
 1867 09ac 99000000 		.4byte	.LASF157
 1868 09b0 0D       		.byte	0xd
 1869 09b1 D101     		.2byte	0x1d1
 1870 09b3 30030000 		.4byte	0x330
 1871 09b7 C8       		.byte	0xc8
 1872 09b8 19       		.uleb128 0x19
 1873 09b9 92020000 		.4byte	.LASF158
 1874 09bd 0D       		.byte	0xd
 1875 09be D201     		.2byte	0x1d2
 1876 09c0 760B0000 		.4byte	0xb76
 1877 09c4 CC       		.byte	0xcc
ARM GAS  /tmp/cctKLj6v.s 			page 34


 1878 09c5 19       		.uleb128 0x19
 1879 09c6 9E070000 		.4byte	.LASF159
 1880 09ca 0D       		.byte	0xd
 1881 09cb D301     		.2byte	0x1d3
 1882 09cd 30030000 		.4byte	0x330
 1883 09d1 E0       		.byte	0xe0
 1884 09d2 19       		.uleb128 0x19
 1885 09d3 2D020000 		.4byte	.LASF160
 1886 09d7 0D       		.byte	0xd
 1887 09d8 D401     		.2byte	0x1d4
 1888 09da 30030000 		.4byte	0x330
 1889 09de E4       		.byte	0xe4
 1890 09df 19       		.uleb128 0x19
 1891 09e0 98080000 		.4byte	.LASF161
 1892 09e4 0D       		.byte	0xd
 1893 09e5 D501     		.2byte	0x1d5
 1894 09e7 30030000 		.4byte	0x330
 1895 09eb E8       		.byte	0xe8
 1896 09ec 19       		.uleb128 0x19
 1897 09ed 9C020000 		.4byte	.LASF162
 1898 09f1 0D       		.byte	0xd
 1899 09f2 D601     		.2byte	0x1d6
 1900 09f4 800B0000 		.4byte	0xb80
 1901 09f8 EC       		.byte	0xec
 1902 09f9 1A       		.uleb128 0x1a
 1903 09fa A8070000 		.4byte	.LASF163
 1904 09fe 0D       		.byte	0xd
 1905 09ff D701     		.2byte	0x1d7
 1906 0a01 83060000 		.4byte	0x683
 1907 0a05 0001     		.2byte	0x100
 1908 0a07 1A       		.uleb128 0x1a
 1909 0a08 B3070000 		.4byte	.LASF164
 1910 0a0c 0D       		.byte	0xd
 1911 0a0d D801     		.2byte	0x1d8
 1912 0a0f 83060000 		.4byte	0x683
 1913 0a13 0401     		.2byte	0x104
 1914 0a15 1A       		.uleb128 0x1a
 1915 0a16 A6020000 		.4byte	.LASF165
 1916 0a1a 0D       		.byte	0xd
 1917 0a1b D901     		.2byte	0x1d9
 1918 0a1d 9A0B0000 		.4byte	0xb9a
 1919 0a21 0801     		.2byte	0x108
 1920 0a23 1A       		.uleb128 0x1a
 1921 0a24 5B000000 		.4byte	.LASF166
 1922 0a28 0D       		.byte	0xd
 1923 0a29 DA01     		.2byte	0x1da
 1924 0a2b 30030000 		.4byte	0x330
 1925 0a2f 5001     		.2byte	0x150
 1926 0a31 1A       		.uleb128 0x1a
 1927 0a32 DB090000 		.4byte	.LASF167
 1928 0a36 0D       		.byte	0xd
 1929 0a37 DB01     		.2byte	0x1db
 1930 0a39 30030000 		.4byte	0x330
 1931 0a3d 5401     		.2byte	0x154
 1932 0a3f 1A       		.uleb128 0x1a
 1933 0a40 C9060000 		.4byte	.LASF168
 1934 0a44 0D       		.byte	0xd
ARM GAS  /tmp/cctKLj6v.s 			page 35


 1935 0a45 DC01     		.2byte	0x1dc
 1936 0a47 B40B0000 		.4byte	0xbb4
 1937 0a4b 5801     		.2byte	0x158
 1938 0a4d 1A       		.uleb128 0x1a
 1939 0a4e 20040000 		.4byte	.LASF169
 1940 0a52 0D       		.byte	0xd
 1941 0a53 DD01     		.2byte	0x1dd
 1942 0a55 30030000 		.4byte	0x330
 1943 0a59 7001     		.2byte	0x170
 1944 0a5b 1A       		.uleb128 0x1a
 1945 0a5c 23080000 		.4byte	.LASF170
 1946 0a60 0D       		.byte	0xd
 1947 0a61 DE01     		.2byte	0x1de
 1948 0a63 30030000 		.4byte	0x330
 1949 0a67 7401     		.2byte	0x174
 1950 0a69 1A       		.uleb128 0x1a
 1951 0a6a 2A010000 		.4byte	.LASF171
 1952 0a6e 0D       		.byte	0xd
 1953 0a6f DF01     		.2byte	0x1df
 1954 0a71 BE0B0000 		.4byte	0xbbe
 1955 0a75 7801     		.2byte	0x178
 1956 0a77 1A       		.uleb128 0x1a
 1957 0a78 8E030000 		.4byte	.LASF172
 1958 0a7c 0D       		.byte	0xd
 1959 0a7d E001     		.2byte	0x1e0
 1960 0a7f 30030000 		.4byte	0x330
 1961 0a83 9801     		.2byte	0x198
 1962 0a85 1A       		.uleb128 0x1a
 1963 0a86 040A0000 		.4byte	.LASF173
 1964 0a8a 0D       		.byte	0xd
 1965 0a8b E101     		.2byte	0x1e1
 1966 0a8d 83060000 		.4byte	0x683
 1967 0a91 9C01     		.2byte	0x19c
 1968 0a93 1A       		.uleb128 0x1a
 1969 0a94 D3080000 		.4byte	.LASF174
 1970 0a98 0D       		.byte	0xd
 1971 0a99 E201     		.2byte	0x1e2
 1972 0a9b D30B0000 		.4byte	0xbd3
 1973 0a9f A001     		.2byte	0x1a0
 1974 0aa1 1A       		.uleb128 0x1a
 1975 0aa2 ED070000 		.4byte	.LASF175
 1976 0aa6 0D       		.byte	0xd
 1977 0aa7 E301     		.2byte	0x1e3
 1978 0aa9 30030000 		.4byte	0x330
 1979 0aad 0402     		.2byte	0x204
 1980 0aaf 1A       		.uleb128 0x1a
 1981 0ab0 DF060000 		.4byte	.LASF176
 1982 0ab4 0D       		.byte	0xd
 1983 0ab5 E401     		.2byte	0x1e4
 1984 0ab7 DD0B0000 		.4byte	0xbdd
 1985 0abb 0802     		.2byte	0x208
 1986 0abd 1A       		.uleb128 0x1a
 1987 0abe F7070000 		.4byte	.LASF177
 1988 0ac2 0D       		.byte	0xd
 1989 0ac3 E501     		.2byte	0x1e5
 1990 0ac5 30030000 		.4byte	0x330
 1991 0ac9 1402     		.2byte	0x214
ARM GAS  /tmp/cctKLj6v.s 			page 36


 1992 0acb 1A       		.uleb128 0x1a
 1993 0acc EA060000 		.4byte	.LASF178
 1994 0ad0 0D       		.byte	0xd
 1995 0ad1 E601     		.2byte	0x1e6
 1996 0ad3 E70B0000 		.4byte	0xbe7
 1997 0ad7 1802     		.2byte	0x218
 1998 0ad9 1A       		.uleb128 0x1a
 1999 0ada 13030000 		.4byte	.LASF179
 2000 0ade 0D       		.byte	0xd
 2001 0adf E701     		.2byte	0x1e7
 2002 0ae1 30030000 		.4byte	0x330
 2003 0ae5 3002     		.2byte	0x230
 2004 0ae7 1A       		.uleb128 0x1a
 2005 0ae8 B2000000 		.4byte	.LASF180
 2006 0aec 0D       		.byte	0xd
 2007 0aed E801     		.2byte	0x1e8
 2008 0aef 30030000 		.4byte	0x330
 2009 0af3 3402     		.2byte	0x234
 2010 0af5 1A       		.uleb128 0x1a
 2011 0af6 F7010000 		.4byte	.LASF181
 2012 0afa 0D       		.byte	0xd
 2013 0afb E901     		.2byte	0x1e9
 2014 0afd 30030000 		.4byte	0x330
 2015 0b01 3802     		.2byte	0x238
 2016 0b03 1A       		.uleb128 0x1a
 2017 0b04 F5060000 		.4byte	.LASF182
 2018 0b08 0D       		.byte	0xd
 2019 0b09 EA01     		.2byte	0x1ea
 2020 0b0b 010C0000 		.4byte	0xc01
 2021 0b0f 3C02     		.2byte	0x23c
 2022 0b11 1A       		.uleb128 0x1a
 2023 0b12 E6040000 		.4byte	.LASF183
 2024 0b16 0D       		.byte	0xd
 2025 0b17 EB01     		.2byte	0x1eb
 2026 0b19 83060000 		.4byte	0x683
 2027 0b1d F403     		.2byte	0x3f4
 2028 0b1f 00       		.byte	0
 2029 0b20 0E       		.uleb128 0xe
 2030 0b21 250B0000 		.4byte	0xb25
 2031 0b25 0B       		.uleb128 0xb
 2032 0b26 88060000 		.4byte	0x688
 2033 0b2a 0E       		.uleb128 0xe
 2034 0b2b 2F0B0000 		.4byte	0xb2f
 2035 0b2f 0B       		.uleb128 0xb
 2036 0b30 88060000 		.4byte	0x688
 2037 0b34 0E       		.uleb128 0xe
 2038 0b35 390B0000 		.4byte	0xb39
 2039 0b39 0B       		.uleb128 0xb
 2040 0b3a 03080000 		.4byte	0x803
 2041 0b3e 0E       		.uleb128 0xe
 2042 0b3f 430B0000 		.4byte	0xb43
 2043 0b43 0B       		.uleb128 0xb
 2044 0b44 73060000 		.4byte	0x673
 2045 0b48 0E       		.uleb128 0xe
 2046 0b49 4D0B0000 		.4byte	0xb4d
 2047 0b4d 0B       		.uleb128 0xb
 2048 0b4e 63060000 		.4byte	0x663
ARM GAS  /tmp/cctKLj6v.s 			page 37


 2049 0b52 0E       		.uleb128 0xe
 2050 0b53 570B0000 		.4byte	0xb57
 2051 0b57 0B       		.uleb128 0xb
 2052 0b58 98060000 		.4byte	0x698
 2053 0b5c 0E       		.uleb128 0xe
 2054 0b5d 610B0000 		.4byte	0xb61
 2055 0b61 0B       		.uleb128 0xb
 2056 0b62 73060000 		.4byte	0x673
 2057 0b66 14       		.uleb128 0x14
 2058 0b67 AD000000 		.4byte	0xad
 2059 0b6b 760B0000 		.4byte	0xb76
 2060 0b6f 15       		.uleb128 0x15
 2061 0b70 35030000 		.4byte	0x335
 2062 0b74 04       		.byte	0x4
 2063 0b75 00       		.byte	0
 2064 0b76 0E       		.uleb128 0xe
 2065 0b77 7B0B0000 		.4byte	0xb7b
 2066 0b7b 0B       		.uleb128 0xb
 2067 0b7c 660B0000 		.4byte	0xb66
 2068 0b80 0E       		.uleb128 0xe
 2069 0b81 850B0000 		.4byte	0xb85
 2070 0b85 0B       		.uleb128 0xb
 2071 0b86 660B0000 		.4byte	0xb66
 2072 0b8a 14       		.uleb128 0x14
 2073 0b8b AD000000 		.4byte	0xad
 2074 0b8f 9A0B0000 		.4byte	0xb9a
 2075 0b93 15       		.uleb128 0x15
 2076 0b94 35030000 		.4byte	0x335
 2077 0b98 11       		.byte	0x11
 2078 0b99 00       		.byte	0
 2079 0b9a 0E       		.uleb128 0xe
 2080 0b9b 9F0B0000 		.4byte	0xb9f
 2081 0b9f 0B       		.uleb128 0xb
 2082 0ba0 8A0B0000 		.4byte	0xb8a
 2083 0ba4 14       		.uleb128 0x14
 2084 0ba5 AD000000 		.4byte	0xad
 2085 0ba9 B40B0000 		.4byte	0xbb4
 2086 0bad 15       		.uleb128 0x15
 2087 0bae 35030000 		.4byte	0x335
 2088 0bb2 05       		.byte	0x5
 2089 0bb3 00       		.byte	0
 2090 0bb4 0E       		.uleb128 0xe
 2091 0bb5 B90B0000 		.4byte	0xbb9
 2092 0bb9 0B       		.uleb128 0xb
 2093 0bba A40B0000 		.4byte	0xba4
 2094 0bbe 0B       		.uleb128 0xb
 2095 0bbf 73060000 		.4byte	0x673
 2096 0bc3 14       		.uleb128 0x14
 2097 0bc4 AD000000 		.4byte	0xad
 2098 0bc8 D30B0000 		.4byte	0xbd3
 2099 0bcc 15       		.uleb128 0x15
 2100 0bcd 35030000 		.4byte	0x335
 2101 0bd1 18       		.byte	0x18
 2102 0bd2 00       		.byte	0
 2103 0bd3 0E       		.uleb128 0xe
 2104 0bd4 D80B0000 		.4byte	0xbd8
 2105 0bd8 0B       		.uleb128 0xb
ARM GAS  /tmp/cctKLj6v.s 			page 38


 2106 0bd9 C30B0000 		.4byte	0xbc3
 2107 0bdd 0E       		.uleb128 0xe
 2108 0bde E20B0000 		.4byte	0xbe2
 2109 0be2 0B       		.uleb128 0xb
 2110 0be3 03080000 		.4byte	0x803
 2111 0be7 0E       		.uleb128 0xe
 2112 0be8 EC0B0000 		.4byte	0xbec
 2113 0bec 0B       		.uleb128 0xb
 2114 0bed A40B0000 		.4byte	0xba4
 2115 0bf1 14       		.uleb128 0x14
 2116 0bf2 AD000000 		.4byte	0xad
 2117 0bf6 010C0000 		.4byte	0xc01
 2118 0bfa 15       		.uleb128 0x15
 2119 0bfb 35030000 		.4byte	0x335
 2120 0bff 6D       		.byte	0x6d
 2121 0c00 00       		.byte	0
 2122 0c01 0E       		.uleb128 0xe
 2123 0c02 060C0000 		.4byte	0xc06
 2124 0c06 0B       		.uleb128 0xb
 2125 0c07 F10B0000 		.4byte	0xbf1
 2126 0c0b 1B       		.uleb128 0x1b
 2127 0c0c 4F040000 		.4byte	.LASF184
 2128 0c10 0D       		.byte	0xd
 2129 0c11 EC01     		.2byte	0x1ec
 2130 0c13 28080000 		.4byte	0x828
 2131 0c17 0F       		.uleb128 0xf
 2132 0c18 01010000 		.4byte	0x101
 2133 0c1c 300C0000 		.4byte	0xc30
 2134 0c20 10       		.uleb128 0x10
 2135 0c21 92020000 		.4byte	0x292
 2136 0c25 10       		.uleb128 0x10
 2137 0c26 97000000 		.4byte	0x97
 2138 0c2a 10       		.uleb128 0x10
 2139 0c2b 22010000 		.4byte	0x122
 2140 0c2f 00       		.byte	0
 2141 0c30 09       		.uleb128 0x9
 2142 0c31 04       		.byte	0x4
 2143 0c32 170C0000 		.4byte	0xc17
 2144 0c36 0F       		.uleb128 0xf
 2145 0c37 01010000 		.4byte	0x101
 2146 0c3b 4A0C0000 		.4byte	0xc4a
 2147 0c3f 10       		.uleb128 0x10
 2148 0c40 92020000 		.4byte	0x292
 2149 0c44 10       		.uleb128 0x10
 2150 0c45 22010000 		.4byte	0x122
 2151 0c49 00       		.byte	0
 2152 0c4a 09       		.uleb128 0x9
 2153 0c4b 04       		.byte	0x4
 2154 0c4c 360C0000 		.4byte	0xc36
 2155 0c50 0F       		.uleb128 0xf
 2156 0c51 2C000000 		.4byte	0x2c
 2157 0c55 6E0C0000 		.4byte	0xc6e
 2158 0c59 10       		.uleb128 0x10
 2159 0c5a 92020000 		.4byte	0x292
 2160 0c5e 10       		.uleb128 0x10
 2161 0c5f 26050000 		.4byte	0x526
 2162 0c63 10       		.uleb128 0x10
ARM GAS  /tmp/cctKLj6v.s 			page 39


 2163 0c64 2C000000 		.4byte	0x2c
 2164 0c68 10       		.uleb128 0x10
 2165 0c69 22010000 		.4byte	0x122
 2166 0c6d 00       		.byte	0
 2167 0c6e 09       		.uleb128 0x9
 2168 0c6f 04       		.byte	0x4
 2169 0c70 500C0000 		.4byte	0xc50
 2170 0c74 0F       		.uleb128 0xf
 2171 0c75 2C000000 		.4byte	0x2c
 2172 0c79 920C0000 		.4byte	0xc92
 2173 0c7d 10       		.uleb128 0x10
 2174 0c7e 92020000 		.4byte	0x292
 2175 0c82 10       		.uleb128 0x10
 2176 0c83 F1040000 		.4byte	0x4f1
 2177 0c87 10       		.uleb128 0x10
 2178 0c88 2C000000 		.4byte	0x2c
 2179 0c8c 10       		.uleb128 0x10
 2180 0c8d 22010000 		.4byte	0x122
 2181 0c91 00       		.byte	0
 2182 0c92 09       		.uleb128 0x9
 2183 0c93 04       		.byte	0x4
 2184 0c94 740C0000 		.4byte	0xc74
 2185 0c98 12       		.uleb128 0x12
 2186 0c99 01       		.byte	0x1
 2187 0c9a 0E       		.byte	0xe
 2188 0c9b 64       		.byte	0x64
 2189 0c9c B30C0000 		.4byte	0xcb3
 2190 0ca0 13       		.uleb128 0x13
 2191 0ca1 C4020000 		.4byte	.LASF185
 2192 0ca5 00       		.sleb128 0
 2193 0ca6 13       		.uleb128 0x13
 2194 0ca7 D3090000 		.4byte	.LASF186
 2195 0cab 01       		.sleb128 1
 2196 0cac 13       		.uleb128 0x13
 2197 0cad 80070000 		.4byte	.LASF187
 2198 0cb1 02       		.sleb128 2
 2199 0cb2 00       		.byte	0
 2200 0cb3 03       		.uleb128 0x3
 2201 0cb4 64070000 		.4byte	.LASF188
 2202 0cb8 0E       		.byte	0xe
 2203 0cb9 68       		.byte	0x68
 2204 0cba 980C0000 		.4byte	0xc98
 2205 0cbe 03       		.uleb128 0x3
 2206 0cbf CD010000 		.4byte	.LASF189
 2207 0cc3 0E       		.byte	0xe
 2208 0cc4 6D       		.byte	0x6d
 2209 0cc5 C90C0000 		.4byte	0xcc9
 2210 0cc9 05       		.uleb128 0x5
 2211 0cca CD010000 		.4byte	.LASF189
 2212 0cce 78       		.byte	0x78
 2213 0ccf 0E       		.byte	0xe
 2214 0cd0 87       		.byte	0x87
 2215 0cd1 340D0000 		.4byte	0xd34
 2216 0cd5 07       		.uleb128 0x7
 2217 0cd6 766D7400 		.ascii	"vmt\000"
 2218 0cda 0E       		.byte	0xe
 2219 0cdb 89       		.byte	0x89
ARM GAS  /tmp/cctKLj6v.s 			page 40


 2220 0cdc D90D0000 		.4byte	0xdd9
 2221 0ce0 00       		.byte	0
 2222 0ce1 06       		.uleb128 0x6
 2223 0ce2 0D050000 		.4byte	.LASF190
 2224 0ce6 0E       		.byte	0xe
 2225 0ce7 8A       		.byte	0x8a
 2226 0ce8 EA030000 		.4byte	0x3ea
 2227 0cec 04       		.byte	0x4
 2228 0ced 06       		.uleb128 0x6
 2229 0cee E7070000 		.4byte	.LASF191
 2230 0cf2 0E       		.byte	0xe
 2231 0cf3 8A       		.byte	0x8a
 2232 0cf4 B30C0000 		.4byte	0xcb3
 2233 0cf8 08       		.byte	0x8
 2234 0cf9 06       		.uleb128 0x6
 2235 0cfa B4040000 		.4byte	.LASF192
 2236 0cfe 0E       		.byte	0xe
 2237 0cff 8A       		.byte	0x8a
 2238 0d00 F7040000 		.4byte	0x4f7
 2239 0d04 0C       		.byte	0xc
 2240 0d05 06       		.uleb128 0x6
 2241 0d06 DA010000 		.4byte	.LASF193
 2242 0d0a 0E       		.byte	0xe
 2243 0d0b 8A       		.byte	0x8a
 2244 0d0c 02050000 		.4byte	0x502
 2245 0d10 30       		.byte	0x30
 2246 0d11 07       		.uleb128 0x7
 2247 0d12 696200   		.ascii	"ib\000"
 2248 0d15 0E       		.byte	0xe
 2249 0d16 8A       		.byte	0x8a
 2250 0d17 E40D0000 		.4byte	0xde4
 2251 0d1b 54       		.byte	0x54
 2252 0d1c 07       		.uleb128 0x7
 2253 0d1d 6F6200   		.ascii	"ob\000"
 2254 0d20 0E       		.byte	0xe
 2255 0d21 8A       		.byte	0x8a
 2256 0d22 E40D0000 		.4byte	0xde4
 2257 0d26 64       		.byte	0x64
 2258 0d27 06       		.uleb128 0x6
 2259 0d28 E2070000 		.4byte	.LASF194
 2260 0d2c 0E       		.byte	0xe
 2261 0d2d 8A       		.byte	0x8a
 2262 0d2e F40D0000 		.4byte	0xdf4
 2263 0d32 74       		.byte	0x74
 2264 0d33 00       		.byte	0
 2265 0d34 08       		.uleb128 0x8
 2266 0d35 0C       		.byte	0xc
 2267 0d36 0F       		.byte	0xf
 2268 0d37 92       		.byte	0x92
 2269 0d38 610D0000 		.4byte	0xd61
 2270 0d3c 06       		.uleb128 0x6
 2271 0d3d A4050000 		.4byte	.LASF195
 2272 0d41 0F       		.byte	0xf
 2273 0d42 96       		.byte	0x96
 2274 0d43 AD000000 		.4byte	0xad
 2275 0d47 00       		.byte	0
 2276 0d48 06       		.uleb128 0x6
ARM GAS  /tmp/cctKLj6v.s 			page 41


 2277 0d49 0C080000 		.4byte	.LASF196
 2278 0d4d 0F       		.byte	0xf
 2279 0d4e 9A       		.byte	0x9a
 2280 0d4f AD000000 		.4byte	0xad
 2281 0d53 04       		.byte	0x4
 2282 0d54 06       		.uleb128 0x6
 2283 0d55 F3050000 		.4byte	.LASF197
 2284 0d59 0F       		.byte	0xf
 2285 0d5a 9E       		.byte	0x9e
 2286 0d5b AD000000 		.4byte	0xad
 2287 0d5f 08       		.byte	0x8
 2288 0d60 00       		.byte	0
 2289 0d61 03       		.uleb128 0x3
 2290 0d62 47000000 		.4byte	.LASF198
 2291 0d66 0F       		.byte	0xf
 2292 0d67 9F       		.byte	0x9f
 2293 0d68 340D0000 		.4byte	0xd34
 2294 0d6c 05       		.uleb128 0x5
 2295 0d6d 10040000 		.4byte	.LASF199
 2296 0d71 20       		.byte	0x20
 2297 0d72 0E       		.byte	0xe
 2298 0d73 7C       		.byte	0x7c
 2299 0d74 D90D0000 		.4byte	0xdd9
 2300 0d78 06       		.uleb128 0x6
 2301 0d79 63000000 		.4byte	.LASF200
 2302 0d7d 0E       		.byte	0xe
 2303 0d7e 7D       		.byte	0x7d
 2304 0d7f 31050000 		.4byte	0x531
 2305 0d83 00       		.byte	0
 2306 0d84 06       		.uleb128 0x6
 2307 0d85 2B050000 		.4byte	.LASF201
 2308 0d89 0E       		.byte	0xe
 2309 0d8a 7D       		.byte	0x7d
 2310 0d8b 50050000 		.4byte	0x550
 2311 0d8f 04       		.byte	0x4
 2312 0d90 07       		.uleb128 0x7
 2313 0d91 70757400 		.ascii	"put\000"
 2314 0d95 0E       		.byte	0xe
 2315 0d96 7D       		.byte	0x7d
 2316 0d97 6A050000 		.4byte	0x56a
 2317 0d9b 08       		.byte	0x8
 2318 0d9c 07       		.uleb128 0x7
 2319 0d9d 67657400 		.ascii	"get\000"
 2320 0da1 0E       		.byte	0xe
 2321 0da2 7D       		.byte	0x7d
 2322 0da3 42040000 		.4byte	0x442
 2323 0da7 0C       		.byte	0xc
 2324 0da8 06       		.uleb128 0x6
 2325 0da9 AD000000 		.4byte	.LASF202
 2326 0dad 0E       		.byte	0xe
 2327 0dae 7D       		.byte	0x7d
 2328 0daf 300C0000 		.4byte	0xc30
 2329 0db3 10       		.byte	0x10
 2330 0db4 06       		.uleb128 0x6
 2331 0db5 1E030000 		.4byte	.LASF203
 2332 0db9 0E       		.byte	0xe
 2333 0dba 7D       		.byte	0x7d
ARM GAS  /tmp/cctKLj6v.s 			page 42


 2334 0dbb 4A0C0000 		.4byte	0xc4a
 2335 0dbf 14       		.byte	0x14
 2336 0dc0 06       		.uleb128 0x6
 2337 0dc1 54000000 		.4byte	.LASF204
 2338 0dc5 0E       		.byte	0xe
 2339 0dc6 7D       		.byte	0x7d
 2340 0dc7 6E0C0000 		.4byte	0xc6e
 2341 0dcb 18       		.byte	0x18
 2342 0dcc 06       		.uleb128 0x6
 2343 0dcd 17010000 		.4byte	.LASF205
 2344 0dd1 0E       		.byte	0xe
 2345 0dd2 7D       		.byte	0x7d
 2346 0dd3 920C0000 		.4byte	0xc92
 2347 0dd7 1C       		.byte	0x1c
 2348 0dd8 00       		.byte	0
 2349 0dd9 09       		.uleb128 0x9
 2350 0dda 04       		.byte	0x4
 2351 0ddb DF0D0000 		.4byte	0xddf
 2352 0ddf 0E       		.uleb128 0xe
 2353 0de0 6C0D0000 		.4byte	0xd6c
 2354 0de4 14       		.uleb128 0x14
 2355 0de5 97000000 		.4byte	0x97
 2356 0de9 F40D0000 		.4byte	0xdf4
 2357 0ded 15       		.uleb128 0x15
 2358 0dee 35030000 		.4byte	0x335
 2359 0df2 0F       		.byte	0xf
 2360 0df3 00       		.byte	0
 2361 0df4 09       		.uleb128 0x9
 2362 0df5 04       		.byte	0x4
 2363 0df6 1D080000 		.4byte	0x81d
 2364 0dfa 1C       		.uleb128 0x1c
 2365 0dfb ED090000 		.4byte	.LASF206
 2366 0dff 01       		.byte	0x1
 2367 0e00 B1       		.byte	0xb1
 2368 0e01 01       		.byte	0x1
 2369 0e02 310E0000 		.4byte	0xe31
 2370 0e06 1D       		.uleb128 0x1d
 2371 0e07 73647000 		.ascii	"sdp\000"
 2372 0e0b 01       		.byte	0x1
 2373 0e0c B1       		.byte	0xb1
 2374 0e0d 310E0000 		.4byte	0xe31
 2375 0e11 1E       		.uleb128 0x1e
 2376 0e12 7500     		.ascii	"u\000"
 2377 0e14 01       		.byte	0x1
 2378 0e15 B2       		.byte	0xb2
 2379 0e16 F40D0000 		.4byte	0xdf4
 2380 0e1a 1F       		.uleb128 0x1f
 2381 0e1b 1E       		.uleb128 0x1e
 2382 0e1c 6900     		.ascii	"i\000"
 2383 0e1e 01       		.byte	0x1
 2384 0e1f B5       		.byte	0xb5
 2385 0e20 25000000 		.4byte	0x25
 2386 0e24 1F       		.uleb128 0x1f
 2387 0e25 1E       		.uleb128 0x1e
 2388 0e26 6200     		.ascii	"b\000"
 2389 0e28 01       		.byte	0x1
 2390 0e29 B7       		.byte	0xb7
ARM GAS  /tmp/cctKLj6v.s 			page 43


 2391 0e2a 01010000 		.4byte	0x101
 2392 0e2e 00       		.byte	0
 2393 0e2f 00       		.byte	0
 2394 0e30 00       		.byte	0
 2395 0e31 09       		.uleb128 0x9
 2396 0e32 04       		.byte	0x4
 2397 0e33 BE0C0000 		.4byte	0xcbe
 2398 0e37 20       		.uleb128 0x20
 2399 0e38 89070000 		.4byte	.LASF227
 2400 0e3c 01       		.byte	0x1
 2401 0e3d C6       		.byte	0xc6
 2402 0e3e 00000000 		.4byte	.LFB44
 2403 0e42 40000000 		.4byte	.LFE44-.LFB44
 2404 0e46 01       		.uleb128 0x1
 2405 0e47 9C       		.byte	0x9c
 2406 0e48 DC0E0000 		.4byte	0xedc
 2407 0e4c 21       		.uleb128 0x21
 2408 0e4d 717000   		.ascii	"qp\000"
 2409 0e50 01       		.byte	0x1
 2410 0e51 C6       		.byte	0xc6
 2411 0e52 EB040000 		.4byte	0x4eb
 2412 0e56 00000000 		.4byte	.LLST0
 2413 0e5a 22       		.uleb128 0x22
 2414 0e5b FA0D0000 		.4byte	0xdfa
 2415 0e5f 02000000 		.4byte	.LBB6
 2416 0e63 36000000 		.4byte	.LBE6-.LBB6
 2417 0e67 01       		.byte	0x1
 2418 0e68 C9       		.byte	0xc9
 2419 0e69 23       		.uleb128 0x23
 2420 0e6a 060E0000 		.4byte	0xe06
 2421 0e6e 06       		.uleb128 0x6
 2422 0e6f 03       		.byte	0x3
 2423 0e70 00000000 		.4byte	SD1
 2424 0e74 9F       		.byte	0x9f
 2425 0e75 24       		.uleb128 0x24
 2426 0e76 02000000 		.4byte	.LBB7
 2427 0e7a 36000000 		.4byte	.LBE7-.LBB7
 2428 0e7e 25       		.uleb128 0x25
 2429 0e7f 110E0000 		.4byte	0xe11
 2430 0e83 21000000 		.4byte	.LLST1
 2431 0e87 24       		.uleb128 0x24
 2432 0e88 0E000000 		.4byte	.LBB8
 2433 0e8c 22000000 		.4byte	.LBE8-.LBB8
 2434 0e90 25       		.uleb128 0x25
 2435 0e91 1B0E0000 		.4byte	0xe1b
 2436 0e95 34000000 		.4byte	.LLST2
 2437 0e99 24       		.uleb128 0x24
 2438 0e9a 0E000000 		.4byte	.LBB9
 2439 0e9e 1E000000 		.4byte	.LBE9-.LBB9
 2440 0ea2 25       		.uleb128 0x25
 2441 0ea3 250E0000 		.4byte	0xe25
 2442 0ea7 5F000000 		.4byte	.LLST3
 2443 0eab 26       		.uleb128 0x26
 2444 0eac 18000000 		.4byte	.LVL4
 2445 0eb0 0E120000 		.4byte	0x120e
 2446 0eb4 BF0E0000 		.4byte	0xebf
 2447 0eb8 27       		.uleb128 0x27
ARM GAS  /tmp/cctKLj6v.s 			page 44


 2448 0eb9 01       		.uleb128 0x1
 2449 0eba 50       		.byte	0x50
 2450 0ebb 02       		.uleb128 0x2
 2451 0ebc 76       		.byte	0x76
 2452 0ebd 00       		.sleb128 0
 2453 0ebe 00       		.byte	0
 2454 0ebf 28       		.uleb128 0x28
 2455 0ec0 26000000 		.4byte	.LVL6
 2456 0ec4 2A120000 		.4byte	0x122a
 2457 0ec8 27       		.uleb128 0x27
 2458 0ec9 01       		.uleb128 0x1
 2459 0eca 51       		.byte	0x51
 2460 0ecb 01       		.uleb128 0x1
 2461 0ecc 38       		.byte	0x38
 2462 0ecd 27       		.uleb128 0x27
 2463 0ece 01       		.uleb128 0x1
 2464 0ecf 50       		.byte	0x50
 2465 0ed0 05       		.uleb128 0x5
 2466 0ed1 03       		.byte	0x3
 2467 0ed2 04000000 		.4byte	.LANCHOR0+4
 2468 0ed6 00       		.byte	0
 2469 0ed7 00       		.byte	0
 2470 0ed8 00       		.byte	0
 2471 0ed9 00       		.byte	0
 2472 0eda 00       		.byte	0
 2473 0edb 00       		.byte	0
 2474 0edc 1C       		.uleb128 0x1c
 2475 0edd C7000000 		.4byte	.LASF207
 2476 0ee1 01       		.byte	0x1
 2477 0ee2 7C       		.byte	0x7c
 2478 0ee3 01       		.byte	0x1
 2479 0ee4 130F0000 		.4byte	0xf13
 2480 0ee8 1D       		.uleb128 0x1d
 2481 0ee9 73647000 		.ascii	"sdp\000"
 2482 0eed 01       		.byte	0x1
 2483 0eee 7C       		.byte	0x7c
 2484 0eef 310E0000 		.4byte	0xe31
 2485 0ef3 1E       		.uleb128 0x1e
 2486 0ef4 7500     		.ascii	"u\000"
 2487 0ef6 01       		.byte	0x1
 2488 0ef7 7D       		.byte	0x7d
 2489 0ef8 F40D0000 		.4byte	0xdf4
 2490 0efc 1F       		.uleb128 0x1f
 2491 0efd 1E       		.uleb128 0x1e
 2492 0efe 6900     		.ascii	"i\000"
 2493 0f00 01       		.byte	0x1
 2494 0f01 95       		.byte	0x95
 2495 0f02 25000000 		.4byte	0x25
 2496 0f06 1F       		.uleb128 0x1f
 2497 0f07 1E       		.uleb128 0x1e
 2498 0f08 6200     		.ascii	"b\000"
 2499 0f0a 01       		.byte	0x1
 2500 0f0b 97       		.byte	0x97
 2501 0f0c 01010000 		.4byte	0x101
 2502 0f10 00       		.byte	0
 2503 0f11 00       		.byte	0
 2504 0f12 00       		.byte	0
ARM GAS  /tmp/cctKLj6v.s 			page 45


 2505 0f13 1C       		.uleb128 0x1c
 2506 0f14 D7000000 		.4byte	.LASF208
 2507 0f18 01       		.byte	0x1
 2508 0f19 63       		.byte	0x63
 2509 0f1a 01       		.byte	0x1
 2510 0f1b 410F0000 		.4byte	0xf41
 2511 0f1f 1D       		.uleb128 0x1d
 2512 0f20 73647000 		.ascii	"sdp\000"
 2513 0f24 01       		.byte	0x1
 2514 0f25 63       		.byte	0x63
 2515 0f26 310E0000 		.4byte	0xe31
 2516 0f2a 1D       		.uleb128 0x1d
 2517 0f2b 65727200 		.ascii	"err\000"
 2518 0f2f 01       		.byte	0x1
 2519 0f30 63       		.byte	0x63
 2520 0f31 25030000 		.4byte	0x325
 2521 0f35 1E       		.uleb128 0x1e
 2522 0f36 73747300 		.ascii	"sts\000"
 2523 0f3a 01       		.byte	0x1
 2524 0f3b 64       		.byte	0x64
 2525 0f3c 17010000 		.4byte	0x117
 2526 0f40 00       		.byte	0
 2527 0f41 29       		.uleb128 0x29
 2528 0f42 FA040000 		.4byte	.LASF209
 2529 0f46 01       		.byte	0x1
 2530 0f47 D7       		.byte	0xd7
 2531 0f48 00000000 		.4byte	.LFB45
 2532 0f4c FC000000 		.4byte	.LFE45-.LFB45
 2533 0f50 01       		.uleb128 0x1
 2534 0f51 9C       		.byte	0x9c
 2535 0f52 80100000 		.4byte	0x1080
 2536 0f56 2A       		.uleb128 0x2a
 2537 0f57 A3000000 		.4byte	.LASF216
 2538 0f5b 01       		.byte	0x1
 2539 0f5c D9       		.byte	0xd9
 2540 0f5d 87020000 		.4byte	0x287
 2541 0f61 7D000000 		.4byte	.LLST4
 2542 0f65 2B       		.uleb128 0x2b
 2543 0f66 DC0E0000 		.4byte	0xedc
 2544 0f6a 0E000000 		.4byte	.LBB16
 2545 0f6e D2000000 		.4byte	.LBE16-.LBB16
 2546 0f72 01       		.byte	0x1
 2547 0f73 DB       		.byte	0xdb
 2548 0f74 6F100000 		.4byte	0x106f
 2549 0f78 23       		.uleb128 0x23
 2550 0f79 E80E0000 		.4byte	0xee8
 2551 0f7d 06       		.uleb128 0x6
 2552 0f7e 03       		.byte	0x3
 2553 0f7f 00000000 		.4byte	SD1
 2554 0f83 9F       		.byte	0x9f
 2555 0f84 24       		.uleb128 0x24
 2556 0f85 0E000000 		.4byte	.LBB17
 2557 0f89 D2000000 		.4byte	.LBE17-.LBB17
 2558 0f8d 25       		.uleb128 0x25
 2559 0f8e F30E0000 		.4byte	0xef3
 2560 0f92 90000000 		.4byte	.LLST5
 2561 0f96 2C       		.uleb128 0x2c
ARM GAS  /tmp/cctKLj6v.s 			page 46


 2562 0f97 00000000 		.4byte	.Ldebug_ranges0+0
 2563 0f9b E10F0000 		.4byte	0xfe1
 2564 0f9f 25       		.uleb128 0x25
 2565 0fa0 FD0E0000 		.4byte	0xefd
 2566 0fa4 A3000000 		.4byte	.LLST6
 2567 0fa8 2D       		.uleb128 0x2d
 2568 0fa9 18000000 		.4byte	.Ldebug_ranges0+0x18
 2569 0fad 25       		.uleb128 0x25
 2570 0fae 070F0000 		.4byte	0xf07
 2571 0fb2 CE000000 		.4byte	.LLST7
 2572 0fb6 26       		.uleb128 0x26
 2573 0fb7 B4000000 		.4byte	.LVL26
 2574 0fbb 0E120000 		.4byte	0x120e
 2575 0fbf CA0F0000 		.4byte	0xfca
 2576 0fc3 27       		.uleb128 0x27
 2577 0fc4 01       		.uleb128 0x1
 2578 0fc5 50       		.byte	0x50
 2579 0fc6 02       		.uleb128 0x2
 2580 0fc7 77       		.byte	0x77
 2581 0fc8 00       		.sleb128 0
 2582 0fc9 00       		.byte	0
 2583 0fca 28       		.uleb128 0x28
 2584 0fcb CC000000 		.4byte	.LVL28
 2585 0fcf 2A120000 		.4byte	0x122a
 2586 0fd3 27       		.uleb128 0x27
 2587 0fd4 01       		.uleb128 0x1
 2588 0fd5 51       		.byte	0x51
 2589 0fd6 01       		.uleb128 0x1
 2590 0fd7 38       		.byte	0x38
 2591 0fd8 27       		.uleb128 0x27
 2592 0fd9 01       		.uleb128 0x1
 2593 0fda 50       		.byte	0x50
 2594 0fdb 02       		.uleb128 0x2
 2595 0fdc 7A       		.byte	0x7a
 2596 0fdd 00       		.sleb128 0
 2597 0fde 00       		.byte	0
 2598 0fdf 00       		.byte	0
 2599 0fe0 00       		.byte	0
 2600 0fe1 2B       		.uleb128 0x2b
 2601 0fe2 130F0000 		.4byte	0xf13
 2602 0fe6 32000000 		.4byte	.LBB21
 2603 0fea 2E000000 		.4byte	.LBE21-.LBB21
 2604 0fee 01       		.byte	0x1
 2605 0fef 84       		.byte	0x84
 2606 0ff0 2A100000 		.4byte	0x102a
 2607 0ff4 2E       		.uleb128 0x2e
 2608 0ff5 2A0F0000 		.4byte	0xf2a
 2609 0ff9 EC000000 		.4byte	.LLST8
 2610 0ffd 2E       		.uleb128 0x2e
 2611 0ffe 1F0F0000 		.4byte	0xf1f
 2612 1002 FF000000 		.4byte	.LLST9
 2613 1006 24       		.uleb128 0x24
 2614 1007 32000000 		.4byte	.LBB22
 2615 100b 2E000000 		.4byte	.LBE22-.LBB22
 2616 100f 25       		.uleb128 0x25
 2617 1010 350F0000 		.4byte	0xf35
 2618 1014 17010000 		.4byte	.LLST10
ARM GAS  /tmp/cctKLj6v.s 			page 47


 2619 1018 28       		.uleb128 0x28
 2620 1019 5C000000 		.4byte	.LVL20
 2621 101d 2A120000 		.4byte	0x122a
 2622 1021 27       		.uleb128 0x27
 2623 1022 01       		.uleb128 0x1
 2624 1023 50       		.byte	0x50
 2625 1024 02       		.uleb128 0x2
 2626 1025 79       		.byte	0x79
 2627 1026 04       		.sleb128 4
 2628 1027 00       		.byte	0
 2629 1028 00       		.byte	0
 2630 1029 00       		.byte	0
 2631 102a 26       		.uleb128 0x26
 2632 102b 74000000 		.4byte	.LVL22
 2633 102f 2A120000 		.4byte	0x122a
 2634 1033 43100000 		.4byte	0x1043
 2635 1037 27       		.uleb128 0x27
 2636 1038 01       		.uleb128 0x1
 2637 1039 51       		.byte	0x51
 2638 103a 01       		.uleb128 0x1
 2639 103b 34       		.byte	0x34
 2640 103c 27       		.uleb128 0x27
 2641 103d 01       		.uleb128 0x1
 2642 103e 50       		.byte	0x50
 2643 103f 02       		.uleb128 0x2
 2644 1040 79       		.byte	0x79
 2645 1041 04       		.sleb128 4
 2646 1042 00       		.byte	0
 2647 1043 26       		.uleb128 0x26
 2648 1044 94000000 		.4byte	.LVL23
 2649 1048 46120000 		.4byte	0x1246
 2650 104c 57100000 		.4byte	0x1057
 2651 1050 27       		.uleb128 0x27
 2652 1051 01       		.uleb128 0x1
 2653 1052 50       		.byte	0x50
 2654 1053 02       		.uleb128 0x2
 2655 1054 75       		.byte	0x75
 2656 1055 00       		.sleb128 0
 2657 1056 00       		.byte	0
 2658 1057 28       		.uleb128 0x28
 2659 1058 A0000000 		.4byte	.LVL24
 2660 105c 2A120000 		.4byte	0x122a
 2661 1060 27       		.uleb128 0x27
 2662 1061 01       		.uleb128 0x1
 2663 1062 51       		.byte	0x51
 2664 1063 02       		.uleb128 0x2
 2665 1064 08       		.byte	0x8
 2666 1065 80       		.byte	0x80
 2667 1066 27       		.uleb128 0x27
 2668 1067 01       		.uleb128 0x1
 2669 1068 50       		.byte	0x50
 2670 1069 02       		.uleb128 0x2
 2671 106a 7B       		.byte	0x7b
 2672 106b 00       		.sleb128 0
 2673 106c 00       		.byte	0
 2674 106d 00       		.byte	0
 2675 106e 00       		.byte	0
ARM GAS  /tmp/cctKLj6v.s 			page 48


 2676 106f 28       		.uleb128 0x28
 2677 1070 E6000000 		.4byte	.LVL33
 2678 1074 67120000 		.4byte	0x1267
 2679 1078 27       		.uleb128 0x27
 2680 1079 01       		.uleb128 0x1
 2681 107a 50       		.byte	0x50
 2682 107b 02       		.uleb128 0x2
 2683 107c 78       		.byte	0x78
 2684 107d 00       		.sleb128 0
 2685 107e 00       		.byte	0
 2686 107f 00       		.byte	0
 2687 1080 29       		.uleb128 0x29
 2688 1081 43040000 		.4byte	.LASF210
 2689 1085 01       		.byte	0x1
 2690 1086 EA       		.byte	0xea
 2691 1087 00000000 		.4byte	.LFB46
 2692 108b 20000000 		.4byte	.LFE46-.LFB46
 2693 108f 01       		.uleb128 0x1
 2694 1090 9C       		.byte	0x9c
 2695 1091 B4100000 		.4byte	0x10b4
 2696 1095 28       		.uleb128 0x28
 2697 1096 0E000000 		.4byte	.LVL36
 2698 109a 79120000 		.4byte	0x1279
 2699 109e 27       		.uleb128 0x27
 2700 109f 01       		.uleb128 0x1
 2701 10a0 52       		.byte	0x52
 2702 10a1 05       		.uleb128 0x5
 2703 10a2 03       		.byte	0x3
 2704 10a3 00000000 		.4byte	notify1
 2705 10a7 27       		.uleb128 0x27
 2706 10a8 01       		.uleb128 0x1
 2707 10a9 51       		.byte	0x51
 2708 10aa 01       		.uleb128 0x1
 2709 10ab 30       		.byte	0x30
 2710 10ac 27       		.uleb128 0x27
 2711 10ad 01       		.uleb128 0x1
 2712 10ae 50       		.byte	0x50
 2713 10af 02       		.uleb128 0x2
 2714 10b0 74       		.byte	0x74
 2715 10b1 00       		.sleb128 0
 2716 10b2 00       		.byte	0
 2717 10b3 00       		.byte	0
 2718 10b4 1C       		.uleb128 0x1c
 2719 10b5 B0010000 		.4byte	.LASF211
 2720 10b9 01       		.byte	0x1
 2721 10ba 3C       		.byte	0x3c
 2722 10bb 01       		.byte	0x1
 2723 10bc EB100000 		.4byte	0x10eb
 2724 10c0 1D       		.uleb128 0x1d
 2725 10c1 73647000 		.ascii	"sdp\000"
 2726 10c5 01       		.byte	0x1
 2727 10c6 3C       		.byte	0x3c
 2728 10c7 310E0000 		.4byte	0xe31
 2729 10cb 2F       		.uleb128 0x2f
 2730 10cc 92000000 		.4byte	.LASF212
 2731 10d0 01       		.byte	0x1
 2732 10d1 3C       		.byte	0x3c
ARM GAS  /tmp/cctKLj6v.s 			page 49


 2733 10d2 EB100000 		.4byte	0x10eb
 2734 10d6 1E       		.uleb128 0x1e
 2735 10d7 7500     		.ascii	"u\000"
 2736 10d9 01       		.byte	0x1
 2737 10da 3D       		.byte	0x3d
 2738 10db F40D0000 		.4byte	0xdf4
 2739 10df 1E       		.uleb128 0x1e
 2740 10e0 64697600 		.ascii	"div\000"
 2741 10e4 01       		.byte	0x1
 2742 10e5 3F       		.byte	0x3f
 2743 10e6 AD000000 		.4byte	0xad
 2744 10ea 00       		.byte	0
 2745 10eb 09       		.uleb128 0x9
 2746 10ec 04       		.byte	0x4
 2747 10ed F1100000 		.4byte	0x10f1
 2748 10f1 0E       		.uleb128 0xe
 2749 10f2 610D0000 		.4byte	0xd61
 2750 10f6 30       		.uleb128 0x30
 2751 10f7 1D010000 		.4byte	.LASF213
 2752 10fb 01       		.byte	0x1
 2753 10fc FC       		.byte	0xfc
 2754 10fd 00000000 		.4byte	.LFB47
 2755 1101 78000000 		.4byte	.LFE47-.LFB47
 2756 1105 01       		.uleb128 0x1
 2757 1106 9C       		.byte	0x9c
 2758 1107 82110000 		.4byte	0x1182
 2759 110b 21       		.uleb128 0x21
 2760 110c 73647000 		.ascii	"sdp\000"
 2761 1110 01       		.byte	0x1
 2762 1111 FC       		.byte	0xfc
 2763 1112 310E0000 		.4byte	0xe31
 2764 1116 36010000 		.4byte	.LLST11
 2765 111a 31       		.uleb128 0x31
 2766 111b 92000000 		.4byte	.LASF212
 2767 111f 01       		.byte	0x1
 2768 1120 FC       		.byte	0xfc
 2769 1121 EB100000 		.4byte	0x10eb
 2770 1125 62010000 		.4byte	.LLST12
 2771 1129 32       		.uleb128 0x32
 2772 112a B4100000 		.4byte	0x10b4
 2773 112e 32000000 		.4byte	.LBB26
 2774 1132 34000000 		.4byte	.LBE26-.LBB26
 2775 1136 01       		.byte	0x1
 2776 1137 0B01     		.2byte	0x10b
 2777 1139 6C110000 		.4byte	0x116c
 2778 113d 2E       		.uleb128 0x2e
 2779 113e CB100000 		.4byte	0x10cb
 2780 1142 80010000 		.4byte	.LLST13
 2781 1146 2E       		.uleb128 0x2e
 2782 1147 C0100000 		.4byte	0x10c0
 2783 114b 93010000 		.4byte	.LLST14
 2784 114f 24       		.uleb128 0x24
 2785 1150 32000000 		.4byte	.LBB27
 2786 1154 34000000 		.4byte	.LBE27-.LBB27
 2787 1158 25       		.uleb128 0x25
 2788 1159 D6100000 		.4byte	0x10d6
 2789 115d B4010000 		.4byte	.LLST15
ARM GAS  /tmp/cctKLj6v.s 			page 50


 2790 1161 25       		.uleb128 0x25
 2791 1162 DF100000 		.4byte	0x10df
 2792 1166 C7010000 		.4byte	.LLST16
 2793 116a 00       		.byte	0
 2794 116b 00       		.byte	0
 2795 116c 28       		.uleb128 0x28
 2796 116d 32000000 		.4byte	.LVL40
 2797 1171 95120000 		.4byte	0x1295
 2798 1175 27       		.uleb128 0x27
 2799 1176 01       		.uleb128 0x1
 2800 1177 51       		.byte	0x51
 2801 1178 02       		.uleb128 0x2
 2802 1179 08       		.byte	0x8
 2803 117a C0       		.byte	0xc0
 2804 117b 27       		.uleb128 0x27
 2805 117c 01       		.uleb128 0x1
 2806 117d 50       		.byte	0x50
 2807 117e 01       		.uleb128 0x1
 2808 117f 45       		.byte	0x45
 2809 1180 00       		.byte	0
 2810 1181 00       		.byte	0
 2811 1182 1C       		.uleb128 0x1c
 2812 1183 10000000 		.4byte	.LASF214
 2813 1187 01       		.byte	0x1
 2814 1188 50       		.byte	0x50
 2815 1189 01       		.byte	0x1
 2816 118a 98110000 		.4byte	0x1198
 2817 118e 1D       		.uleb128 0x1d
 2818 118f 7500     		.ascii	"u\000"
 2819 1191 01       		.byte	0x1
 2820 1192 50       		.byte	0x50
 2821 1193 F40D0000 		.4byte	0xdf4
 2822 1197 00       		.byte	0
 2823 1198 33       		.uleb128 0x33
 2824 1199 C7080000 		.4byte	.LASF215
 2825 119d 01       		.byte	0x1
 2826 119e 1701     		.2byte	0x117
 2827 11a0 00000000 		.4byte	.LFB48
 2828 11a4 54000000 		.4byte	.LFE48-.LFB48
 2829 11a8 01       		.uleb128 0x1
 2830 11a9 9C       		.byte	0x9c
 2831 11aa EC110000 		.4byte	0x11ec
 2832 11ae 34       		.uleb128 0x34
 2833 11af 73647000 		.ascii	"sdp\000"
 2834 11b3 01       		.byte	0x1
 2835 11b4 1701     		.2byte	0x117
 2836 11b6 310E0000 		.4byte	0xe31
 2837 11ba E6010000 		.4byte	.LLST17
 2838 11be 32       		.uleb128 0x32
 2839 11bf 82110000 		.4byte	0x1182
 2840 11c3 0A000000 		.4byte	.LBB30
 2841 11c7 1C000000 		.4byte	.LBE30-.LBB30
 2842 11cb 01       		.byte	0x1
 2843 11cc 1A01     		.2byte	0x11a
 2844 11ce DC110000 		.4byte	0x11dc
 2845 11d2 2E       		.uleb128 0x2e
 2846 11d3 8E110000 		.4byte	0x118e
ARM GAS  /tmp/cctKLj6v.s 			page 51


 2847 11d7 07020000 		.4byte	.LLST18
 2848 11db 00       		.byte	0
 2849 11dc 28       		.uleb128 0x28
 2850 11dd 44000000 		.4byte	.LVL51
 2851 11e1 AC120000 		.4byte	0x12ac
 2852 11e5 27       		.uleb128 0x27
 2853 11e6 01       		.uleb128 0x1
 2854 11e7 50       		.byte	0x50
 2855 11e8 01       		.uleb128 0x1
 2856 11e9 45       		.byte	0x45
 2857 11ea 00       		.byte	0
 2858 11eb 00       		.byte	0
 2859 11ec 35       		.uleb128 0x35
 2860 11ed A1010000 		.4byte	.LASF217
 2861 11f1 01       		.byte	0x1
 2862 11f2 2C       		.byte	0x2c
 2863 11f3 F1100000 		.4byte	0x10f1
 2864 11f7 05       		.uleb128 0x5
 2865 11f8 03       		.byte	0x3
 2866 11f9 00000000 		.4byte	default_config
 2867 11fd 36       		.uleb128 0x36
 2868 11fe 53443100 		.ascii	"SD1\000"
 2869 1202 01       		.byte	0x1
 2870 1203 24       		.byte	0x24
 2871 1204 BE0C0000 		.4byte	0xcbe
 2872 1208 05       		.uleb128 0x5
 2873 1209 03       		.byte	0x3
 2874 120a 00000000 		.4byte	SD1
 2875 120e 37       		.uleb128 0x37
 2876 120f 77050000 		.4byte	.LASF218
 2877 1213 0C       		.byte	0xc
 2878 1214 6E01     		.2byte	0x16e
 2879 1216 01010000 		.4byte	0x101
 2880 121a 24120000 		.4byte	0x1224
 2881 121e 10       		.uleb128 0x10
 2882 121f 24120000 		.4byte	0x1224
 2883 1223 00       		.byte	0
 2884 1224 09       		.uleb128 0x9
 2885 1225 04       		.byte	0x4
 2886 1226 02050000 		.4byte	0x502
 2887 122a 38       		.uleb128 0x38
 2888 122b 05060000 		.4byte	.LASF220
 2889 122f 0B       		.byte	0xb
 2890 1230 BA       		.byte	0xba
 2891 1231 40120000 		.4byte	0x1240
 2892 1235 10       		.uleb128 0x10
 2893 1236 40120000 		.4byte	0x1240
 2894 123a 10       		.uleb128 0x10
 2895 123b 17010000 		.4byte	0x117
 2896 123f 00       		.byte	0
 2897 1240 09       		.uleb128 0x9
 2898 1241 04       		.byte	0x4
 2899 1242 EA030000 		.4byte	0x3ea
 2900 1246 37       		.uleb128 0x37
 2901 1247 3E030000 		.4byte	.LASF219
 2902 124b 0C       		.byte	0xc
 2903 124c 6501     		.2byte	0x165
ARM GAS  /tmp/cctKLj6v.s 			page 52


 2904 124e 01010000 		.4byte	0x101
 2905 1252 61120000 		.4byte	0x1261
 2906 1256 10       		.uleb128 0x10
 2907 1257 61120000 		.4byte	0x1261
 2908 125b 10       		.uleb128 0x10
 2909 125c 97000000 		.4byte	0x97
 2910 1260 00       		.byte	0
 2911 1261 09       		.uleb128 0x9
 2912 1262 04       		.byte	0x4
 2913 1263 F7040000 		.4byte	0x4f7
 2914 1267 39       		.uleb128 0x39
 2915 1268 AD050000 		.4byte	.LASF221
 2916 126c 08       		.byte	0x8
 2917 126d 7201     		.2byte	0x172
 2918 126f 79120000 		.4byte	0x1279
 2919 1273 10       		.uleb128 0x10
 2920 1274 87020000 		.4byte	0x287
 2921 1278 00       		.byte	0
 2922 1279 39       		.uleb128 0x39
 2923 127a 44010000 		.4byte	.LASF222
 2924 127e 0E       		.byte	0xe
 2925 127f 3601     		.2byte	0x136
 2926 1281 95120000 		.4byte	0x1295
 2927 1285 10       		.uleb128 0x10
 2928 1286 310E0000 		.4byte	0xe31
 2929 128a 10       		.uleb128 0x10
 2930 128b CF040000 		.4byte	0x4cf
 2931 128f 10       		.uleb128 0x10
 2932 1290 CF040000 		.4byte	0x4cf
 2933 1294 00       		.byte	0
 2934 1295 39       		.uleb128 0x39
 2935 1296 5D080000 		.4byte	.LASF223
 2936 129a 09       		.byte	0x9
 2937 129b 2301     		.2byte	0x123
 2938 129d AC120000 		.4byte	0x12ac
 2939 12a1 10       		.uleb128 0x10
 2940 12a2 AD000000 		.4byte	0xad
 2941 12a6 10       		.uleb128 0x10
 2942 12a7 AD000000 		.4byte	0xad
 2943 12ab 00       		.byte	0
 2944 12ac 3A       		.uleb128 0x3a
 2945 12ad 7B010000 		.4byte	.LASF228
 2946 12b1 09       		.byte	0x9
 2947 12b2 2401     		.2byte	0x124
 2948 12b4 10       		.uleb128 0x10
 2949 12b5 AD000000 		.4byte	0xad
 2950 12b9 00       		.byte	0
 2951 12ba 00       		.byte	0
 2952              		.section	.debug_abbrev,"",%progbits
 2953              	.Ldebug_abbrev0:
 2954 0000 01       		.uleb128 0x1
 2955 0001 11       		.uleb128 0x11
 2956 0002 01       		.byte	0x1
 2957 0003 25       		.uleb128 0x25
 2958 0004 0E       		.uleb128 0xe
 2959 0005 13       		.uleb128 0x13
 2960 0006 0B       		.uleb128 0xb
ARM GAS  /tmp/cctKLj6v.s 			page 53


 2961 0007 03       		.uleb128 0x3
 2962 0008 0E       		.uleb128 0xe
 2963 0009 1B       		.uleb128 0x1b
 2964 000a 0E       		.uleb128 0xe
 2965 000b 55       		.uleb128 0x55
 2966 000c 17       		.uleb128 0x17
 2967 000d 11       		.uleb128 0x11
 2968 000e 01       		.uleb128 0x1
 2969 000f 10       		.uleb128 0x10
 2970 0010 17       		.uleb128 0x17
 2971 0011 00       		.byte	0
 2972 0012 00       		.byte	0
 2973 0013 02       		.uleb128 0x2
 2974 0014 24       		.uleb128 0x24
 2975 0015 00       		.byte	0
 2976 0016 0B       		.uleb128 0xb
 2977 0017 0B       		.uleb128 0xb
 2978 0018 3E       		.uleb128 0x3e
 2979 0019 0B       		.uleb128 0xb
 2980 001a 03       		.uleb128 0x3
 2981 001b 08       		.uleb128 0x8
 2982 001c 00       		.byte	0
 2983 001d 00       		.byte	0
 2984 001e 03       		.uleb128 0x3
 2985 001f 16       		.uleb128 0x16
 2986 0020 00       		.byte	0
 2987 0021 03       		.uleb128 0x3
 2988 0022 0E       		.uleb128 0xe
 2989 0023 3A       		.uleb128 0x3a
 2990 0024 0B       		.uleb128 0xb
 2991 0025 3B       		.uleb128 0x3b
 2992 0026 0B       		.uleb128 0xb
 2993 0027 49       		.uleb128 0x49
 2994 0028 13       		.uleb128 0x13
 2995 0029 00       		.byte	0
 2996 002a 00       		.byte	0
 2997 002b 04       		.uleb128 0x4
 2998 002c 24       		.uleb128 0x24
 2999 002d 00       		.byte	0
 3000 002e 0B       		.uleb128 0xb
 3001 002f 0B       		.uleb128 0xb
 3002 0030 3E       		.uleb128 0x3e
 3003 0031 0B       		.uleb128 0xb
 3004 0032 03       		.uleb128 0x3
 3005 0033 0E       		.uleb128 0xe
 3006 0034 00       		.byte	0
 3007 0035 00       		.byte	0
 3008 0036 05       		.uleb128 0x5
 3009 0037 13       		.uleb128 0x13
 3010 0038 01       		.byte	0x1
 3011 0039 03       		.uleb128 0x3
 3012 003a 0E       		.uleb128 0xe
 3013 003b 0B       		.uleb128 0xb
 3014 003c 0B       		.uleb128 0xb
 3015 003d 3A       		.uleb128 0x3a
 3016 003e 0B       		.uleb128 0xb
 3017 003f 3B       		.uleb128 0x3b
ARM GAS  /tmp/cctKLj6v.s 			page 54


 3018 0040 0B       		.uleb128 0xb
 3019 0041 01       		.uleb128 0x1
 3020 0042 13       		.uleb128 0x13
 3021 0043 00       		.byte	0
 3022 0044 00       		.byte	0
 3023 0045 06       		.uleb128 0x6
 3024 0046 0D       		.uleb128 0xd
 3025 0047 00       		.byte	0
 3026 0048 03       		.uleb128 0x3
 3027 0049 0E       		.uleb128 0xe
 3028 004a 3A       		.uleb128 0x3a
 3029 004b 0B       		.uleb128 0xb
 3030 004c 3B       		.uleb128 0x3b
 3031 004d 0B       		.uleb128 0xb
 3032 004e 49       		.uleb128 0x49
 3033 004f 13       		.uleb128 0x13
 3034 0050 38       		.uleb128 0x38
 3035 0051 0B       		.uleb128 0xb
 3036 0052 00       		.byte	0
 3037 0053 00       		.byte	0
 3038 0054 07       		.uleb128 0x7
 3039 0055 0D       		.uleb128 0xd
 3040 0056 00       		.byte	0
 3041 0057 03       		.uleb128 0x3
 3042 0058 08       		.uleb128 0x8
 3043 0059 3A       		.uleb128 0x3a
 3044 005a 0B       		.uleb128 0xb
 3045 005b 3B       		.uleb128 0x3b
 3046 005c 0B       		.uleb128 0xb
 3047 005d 49       		.uleb128 0x49
 3048 005e 13       		.uleb128 0x13
 3049 005f 38       		.uleb128 0x38
 3050 0060 0B       		.uleb128 0xb
 3051 0061 00       		.byte	0
 3052 0062 00       		.byte	0
 3053 0063 08       		.uleb128 0x8
 3054 0064 13       		.uleb128 0x13
 3055 0065 01       		.byte	0x1
 3056 0066 0B       		.uleb128 0xb
 3057 0067 0B       		.uleb128 0xb
 3058 0068 3A       		.uleb128 0x3a
 3059 0069 0B       		.uleb128 0xb
 3060 006a 3B       		.uleb128 0x3b
 3061 006b 0B       		.uleb128 0xb
 3062 006c 01       		.uleb128 0x1
 3063 006d 13       		.uleb128 0x13
 3064 006e 00       		.byte	0
 3065 006f 00       		.byte	0
 3066 0070 09       		.uleb128 0x9
 3067 0071 0F       		.uleb128 0xf
 3068 0072 00       		.byte	0
 3069 0073 0B       		.uleb128 0xb
 3070 0074 0B       		.uleb128 0xb
 3071 0075 49       		.uleb128 0x49
 3072 0076 13       		.uleb128 0x13
 3073 0077 00       		.byte	0
 3074 0078 00       		.byte	0
ARM GAS  /tmp/cctKLj6v.s 			page 55


 3075 0079 0A       		.uleb128 0xa
 3076 007a 0F       		.uleb128 0xf
 3077 007b 00       		.byte	0
 3078 007c 0B       		.uleb128 0xb
 3079 007d 0B       		.uleb128 0xb
 3080 007e 00       		.byte	0
 3081 007f 00       		.byte	0
 3082 0080 0B       		.uleb128 0xb
 3083 0081 35       		.uleb128 0x35
 3084 0082 00       		.byte	0
 3085 0083 49       		.uleb128 0x49
 3086 0084 13       		.uleb128 0x13
 3087 0085 00       		.byte	0
 3088 0086 00       		.byte	0
 3089 0087 0C       		.uleb128 0xc
 3090 0088 17       		.uleb128 0x17
 3091 0089 01       		.byte	0x1
 3092 008a 0B       		.uleb128 0xb
 3093 008b 0B       		.uleb128 0xb
 3094 008c 3A       		.uleb128 0x3a
 3095 008d 0B       		.uleb128 0xb
 3096 008e 3B       		.uleb128 0x3b
 3097 008f 0B       		.uleb128 0xb
 3098 0090 01       		.uleb128 0x1
 3099 0091 13       		.uleb128 0x13
 3100 0092 00       		.byte	0
 3101 0093 00       		.byte	0
 3102 0094 0D       		.uleb128 0xd
 3103 0095 0D       		.uleb128 0xd
 3104 0096 00       		.byte	0
 3105 0097 03       		.uleb128 0x3
 3106 0098 0E       		.uleb128 0xe
 3107 0099 3A       		.uleb128 0x3a
 3108 009a 0B       		.uleb128 0xb
 3109 009b 3B       		.uleb128 0x3b
 3110 009c 0B       		.uleb128 0xb
 3111 009d 49       		.uleb128 0x49
 3112 009e 13       		.uleb128 0x13
 3113 009f 00       		.byte	0
 3114 00a0 00       		.byte	0
 3115 00a1 0E       		.uleb128 0xe
 3116 00a2 26       		.uleb128 0x26
 3117 00a3 00       		.byte	0
 3118 00a4 49       		.uleb128 0x49
 3119 00a5 13       		.uleb128 0x13
 3120 00a6 00       		.byte	0
 3121 00a7 00       		.byte	0
 3122 00a8 0F       		.uleb128 0xf
 3123 00a9 15       		.uleb128 0x15
 3124 00aa 01       		.byte	0x1
 3125 00ab 27       		.uleb128 0x27
 3126 00ac 19       		.uleb128 0x19
 3127 00ad 49       		.uleb128 0x49
 3128 00ae 13       		.uleb128 0x13
 3129 00af 01       		.uleb128 0x1
 3130 00b0 13       		.uleb128 0x13
 3131 00b1 00       		.byte	0
ARM GAS  /tmp/cctKLj6v.s 			page 56


 3132 00b2 00       		.byte	0
 3133 00b3 10       		.uleb128 0x10
 3134 00b4 05       		.uleb128 0x5
 3135 00b5 00       		.byte	0
 3136 00b6 49       		.uleb128 0x49
 3137 00b7 13       		.uleb128 0x13
 3138 00b8 00       		.byte	0
 3139 00b9 00       		.byte	0
 3140 00ba 11       		.uleb128 0x11
 3141 00bb 15       		.uleb128 0x15
 3142 00bc 01       		.byte	0x1
 3143 00bd 27       		.uleb128 0x27
 3144 00be 19       		.uleb128 0x19
 3145 00bf 01       		.uleb128 0x1
 3146 00c0 13       		.uleb128 0x13
 3147 00c1 00       		.byte	0
 3148 00c2 00       		.byte	0
 3149 00c3 12       		.uleb128 0x12
 3150 00c4 04       		.uleb128 0x4
 3151 00c5 01       		.byte	0x1
 3152 00c6 0B       		.uleb128 0xb
 3153 00c7 0B       		.uleb128 0xb
 3154 00c8 3A       		.uleb128 0x3a
 3155 00c9 0B       		.uleb128 0xb
 3156 00ca 3B       		.uleb128 0x3b
 3157 00cb 0B       		.uleb128 0xb
 3158 00cc 01       		.uleb128 0x1
 3159 00cd 13       		.uleb128 0x13
 3160 00ce 00       		.byte	0
 3161 00cf 00       		.byte	0
 3162 00d0 13       		.uleb128 0x13
 3163 00d1 28       		.uleb128 0x28
 3164 00d2 00       		.byte	0
 3165 00d3 03       		.uleb128 0x3
 3166 00d4 0E       		.uleb128 0xe
 3167 00d5 1C       		.uleb128 0x1c
 3168 00d6 0D       		.uleb128 0xd
 3169 00d7 00       		.byte	0
 3170 00d8 00       		.byte	0
 3171 00d9 14       		.uleb128 0x14
 3172 00da 01       		.uleb128 0x1
 3173 00db 01       		.byte	0x1
 3174 00dc 49       		.uleb128 0x49
 3175 00dd 13       		.uleb128 0x13
 3176 00de 01       		.uleb128 0x1
 3177 00df 13       		.uleb128 0x13
 3178 00e0 00       		.byte	0
 3179 00e1 00       		.byte	0
 3180 00e2 15       		.uleb128 0x15
 3181 00e3 21       		.uleb128 0x21
 3182 00e4 00       		.byte	0
 3183 00e5 49       		.uleb128 0x49
 3184 00e6 13       		.uleb128 0x13
 3185 00e7 2F       		.uleb128 0x2f
 3186 00e8 0B       		.uleb128 0xb
 3187 00e9 00       		.byte	0
 3188 00ea 00       		.byte	0
ARM GAS  /tmp/cctKLj6v.s 			page 57


 3189 00eb 16       		.uleb128 0x16
 3190 00ec 0D       		.uleb128 0xd
 3191 00ed 00       		.byte	0
 3192 00ee 03       		.uleb128 0x3
 3193 00ef 08       		.uleb128 0x8
 3194 00f0 3A       		.uleb128 0x3a
 3195 00f1 0B       		.uleb128 0xb
 3196 00f2 3B       		.uleb128 0x3b
 3197 00f3 0B       		.uleb128 0xb
 3198 00f4 49       		.uleb128 0x49
 3199 00f5 13       		.uleb128 0x13
 3200 00f6 00       		.byte	0
 3201 00f7 00       		.byte	0
 3202 00f8 17       		.uleb128 0x17
 3203 00f9 0D       		.uleb128 0xd
 3204 00fa 00       		.byte	0
 3205 00fb 49       		.uleb128 0x49
 3206 00fc 13       		.uleb128 0x13
 3207 00fd 38       		.uleb128 0x38
 3208 00fe 0B       		.uleb128 0xb
 3209 00ff 00       		.byte	0
 3210 0100 00       		.byte	0
 3211 0101 18       		.uleb128 0x18
 3212 0102 13       		.uleb128 0x13
 3213 0103 01       		.byte	0x1
 3214 0104 0B       		.uleb128 0xb
 3215 0105 05       		.uleb128 0x5
 3216 0106 3A       		.uleb128 0x3a
 3217 0107 0B       		.uleb128 0xb
 3218 0108 3B       		.uleb128 0x3b
 3219 0109 05       		.uleb128 0x5
 3220 010a 01       		.uleb128 0x1
 3221 010b 13       		.uleb128 0x13
 3222 010c 00       		.byte	0
 3223 010d 00       		.byte	0
 3224 010e 19       		.uleb128 0x19
 3225 010f 0D       		.uleb128 0xd
 3226 0110 00       		.byte	0
 3227 0111 03       		.uleb128 0x3
 3228 0112 0E       		.uleb128 0xe
 3229 0113 3A       		.uleb128 0x3a
 3230 0114 0B       		.uleb128 0xb
 3231 0115 3B       		.uleb128 0x3b
 3232 0116 05       		.uleb128 0x5
 3233 0117 49       		.uleb128 0x49
 3234 0118 13       		.uleb128 0x13
 3235 0119 38       		.uleb128 0x38
 3236 011a 0B       		.uleb128 0xb
 3237 011b 00       		.byte	0
 3238 011c 00       		.byte	0
 3239 011d 1A       		.uleb128 0x1a
 3240 011e 0D       		.uleb128 0xd
 3241 011f 00       		.byte	0
 3242 0120 03       		.uleb128 0x3
 3243 0121 0E       		.uleb128 0xe
 3244 0122 3A       		.uleb128 0x3a
 3245 0123 0B       		.uleb128 0xb
ARM GAS  /tmp/cctKLj6v.s 			page 58


 3246 0124 3B       		.uleb128 0x3b
 3247 0125 05       		.uleb128 0x5
 3248 0126 49       		.uleb128 0x49
 3249 0127 13       		.uleb128 0x13
 3250 0128 38       		.uleb128 0x38
 3251 0129 05       		.uleb128 0x5
 3252 012a 00       		.byte	0
 3253 012b 00       		.byte	0
 3254 012c 1B       		.uleb128 0x1b
 3255 012d 16       		.uleb128 0x16
 3256 012e 00       		.byte	0
 3257 012f 03       		.uleb128 0x3
 3258 0130 0E       		.uleb128 0xe
 3259 0131 3A       		.uleb128 0x3a
 3260 0132 0B       		.uleb128 0xb
 3261 0133 3B       		.uleb128 0x3b
 3262 0134 05       		.uleb128 0x5
 3263 0135 49       		.uleb128 0x49
 3264 0136 13       		.uleb128 0x13
 3265 0137 00       		.byte	0
 3266 0138 00       		.byte	0
 3267 0139 1C       		.uleb128 0x1c
 3268 013a 2E       		.uleb128 0x2e
 3269 013b 01       		.byte	0x1
 3270 013c 03       		.uleb128 0x3
 3271 013d 0E       		.uleb128 0xe
 3272 013e 3A       		.uleb128 0x3a
 3273 013f 0B       		.uleb128 0xb
 3274 0140 3B       		.uleb128 0x3b
 3275 0141 0B       		.uleb128 0xb
 3276 0142 27       		.uleb128 0x27
 3277 0143 19       		.uleb128 0x19
 3278 0144 20       		.uleb128 0x20
 3279 0145 0B       		.uleb128 0xb
 3280 0146 01       		.uleb128 0x1
 3281 0147 13       		.uleb128 0x13
 3282 0148 00       		.byte	0
 3283 0149 00       		.byte	0
 3284 014a 1D       		.uleb128 0x1d
 3285 014b 05       		.uleb128 0x5
 3286 014c 00       		.byte	0
 3287 014d 03       		.uleb128 0x3
 3288 014e 08       		.uleb128 0x8
 3289 014f 3A       		.uleb128 0x3a
 3290 0150 0B       		.uleb128 0xb
 3291 0151 3B       		.uleb128 0x3b
 3292 0152 0B       		.uleb128 0xb
 3293 0153 49       		.uleb128 0x49
 3294 0154 13       		.uleb128 0x13
 3295 0155 00       		.byte	0
 3296 0156 00       		.byte	0
 3297 0157 1E       		.uleb128 0x1e
 3298 0158 34       		.uleb128 0x34
 3299 0159 00       		.byte	0
 3300 015a 03       		.uleb128 0x3
 3301 015b 08       		.uleb128 0x8
 3302 015c 3A       		.uleb128 0x3a
ARM GAS  /tmp/cctKLj6v.s 			page 59


 3303 015d 0B       		.uleb128 0xb
 3304 015e 3B       		.uleb128 0x3b
 3305 015f 0B       		.uleb128 0xb
 3306 0160 49       		.uleb128 0x49
 3307 0161 13       		.uleb128 0x13
 3308 0162 00       		.byte	0
 3309 0163 00       		.byte	0
 3310 0164 1F       		.uleb128 0x1f
 3311 0165 0B       		.uleb128 0xb
 3312 0166 01       		.byte	0x1
 3313 0167 00       		.byte	0
 3314 0168 00       		.byte	0
 3315 0169 20       		.uleb128 0x20
 3316 016a 2E       		.uleb128 0x2e
 3317 016b 01       		.byte	0x1
 3318 016c 03       		.uleb128 0x3
 3319 016d 0E       		.uleb128 0xe
 3320 016e 3A       		.uleb128 0x3a
 3321 016f 0B       		.uleb128 0xb
 3322 0170 3B       		.uleb128 0x3b
 3323 0171 0B       		.uleb128 0xb
 3324 0172 27       		.uleb128 0x27
 3325 0173 19       		.uleb128 0x19
 3326 0174 11       		.uleb128 0x11
 3327 0175 01       		.uleb128 0x1
 3328 0176 12       		.uleb128 0x12
 3329 0177 06       		.uleb128 0x6
 3330 0178 40       		.uleb128 0x40
 3331 0179 18       		.uleb128 0x18
 3332 017a 9742     		.uleb128 0x2117
 3333 017c 19       		.uleb128 0x19
 3334 017d 01       		.uleb128 0x1
 3335 017e 13       		.uleb128 0x13
 3336 017f 00       		.byte	0
 3337 0180 00       		.byte	0
 3338 0181 21       		.uleb128 0x21
 3339 0182 05       		.uleb128 0x5
 3340 0183 00       		.byte	0
 3341 0184 03       		.uleb128 0x3
 3342 0185 08       		.uleb128 0x8
 3343 0186 3A       		.uleb128 0x3a
 3344 0187 0B       		.uleb128 0xb
 3345 0188 3B       		.uleb128 0x3b
 3346 0189 0B       		.uleb128 0xb
 3347 018a 49       		.uleb128 0x49
 3348 018b 13       		.uleb128 0x13
 3349 018c 02       		.uleb128 0x2
 3350 018d 17       		.uleb128 0x17
 3351 018e 00       		.byte	0
 3352 018f 00       		.byte	0
 3353 0190 22       		.uleb128 0x22
 3354 0191 1D       		.uleb128 0x1d
 3355 0192 01       		.byte	0x1
 3356 0193 31       		.uleb128 0x31
 3357 0194 13       		.uleb128 0x13
 3358 0195 11       		.uleb128 0x11
 3359 0196 01       		.uleb128 0x1
ARM GAS  /tmp/cctKLj6v.s 			page 60


 3360 0197 12       		.uleb128 0x12
 3361 0198 06       		.uleb128 0x6
 3362 0199 58       		.uleb128 0x58
 3363 019a 0B       		.uleb128 0xb
 3364 019b 59       		.uleb128 0x59
 3365 019c 0B       		.uleb128 0xb
 3366 019d 00       		.byte	0
 3367 019e 00       		.byte	0
 3368 019f 23       		.uleb128 0x23
 3369 01a0 05       		.uleb128 0x5
 3370 01a1 00       		.byte	0
 3371 01a2 31       		.uleb128 0x31
 3372 01a3 13       		.uleb128 0x13
 3373 01a4 02       		.uleb128 0x2
 3374 01a5 18       		.uleb128 0x18
 3375 01a6 00       		.byte	0
 3376 01a7 00       		.byte	0
 3377 01a8 24       		.uleb128 0x24
 3378 01a9 0B       		.uleb128 0xb
 3379 01aa 01       		.byte	0x1
 3380 01ab 11       		.uleb128 0x11
 3381 01ac 01       		.uleb128 0x1
 3382 01ad 12       		.uleb128 0x12
 3383 01ae 06       		.uleb128 0x6
 3384 01af 00       		.byte	0
 3385 01b0 00       		.byte	0
 3386 01b1 25       		.uleb128 0x25
 3387 01b2 34       		.uleb128 0x34
 3388 01b3 00       		.byte	0
 3389 01b4 31       		.uleb128 0x31
 3390 01b5 13       		.uleb128 0x13
 3391 01b6 02       		.uleb128 0x2
 3392 01b7 17       		.uleb128 0x17
 3393 01b8 00       		.byte	0
 3394 01b9 00       		.byte	0
 3395 01ba 26       		.uleb128 0x26
 3396 01bb 898201   		.uleb128 0x4109
 3397 01be 01       		.byte	0x1
 3398 01bf 11       		.uleb128 0x11
 3399 01c0 01       		.uleb128 0x1
 3400 01c1 31       		.uleb128 0x31
 3401 01c2 13       		.uleb128 0x13
 3402 01c3 01       		.uleb128 0x1
 3403 01c4 13       		.uleb128 0x13
 3404 01c5 00       		.byte	0
 3405 01c6 00       		.byte	0
 3406 01c7 27       		.uleb128 0x27
 3407 01c8 8A8201   		.uleb128 0x410a
 3408 01cb 00       		.byte	0
 3409 01cc 02       		.uleb128 0x2
 3410 01cd 18       		.uleb128 0x18
 3411 01ce 9142     		.uleb128 0x2111
 3412 01d0 18       		.uleb128 0x18
 3413 01d1 00       		.byte	0
 3414 01d2 00       		.byte	0
 3415 01d3 28       		.uleb128 0x28
 3416 01d4 898201   		.uleb128 0x4109
ARM GAS  /tmp/cctKLj6v.s 			page 61


 3417 01d7 01       		.byte	0x1
 3418 01d8 11       		.uleb128 0x11
 3419 01d9 01       		.uleb128 0x1
 3420 01da 31       		.uleb128 0x31
 3421 01db 13       		.uleb128 0x13
 3422 01dc 00       		.byte	0
 3423 01dd 00       		.byte	0
 3424 01de 29       		.uleb128 0x29
 3425 01df 2E       		.uleb128 0x2e
 3426 01e0 01       		.byte	0x1
 3427 01e1 3F       		.uleb128 0x3f
 3428 01e2 19       		.uleb128 0x19
 3429 01e3 03       		.uleb128 0x3
 3430 01e4 0E       		.uleb128 0xe
 3431 01e5 3A       		.uleb128 0x3a
 3432 01e6 0B       		.uleb128 0xb
 3433 01e7 3B       		.uleb128 0x3b
 3434 01e8 0B       		.uleb128 0xb
 3435 01e9 27       		.uleb128 0x27
 3436 01ea 19       		.uleb128 0x19
 3437 01eb 11       		.uleb128 0x11
 3438 01ec 01       		.uleb128 0x1
 3439 01ed 12       		.uleb128 0x12
 3440 01ee 06       		.uleb128 0x6
 3441 01ef 40       		.uleb128 0x40
 3442 01f0 18       		.uleb128 0x18
 3443 01f1 9742     		.uleb128 0x2117
 3444 01f3 19       		.uleb128 0x19
 3445 01f4 01       		.uleb128 0x1
 3446 01f5 13       		.uleb128 0x13
 3447 01f6 00       		.byte	0
 3448 01f7 00       		.byte	0
 3449 01f8 2A       		.uleb128 0x2a
 3450 01f9 34       		.uleb128 0x34
 3451 01fa 00       		.byte	0
 3452 01fb 03       		.uleb128 0x3
 3453 01fc 0E       		.uleb128 0xe
 3454 01fd 3A       		.uleb128 0x3a
 3455 01fe 0B       		.uleb128 0xb
 3456 01ff 3B       		.uleb128 0x3b
 3457 0200 0B       		.uleb128 0xb
 3458 0201 49       		.uleb128 0x49
 3459 0202 13       		.uleb128 0x13
 3460 0203 02       		.uleb128 0x2
 3461 0204 17       		.uleb128 0x17
 3462 0205 00       		.byte	0
 3463 0206 00       		.byte	0
 3464 0207 2B       		.uleb128 0x2b
 3465 0208 1D       		.uleb128 0x1d
 3466 0209 01       		.byte	0x1
 3467 020a 31       		.uleb128 0x31
 3468 020b 13       		.uleb128 0x13
 3469 020c 11       		.uleb128 0x11
 3470 020d 01       		.uleb128 0x1
 3471 020e 12       		.uleb128 0x12
 3472 020f 06       		.uleb128 0x6
 3473 0210 58       		.uleb128 0x58
ARM GAS  /tmp/cctKLj6v.s 			page 62


 3474 0211 0B       		.uleb128 0xb
 3475 0212 59       		.uleb128 0x59
 3476 0213 0B       		.uleb128 0xb
 3477 0214 01       		.uleb128 0x1
 3478 0215 13       		.uleb128 0x13
 3479 0216 00       		.byte	0
 3480 0217 00       		.byte	0
 3481 0218 2C       		.uleb128 0x2c
 3482 0219 0B       		.uleb128 0xb
 3483 021a 01       		.byte	0x1
 3484 021b 55       		.uleb128 0x55
 3485 021c 17       		.uleb128 0x17
 3486 021d 01       		.uleb128 0x1
 3487 021e 13       		.uleb128 0x13
 3488 021f 00       		.byte	0
 3489 0220 00       		.byte	0
 3490 0221 2D       		.uleb128 0x2d
 3491 0222 0B       		.uleb128 0xb
 3492 0223 01       		.byte	0x1
 3493 0224 55       		.uleb128 0x55
 3494 0225 17       		.uleb128 0x17
 3495 0226 00       		.byte	0
 3496 0227 00       		.byte	0
 3497 0228 2E       		.uleb128 0x2e
 3498 0229 05       		.uleb128 0x5
 3499 022a 00       		.byte	0
 3500 022b 31       		.uleb128 0x31
 3501 022c 13       		.uleb128 0x13
 3502 022d 02       		.uleb128 0x2
 3503 022e 17       		.uleb128 0x17
 3504 022f 00       		.byte	0
 3505 0230 00       		.byte	0
 3506 0231 2F       		.uleb128 0x2f
 3507 0232 05       		.uleb128 0x5
 3508 0233 00       		.byte	0
 3509 0234 03       		.uleb128 0x3
 3510 0235 0E       		.uleb128 0xe
 3511 0236 3A       		.uleb128 0x3a
 3512 0237 0B       		.uleb128 0xb
 3513 0238 3B       		.uleb128 0x3b
 3514 0239 0B       		.uleb128 0xb
 3515 023a 49       		.uleb128 0x49
 3516 023b 13       		.uleb128 0x13
 3517 023c 00       		.byte	0
 3518 023d 00       		.byte	0
 3519 023e 30       		.uleb128 0x30
 3520 023f 2E       		.uleb128 0x2e
 3521 0240 01       		.byte	0x1
 3522 0241 3F       		.uleb128 0x3f
 3523 0242 19       		.uleb128 0x19
 3524 0243 03       		.uleb128 0x3
 3525 0244 0E       		.uleb128 0xe
 3526 0245 3A       		.uleb128 0x3a
 3527 0246 0B       		.uleb128 0xb
 3528 0247 3B       		.uleb128 0x3b
 3529 0248 0B       		.uleb128 0xb
 3530 0249 27       		.uleb128 0x27
ARM GAS  /tmp/cctKLj6v.s 			page 63


 3531 024a 19       		.uleb128 0x19
 3532 024b 11       		.uleb128 0x11
 3533 024c 01       		.uleb128 0x1
 3534 024d 12       		.uleb128 0x12
 3535 024e 06       		.uleb128 0x6
 3536 024f 40       		.uleb128 0x40
 3537 0250 18       		.uleb128 0x18
 3538 0251 9642     		.uleb128 0x2116
 3539 0253 19       		.uleb128 0x19
 3540 0254 01       		.uleb128 0x1
 3541 0255 13       		.uleb128 0x13
 3542 0256 00       		.byte	0
 3543 0257 00       		.byte	0
 3544 0258 31       		.uleb128 0x31
 3545 0259 05       		.uleb128 0x5
 3546 025a 00       		.byte	0
 3547 025b 03       		.uleb128 0x3
 3548 025c 0E       		.uleb128 0xe
 3549 025d 3A       		.uleb128 0x3a
 3550 025e 0B       		.uleb128 0xb
 3551 025f 3B       		.uleb128 0x3b
 3552 0260 0B       		.uleb128 0xb
 3553 0261 49       		.uleb128 0x49
 3554 0262 13       		.uleb128 0x13
 3555 0263 02       		.uleb128 0x2
 3556 0264 17       		.uleb128 0x17
 3557 0265 00       		.byte	0
 3558 0266 00       		.byte	0
 3559 0267 32       		.uleb128 0x32
 3560 0268 1D       		.uleb128 0x1d
 3561 0269 01       		.byte	0x1
 3562 026a 31       		.uleb128 0x31
 3563 026b 13       		.uleb128 0x13
 3564 026c 11       		.uleb128 0x11
 3565 026d 01       		.uleb128 0x1
 3566 026e 12       		.uleb128 0x12
 3567 026f 06       		.uleb128 0x6
 3568 0270 58       		.uleb128 0x58
 3569 0271 0B       		.uleb128 0xb
 3570 0272 59       		.uleb128 0x59
 3571 0273 05       		.uleb128 0x5
 3572 0274 01       		.uleb128 0x1
 3573 0275 13       		.uleb128 0x13
 3574 0276 00       		.byte	0
 3575 0277 00       		.byte	0
 3576 0278 33       		.uleb128 0x33
 3577 0279 2E       		.uleb128 0x2e
 3578 027a 01       		.byte	0x1
 3579 027b 3F       		.uleb128 0x3f
 3580 027c 19       		.uleb128 0x19
 3581 027d 03       		.uleb128 0x3
 3582 027e 0E       		.uleb128 0xe
 3583 027f 3A       		.uleb128 0x3a
 3584 0280 0B       		.uleb128 0xb
 3585 0281 3B       		.uleb128 0x3b
 3586 0282 05       		.uleb128 0x5
 3587 0283 27       		.uleb128 0x27
ARM GAS  /tmp/cctKLj6v.s 			page 64


 3588 0284 19       		.uleb128 0x19
 3589 0285 11       		.uleb128 0x11
 3590 0286 01       		.uleb128 0x1
 3591 0287 12       		.uleb128 0x12
 3592 0288 06       		.uleb128 0x6
 3593 0289 40       		.uleb128 0x40
 3594 028a 18       		.uleb128 0x18
 3595 028b 9742     		.uleb128 0x2117
 3596 028d 19       		.uleb128 0x19
 3597 028e 01       		.uleb128 0x1
 3598 028f 13       		.uleb128 0x13
 3599 0290 00       		.byte	0
 3600 0291 00       		.byte	0
 3601 0292 34       		.uleb128 0x34
 3602 0293 05       		.uleb128 0x5
 3603 0294 00       		.byte	0
 3604 0295 03       		.uleb128 0x3
 3605 0296 08       		.uleb128 0x8
 3606 0297 3A       		.uleb128 0x3a
 3607 0298 0B       		.uleb128 0xb
 3608 0299 3B       		.uleb128 0x3b
 3609 029a 05       		.uleb128 0x5
 3610 029b 49       		.uleb128 0x49
 3611 029c 13       		.uleb128 0x13
 3612 029d 02       		.uleb128 0x2
 3613 029e 17       		.uleb128 0x17
 3614 029f 00       		.byte	0
 3615 02a0 00       		.byte	0
 3616 02a1 35       		.uleb128 0x35
 3617 02a2 34       		.uleb128 0x34
 3618 02a3 00       		.byte	0
 3619 02a4 03       		.uleb128 0x3
 3620 02a5 0E       		.uleb128 0xe
 3621 02a6 3A       		.uleb128 0x3a
 3622 02a7 0B       		.uleb128 0xb
 3623 02a8 3B       		.uleb128 0x3b
 3624 02a9 0B       		.uleb128 0xb
 3625 02aa 49       		.uleb128 0x49
 3626 02ab 13       		.uleb128 0x13
 3627 02ac 02       		.uleb128 0x2
 3628 02ad 18       		.uleb128 0x18
 3629 02ae 00       		.byte	0
 3630 02af 00       		.byte	0
 3631 02b0 36       		.uleb128 0x36
 3632 02b1 34       		.uleb128 0x34
 3633 02b2 00       		.byte	0
 3634 02b3 03       		.uleb128 0x3
 3635 02b4 08       		.uleb128 0x8
 3636 02b5 3A       		.uleb128 0x3a
 3637 02b6 0B       		.uleb128 0xb
 3638 02b7 3B       		.uleb128 0x3b
 3639 02b8 0B       		.uleb128 0xb
 3640 02b9 49       		.uleb128 0x49
 3641 02ba 13       		.uleb128 0x13
 3642 02bb 3F       		.uleb128 0x3f
 3643 02bc 19       		.uleb128 0x19
 3644 02bd 02       		.uleb128 0x2
ARM GAS  /tmp/cctKLj6v.s 			page 65


 3645 02be 18       		.uleb128 0x18
 3646 02bf 00       		.byte	0
 3647 02c0 00       		.byte	0
 3648 02c1 37       		.uleb128 0x37
 3649 02c2 2E       		.uleb128 0x2e
 3650 02c3 01       		.byte	0x1
 3651 02c4 3F       		.uleb128 0x3f
 3652 02c5 19       		.uleb128 0x19
 3653 02c6 03       		.uleb128 0x3
 3654 02c7 0E       		.uleb128 0xe
 3655 02c8 3A       		.uleb128 0x3a
 3656 02c9 0B       		.uleb128 0xb
 3657 02ca 3B       		.uleb128 0x3b
 3658 02cb 05       		.uleb128 0x5
 3659 02cc 27       		.uleb128 0x27
 3660 02cd 19       		.uleb128 0x19
 3661 02ce 49       		.uleb128 0x49
 3662 02cf 13       		.uleb128 0x13
 3663 02d0 3C       		.uleb128 0x3c
 3664 02d1 19       		.uleb128 0x19
 3665 02d2 01       		.uleb128 0x1
 3666 02d3 13       		.uleb128 0x13
 3667 02d4 00       		.byte	0
 3668 02d5 00       		.byte	0
 3669 02d6 38       		.uleb128 0x38
 3670 02d7 2E       		.uleb128 0x2e
 3671 02d8 01       		.byte	0x1
 3672 02d9 3F       		.uleb128 0x3f
 3673 02da 19       		.uleb128 0x19
 3674 02db 03       		.uleb128 0x3
 3675 02dc 0E       		.uleb128 0xe
 3676 02dd 3A       		.uleb128 0x3a
 3677 02de 0B       		.uleb128 0xb
 3678 02df 3B       		.uleb128 0x3b
 3679 02e0 0B       		.uleb128 0xb
 3680 02e1 27       		.uleb128 0x27
 3681 02e2 19       		.uleb128 0x19
 3682 02e3 3C       		.uleb128 0x3c
 3683 02e4 19       		.uleb128 0x19
 3684 02e5 01       		.uleb128 0x1
 3685 02e6 13       		.uleb128 0x13
 3686 02e7 00       		.byte	0
 3687 02e8 00       		.byte	0
 3688 02e9 39       		.uleb128 0x39
 3689 02ea 2E       		.uleb128 0x2e
 3690 02eb 01       		.byte	0x1
 3691 02ec 3F       		.uleb128 0x3f
 3692 02ed 19       		.uleb128 0x19
 3693 02ee 03       		.uleb128 0x3
 3694 02ef 0E       		.uleb128 0xe
 3695 02f0 3A       		.uleb128 0x3a
 3696 02f1 0B       		.uleb128 0xb
 3697 02f2 3B       		.uleb128 0x3b
 3698 02f3 05       		.uleb128 0x5
 3699 02f4 27       		.uleb128 0x27
 3700 02f5 19       		.uleb128 0x19
 3701 02f6 3C       		.uleb128 0x3c
ARM GAS  /tmp/cctKLj6v.s 			page 66


 3702 02f7 19       		.uleb128 0x19
 3703 02f8 01       		.uleb128 0x1
 3704 02f9 13       		.uleb128 0x13
 3705 02fa 00       		.byte	0
 3706 02fb 00       		.byte	0
 3707 02fc 3A       		.uleb128 0x3a
 3708 02fd 2E       		.uleb128 0x2e
 3709 02fe 01       		.byte	0x1
 3710 02ff 3F       		.uleb128 0x3f
 3711 0300 19       		.uleb128 0x19
 3712 0301 03       		.uleb128 0x3
 3713 0302 0E       		.uleb128 0xe
 3714 0303 3A       		.uleb128 0x3a
 3715 0304 0B       		.uleb128 0xb
 3716 0305 3B       		.uleb128 0x3b
 3717 0306 05       		.uleb128 0x5
 3718 0307 27       		.uleb128 0x27
 3719 0308 19       		.uleb128 0x19
 3720 0309 3C       		.uleb128 0x3c
 3721 030a 19       		.uleb128 0x19
 3722 030b 00       		.byte	0
 3723 030c 00       		.byte	0
 3724 030d 00       		.byte	0
 3725              		.section	.debug_loc,"",%progbits
 3726              	.Ldebug_loc0:
 3727              	.LLST0:
 3728 0000 00000000 		.4byte	.LVL0
 3729 0004 12000000 		.4byte	.LVL3
 3730 0008 0100     		.2byte	0x1
 3731 000a 50       		.byte	0x50
 3732 000b 12000000 		.4byte	.LVL3
 3733 000f 40000000 		.4byte	.LFE44
 3734 0013 0400     		.2byte	0x4
 3735 0015 F3       		.byte	0xf3
 3736 0016 01       		.uleb128 0x1
 3737 0017 50       		.byte	0x50
 3738 0018 9F       		.byte	0x9f
 3739 0019 00000000 		.4byte	0
 3740 001d 00000000 		.4byte	0
 3741              	.LLST1:
 3742 0021 06000000 		.4byte	.LVL2
 3743 0025 38000000 		.4byte	.LVL11
 3744 0029 0100     		.2byte	0x1
 3745 002b 55       		.byte	0x55
 3746 002c 00000000 		.4byte	0
 3747 0030 00000000 		.4byte	0
 3748              	.LLST2:
 3749 0034 12000000 		.4byte	.LVL3
 3750 0038 2A000000 		.4byte	.LVL8
 3751 003c 0100     		.2byte	0x1
 3752 003e 54       		.byte	0x54
 3753 003f 2A000000 		.4byte	.LVL8
 3754 0043 2C000000 		.4byte	.LVL9
 3755 0047 0300     		.2byte	0x3
 3756 0049 74       		.byte	0x74
 3757 004a 7F       		.sleb128 -1
 3758 004b 9F       		.byte	0x9f
ARM GAS  /tmp/cctKLj6v.s 			page 67


 3759 004c 2C000000 		.4byte	.LVL9
 3760 0050 30000000 		.4byte	.LVL10
 3761 0054 0100     		.2byte	0x1
 3762 0056 54       		.byte	0x54
 3763 0057 00000000 		.4byte	0
 3764 005b 00000000 		.4byte	0
 3765              	.LLST3:
 3766 005f 18000000 		.4byte	.LVL4
 3767 0063 1E000000 		.4byte	.LVL5
 3768 0067 0100     		.2byte	0x1
 3769 0069 50       		.byte	0x50
 3770 006a 28000000 		.4byte	.LVL7
 3771 006e 30000000 		.4byte	.LVL10
 3772 0072 0100     		.2byte	0x1
 3773 0074 50       		.byte	0x50
 3774 0075 00000000 		.4byte	0
 3775 0079 00000000 		.4byte	0
 3776              	.LLST4:
 3777 007d 0E000000 		.4byte	.LVL12
 3778 0081 E6000000 		.4byte	.LVL35
 3779 0085 0100     		.2byte	0x1
 3780 0087 58       		.byte	0x58
 3781 0088 00000000 		.4byte	0
 3782 008c 00000000 		.4byte	0
 3783              	.LLST5:
 3784 0090 12000000 		.4byte	.LVL13
 3785 0094 E6000000 		.4byte	.LVL34
 3786 0098 0100     		.2byte	0x1
 3787 009a 54       		.byte	0x54
 3788 009b 00000000 		.4byte	0
 3789 009f 00000000 		.4byte	0
 3790              	.LLST6:
 3791 00a3 AC000000 		.4byte	.LVL25
 3792 00a7 D2000000 		.4byte	.LVL30
 3793 00ab 0100     		.2byte	0x1
 3794 00ad 55       		.byte	0x55
 3795 00ae D2000000 		.4byte	.LVL30
 3796 00b2 D4000000 		.4byte	.LVL31
 3797 00b6 0300     		.2byte	0x3
 3798 00b8 75       		.byte	0x75
 3799 00b9 7F       		.sleb128 -1
 3800 00ba 9F       		.byte	0x9f
 3801 00bb D4000000 		.4byte	.LVL31
 3802 00bf DA000000 		.4byte	.LVL32
 3803 00c3 0100     		.2byte	0x1
 3804 00c5 55       		.byte	0x55
 3805 00c6 00000000 		.4byte	0
 3806 00ca 00000000 		.4byte	0
 3807              	.LLST7:
 3808 00ce B4000000 		.4byte	.LVL26
 3809 00d2 C6000000 		.4byte	.LVL27
 3810 00d6 0100     		.2byte	0x1
 3811 00d8 50       		.byte	0x50
 3812 00d9 D0000000 		.4byte	.LVL29
 3813 00dd DA000000 		.4byte	.LVL32
 3814 00e1 0100     		.2byte	0x1
 3815 00e3 50       		.byte	0x50
ARM GAS  /tmp/cctKLj6v.s 			page 68


 3816 00e4 00000000 		.4byte	0
 3817 00e8 00000000 		.4byte	0
 3818              	.LLST8:
 3819 00ec 32000000 		.4byte	.LVL14
 3820 00f0 4E000000 		.4byte	.LVL18
 3821 00f4 0100     		.2byte	0x1
 3822 00f6 53       		.byte	0x53
 3823 00f7 00000000 		.4byte	0
 3824 00fb 00000000 		.4byte	0
 3825              	.LLST9:
 3826 00ff 32000000 		.4byte	.LVL14
 3827 0103 60000000 		.4byte	.LVL21
 3828 0107 0600     		.2byte	0x6
 3829 0109 03       		.byte	0x3
 3830 010a 00000000 		.4byte	SD1
 3831 010e 9F       		.byte	0x9f
 3832 010f 00000000 		.4byte	0
 3833 0113 00000000 		.4byte	0
 3834              	.LLST10:
 3835 0117 32000000 		.4byte	.LVL14
 3836 011b 38000000 		.4byte	.LVL15
 3837 011f 0200     		.2byte	0x2
 3838 0121 30       		.byte	0x30
 3839 0122 9F       		.byte	0x9f
 3840 0123 38000000 		.4byte	.LVL15
 3841 0127 5B000000 		.4byte	.LVL20-1
 3842 012b 0100     		.2byte	0x1
 3843 012d 51       		.byte	0x51
 3844 012e 00000000 		.4byte	0
 3845 0132 00000000 		.4byte	0
 3846              	.LLST11:
 3847 0136 00000000 		.4byte	.LVL37
 3848 013a 1C000000 		.4byte	.LVL39
 3849 013e 0100     		.2byte	0x1
 3850 0140 50       		.byte	0x50
 3851 0141 1C000000 		.4byte	.LVL39
 3852 0145 34000000 		.4byte	.LVL41
 3853 0149 0100     		.2byte	0x1
 3854 014b 54       		.byte	0x54
 3855 014c 34000000 		.4byte	.LVL41
 3856 0150 78000000 		.4byte	.LFE47
 3857 0154 0400     		.2byte	0x4
 3858 0156 F3       		.byte	0xf3
 3859 0157 01       		.uleb128 0x1
 3860 0158 50       		.byte	0x50
 3861 0159 9F       		.byte	0x9f
 3862 015a 00000000 		.4byte	0
 3863 015e 00000000 		.4byte	0
 3864              	.LLST12:
 3865 0162 00000000 		.4byte	.LVL37
 3866 0166 0A000000 		.4byte	.LVL38
 3867 016a 0100     		.2byte	0x1
 3868 016c 51       		.byte	0x51
 3869 016d 0A000000 		.4byte	.LVL38
 3870 0171 66000000 		.4byte	.LVL46
 3871 0175 0100     		.2byte	0x1
 3872 0177 55       		.byte	0x55
ARM GAS  /tmp/cctKLj6v.s 			page 69


 3873 0178 00000000 		.4byte	0
 3874 017c 00000000 		.4byte	0
 3875              	.LLST13:
 3876 0180 32000000 		.4byte	.LVL40
 3877 0184 66000000 		.4byte	.LVL46
 3878 0188 0100     		.2byte	0x1
 3879 018a 55       		.byte	0x55
 3880 018b 00000000 		.4byte	0
 3881 018f 00000000 		.4byte	0
 3882              	.LLST14:
 3883 0193 32000000 		.4byte	.LVL40
 3884 0197 34000000 		.4byte	.LVL41
 3885 019b 0100     		.2byte	0x1
 3886 019d 54       		.byte	0x54
 3887 019e 34000000 		.4byte	.LVL41
 3888 01a2 78000000 		.4byte	.LFE47
 3889 01a6 0400     		.2byte	0x4
 3890 01a8 F3       		.byte	0xf3
 3891 01a9 01       		.uleb128 0x1
 3892 01aa 50       		.byte	0x50
 3893 01ab 9F       		.byte	0x9f
 3894 01ac 00000000 		.4byte	0
 3895 01b0 00000000 		.4byte	0
 3896              	.LLST15:
 3897 01b4 34000000 		.4byte	.LVL41
 3898 01b8 66000000 		.4byte	.LVL45
 3899 01bc 0100     		.2byte	0x1
 3900 01be 54       		.byte	0x54
 3901 01bf 00000000 		.4byte	0
 3902 01c3 00000000 		.4byte	0
 3903              	.LLST16:
 3904 01c7 3E000000 		.4byte	.LVL42
 3905 01cb 4A000000 		.4byte	.LVL43
 3906 01cf 0100     		.2byte	0x1
 3907 01d1 50       		.byte	0x50
 3908 01d2 4A000000 		.4byte	.LVL43
 3909 01d6 4C000000 		.4byte	.LVL44
 3910 01da 0200     		.2byte	0x2
 3911 01dc 74       		.byte	0x74
 3912 01dd 00       		.sleb128 0
 3913 01de 00000000 		.4byte	0
 3914 01e2 00000000 		.4byte	0
 3915              	.LLST17:
 3916 01e6 00000000 		.4byte	.LVL47
 3917 01ea 38000000 		.4byte	.LVL50
 3918 01ee 0100     		.2byte	0x1
 3919 01f0 50       		.byte	0x50
 3920 01f1 38000000 		.4byte	.LVL50
 3921 01f5 54000000 		.4byte	.LFE48
 3922 01f9 0400     		.2byte	0x4
 3923 01fb F3       		.byte	0xf3
 3924 01fc 01       		.uleb128 0x1
 3925 01fd 50       		.byte	0x50
 3926 01fe 9F       		.byte	0x9f
 3927 01ff 00000000 		.4byte	0
 3928 0203 00000000 		.4byte	0
 3929              	.LLST18:
ARM GAS  /tmp/cctKLj6v.s 			page 70


 3930 0207 0A000000 		.4byte	.LVL48
 3931 020b 28000000 		.4byte	.LVL49
 3932 020f 0100     		.2byte	0x1
 3933 0211 53       		.byte	0x53
 3934 0212 00000000 		.4byte	0
 3935 0216 00000000 		.4byte	0
 3936              		.section	.debug_aranges,"",%progbits
 3937 0000 3C000000 		.4byte	0x3c
 3938 0004 0200     		.2byte	0x2
 3939 0006 00000000 		.4byte	.Ldebug_info0
 3940 000a 04       		.byte	0x4
 3941 000b 00       		.byte	0
 3942 000c 0000     		.2byte	0
 3943 000e 0000     		.2byte	0
 3944 0010 00000000 		.4byte	.LFB44
 3945 0014 40000000 		.4byte	.LFE44-.LFB44
 3946 0018 00000000 		.4byte	.LFB45
 3947 001c FC000000 		.4byte	.LFE45-.LFB45
 3948 0020 00000000 		.4byte	.LFB46
 3949 0024 20000000 		.4byte	.LFE46-.LFB46
 3950 0028 00000000 		.4byte	.LFB47
 3951 002c 78000000 		.4byte	.LFE47-.LFB47
 3952 0030 00000000 		.4byte	.LFB48
 3953 0034 54000000 		.4byte	.LFE48-.LFB48
 3954 0038 00000000 		.4byte	0
 3955 003c 00000000 		.4byte	0
 3956              		.section	.debug_ranges,"",%progbits
 3957              	.Ldebug_ranges0:
 3958 0000 14000000 		.4byte	.LBB18
 3959 0004 1E000000 		.4byte	.LBE18
 3960 0008 AC000000 		.4byte	.LBB23
 3961 000c DA000000 		.4byte	.LBE23
 3962 0010 00000000 		.4byte	0
 3963 0014 00000000 		.4byte	0
 3964 0018 14000000 		.4byte	.LBB19
 3965 001c 1E000000 		.4byte	.LBE19
 3966 0020 AC000000 		.4byte	.LBB20
 3967 0024 D4000000 		.4byte	.LBE20
 3968 0028 00000000 		.4byte	0
 3969 002c 00000000 		.4byte	0
 3970 0030 00000000 		.4byte	.LFB44
 3971 0034 40000000 		.4byte	.LFE44
 3972 0038 00000000 		.4byte	.LFB45
 3973 003c FC000000 		.4byte	.LFE45
 3974 0040 00000000 		.4byte	.LFB46
 3975 0044 20000000 		.4byte	.LFE46
 3976 0048 00000000 		.4byte	.LFB47
 3977 004c 78000000 		.4byte	.LFE47
 3978 0050 00000000 		.4byte	.LFB48
 3979 0054 54000000 		.4byte	.LFE48
 3980 0058 00000000 		.4byte	0
 3981 005c 00000000 		.4byte	0
 3982              		.section	.debug_line,"",%progbits
 3983              	.Ldebug_line0:
 3984 0000 43030000 		.section	.debug_str,"MS",%progbits,1
 3984      02006D02 
 3984      00000201 
ARM GAS  /tmp/cctKLj6v.s 			page 71


 3984      FB0E0D00 
 3984      01010101 
 3985              	.LASF2:
 3986 0000 73697A65 		.ascii	"size_t\000"
 3986      5F7400
 3987              	.LASF53:
 3988 0007 73697A65 		.ascii	"sizetype\000"
 3988      74797065 
 3988      00
 3989              	.LASF214:
 3990 0010 75617274 		.ascii	"uart_deinit\000"
 3990      5F646569 
 3990      6E697400 
 3991              	.LASF26:
 3992 001c 73797374 		.ascii	"systime_t\000"
 3992      696D655F 
 3992      7400
 3993              	.LASF31:
 3994 0026 705F6374 		.ascii	"p_ctx\000"
 3994      7800
 3995              	.LASF22:
 3996 002c 74707269 		.ascii	"tprio_t\000"
 3996      6F5F7400 
 3997              	.LASF41:
 3998 0034 705F6D73 		.ascii	"p_msgqueue\000"
 3998      67717565 
 3998      756500
 3999              	.LASF14:
 4000 003f 696E7433 		.ascii	"int32_t\000"
 4000      325F7400 
 4001              	.LASF198:
 4002 0047 53657269 		.ascii	"SerialConfig\000"
 4002      616C436F 
 4002      6E666967 
 4002      00
 4003              	.LASF204:
 4004 0054 77726974 		.ascii	"writet\000"
 4004      657400
 4005              	.LASF166:
 4006 005b 424F4443 		.ascii	"BODCTRL\000"
 4006      54524C00 
 4007              	.LASF200:
 4008 0063 77726974 		.ascii	"write\000"
 4008      6500
 4009              	.LASF107:
 4010 0069 54494D45 		.ascii	"TIMER_32_0_IRQn\000"
 4010      525F3332 
 4010      5F305F49 
 4010      52516E00 
 4011              	.LASF108:
 4012 0079 54494D45 		.ascii	"TIMER_32_1_IRQn\000"
 4012      525F3332 
 4012      5F315F49 
 4012      52516E00 
 4013              	.LASF62:
 4014 0089 656C5F66 		.ascii	"el_flags\000"
 4014      6C616773 
ARM GAS  /tmp/cctKLj6v.s 			page 72


 4014      00
 4015              	.LASF212:
 4016 0092 636F6E66 		.ascii	"config\000"
 4016      696700
 4017              	.LASF157:
 4018 0099 55534243 		.ascii	"USBCLKDIV\000"
 4018      4C4B4449 
 4018      5600
 4019              	.LASF216:
 4020 00a3 5F736176 		.ascii	"_saved_lr\000"
 4020      65645F6C 
 4020      7200
 4021              	.LASF202:
 4022 00ad 70757474 		.ascii	"putt\000"
 4022      00
 4023              	.LASF180:
 4024 00b2 50444157 		.ascii	"PDAWAKECFG\000"
 4024      414B4543 
 4024      464700
 4025              	.LASF103:
 4026 00bd 53535031 		.ascii	"SSP1_IRQn\000"
 4026      5F495251 
 4026      6E00
 4027              	.LASF207:
 4028 00c7 73657276 		.ascii	"serve_interrupt\000"
 4028      655F696E 
 4028      74657272 
 4028      75707400 
 4029              	.LASF208:
 4030 00d7 7365745F 		.ascii	"set_error\000"
 4030      6572726F 
 4030      7200
 4031              	.LASF126:
 4032 00e1 52533438 		.ascii	"RS485ADRMATCH\000"
 4032      35414452 
 4032      4D415443 
 4032      4800
 4033              	.LASF56:
 4034 00ef 6D5F6F77 		.ascii	"m_owner\000"
 4034      6E657200 
 4035              	.LASF66:
 4036 00f7 65786974 		.ascii	"exitcode\000"
 4036      636F6465 
 4036      00
 4037              	.LASF3:
 4038 0100 5F5F7569 		.ascii	"__uint8_t\000"
 4038      6E74385F 
 4038      7400
 4039              	.LASF74:
 4040 010a 715F746F 		.ascii	"q_top\000"
 4040      7000
 4041              	.LASF68:
 4042 0110 65776D61 		.ascii	"ewmask\000"
 4042      736B00
 4043              	.LASF205:
 4044 0117 72656164 		.ascii	"readt\000"
 4044      7400
ARM GAS  /tmp/cctKLj6v.s 			page 73


 4045              	.LASF213:
 4046 011d 73645F6C 		.ascii	"sd_lld_start\000"
 4046      6C645F73 
 4046      74617274 
 4046      00
 4047              	.LASF171:
 4048 012a 50494E54 		.ascii	"PINTSEL\000"
 4048      53454C00 
 4049              	.LASF73:
 4050 0132 715F6275 		.ascii	"q_buffer\000"
 4050      66666572 
 4050      00
 4051              	.LASF77:
 4052 013b 715F6E6F 		.ascii	"q_notify\000"
 4052      74696679 
 4052      00
 4053              	.LASF222:
 4054 0144 73644F62 		.ascii	"sdObjectInit\000"
 4054      6A656374 
 4054      496E6974 
 4054      00
 4055              	.LASF32:
 4056 0151 705F6E65 		.ascii	"p_newer\000"
 4056      77657200 
 4057              	.LASF8:
 4058 0159 6C6F6E67 		.ascii	"long int\000"
 4058      20696E74 
 4058      00
 4059              	.LASF28:
 4060 0162 705F6E65 		.ascii	"p_next\000"
 4060      787400
 4061              	.LASF76:
 4062 0169 715F7264 		.ascii	"q_rdptr\000"
 4062      70747200 
 4063              	.LASF109:
 4064 0171 53535030 		.ascii	"SSP0_IRQn\000"
 4064      5F495251 
 4064      6E00
 4065              	.LASF228:
 4066 017b 6E766963 		.ascii	"nvicDisableVector\000"
 4066      44697361 
 4066      626C6556 
 4066      6563746F 
 4066      7200
 4067              	.LASF29:
 4068 018d 705F7072 		.ascii	"p_prev\000"
 4068      657600
 4069              	.LASF140:
 4070 0194 53595350 		.ascii	"SYSPLLCLKSEL\000"
 4070      4C4C434C 
 4070      4B53454C 
 4070      00
 4071              	.LASF217:
 4072 01a1 64656661 		.ascii	"default_config\000"
 4072      756C745F 
 4072      636F6E66 
 4072      696700
ARM GAS  /tmp/cctKLj6v.s 			page 74


 4073              	.LASF211:
 4074 01b0 75617274 		.ascii	"uart_init\000"
 4074      5F696E69 
 4074      7400
 4075              	.LASF19:
 4076 01ba 74737461 		.ascii	"tstate_t\000"
 4076      74655F74 
 4076      00
 4077              	.LASF44:
 4078 01c3 705F6D74 		.ascii	"p_mtxlist\000"
 4078      786C6973 
 4078      7400
 4079              	.LASF189:
 4080 01cd 53657269 		.ascii	"SerialDriver\000"
 4080      616C4472 
 4080      69766572 
 4080      00
 4081              	.LASF193:
 4082 01da 6F717565 		.ascii	"oqueue\000"
 4082      756500
 4083              	.LASF49:
 4084 01e1 72656761 		.ascii	"regarm_t\000"
 4084      726D5F74 
 4084      00
 4085              	.LASF88:
 4086 01ea 53797354 		.ascii	"SysTick_IRQn\000"
 4086      69636B5F 
 4086      4952516E 
 4086      00
 4087              	.LASF181:
 4088 01f7 50445255 		.ascii	"PDRUNCFG\000"
 4088      4E434647 
 4088      00
 4089              	.LASF1:
 4090 0200 7369676E 		.ascii	"signed char\000"
 4090      65642063 
 4090      68617200 
 4091              	.LASF38:
 4092 020c 705F7072 		.ascii	"p_preempt\000"
 4092      65656D70 
 4092      7400
 4093              	.LASF13:
 4094 0216 75696E74 		.ascii	"uint8_t\000"
 4094      385F7400 
 4095              	.LASF101:
 4096 021e 52657365 		.ascii	"Reserved2_IRQn\000"
 4096      72766564 
 4096      325F4952 
 4096      516E00
 4097              	.LASF160:
 4098 022d 434C4B4F 		.ascii	"CLKOUTUEN\000"
 4098      55545545 
 4098      4E00
 4099              	.LASF24:
 4100 0237 6576656E 		.ascii	"eventmask_t\000"
 4100      746D6173 
 4100      6B5F7400 
ARM GAS  /tmp/cctKLj6v.s 			page 75


 4101              	.LASF51:
 4102 0243 636F6E74 		.ascii	"context\000"
 4102      65787400 
 4103              	.LASF121:
 4104 024b 52455345 		.ascii	"RESERVED0\000"
 4104      52564544 
 4104      3000
 4105              	.LASF123:
 4106 0255 52455345 		.ascii	"RESERVED1\000"
 4106      52564544 
 4106      3100
 4107              	.LASF4:
 4108 025f 756E7369 		.ascii	"unsigned char\000"
 4108      676E6564 
 4108      20636861 
 4108      7200
 4109              	.LASF144:
 4110 026d 52455345 		.ascii	"RESERVED3\000"
 4110      52564544 
 4110      3300
 4111              	.LASF148:
 4112 0277 52455345 		.ascii	"RESERVED4\000"
 4112      52564544 
 4112      3400
 4113              	.LASF78:
 4114 0281 715F6C69 		.ascii	"q_link\000"
 4114      6E6B00
 4115              	.LASF154:
 4116 0288 52455345 		.ascii	"RESERVED6\000"
 4116      52564544 
 4116      3600
 4117              	.LASF158:
 4118 0292 52455345 		.ascii	"RESERVED7\000"
 4118      52564544 
 4118      3700
 4119              	.LASF162:
 4120 029c 52455345 		.ascii	"RESERVED8\000"
 4120      52564544 
 4120      3800
 4121              	.LASF165:
 4122 02a6 52455345 		.ascii	"RESERVED9\000"
 4122      52564544 
 4122      3900
 4123              	.LASF145:
 4124 02b0 4D41494E 		.ascii	"MAINCLKSEL\000"
 4124      434C4B53 
 4124      454C00
 4125              	.LASF111:
 4126 02bb 5553425F 		.ascii	"USB_IRQn\000"
 4126      4952516E 
 4126      00
 4127              	.LASF185:
 4128 02c4 53445F55 		.ascii	"SD_UNINIT\000"
 4128      4E494E49 
 4128      5400
 4129              	.LASF152:
 4130 02ce 55415254 		.ascii	"UARTCLKDIV\000"
ARM GAS  /tmp/cctKLj6v.s 			page 76


 4130      434C4B44 
 4130      495600
 4131              	.LASF17:
 4132 02d9 5F426F6F 		.ascii	"_Bool\000"
 4132      6C00
 4133              	.LASF139:
 4134 02df 52455345 		.ascii	"RESERVED2\000"
 4134      52564544 
 4134      3200
 4135              	.LASF150:
 4136 02e9 52455345 		.ascii	"RESERVED5\000"
 4136      52564544 
 4136      3500
 4137              	.LASF69:
 4138 02f3 63686172 		.ascii	"char\000"
 4138      00
 4139              	.LASF30:
 4140 02f8 705F7072 		.ascii	"p_prio\000"
 4140      696F00
 4141              	.LASF70:
 4142 02ff 47656E65 		.ascii	"GenericQueue\000"
 4142      72696351 
 4142      75657565 
 4142      00
 4143              	.LASF67:
 4144 030c 77746F62 		.ascii	"wtobjp\000"
 4144      6A7000
 4145              	.LASF179:
 4146 0313 5044534C 		.ascii	"PDSLEEPCFG\000"
 4146      45455043 
 4146      464700
 4147              	.LASF203:
 4148 031e 67657474 		.ascii	"gett\000"
 4148      00
 4149              	.LASF81:
 4150 0323 4F757470 		.ascii	"OutputQueue\000"
 4150      75745175 
 4150      65756500 
 4151              	.LASF90:
 4152 032f 464C4558 		.ascii	"FLEX_INT1_IRQn\000"
 4152      5F494E54 
 4152      315F4952 
 4152      516E00
 4153              	.LASF219:
 4154 033e 63684951 		.ascii	"chIQPutI\000"
 4154      50757449 
 4154      00
 4155              	.LASF132:
 4156 0347 53595350 		.ascii	"SYSPLLCTRL\000"
 4156      4C4C4354 
 4156      524C00
 4157              	.LASF138:
 4158 0352 53595352 		.ascii	"SYSRSTSTAT\000"
 4158      53545354 
 4158      415400
 4159              	.LASF130:
 4160 035d 5359534D 		.ascii	"SYSMEMREMAP\000"
ARM GAS  /tmp/cctKLj6v.s 			page 77


 4160      454D5245 
 4160      4D415000 
 4161              	.LASF127:
 4162 0369 52533438 		.ascii	"RS485DLY\000"
 4162      35444C59 
 4162      00
 4163              	.LASF156:
 4164 0372 55534243 		.ascii	"USBCLKUEN\000"
 4164      4C4B5545 
 4164      4E00
 4165              	.LASF50:
 4166 037c 696E7463 		.ascii	"intctx\000"
 4166      747800
 4167              	.LASF43:
 4168 0383 705F6570 		.ascii	"p_epending\000"
 4168      656E6469 
 4168      6E6700
 4169              	.LASF172:
 4170 038e 55534243 		.ascii	"USBCLKCTRL\000"
 4170      4C4B4354 
 4170      524C00
 4171              	.LASF118:
 4172 0399 52657365 		.ascii	"Reserved5_IRQn\000"
 4172      72766564 
 4172      355F4952 
 4172      516E00
 4173              	.LASF89:
 4174 03a8 464C4558 		.ascii	"FLEX_INT0_IRQn\000"
 4174      5F494E54 
 4174      305F4952 
 4174      516E00
 4175              	.LASF64:
 4176 03b7 65735F6E 		.ascii	"es_next\000"
 4176      65787400 
 4177              	.LASF72:
 4178 03bf 715F636F 		.ascii	"q_counter\000"
 4178      756E7465 
 4178      7200
 4179              	.LASF83:
 4180 03c9 4E6F6E4D 		.ascii	"NonMaskableInt_IRQn\000"
 4180      61736B61 
 4180      626C6549 
 4180      6E745F49 
 4180      52516E00 
 4181              	.LASF63:
 4182 03dd 4576656E 		.ascii	"EventSource\000"
 4182      74536F75 
 4182      72636500 
 4183              	.LASF10:
 4184 03e9 6C6F6E67 		.ascii	"long unsigned int\000"
 4184      20756E73 
 4184      69676E65 
 4184      6420696E 
 4184      7400
 4185              	.LASF122:
 4186 03fb 4844454E 		.ascii	"HDEN\000"
 4186      00
ARM GAS  /tmp/cctKLj6v.s 			page 78


 4187              	.LASF59:
 4188 0400 656C5F6E 		.ascii	"el_next\000"
 4188      65787400 
 4189              	.LASF75:
 4190 0408 715F7772 		.ascii	"q_wrptr\000"
 4190      70747200 
 4191              	.LASF199:
 4192 0410 53657269 		.ascii	"SerialDriverVMT\000"
 4192      616C4472 
 4192      69766572 
 4192      564D5400 
 4193              	.LASF169:
 4194 0420 4952514C 		.ascii	"IRQLATENCY\000"
 4194      4154454E 
 4194      435900
 4195              	.LASF114:
 4196 042b 5744545F 		.ascii	"WDT_IRQn\000"
 4196      4952516E 
 4196      00
 4197              	.LASF129:
 4198 0434 4C50435F 		.ascii	"LPC_USART_Type\000"
 4198      55534152 
 4198      545F5479 
 4198      706500
 4199              	.LASF210:
 4200 0443 73645F6C 		.ascii	"sd_lld_init\000"
 4200      6C645F69 
 4200      6E697400 
 4201              	.LASF184:
 4202 044f 4C50435F 		.ascii	"LPC_SYSCON_Type\000"
 4202      53595343 
 4202      4F4E5F54 
 4202      79706500 
 4203              	.LASF106:
 4204 045f 54494D45 		.ascii	"TIMER_16_1_IRQn\000"
 4204      525F3136 
 4204      5F315F49 
 4204      52516E00 
 4205              	.LASF9:
 4206 046f 5F5F7569 		.ascii	"__uint32_t\000"
 4206      6E743332 
 4206      5F7400
 4207              	.LASF54:
 4208 047a 4D757465 		.ascii	"Mutex\000"
 4208      7800
 4209              	.LASF11:
 4210 0480 6C6F6E67 		.ascii	"long long int\000"
 4210      206C6F6E 
 4210      6720696E 
 4210      7400
 4211              	.LASF94:
 4212 048e 464C4558 		.ascii	"FLEX_INT5_IRQn\000"
 4212      5F494E54 
 4212      355F4952 
 4212      516E00
 4213              	.LASF55:
 4214 049d 6D5F7175 		.ascii	"m_queue\000"
ARM GAS  /tmp/cctKLj6v.s 			page 79


 4214      65756500 
 4215              	.LASF93:
 4216 04a5 464C4558 		.ascii	"FLEX_INT4_IRQn\000"
 4216      5F494E54 
 4216      345F4952 
 4216      516E00
 4217              	.LASF192:
 4218 04b4 69717565 		.ascii	"iqueue\000"
 4218      756500
 4219              	.LASF85:
 4220 04bb 53564361 		.ascii	"SVCall_IRQn\000"
 4220      6C6C5F49 
 4220      52516E00 
 4221              	.LASF226:
 4222 04c7 2F484444 		.ascii	"/HDD/GIT/variometer/Altimeter/\000"
 4222      2F474954 
 4222      2F766172 
 4222      696F6D65 
 4222      7465722F 
 4223              	.LASF183:
 4224 04e6 44455649 		.ascii	"DEVICE_ID\000"
 4224      43455F49 
 4224      4400
 4225              	.LASF79:
 4226 04f0 716E6F74 		.ascii	"qnotify_t\000"
 4226      6966795F 
 4226      7400
 4227              	.LASF209:
 4228 04fa 56656374 		.ascii	"Vector94\000"
 4228      6F723934 
 4228      00
 4229              	.LASF40:
 4230 0503 705F7761 		.ascii	"p_waiting\000"
 4230      6974696E 
 4230      6700
 4231              	.LASF190:
 4232 050d 6576656E 		.ascii	"event\000"
 4232      7400
 4233              	.LASF36:
 4234 0513 705F666C 		.ascii	"p_flags\000"
 4234      61677300 
 4235              	.LASF105:
 4236 051b 54494D45 		.ascii	"TIMER_16_0_IRQn\000"
 4236      525F3136 
 4236      5F305F49 
 4236      52516E00 
 4237              	.LASF201:
 4238 052b 72656164 		.ascii	"read\000"
 4238      00
 4239              	.LASF0:
 4240 0530 756E7369 		.ascii	"unsigned int\000"
 4240      676E6564 
 4240      20696E74 
 4240      00
 4241              	.LASF141:
 4242 053d 53595350 		.ascii	"SYSPLLCLKUEN\000"
 4242      4C4C434C 
ARM GAS  /tmp/cctKLj6v.s 			page 80


 4242      4B55454E 
 4242      00
 4243              	.LASF119:
 4244 054a 55534257 		.ascii	"USBWakeup_IRQn\000"
 4244      616B6575 
 4244      705F4952 
 4244      516E00
 4245              	.LASF92:
 4246 0559 464C4558 		.ascii	"FLEX_INT3_IRQn\000"
 4246      5F494E54 
 4246      335F4952 
 4246      516E00
 4247              	.LASF46:
 4248 0568 705F6D70 		.ascii	"p_mpool\000"
 4248      6F6F6C00 
 4249              	.LASF37:
 4250 0570 705F7265 		.ascii	"p_refs\000"
 4250      667300
 4251              	.LASF218:
 4252 0577 63684F51 		.ascii	"chOQGetI\000"
 4252      47657449 
 4252      00
 4253              	.LASF147:
 4254 0580 53595341 		.ascii	"SYSAHBCLKDIV\000"
 4254      4842434C 
 4254      4B444956 
 4254      00
 4255              	.LASF52:
 4256 058d 494F5245 		.ascii	"IOREG32\000"
 4256      47333200 
 4257              	.LASF100:
 4258 0595 52657365 		.ascii	"Reserved1_IRQn\000"
 4258      72766564 
 4258      315F4952 
 4258      516E00
 4259              	.LASF195:
 4260 05a4 73635F73 		.ascii	"sc_speed\000"
 4260      70656564 
 4260      00
 4261              	.LASF221:
 4262 05ad 5F706F72 		.ascii	"_port_irq_epilogue\000"
 4262      745F6972 
 4262      715F6570 
 4262      696C6F67 
 4262      756500
 4263              	.LASF48:
 4264 05c0 54687265 		.ascii	"ThreadsList\000"
 4264      6164734C 
 4264      69737400 
 4265              	.LASF104:
 4266 05cc 4932435F 		.ascii	"I2C_IRQn\000"
 4266      4952516E 
 4266      00
 4267              	.LASF134:
 4268 05d5 55534250 		.ascii	"USBPLLCTRL\000"
 4268      4C4C4354 
 4268      524C00
ARM GAS  /tmp/cctKLj6v.s 			page 81


 4269              	.LASF25:
 4270 05e0 666C6167 		.ascii	"flagsmask_t\000"
 4270      736D6173 
 4270      6B5F7400 
 4271              	.LASF39:
 4272 05ec 705F7469 		.ascii	"p_time\000"
 4272      6D6500
 4273              	.LASF197:
 4274 05f3 73635F66 		.ascii	"sc_fcr\000"
 4274      637200
 4275              	.LASF146:
 4276 05fa 4D41494E 		.ascii	"MAINCLKUEN\000"
 4276      434C4B55 
 4276      454E00
 4277              	.LASF220:
 4278 0605 63684576 		.ascii	"chEvtBroadcastFlagsI\000"
 4278      7442726F 
 4278      61646361 
 4278      7374466C 
 4278      61677349 
 4279              	.LASF110:
 4280 061a 55415254 		.ascii	"UART_IRQn\000"
 4280      5F495251 
 4280      6E00
 4281              	.LASF225:
 4282 0624 43686962 		.ascii	"ChibiOS_2.6.5/os/hal/platforms/LPC11Uxx/serial_lld."
 4282      694F535F 
 4282      322E362E 
 4282      352F6F73 
 4282      2F68616C 
 4283 0657 6300     		.ascii	"c\000"
 4284              	.LASF136:
 4285 0659 5359534F 		.ascii	"SYSOSCCTRL\000"
 4285      53434354 
 4285      524C00
 4286              	.LASF45:
 4287 0664 705F7265 		.ascii	"p_realprio\000"
 4287      616C7072 
 4287      696F00
 4288              	.LASF128:
 4289 066f 53594E43 		.ascii	"SYNCCTRL\000"
 4289      4354524C 
 4289      00
 4290              	.LASF96:
 4291 0678 464C4558 		.ascii	"FLEX_INT7_IRQn\000"
 4291      5F494E54 
 4291      375F4952 
 4291      516E00
 4292              	.LASF125:
 4293 0687 52533438 		.ascii	"RS485CTRL\000"
 4293      35435452 
 4293      4C00
 4294              	.LASF116:
 4295 0691 464D435F 		.ascii	"FMC_IRQn\000"
 4295      4952516E 
 4295      00
 4296              	.LASF155:
ARM GAS  /tmp/cctKLj6v.s 			page 82


 4297 069a 55534243 		.ascii	"USBCLKSEL\000"
 4297      4C4B5345 
 4297      4C00
 4298              	.LASF12:
 4299 06a4 6C6F6E67 		.ascii	"long long unsigned int\000"
 4299      206C6F6E 
 4299      6720756E 
 4299      7369676E 
 4299      65642069 
 4300              	.LASF33:
 4301 06bb 705F6F6C 		.ascii	"p_older\000"
 4301      64657200 
 4302              	.LASF23:
 4303 06c3 6D73675F 		.ascii	"msg_t\000"
 4303      7400
 4304              	.LASF168:
 4305 06c9 52455345 		.ascii	"RESERVED10\000"
 4305      52564544 
 4305      313000
 4306              	.LASF82:
 4307 06d4 52657365 		.ascii	"Reset_IRQn\000"
 4307      745F4952 
 4307      516E00
 4308              	.LASF176:
 4309 06df 52455345 		.ascii	"RESERVED12\000"
 4309      52564544 
 4309      313200
 4310              	.LASF178:
 4311 06ea 52455345 		.ascii	"RESERVED13\000"
 4311      52564544 
 4311      313300
 4312              	.LASF182:
 4313 06f5 52455345 		.ascii	"RESERVED14\000"
 4313      52564544 
 4313      313400
 4314              	.LASF21:
 4315 0700 74736C69 		.ascii	"tslices_t\000"
 4315      6365735F 
 4315      7400
 4316              	.LASF149:
 4317 070a 53595341 		.ascii	"SYSAHBCLKCTRL\000"
 4317      4842434C 
 4317      4B435452 
 4317      4C00
 4318              	.LASF113:
 4319 0718 4144435F 		.ascii	"ADC_IRQn\000"
 4319      4952516E 
 4319      00
 4320              	.LASF131:
 4321 0721 50524553 		.ascii	"PRESETCTRL\000"
 4321      45544354 
 4321      524C00
 4322              	.LASF95:
 4323 072c 464C4558 		.ascii	"FLEX_INT6_IRQn\000"
 4323      5F494E54 
 4323      365F4952 
 4323      516E00
ARM GAS  /tmp/cctKLj6v.s 			page 83


 4324              	.LASF124:
 4325 073b 53434943 		.ascii	"SCICTRL\000"
 4325      54524C00 
 4326              	.LASF117:
 4327 0743 52657365 		.ascii	"Reserved4_IRQn\000"
 4327      72766564 
 4327      345F4952 
 4327      516E00
 4328              	.LASF71:
 4329 0752 715F7761 		.ascii	"q_waiting\000"
 4329      6974696E 
 4329      6700
 4330              	.LASF18:
 4331 075c 746D6F64 		.ascii	"tmode_t\000"
 4331      655F7400 
 4332              	.LASF188:
 4333 0764 73647374 		.ascii	"sdstate_t\000"
 4333      6174655F 
 4333      7400
 4334              	.LASF86:
 4335 076e 44656275 		.ascii	"DebugMonitor_IRQn\000"
 4335      674D6F6E 
 4335      69746F72 
 4335      5F495251 
 4335      6E00
 4336              	.LASF187:
 4337 0780 53445F52 		.ascii	"SD_READY\000"
 4337      45414459 
 4337      00
 4338              	.LASF227:
 4339 0789 6E6F7469 		.ascii	"notify1\000"
 4339      66793100 
 4340              	.LASF143:
 4341 0791 55534250 		.ascii	"USBPLLCLKUEN\000"
 4341      4C4C434C 
 4341      4B55454E 
 4341      00
 4342              	.LASF159:
 4343 079e 434C4B4F 		.ascii	"CLKOUTSEL\000"
 4343      55545345 
 4343      4C00
 4344              	.LASF163:
 4345 07a8 50494F50 		.ascii	"PIOPORCAP0\000"
 4345      4F524341 
 4345      503000
 4346              	.LASF164:
 4347 07b3 50494F50 		.ascii	"PIOPORCAP1\000"
 4347      4F524341 
 4347      503100
 4348              	.LASF5:
 4349 07be 73686F72 		.ascii	"short int\000"
 4349      7420696E 
 4349      7400
 4350              	.LASF102:
 4351 07c8 52657365 		.ascii	"Reserved3_IRQn\000"
 4351      72766564 
 4351      335F4952 
ARM GAS  /tmp/cctKLj6v.s 			page 84


 4351      516E00
 4352              	.LASF97:
 4353 07d7 47494E54 		.ascii	"GINT0_IRQn\000"
 4353      305F4952 
 4353      516E00
 4354              	.LASF194:
 4355 07e2 75617274 		.ascii	"uart\000"
 4355      00
 4356              	.LASF191:
 4357 07e7 73746174 		.ascii	"state\000"
 4357      6500
 4358              	.LASF175:
 4359 07ed 53544152 		.ascii	"STARTERP0\000"
 4359      54455250 
 4359      3000
 4360              	.LASF177:
 4361 07f7 53544152 		.ascii	"STARTERP1\000"
 4361      54455250 
 4361      3100
 4362              	.LASF98:
 4363 0801 47494E54 		.ascii	"GINT1_IRQn\000"
 4363      315F4952 
 4363      516E00
 4364              	.LASF196:
 4365 080c 73635F6C 		.ascii	"sc_lcr\000"
 4365      637200
 4366              	.LASF16:
 4367 0813 626F6F6C 		.ascii	"bool_t\000"
 4367      5F7400
 4368              	.LASF115:
 4369 081a 424F445F 		.ascii	"BOD_IRQn\000"
 4369      4952516E 
 4369      00
 4370              	.LASF170:
 4371 0823 4E4D4953 		.ascii	"NMISRC\000"
 4371      524300
 4372              	.LASF27:
 4373 082a 54687265 		.ascii	"Thread\000"
 4373      616400
 4374              	.LASF133:
 4375 0831 53595350 		.ascii	"SYSPLLSTAT\000"
 4375      4C4C5354 
 4375      415400
 4376              	.LASF151:
 4377 083c 53535030 		.ascii	"SSP0CLKDIV\000"
 4377      434C4B44 
 4377      495600
 4378              	.LASF20:
 4379 0847 74726566 		.ascii	"trefs_t\000"
 4379      735F7400 
 4380              	.LASF58:
 4381 084f 4576656E 		.ascii	"EventListener\000"
 4381      744C6973 
 4381      74656E65 
 4381      7200
 4382              	.LASF223:
 4383 085d 6E766963 		.ascii	"nvicEnableVector\000"
ARM GAS  /tmp/cctKLj6v.s 			page 85


 4383      456E6162 
 4383      6C655665 
 4383      63746F72 
 4383      00
 4384              	.LASF15:
 4385 086e 75696E74 		.ascii	"uint32_t\000"
 4385      33325F74 
 4385      00
 4386              	.LASF112:
 4387 0877 5553425F 		.ascii	"USB_FIQn\000"
 4387      4649516E 
 4387      00
 4388              	.LASF47:
 4389 0880 54687265 		.ascii	"ThreadsQueue\000"
 4389      61647351 
 4389      75657565 
 4389      00
 4390              	.LASF137:
 4391 088d 5744544F 		.ascii	"WDTOSCCTRL\000"
 4391      53434354 
 4391      524C00
 4392              	.LASF161:
 4393 0898 434C4B4F 		.ascii	"CLKOUTDIV\000"
 4393      55544449 
 4393      5600
 4394              	.LASF65:
 4395 08a2 7264796D 		.ascii	"rdymsg\000"
 4395      736700
 4396              	.LASF153:
 4397 08a9 53535031 		.ascii	"SSP1CLKDIV\000"
 4397      434C4B44 
 4397      495600
 4398              	.LASF6:
 4399 08b4 73686F72 		.ascii	"short unsigned int\000"
 4399      7420756E 
 4399      7369676E 
 4399      65642069 
 4399      6E7400
 4400              	.LASF215:
 4401 08c7 73645F6C 		.ascii	"sd_lld_stop\000"
 4401      6C645F73 
 4401      746F7000 
 4402              	.LASF174:
 4403 08d3 52455345 		.ascii	"RESERVED11\000"
 4403      52564544 
 4403      313100
 4404              	.LASF80:
 4405 08de 496E7075 		.ascii	"InputQueue\000"
 4405      74517565 
 4405      756500
 4406              	.LASF87:
 4407 08e9 50656E64 		.ascii	"PendSV_IRQn\000"
 4407      53565F49 
 4407      52516E00 
 4408              	.LASF224:
 4409 08f5 474E5520 		.ascii	"GNU C 4.8.4 20140526 (release) [ARM/embedded-4_8-br"
 4409      4320342E 
ARM GAS  /tmp/cctKLj6v.s 			page 86


 4409      382E3420 
 4409      32303134 
 4409      30353236 
 4410 0928 616E6368 		.ascii	"anch revision 211358] -mcpu=cortex-m0 -mno-thumb-in"
 4410      20726576 
 4410      6973696F 
 4410      6E203231 
 4410      31333538 
 4411 095b 74657277 		.ascii	"terwork -mthumb -ggdb -O1 -fomit-frame-pointer -ffu"
 4411      6F726B20 
 4411      2D6D7468 
 4411      756D6220 
 4411      2D676764 
 4412 098e 6E637469 		.ascii	"nction-sections -fdata-sections -fno-common\000"
 4412      6F6E2D73 
 4412      65637469 
 4412      6F6E7320 
 4412      2D666461 
 4413              	.LASF91:
 4414 09ba 464C4558 		.ascii	"FLEX_INT2_IRQn\000"
 4414      5F494E54 
 4414      325F4952 
 4414      516E00
 4415              	.LASF7:
 4416 09c9 5F5F696E 		.ascii	"__int32_t\000"
 4416      7433325F 
 4416      7400
 4417              	.LASF186:
 4418 09d3 53445F53 		.ascii	"SD_STOP\000"
 4418      544F5000 
 4419              	.LASF167:
 4420 09db 53595354 		.ascii	"SYSTCKCAL\000"
 4420      434B4341 
 4420      4C00
 4421              	.LASF61:
 4422 09e5 656C5F6D 		.ascii	"el_mask\000"
 4422      61736B00 
 4423              	.LASF206:
 4424 09ed 7072656C 		.ascii	"preload\000"
 4424      6F616400 
 4425              	.LASF84:
 4426 09f5 48617264 		.ascii	"HardFault_IRQn\000"
 4426      4661756C 
 4426      745F4952 
 4426      516E00
 4427              	.LASF173:
 4428 0a04 55534243 		.ascii	"USBCLKST\000"
 4428      4C4B5354 
 4428      00
 4429              	.LASF99:
 4430 0a0d 52657365 		.ascii	"Reserved0_IRQn\000"
 4430      72766564 
 4430      305F4952 
 4430      516E00
 4431              	.LASF34:
 4432 0a1c 705F6E61 		.ascii	"p_name\000"
 4432      6D6500
ARM GAS  /tmp/cctKLj6v.s 			page 87


 4433              	.LASF57:
 4434 0a23 6D5F6E65 		.ascii	"m_next\000"
 4434      787400
 4435              	.LASF135:
 4436 0a2a 55534250 		.ascii	"USBPLLSTAT\000"
 4436      4C4C5354 
 4436      415400
 4437              	.LASF142:
 4438 0a35 55534250 		.ascii	"USBPLLCLKSEL\000"
 4438      4C4C434C 
 4438      4B53454C 
 4438      00
 4439              	.LASF120:
 4440 0a42 52657365 		.ascii	"Reserved6_IRQn\000"
 4440      72766564 
 4440      365F4952 
 4440      516E00
 4441              	.LASF42:
 4442 0a51 705F6D73 		.ascii	"p_msg\000"
 4442      6700
 4443              	.LASF60:
 4444 0a57 656C5F6C 		.ascii	"el_listener\000"
 4444      69737465 
 4444      6E657200 
 4445              	.LASF35:
 4446 0a63 705F7374 		.ascii	"p_state\000"
 4446      61746500 
 4447              		.ident	"GCC: (GNU Tools for ARM Embedded Processors) 4.8.4 20140526 (release) [ARM/embedded-4_8-br
ARM GAS  /tmp/cctKLj6v.s 			page 88


DEFINED SYMBOLS
                            *ABS*:00000000 serial_lld.c
     /tmp/cctKLj6v.s:18     .text.notify1:00000000 $t
     /tmp/cctKLj6v.s:22     .text.notify1:00000000 notify1
     /tmp/cctKLj6v.s:96     .text.notify1:0000003c $d
     /tmp/cctKLj6v.s:101    .text.Vector94:00000000 $t
     /tmp/cctKLj6v.s:106    .text.Vector94:00000000 Vector94
     /tmp/cctKLj6v.s:166    .rodata.Vector94:00000000 $d
     /tmp/cctKLj6v.s:390    .text.Vector94:000000f4 $d
     /tmp/cctKLj6v.s:396    .text.sd_lld_init:00000000 $t
     /tmp/cctKLj6v.s:401    .text.sd_lld_init:00000000 sd_lld_init
     /tmp/cctKLj6v.s:425    .text.sd_lld_init:00000014 $d
     /tmp/cctKLj6v.s:433    .text.sd_lld_start:00000000 $t
     /tmp/cctKLj6v.s:438    .text.sd_lld_start:00000000 sd_lld_start
     /tmp/cctKLj6v.s:536    .text.sd_lld_start:00000068 $d
     /tmp/cctKLj6v.s:544    .text.sd_lld_stop:00000000 $t
     /tmp/cctKLj6v.s:549    .text.sd_lld_stop:00000000 sd_lld_stop
     /tmp/cctKLj6v.s:620    .text.sd_lld_stop:00000048 $d
     /tmp/cctKLj6v.s:641    .bss.SD1:00000000 SD1
     /tmp/cctKLj6v.s:628    .rodata.default_config:00000000 $d
     /tmp/cctKLj6v.s:632    .rodata.default_config:00000000 default_config
     /tmp/cctKLj6v.s:637    .bss.SD1:00000000 $d
                     .debug_frame:00000010 $d

UNDEFINED SYMBOLS
chOQGetI
chEvtBroadcastFlagsI
chIQPutI
_port_irq_epilogue
sdObjectInit
__aeabi_uidiv
nvicEnableVector
nvicDisableVector
