ARM GAS  /tmp/cctKLj6v.s 			page 1


   1              		.cpu cortex-m0
   2              		.fpu softvfp
   3              		.eabi_attribute 20, 1
   4              		.eabi_attribute 21, 1
   5              		.eabi_attribute 23, 3
   6              		.eabi_attribute 24, 1
   7              		.eabi_attribute 25, 1
   8              		.eabi_attribute 26, 1
   9              		.eabi_attribute 30, 1
  10              		.eabi_attribute 34, 0
  11              		.eabi_attribute 18, 4
  12              		.code	16
  13              		.file	"serial_lld.c"
  14              		.text
  15              	.Ltext0:
  16              		.cfi_sections	.debug_frame
  17              		.section	.text.notify1,"ax",%progbits
  18              		.align	2
  19              		.code	16
  20              		.thumb_func
  21              		.type	notify1, %function
  22              	notify1:
  23              	.LFB44:
  24              		.file 1 "ChibiOS_2.6.5/os/hal/platforms/LPC11Uxx/serial_lld.c"
  25              		.loc 1 198 0
  26              		.cfi_startproc
  27              	.LVL0:
  28 0000 70B5     		push	{r4, r5, r6, lr}
  29              		.cfi_def_cfa_offset 16
  30              		.cfi_offset 4, -16
  31              		.cfi_offset 5, -12
  32              		.cfi_offset 6, -8
  33              		.cfi_offset 14, -4
  34              	.LVL1:
  35              	.LBB6:
  36              	.LBB7:
  37              		.loc 1 178 0
  38 0002 0E4B     		ldr	r3, .L6
  39 0004 5D6F     		ldr	r5, [r3, #116]
  40              	.LVL2:
  41              		.loc 1 180 0
  42 0006 6B69     		ldr	r3, [r5, #20]
  43 0008 9A06     		lsl	r2, r3, #26
  44 000a 11D5     		bpl	.L2
  45 000c 1024     		mov	r4, #16
  46              	.LBB8:
  47              	.LBB9:
  48              		.loc 1 183 0
  49 000e 0B4E     		ldr	r6, .L6
  50 0010 3036     		add	r6, r6, #48
  51              	.LVL3:
  52              	.L5:
  53 0012 301C     		mov	r0, r6
  54 0014 FFF7FEFF 		bl	chOQGetI
  55              	.LVL4:
  56              		.loc 1 184 0
  57 0018 0028     		cmp	r0, #0
ARM GAS  /tmp/cctKLj6v.s 			page 2


  58 001a 05DA     		bge	.L3
  59              		.loc 1 185 0
  60 001c 0748     		ldr	r0, .L6
  61              	.LVL5:
  62 001e 0430     		add	r0, r0, #4
  63 0020 0821     		mov	r1, #8
  64 0022 FFF7FEFF 		bl	chEvtBroadcastFlagsI
  65              	.LVL6:
  66 0026 07E0     		b	.L1
  67              	.LVL7:
  68              	.L3:
  69              		.loc 1 188 0
  70 0028 2860     		str	r0, [r5]
  71              	.LVL8:
  72 002a 013C     		sub	r4, r4, #1
  73              	.LVL9:
  74              	.LBE9:
  75              		.loc 1 189 0
  76 002c 002C     		cmp	r4, #0
  77 002e F0D1     		bne	.L5
  78              	.LVL10:
  79              	.L2:
  80              	.LBE8:
  81              		.loc 1 191 0
  82 0030 6A68     		ldr	r2, [r5, #4]
  83 0032 0223     		mov	r3, #2
  84 0034 1343     		orr	r3, r2
  85 0036 6B60     		str	r3, [r5, #4]
  86              	.L1:
  87              	.LBE7:
  88              	.LBE6:
  89              		.loc 1 202 0
  90              		@ sp needed
  91              	.LVL11:
  92 0038 70BD     		pop	{r4, r5, r6, pc}
  93              	.L7:
  94 003a C046     		.align	2
  95              	.L6:
  96 003c 00000000 		.word	.LANCHOR0
  97              		.cfi_endproc
  98              	.LFE44:
  99              		.size	notify1, .-notify1
 100              		.section	.text.Vector94,"ax",%progbits
 101              		.align	2
 102              		.global	Vector94
 103              		.code	16
 104              		.thumb_func
 105              		.type	Vector94, %function
 106              	Vector94:
 107              	.LFB45:
 108              		.loc 1 215 0
 109              		.cfi_startproc
 110 0000 F8B5     		push	{r3, r4, r5, r6, r7, lr}
 111              		.cfi_def_cfa_offset 24
 112              		.cfi_offset 3, -24
 113              		.cfi_offset 4, -20
 114              		.cfi_offset 5, -16
ARM GAS  /tmp/cctKLj6v.s 			page 3


 115              		.cfi_offset 6, -12
 116              		.cfi_offset 7, -8
 117              		.cfi_offset 14, -4
 118 0002 5F46     		mov	r7, fp
 119 0004 5646     		mov	r6, r10
 120 0006 4D46     		mov	r5, r9
 121 0008 4446     		mov	r4, r8
 122 000a F0B4     		push	{r4, r5, r6, r7}
 123              		.cfi_def_cfa_offset 40
 124              		.cfi_offset 8, -40
 125              		.cfi_offset 9, -36
 126              		.cfi_offset 10, -32
 127              		.cfi_offset 11, -28
 128              		.loc 1 217 0
 129              	@ 217 "ChibiOS_2.6.5/os/hal/platforms/LPC11Uxx/serial_lld.c" 1
 130 000c F046     		mov     r8, lr
 131              	@ 0 "" 2
 132              	.LVL12:
 133              		.code	16
 134              	.LBB16:
 135              	.LBB17:
 136              		.loc 1 125 0
 137 000e 394B     		ldr	r3, .L27
 138 0010 5C6F     		ldr	r4, [r3, #116]
 139              	.LVL13:
 140              		.loc 1 128 0
 141 0012 394E     		ldr	r6, .L27+4
 142              	.LBB18:
 143              	.LBB19:
 144              		.loc 1 154 0
 145 0014 1F1C     		mov	r7, r3
 146 0016 3037     		add	r7, r7, #48
 147              		.loc 1 159 0
 148 0018 9A46     		mov	r10, r3
 149 001a 0422     		mov	r2, #4
 150 001c 9244     		add	r10, r10, r2
 151              	.LBE19:
 152              	.LBE18:
 153              		.loc 1 137 0
 154 001e 9946     		mov	r9, r3
 155              	.L9:
 156              		.loc 1 128 0
 157 0020 A368     		ldr	r3, [r4, #8]
 158 0022 0F22     		mov	r2, #15
 159 0024 1340     		and	r3, r2
 160 0026 0C2B     		cmp	r3, #12
 161 0028 57D8     		bhi	.L10
 162 002a 9B00     		lsl	r3, r3, #2
 163 002c F358     		ldr	r3, [r6, r3]
 164 002e 9F46     		mov	pc, r3
 165              		.section	.rodata.Vector94,"a",%progbits
 166              		.align	2
 167              	.L12:
 168 0000 DA000000 		.word	.L10
 169 0004 E0000000 		.word	.L11
 170 0008 AA000000 		.word	.L13
 171 000c DA000000 		.word	.L10
ARM GAS  /tmp/cctKLj6v.s 			page 4


 172 0010 60000000 		.word	.L14
 173 0014 DA000000 		.word	.L10
 174 0018 30000000 		.word	.L15
 175 001c DA000000 		.word	.L10
 176 0020 DA000000 		.word	.L10
 177 0024 DA000000 		.word	.L10
 178 0028 DA000000 		.word	.L10
 179 002c DA000000 		.word	.L10
 180 0030 60000000 		.word	.L14
 181              		.section	.text.Vector94
 182              	.L15:
 183              		.loc 1 132 0
 184 0030 6369     		ldr	r3, [r4, #20]
 185              	.LVL14:
 186              	.LBB21:
 187              	.LBB22:
 188              		.loc 1 102 0
 189 0032 9907     		lsl	r1, r3, #30
 190              		.loc 1 100 0
 191 0034 C90F     		lsr	r1, r1, #31
 192 0036 C901     		lsl	r1, r1, #7
 193              	.LVL15:
 194              		.loc 1 104 0
 195 0038 5A07     		lsl	r2, r3, #29
 196 003a 01D5     		bpl	.L17
 197              		.loc 1 105 0
 198 003c 2022     		mov	r2, #32
 199 003e 1143     		orr	r1, r2
 200              	.LVL16:
 201              	.L17:
 202              		.loc 1 106 0
 203 0040 1A07     		lsl	r2, r3, #28
 204 0042 01D5     		bpl	.L18
 205              		.loc 1 107 0
 206 0044 4022     		mov	r2, #64
 207 0046 1143     		orr	r1, r2
 208              	.LVL17:
 209              	.L18:
 210              		.loc 1 108 0
 211 0048 DA06     		lsl	r2, r3, #27
 212 004a 02D5     		bpl	.L19
 213              		.loc 1 109 0
 214 004c 8023     		mov	r3, #128
 215              	.LVL18:
 216 004e 9B00     		lsl	r3, r3, #2
 217 0050 1943     		orr	r1, r3
 218              	.LVL19:
 219              	.L19:
 220              		.loc 1 110 0
 221              	@ 110 "ChibiOS_2.6.5/os/hal/platforms/LPC11Uxx/serial_lld.c" 1
 222 0052 72B6     		cpsid   i
 223              	@ 0 "" 2
 224              		.loc 1 111 0
 225              		.code	16
 226 0054 2748     		ldr	r0, .L27
 227 0056 0430     		add	r0, r0, #4
 228 0058 FFF7FEFF 		bl	chEvtBroadcastFlagsI
ARM GAS  /tmp/cctKLj6v.s 			page 5


 229              	.LVL20:
 230              		.loc 1 112 0
 231              	@ 112 "ChibiOS_2.6.5/os/hal/platforms/LPC11Uxx/serial_lld.c" 1
 232 005c 62B6     		cpsie   i
 233              	@ 0 "" 2
 234              		.code	16
 235 005e DFE7     		b	.L9
 236              	.LVL21:
 237              	.L14:
 238              	.LBE22:
 239              	.LBE21:
 240              		.loc 1 136 0
 241              	@ 136 "ChibiOS_2.6.5/os/hal/platforms/LPC11Uxx/serial_lld.c" 1
 242 0060 72B6     		cpsid   i
 243              	@ 0 "" 2
 244              		.loc 1 137 0
 245              		.code	16
 246 0062 4B46     		mov	r3, r9
 247 0064 5B69     		ldr	r3, [r3, #20]
 248 0066 002B     		cmp	r3, #0
 249 0068 04D1     		bne	.L21
 250              		.loc 1 138 0
 251 006a 2248     		ldr	r0, .L27
 252 006c 0430     		add	r0, r0, #4
 253 006e 0421     		mov	r1, #4
 254 0070 FFF7FEFF 		bl	chEvtBroadcastFlagsI
 255              	.LVL22:
 256              	.L21:
 257              		.loc 1 139 0
 258              	@ 139 "ChibiOS_2.6.5/os/hal/platforms/LPC11Uxx/serial_lld.c" 1
 259 0074 62B6     		cpsie   i
 260              	@ 0 "" 2
 261              		.loc 1 140 0
 262              		.code	16
 263 0076 6369     		ldr	r3, [r4, #20]
 264 0078 DA07     		lsl	r2, r3, #31
 265 007a D1D5     		bpl	.L9
 266              		.loc 1 142 0
 267 007c 1D4D     		ldr	r5, .L27
 268 007e 0C35     		add	r5, r5, #12
 269              		.loc 1 143 0
 270 0080 1C4B     		ldr	r3, .L27
 271 0082 9B46     		mov	fp, r3
 272 0084 0423     		mov	r3, #4
 273 0086 9B44     		add	fp, fp, r3
 274              	.L23:
 275              		.loc 1 141 0
 276              	@ 141 "ChibiOS_2.6.5/os/hal/platforms/LPC11Uxx/serial_lld.c" 1
 277 0088 72B6     		cpsid   i
 278              	@ 0 "" 2
 279              		.loc 1 142 0
 280              		.code	16
 281 008a 2168     		ldr	r1, [r4]
 282 008c C9B2     		uxtb	r1, r1
 283 008e 281C     		mov	r0, r5
 284 0090 FFF7FEFF 		bl	chIQPutI
 285              	.LVL23:
ARM GAS  /tmp/cctKLj6v.s 			page 6


 286 0094 0028     		cmp	r0, #0
 287 0096 03DA     		bge	.L22
 288              		.loc 1 143 0
 289 0098 5846     		mov	r0, fp
 290 009a 8021     		mov	r1, #128
 291 009c FFF7FEFF 		bl	chEvtBroadcastFlagsI
 292              	.LVL24:
 293              	.L22:
 294              		.loc 1 144 0
 295              	@ 144 "ChibiOS_2.6.5/os/hal/platforms/LPC11Uxx/serial_lld.c" 1
 296 00a0 62B6     		cpsie   i
 297              	@ 0 "" 2
 298              		.loc 1 140 0
 299              		.code	16
 300 00a2 6369     		ldr	r3, [r4, #20]
 301 00a4 DA07     		lsl	r2, r3, #31
 302 00a6 EFD4     		bmi	.L23
 303 00a8 BAE7     		b	.L9
 304              	.L13:
 305              		.loc 1 128 0
 306 00aa 1025     		mov	r5, #16
 307              	.L25:
 308              	.LVL25:
 309              	.LBB23:
 310              	.LBB20:
 311              		.loc 1 153 0
 312              	@ 153 "ChibiOS_2.6.5/os/hal/platforms/LPC11Uxx/serial_lld.c" 1
 313 00ac 72B6     		cpsid   i
 314              	@ 0 "" 2
 315              		.loc 1 154 0
 316              		.code	16
 317 00ae 381C     		mov	r0, r7
 318 00b0 FFF7FEFF 		bl	chOQGetI
 319              	.LVL26:
 320              		.loc 1 155 0
 321              	@ 155 "ChibiOS_2.6.5/os/hal/platforms/LPC11Uxx/serial_lld.c" 1
 322 00b4 62B6     		cpsie   i
 323              	@ 0 "" 2
 324              		.loc 1 156 0
 325              		.code	16
 326 00b6 0028     		cmp	r0, #0
 327 00b8 0ADA     		bge	.L24
 328              		.loc 1 157 0
 329 00ba 6368     		ldr	r3, [r4, #4]
 330 00bc 0222     		mov	r2, #2
 331 00be 9343     		bic	r3, r2
 332 00c0 6360     		str	r3, [r4, #4]
 333              		.loc 1 158 0
 334              	@ 158 "ChibiOS_2.6.5/os/hal/platforms/LPC11Uxx/serial_lld.c" 1
 335 00c2 72B6     		cpsid   i
 336              	@ 0 "" 2
 337              		.loc 1 159 0
 338              		.code	16
 339 00c4 5046     		mov	r0, r10
 340              	.LVL27:
 341 00c6 0821     		mov	r1, #8
 342 00c8 FFF7FEFF 		bl	chEvtBroadcastFlagsI
ARM GAS  /tmp/cctKLj6v.s 			page 7


 343              	.LVL28:
 344              		.loc 1 160 0
 345              	@ 160 "ChibiOS_2.6.5/os/hal/platforms/LPC11Uxx/serial_lld.c" 1
 346 00cc 62B6     		cpsie   i
 347              	@ 0 "" 2
 348              		.code	16
 349 00ce A7E7     		b	.L9
 350              	.LVL29:
 351              	.L24:
 352              		.loc 1 163 0
 353 00d0 2060     		str	r0, [r4]
 354              	.LVL30:
 355 00d2 013D     		sub	r5, r5, #1
 356              	.LVL31:
 357              	.LBE20:
 358              		.loc 1 164 0
 359 00d4 002D     		cmp	r5, #0
 360 00d6 E9D1     		bne	.L25
 361 00d8 A2E7     		b	.L9
 362              	.LVL32:
 363              	.L10:
 364              	.LBE23:
 365              		.loc 1 168 0
 366 00da 2368     		ldr	r3, [r4]
 367              		.loc 1 169 0
 368 00dc 2368     		ldr	r3, [r4]
 369 00de 9FE7     		b	.L9
 370              	.L11:
 371              	.LBE17:
 372              	.LBE16:
 373              		.loc 1 221 0
 374 00e0 4046     		mov	r0, r8
 375 00e2 FFF7FEFF 		bl	_port_irq_epilogue
 376              	.LVL33:
 377              		.loc 1 222 0
 378              		@ sp needed
 379              	.LVL34:
 380              	.LVL35:
 381 00e6 3CBC     		pop	{r2, r3, r4, r5}
 382 00e8 9046     		mov	r8, r2
 383 00ea 9946     		mov	r9, r3
 384 00ec A246     		mov	r10, r4
 385 00ee AB46     		mov	fp, r5
 386 00f0 F8BD     		pop	{r3, r4, r5, r6, r7, pc}
 387              	.L28:
 388 00f2 C046     		.align	2
 389              	.L27:
 390 00f4 00000000 		.word	.LANCHOR0
 391 00f8 00000000 		.word	.L12
 392              		.cfi_endproc
 393              	.LFE45:
 394              		.size	Vector94, .-Vector94
 395              		.section	.text.sd_lld_init,"ax",%progbits
 396              		.align	2
 397              		.global	sd_lld_init
 398              		.code	16
 399              		.thumb_func
ARM GAS  /tmp/cctKLj6v.s 			page 8


 400              		.type	sd_lld_init, %function
 401              	sd_lld_init:
 402              	.LFB46:
 403              		.loc 1 234 0
 404              		.cfi_startproc
 405 0000 10B5     		push	{r4, lr}
 406              		.cfi_def_cfa_offset 8
 407              		.cfi_offset 4, -8
 408              		.cfi_offset 14, -4
 409              		.loc 1 237 0
 410 0002 044C     		ldr	r4, .L30
 411 0004 201C     		mov	r0, r4
 412 0006 0021     		mov	r1, #0
 413 0008 034A     		ldr	r2, .L30+4
 414 000a FFF7FEFF 		bl	sdObjectInit
 415              	.LVL36:
 416              		.loc 1 238 0
 417 000e 034B     		ldr	r3, .L30+8
 418 0010 6367     		str	r3, [r4, #116]
 419              		.loc 1 240 0
 420              		@ sp needed
 421 0012 10BD     		pop	{r4, pc}
 422              	.L31:
 423              		.align	2
 424              	.L30:
 425 0014 00000000 		.word	.LANCHOR0
 426 0018 00000000 		.word	notify1
 427 001c 00800040 		.word	1073774592
 428              		.cfi_endproc
 429              	.LFE46:
 430              		.size	sd_lld_init, .-sd_lld_init
 431              		.global	__aeabi_uidiv
 432              		.section	.text.sd_lld_start,"ax",%progbits
 433              		.align	2
 434              		.global	sd_lld_start
 435              		.code	16
 436              		.thumb_func
 437              		.type	sd_lld_start, %function
 438              	sd_lld_start:
 439              	.LFB47:
 440              		.loc 1 252 0
 441              		.cfi_startproc
 442              	.LVL37:
 443 0000 38B5     		push	{r3, r4, r5, lr}
 444              		.cfi_def_cfa_offset 16
 445              		.cfi_offset 3, -16
 446              		.cfi_offset 4, -12
 447              		.cfi_offset 5, -8
 448              		.cfi_offset 14, -4
 449 0002 041C     		mov	r4, r0
 450 0004 0D1E     		sub	r5, r1, #0
 451              		.loc 1 254 0
 452 0006 00D1     		bne	.L33
 453              		.loc 1 255 0
 454 0008 174D     		ldr	r5, .L36
 455              	.L33:
 456              	.LVL38:
ARM GAS  /tmp/cctKLj6v.s 			page 9


 457              		.loc 1 257 0
 458 000a 237A     		ldrb	r3, [r4, #8]
 459 000c 012B     		cmp	r3, #1
 460 000e 10D1     		bne	.L34
 461              		.loc 1 259 0
 462 0010 164B     		ldr	r3, .L36+4
 463 0012 9C42     		cmp	r4, r3
 464 0014 0DD1     		bne	.L34
 465              		.loc 1 260 0
 466 0016 164B     		ldr	r3, .L36+8
 467 0018 8022     		mov	r2, #128
 468 001a 9858     		ldr	r0, [r3, r2]
 469              	.LVL39:
 470 001c 8021     		mov	r1, #128
 471 001e 4901     		lsl	r1, r1, #5
 472 0020 0143     		orr	r1, r0
 473 0022 9950     		str	r1, [r3, r2]
 474              		.loc 1 261 0
 475 0024 0121     		mov	r1, #1
 476 0026 9822     		mov	r2, #152
 477 0028 9950     		str	r1, [r3, r2]
 478              		.loc 1 262 0
 479 002a 1520     		mov	r0, #21
 480 002c C021     		mov	r1, #192
 481 002e FFF7FEFF 		bl	nvicEnableVector
 482              	.LVL40:
 483              	.L34:
 484              	.LBB26:
 485              	.LBB27:
 486              		.loc 1 61 0
 487 0032 646F     		ldr	r4, [r4, #116]
 488              	.LVL41:
 489              		.loc 1 63 0
 490 0034 2A68     		ldr	r2, [r5]
 491 0036 1101     		lsl	r1, r2, #4
 492 0038 0E48     		ldr	r0, .L36+12
 493 003a FFF7FEFF 		bl	__aeabi_uidiv
 494              	.LVL42:
 495              		.loc 1 64 0
 496 003e 8023     		mov	r3, #128
 497 0040 6A68     		ldr	r2, [r5, #4]
 498 0042 1A43     		orr	r2, r3
 499 0044 E260     		str	r2, [r4, #12]
 500              		.loc 1 65 0
 501 0046 2060     		str	r0, [r4]
 502              		.loc 1 66 0
 503 0048 000A     		lsr	r0, r0, #8
 504              	.LVL43:
 505 004a 6060     		str	r0, [r4, #4]
 506              	.LVL44:
 507              		.loc 1 67 0
 508 004c 6A68     		ldr	r2, [r5, #4]
 509 004e E260     		str	r2, [r4, #12]
 510              		.loc 1 68 0
 511 0050 AA68     		ldr	r2, [r5, #8]
 512 0052 0721     		mov	r1, #7
 513 0054 0A43     		orr	r2, r1
ARM GAS  /tmp/cctKLj6v.s 			page 10


 514 0056 A260     		str	r2, [r4, #8]
 515              		.loc 1 69 0
 516 0058 0022     		mov	r2, #0
 517 005a 2262     		str	r2, [r4, #32]
 518              		.loc 1 70 0
 519 005c 1022     		mov	r2, #16
 520 005e A262     		str	r2, [r4, #40]
 521              		.loc 1 71 0
 522 0060 2363     		str	r3, [r4, #48]
 523              		.loc 1 72 0
 524 0062 0523     		mov	r3, #5
 525 0064 6360     		str	r3, [r4, #4]
 526              	.LBE27:
 527              	.LBE26:
 528              		.loc 1 268 0
 529              		@ sp needed
 530              	.LVL45:
 531              	.LVL46:
 532 0066 38BD     		pop	{r3, r4, r5, pc}
 533              	.L37:
 534              		.align	2
 535              	.L36:
 536 0068 00000000 		.word	.LANCHOR1
 537 006c 00000000 		.word	.LANCHOR0
 538 0070 00800440 		.word	1074036736
 539 0074 006CDC02 		.word	48000000
 540              		.cfi_endproc
 541              	.LFE47:
 542              		.size	sd_lld_start, .-sd_lld_start
 543              		.section	.text.sd_lld_stop,"ax",%progbits
 544              		.align	2
 545              		.global	sd_lld_stop
 546              		.code	16
 547              		.thumb_func
 548              		.type	sd_lld_stop, %function
 549              	sd_lld_stop:
 550              	.LFB48:
 551              		.loc 1 279 0
 552              		.cfi_startproc
 553              	.LVL47:
 554 0000 10B5     		push	{r4, lr}
 555              		.cfi_def_cfa_offset 8
 556              		.cfi_offset 4, -8
 557              		.cfi_offset 14, -4
 558              		.loc 1 281 0
 559 0002 037A     		ldrb	r3, [r0, #8]
 560 0004 022B     		cmp	r3, #2
 561 0006 1DD1     		bne	.L38
 562              		.loc 1 282 0
 563 0008 436F     		ldr	r3, [r0, #116]
 564              	.LVL48:
 565              	.LBB30:
 566              	.LBB31:
 567              		.loc 1 82 0
 568 000a 8021     		mov	r1, #128
 569 000c D960     		str	r1, [r3, #12]
 570              		.loc 1 83 0
ARM GAS  /tmp/cctKLj6v.s 			page 11


 571 000e 0122     		mov	r2, #1
 572 0010 1A60     		str	r2, [r3]
 573              		.loc 1 84 0
 574 0012 0022     		mov	r2, #0
 575 0014 5A60     		str	r2, [r3, #4]
 576              		.loc 1 85 0
 577 0016 DA60     		str	r2, [r3, #12]
 578              		.loc 1 86 0
 579 0018 1024     		mov	r4, #16
 580 001a 9C62     		str	r4, [r3, #40]
 581              		.loc 1 87 0
 582 001c 5A60     		str	r2, [r3, #4]
 583              		.loc 1 88 0
 584 001e 0624     		mov	r4, #6
 585 0020 9C60     		str	r4, [r3, #8]
 586              		.loc 1 89 0
 587 0022 1A62     		str	r2, [r3, #32]
 588              		.loc 1 90 0
 589 0024 1963     		str	r1, [r3, #48]
 590              	.LBE31:
 591              	.LBE30:
 592              		.loc 1 284 0
 593 0026 084B     		ldr	r3, .L40
 594              	.LVL49:
 595 0028 9842     		cmp	r0, r3
 596 002a 0BD1     		bne	.L38
 597              		.loc 1 285 0
 598 002c 074B     		ldr	r3, .L40+4
 599 002e 0021     		mov	r1, #0
 600 0030 9822     		mov	r2, #152
 601 0032 9950     		str	r1, [r3, r2]
 602              		.loc 1 286 0
 603 0034 8022     		mov	r2, #128
 604 0036 9858     		ldr	r0, [r3, r2]
 605              	.LVL50:
 606 0038 0549     		ldr	r1, .L40+8
 607 003a 0140     		and	r1, r0
 608 003c 9950     		str	r1, [r3, r2]
 609              		.loc 1 287 0
 610 003e 1520     		mov	r0, #21
 611 0040 FFF7FEFF 		bl	nvicDisableVector
 612              	.LVL51:
 613              	.L38:
 614              		.loc 1 292 0
 615              		@ sp needed
 616 0044 10BD     		pop	{r4, pc}
 617              	.L41:
 618 0046 C046     		.align	2
 619              	.L40:
 620 0048 00000000 		.word	.LANCHOR0
 621 004c 00800440 		.word	1074036736
 622 0050 FFEFFFFF 		.word	-4097
 623              		.cfi_endproc
 624              	.LFE48:
 625              		.size	sd_lld_stop, .-sd_lld_stop
 626              		.global	SD1
 627              		.section	.rodata.default_config,"a",%progbits
ARM GAS  /tmp/cctKLj6v.s 			page 12


 628              		.align	2
 629              		.set	.LANCHOR1,. + 0
 630              		.type	default_config, %object
 631              		.size	default_config, 12
 632              	default_config:
 633 0000 00960000 		.word	38400
 634 0004 03000000 		.word	3
 635 0008 00000000 		.word	0
 636              		.section	.bss.SD1,"aw",%nobits
 637              		.align	2
 638              		.set	.LANCHOR0,. + 0
 639              		.type	SD1, %object
 640              		.size	SD1, 120
 641              	SD1:
 642 0000 00000000 		.space	120
 642      00000000 
 642      00000000 
 642      00000000 
 642      00000000 
 643              		.text
 644              	.Letext0:
 645              		.file 2 "/usr/local/lpcxpresso_7.3.0_186/lpcxpresso/tools/lib/gcc/arm-none-eabi/4.8.4/include/stdd
 646              		.file 3 "/usr/local/lpcxpresso_7.3.0_186/lpcxpresso/tools/arm-none-eabi/include/machine/_default_t
 647              		.file 4 "/usr/local/lpcxpresso_7.3.0_186/lpcxpresso/tools/arm-none-eabi/include/stdint.h"
 648              		.file 5 "ChibiOS_2.6.5/os/ports/GCC/ARMCMx/chtypes.h"
 649              		.file 6 "ChibiOS_2.6.5/os/kernel/include/chlists.h"
 650              		.file 7 "ChibiOS_2.6.5/os/kernel/include/chthreads.h"
 651              		.file 8 "ChibiOS_2.6.5/os/ports/GCC/ARMCMx/chcore_v6m.h"
 652              		.file 9 "CMSIS_CORE_LPC11Uxx/inc/nvic.h"
 653              		.file 10 "ChibiOS_2.6.5/os/kernel/include/chmtx.h"
 654              		.file 11 "ChibiOS_2.6.5/os/kernel/include/chevents.h"
 655              		.file 12 "ChibiOS_2.6.5/os/kernel/include/chqueues.h"
 656              		.file 13 "CMSIS_CORE_LPC11Uxx/inc/LPC11Uxx.h"
 657              		.file 14 "ChibiOS_2.6.5/os/hal/include/serial.h"
 658              		.file 15 "ChibiOS_2.6.5/os/hal/platforms/LPC11Uxx/serial_lld.h"