ARM GAS  /tmp/ccNl6upi.s 			page 1


   1              		.cpu cortex-m0
   2              		.fpu softvfp
   3              		.eabi_attribute 20, 1
   4              		.eabi_attribute 21, 1
   5              		.eabi_attribute 23, 3
   6              		.eabi_attribute 24, 1
   7              		.eabi_attribute 25, 1
   8              		.eabi_attribute 26, 1
   9              		.eabi_attribute 30, 1
  10              		.eabi_attribute 34, 0
  11              		.eabi_attribute 18, 4
  12              		.code	16
  13              		.file	"spi.c"
  14              		.text
  15              	.Ltext0:
  16              		.cfi_sections	.debug_frame
  17              		.section	.text.spiInit,"ax",%progbits
  18              		.align	2
  19              		.global	spiInit
  20              		.code	16
  21              		.thumb_func
  22              		.type	spiInit, %function
  23              	spiInit:
  24              	.LFB39:
  25              		.file 1 "ChibiOS_2.6.5/os/hal/src/spi.c"
  26              		.loc 1 68 0
  27              		.cfi_startproc
  28 0000 08B5     		push	{r3, lr}
  29              		.cfi_def_cfa_offset 8
  30              		.cfi_offset 3, -8
  31              		.cfi_offset 14, -4
  32              		.loc 1 70 0
  33 0002 FFF7FEFF 		bl	spi_lld_init
  34              	.LVL0:
  35              		.loc 1 71 0
  36              		@ sp needed
  37 0006 08BD     		pop	{r3, pc}
  38              		.cfi_endproc
  39              	.LFE39:
  40              		.size	spiInit, .-spiInit
  41              		.section	.text.spiObjectInit,"ax",%progbits
  42              		.align	2
  43              		.global	spiObjectInit
  44              		.code	16
  45              		.thumb_func
  46              		.type	spiObjectInit, %function
  47              	spiObjectInit:
  48              	.LFB40:
  49              		.loc 1 80 0
  50              		.cfi_startproc
  51              	.LVL1:
  52 0000 08B5     		push	{r3, lr}
  53              		.cfi_def_cfa_offset 8
  54              		.cfi_offset 3, -8
  55              		.cfi_offset 14, -4
  56              		.loc 1 82 0
  57 0002 0123     		mov	r3, #1
ARM GAS  /tmp/ccNl6upi.s 			page 2


  58 0004 0370     		strb	r3, [r0]
  59              		.loc 1 83 0
  60 0006 0023     		mov	r3, #0
  61 0008 4360     		str	r3, [r0, #4]
  62              		.loc 1 85 0
  63 000a 8360     		str	r3, [r0, #8]
  64              		.loc 1 89 0
  65 000c 0C30     		add	r0, r0, #12
  66              	.LVL2:
  67 000e FFF7FEFF 		bl	chMtxInit
  68              	.LVL3:
  69              		.loc 1 97 0
  70              		@ sp needed
  71 0012 08BD     		pop	{r3, pc}
  72              		.cfi_endproc
  73              	.LFE40:
  74              		.size	spiObjectInit, .-spiObjectInit
  75              		.section	.text.spiStart,"ax",%progbits
  76              		.align	2
  77              		.global	spiStart
  78              		.code	16
  79              		.thumb_func
  80              		.type	spiStart, %function
  81              	spiStart:
  82              	.LFB41:
  83              		.loc 1 107 0
  84              		.cfi_startproc
  85              	.LVL4:
  86 0000 10B5     		push	{r4, lr}
  87              		.cfi_def_cfa_offset 8
  88              		.cfi_offset 4, -8
  89              		.cfi_offset 14, -4
  90 0002 041C     		mov	r4, r0
  91              		.loc 1 111 0
  92              	@ 111 "ChibiOS_2.6.5/os/hal/src/spi.c" 1
  93 0004 72B6     		cpsid   i
  94              	@ 0 "" 2
  95              		.loc 1 114 0
  96              		.code	16
  97 0006 4160     		str	r1, [r0, #4]
  98              		.loc 1 115 0
  99 0008 FFF7FEFF 		bl	spi_lld_start
 100              	.LVL5:
 101              		.loc 1 116 0
 102 000c 0223     		mov	r3, #2
 103 000e 2370     		strb	r3, [r4]
 104              		.loc 1 117 0
 105              	@ 117 "ChibiOS_2.6.5/os/hal/src/spi.c" 1
 106 0010 62B6     		cpsie   i
 107              	@ 0 "" 2
 108              		.loc 1 118 0
 109              		.code	16
 110              		@ sp needed
 111              	.LVL6:
 112 0012 10BD     		pop	{r4, pc}
 113              		.cfi_endproc
 114              	.LFE41:
ARM GAS  /tmp/ccNl6upi.s 			page 3


 115              		.size	spiStart, .-spiStart
 116              		.section	.text.spiStop,"ax",%progbits
 117              		.align	2
 118              		.global	spiStop
 119              		.code	16
 120              		.thumb_func
 121              		.type	spiStop, %function
 122              	spiStop:
 123              	.LFB42:
 124              		.loc 1 129 0
 125              		.cfi_startproc
 126              	.LVL7:
 127 0000 10B5     		push	{r4, lr}
 128              		.cfi_def_cfa_offset 8
 129              		.cfi_offset 4, -8
 130              		.cfi_offset 14, -4
 131 0002 041C     		mov	r4, r0
 132              		.loc 1 133 0
 133              	@ 133 "ChibiOS_2.6.5/os/hal/src/spi.c" 1
 134 0004 72B6     		cpsid   i
 135              	@ 0 "" 2
 136              		.loc 1 136 0
 137              		.code	16
 138 0006 FFF7FEFF 		bl	spi_lld_unselect
 139              	.LVL8:
 140              		.loc 1 137 0
 141 000a 201C     		mov	r0, r4
 142 000c FFF7FEFF 		bl	spi_lld_stop
 143              	.LVL9:
 144              		.loc 1 138 0
 145 0010 0123     		mov	r3, #1
 146 0012 2370     		strb	r3, [r4]
 147              		.loc 1 139 0
 148              	@ 139 "ChibiOS_2.6.5/os/hal/src/spi.c" 1
 149 0014 62B6     		cpsie   i
 150              	@ 0 "" 2
 151              		.loc 1 140 0
 152              		.code	16
 153              		@ sp needed
 154              	.LVL10:
 155 0016 10BD     		pop	{r4, pc}
 156              		.cfi_endproc
 157              	.LFE42:
 158              		.size	spiStop, .-spiStop
 159              		.section	.text.spiSelect,"ax",%progbits
 160              		.align	2
 161              		.global	spiSelect
 162              		.code	16
 163              		.thumb_func
 164              		.type	spiSelect, %function
 165              	spiSelect:
 166              	.LFB43:
 167              		.loc 1 149 0
 168              		.cfi_startproc
 169              	.LVL11:
 170 0000 08B5     		push	{r3, lr}
 171              		.cfi_def_cfa_offset 8
ARM GAS  /tmp/ccNl6upi.s 			page 4


 172              		.cfi_offset 3, -8
 173              		.cfi_offset 14, -4
 174              		.loc 1 153 0
 175              	@ 153 "ChibiOS_2.6.5/os/hal/src/spi.c" 1
 176 0002 72B6     		cpsid   i
 177              	@ 0 "" 2
 178              		.loc 1 155 0
 179              		.code	16
 180 0004 FFF7FEFF 		bl	spi_lld_select
 181              	.LVL12:
 182              		.loc 1 156 0
 183              	@ 156 "ChibiOS_2.6.5/os/hal/src/spi.c" 1
 184 0008 62B6     		cpsie   i
 185              	@ 0 "" 2
 186              		.loc 1 157 0
 187              		.code	16
 188              		@ sp needed
 189 000a 08BD     		pop	{r3, pc}
 190              		.cfi_endproc
 191              	.LFE43:
 192              		.size	spiSelect, .-spiSelect
 193              		.section	.text.spiUnselect,"ax",%progbits
 194              		.align	2
 195              		.global	spiUnselect
 196              		.code	16
 197              		.thumb_func
 198              		.type	spiUnselect, %function
 199              	spiUnselect:
 200              	.LFB44:
 201              		.loc 1 167 0
 202              		.cfi_startproc
 203              	.LVL13:
 204 0000 08B5     		push	{r3, lr}
 205              		.cfi_def_cfa_offset 8
 206              		.cfi_offset 3, -8
 207              		.cfi_offset 14, -4
 208              		.loc 1 171 0
 209              	@ 171 "ChibiOS_2.6.5/os/hal/src/spi.c" 1
 210 0002 72B6     		cpsid   i
 211              	@ 0 "" 2
 212              		.loc 1 173 0
 213              		.code	16
 214 0004 FFF7FEFF 		bl	spi_lld_unselect
 215              	.LVL14:
 216              		.loc 1 174 0
 217              	@ 174 "ChibiOS_2.6.5/os/hal/src/spi.c" 1
 218 0008 62B6     		cpsie   i
 219              	@ 0 "" 2
 220              		.loc 1 175 0
 221              		.code	16
 222              		@ sp needed
 223 000a 08BD     		pop	{r3, pc}
 224              		.cfi_endproc
 225              	.LFE44:
 226              		.size	spiUnselect, .-spiUnselect
 227              		.section	.text.spiStartIgnore,"ax",%progbits
 228              		.align	2
ARM GAS  /tmp/ccNl6upi.s 			page 5


 229              		.global	spiStartIgnore
 230              		.code	16
 231              		.thumb_func
 232              		.type	spiStartIgnore, %function
 233              	spiStartIgnore:
 234              	.LFB45:
 235              		.loc 1 190 0
 236              		.cfi_startproc
 237              	.LVL15:
 238 0000 08B5     		push	{r3, lr}
 239              		.cfi_def_cfa_offset 8
 240              		.cfi_offset 3, -8
 241              		.cfi_offset 14, -4
 242              		.loc 1 194 0
 243              	@ 194 "ChibiOS_2.6.5/os/hal/src/spi.c" 1
 244 0002 72B6     		cpsid   i
 245              	@ 0 "" 2
 246              		.loc 1 196 0
 247              		.code	16
 248 0004 0323     		mov	r3, #3
 249 0006 0370     		strb	r3, [r0]
 250 0008 FFF7FEFF 		bl	spi_lld_ignore
 251              	.LVL16:
 252              		.loc 1 197 0
 253              	@ 197 "ChibiOS_2.6.5/os/hal/src/spi.c" 1
 254 000c 62B6     		cpsie   i
 255              	@ 0 "" 2
 256              		.loc 1 198 0
 257              		.code	16
 258              		@ sp needed
 259 000e 08BD     		pop	{r3, pc}
 260              		.cfi_endproc
 261              	.LFE45:
 262              		.size	spiStartIgnore, .-spiStartIgnore
 263              		.section	.text.spiStartExchange,"ax",%progbits
 264              		.align	2
 265              		.global	spiStartExchange
 266              		.code	16
 267              		.thumb_func
 268              		.type	spiStartExchange, %function
 269              	spiStartExchange:
 270              	.LFB46:
 271              		.loc 1 218 0
 272              		.cfi_startproc
 273              	.LVL17:
 274 0000 10B5     		push	{r4, lr}
 275              		.cfi_def_cfa_offset 8
 276              		.cfi_offset 4, -8
 277              		.cfi_offset 14, -4
 278              		.loc 1 223 0
 279              	@ 223 "ChibiOS_2.6.5/os/hal/src/spi.c" 1
 280 0002 72B6     		cpsid   i
 281              	@ 0 "" 2
 282              		.loc 1 225 0
 283              		.code	16
 284 0004 0324     		mov	r4, #3
 285 0006 0470     		strb	r4, [r0]
ARM GAS  /tmp/ccNl6upi.s 			page 6


 286 0008 FFF7FEFF 		bl	spi_lld_exchange
 287              	.LVL18:
 288              		.loc 1 226 0
 289              	@ 226 "ChibiOS_2.6.5/os/hal/src/spi.c" 1
 290 000c 62B6     		cpsie   i
 291              	@ 0 "" 2
 292              		.loc 1 227 0
 293              		.code	16
 294              		@ sp needed
 295 000e 10BD     		pop	{r4, pc}
 296              		.cfi_endproc
 297              	.LFE46:
 298              		.size	spiStartExchange, .-spiStartExchange
 299              		.section	.text.spiStartSend,"ax",%progbits
 300              		.align	2
 301              		.global	spiStartSend
 302              		.code	16
 303              		.thumb_func
 304              		.type	spiStartSend, %function
 305              	spiStartSend:
 306              	.LFB47:
 307              		.loc 1 244 0
 308              		.cfi_startproc
 309              	.LVL19:
 310 0000 08B5     		push	{r3, lr}
 311              		.cfi_def_cfa_offset 8
 312              		.cfi_offset 3, -8
 313              		.cfi_offset 14, -4
 314              		.loc 1 249 0
 315              	@ 249 "ChibiOS_2.6.5/os/hal/src/spi.c" 1
 316 0002 72B6     		cpsid   i
 317              	@ 0 "" 2
 318              		.loc 1 251 0
 319              		.code	16
 320 0004 0323     		mov	r3, #3
 321 0006 0370     		strb	r3, [r0]
 322 0008 FFF7FEFF 		bl	spi_lld_send
 323              	.LVL20:
 324              		.loc 1 252 0
 325              	@ 252 "ChibiOS_2.6.5/os/hal/src/spi.c" 1
 326 000c 62B6     		cpsie   i
 327              	@ 0 "" 2
 328              		.loc 1 253 0
 329              		.code	16
 330              		@ sp needed
 331 000e 08BD     		pop	{r3, pc}
 332              		.cfi_endproc
 333              	.LFE47:
 334              		.size	spiStartSend, .-spiStartSend
 335              		.section	.text.spiStartReceive,"ax",%progbits
 336              		.align	2
 337              		.global	spiStartReceive
 338              		.code	16
 339              		.thumb_func
 340              		.type	spiStartReceive, %function
 341              	spiStartReceive:
 342              	.LFB48:
ARM GAS  /tmp/ccNl6upi.s 			page 7


 343              		.loc 1 270 0
 344              		.cfi_startproc
 345              	.LVL21:
 346 0000 08B5     		push	{r3, lr}
 347              		.cfi_def_cfa_offset 8
 348              		.cfi_offset 3, -8
 349              		.cfi_offset 14, -4
 350              		.loc 1 275 0
 351              	@ 275 "ChibiOS_2.6.5/os/hal/src/spi.c" 1
 352 0002 72B6     		cpsid   i
 353              	@ 0 "" 2
 354              		.loc 1 277 0
 355              		.code	16
 356 0004 0323     		mov	r3, #3
 357 0006 0370     		strb	r3, [r0]
 358 0008 FFF7FEFF 		bl	spi_lld_receive
 359              	.LVL22:
 360              		.loc 1 278 0
 361              	@ 278 "ChibiOS_2.6.5/os/hal/src/spi.c" 1
 362 000c 62B6     		cpsie   i
 363              	@ 0 "" 2
 364              		.loc 1 279 0
 365              		.code	16
 366              		@ sp needed
 367 000e 08BD     		pop	{r3, pc}
 368              		.cfi_endproc
 369              	.LFE48:
 370              		.size	spiStartReceive, .-spiStartReceive
 371              		.section	.text.spiIgnore,"ax",%progbits
 372              		.align	2
 373              		.global	spiIgnore
 374              		.code	16
 375              		.thumb_func
 376              		.type	spiIgnore, %function
 377              	spiIgnore:
 378              	.LFB49:
 379              		.loc 1 296 0
 380              		.cfi_startproc
 381              	.LVL23:
 382 0000 10B5     		push	{r4, lr}
 383              		.cfi_def_cfa_offset 8
 384              		.cfi_offset 4, -8
 385              		.cfi_offset 14, -4
 386 0002 041C     		mov	r4, r0
 387              		.loc 1 300 0
 388              	@ 300 "ChibiOS_2.6.5/os/hal/src/spi.c" 1
 389 0004 72B6     		cpsid   i
 390              	@ 0 "" 2
 391              		.loc 1 303 0
 392              		.code	16
 393 0006 0323     		mov	r3, #3
 394 0008 0370     		strb	r3, [r0]
 395 000a FFF7FEFF 		bl	spi_lld_ignore
 396              	.LVL24:
 397              		.loc 1 304 0
 398 000e 044B     		ldr	r3, .L12
 399 0010 9B69     		ldr	r3, [r3, #24]
ARM GAS  /tmp/ccNl6upi.s 			page 8


 400 0012 A360     		str	r3, [r4, #8]
 401 0014 0220     		mov	r0, #2
 402 0016 FFF7FEFF 		bl	chSchGoSleepS
 403              	.LVL25:
 404              		.loc 1 305 0
 405              	@ 305 "ChibiOS_2.6.5/os/hal/src/spi.c" 1
 406 001a 62B6     		cpsie   i
 407              	@ 0 "" 2
 408              		.loc 1 306 0
 409              		.code	16
 410              		@ sp needed
 411              	.LVL26:
 412 001c 10BD     		pop	{r4, pc}
 413              	.L13:
 414 001e C046     		.align	2
 415              	.L12:
 416 0020 00000000 		.word	rlist
 417              		.cfi_endproc
 418              	.LFE49:
 419              		.size	spiIgnore, .-spiIgnore
 420              		.section	.text.spiExchange,"ax",%progbits
 421              		.align	2
 422              		.global	spiExchange
 423              		.code	16
 424              		.thumb_func
 425              		.type	spiExchange, %function
 426              	spiExchange:
 427              	.LFB50:
 428              		.loc 1 327 0
 429              		.cfi_startproc
 430              	.LVL27:
 431 0000 10B5     		push	{r4, lr}
 432              		.cfi_def_cfa_offset 8
 433              		.cfi_offset 4, -8
 434              		.cfi_offset 14, -4
 435 0002 041C     		mov	r4, r0
 436              		.loc 1 332 0
 437              	@ 332 "ChibiOS_2.6.5/os/hal/src/spi.c" 1
 438 0004 72B6     		cpsid   i
 439              	@ 0 "" 2
 440              		.loc 1 336 0
 441              		.code	16
 442 0006 0320     		mov	r0, #3
 443              	.LVL28:
 444 0008 2070     		strb	r0, [r4]
 445 000a 201C     		mov	r0, r4
 446 000c FFF7FEFF 		bl	spi_lld_exchange
 447              	.LVL29:
 448              		.loc 1 337 0
 449 0010 034B     		ldr	r3, .L15
 450 0012 9B69     		ldr	r3, [r3, #24]
 451 0014 A360     		str	r3, [r4, #8]
 452 0016 0220     		mov	r0, #2
 453 0018 FFF7FEFF 		bl	chSchGoSleepS
 454              	.LVL30:
 455              		.loc 1 338 0
 456              	@ 338 "ChibiOS_2.6.5/os/hal/src/spi.c" 1
ARM GAS  /tmp/ccNl6upi.s 			page 9


 457 001c 62B6     		cpsie   i
 458              	@ 0 "" 2
 459              		.loc 1 339 0
 460              		.code	16
 461              		@ sp needed
 462              	.LVL31:
 463 001e 10BD     		pop	{r4, pc}
 464              	.L16:
 465              		.align	2
 466              	.L15:
 467 0020 00000000 		.word	rlist
 468              		.cfi_endproc
 469              	.LFE50:
 470              		.size	spiExchange, .-spiExchange
 471              		.section	.text.spiSend,"ax",%progbits
 472              		.align	2
 473              		.global	spiSend
 474              		.code	16
 475              		.thumb_func
 476              		.type	spiSend, %function
 477              	spiSend:
 478              	.LFB51:
 479              		.loc 1 357 0
 480              		.cfi_startproc
 481              	.LVL32:
 482 0000 10B5     		push	{r4, lr}
 483              		.cfi_def_cfa_offset 8
 484              		.cfi_offset 4, -8
 485              		.cfi_offset 14, -4
 486 0002 041C     		mov	r4, r0
 487              		.loc 1 361 0
 488              	@ 361 "ChibiOS_2.6.5/os/hal/src/spi.c" 1
 489 0004 72B6     		cpsid   i
 490              	@ 0 "" 2
 491              		.loc 1 364 0
 492              		.code	16
 493 0006 0323     		mov	r3, #3
 494 0008 0370     		strb	r3, [r0]
 495 000a FFF7FEFF 		bl	spi_lld_send
 496              	.LVL33:
 497              		.loc 1 365 0
 498 000e 044B     		ldr	r3, .L18
 499 0010 9B69     		ldr	r3, [r3, #24]
 500 0012 A360     		str	r3, [r4, #8]
 501 0014 0220     		mov	r0, #2
 502 0016 FFF7FEFF 		bl	chSchGoSleepS
 503              	.LVL34:
 504              		.loc 1 366 0
 505              	@ 366 "ChibiOS_2.6.5/os/hal/src/spi.c" 1
 506 001a 62B6     		cpsie   i
 507              	@ 0 "" 2
 508              		.loc 1 367 0
 509              		.code	16
 510              		@ sp needed
 511              	.LVL35:
 512 001c 10BD     		pop	{r4, pc}
 513              	.L19:
ARM GAS  /tmp/ccNl6upi.s 			page 10


 514 001e C046     		.align	2
 515              	.L18:
 516 0020 00000000 		.word	rlist
 517              		.cfi_endproc
 518              	.LFE51:
 519              		.size	spiSend, .-spiSend
 520              		.section	.text.spiReceive,"ax",%progbits
 521              		.align	2
 522              		.global	spiReceive
 523              		.code	16
 524              		.thumb_func
 525              		.type	spiReceive, %function
 526              	spiReceive:
 527              	.LFB52:
 528              		.loc 1 385 0
 529              		.cfi_startproc
 530              	.LVL36:
 531 0000 10B5     		push	{r4, lr}
 532              		.cfi_def_cfa_offset 8
 533              		.cfi_offset 4, -8
 534              		.cfi_offset 14, -4
 535 0002 041C     		mov	r4, r0
 536              		.loc 1 390 0
 537              	@ 390 "ChibiOS_2.6.5/os/hal/src/spi.c" 1
 538 0004 72B6     		cpsid   i
 539              	@ 0 "" 2
 540              		.loc 1 394 0
 541              		.code	16
 542 0006 0323     		mov	r3, #3
 543 0008 0370     		strb	r3, [r0]
 544 000a FFF7FEFF 		bl	spi_lld_receive
 545              	.LVL37:
 546              		.loc 1 395 0
 547 000e 044B     		ldr	r3, .L21
 548 0010 9B69     		ldr	r3, [r3, #24]
 549 0012 A360     		str	r3, [r4, #8]
 550 0014 0220     		mov	r0, #2
 551 0016 FFF7FEFF 		bl	chSchGoSleepS
 552              	.LVL38:
 553              		.loc 1 396 0
 554              	@ 396 "ChibiOS_2.6.5/os/hal/src/spi.c" 1
 555 001a 62B6     		cpsie   i
 556              	@ 0 "" 2
 557              		.loc 1 397 0
 558              		.code	16
 559              		@ sp needed
 560              	.LVL39:
 561 001c 10BD     		pop	{r4, pc}
 562              	.L22:
 563 001e C046     		.align	2
 564              	.L21:
 565 0020 00000000 		.word	rlist
 566              		.cfi_endproc
 567              	.LFE52:
 568              		.size	spiReceive, .-spiReceive
 569              		.section	.text.spiAcquireBus,"ax",%progbits
 570              		.align	2
ARM GAS  /tmp/ccNl6upi.s 			page 11


 571              		.global	spiAcquireBus
 572              		.code	16
 573              		.thumb_func
 574              		.type	spiAcquireBus, %function
 575              	spiAcquireBus:
 576              	.LFB53:
 577              		.loc 1 412 0
 578              		.cfi_startproc
 579              	.LVL40:
 580 0000 08B5     		push	{r3, lr}
 581              		.cfi_def_cfa_offset 8
 582              		.cfi_offset 3, -8
 583              		.cfi_offset 14, -4
 584              		.loc 1 417 0
 585 0002 0C30     		add	r0, r0, #12
 586              	.LVL41:
 587 0004 FFF7FEFF 		bl	chMtxLock
 588              	.LVL42:
 589              		.loc 1 421 0
 590              		@ sp needed
 591 0008 08BD     		pop	{r3, pc}
 592              		.cfi_endproc
 593              	.LFE53:
 594              		.size	spiAcquireBus, .-spiAcquireBus
 595 000a C046     		.section	.text.spiReleaseBus,"ax",%progbits
 596              		.align	2
 597              		.global	spiReleaseBus
 598              		.code	16
 599              		.thumb_func
 600              		.type	spiReleaseBus, %function
 601              	spiReleaseBus:
 602              	.LFB54:
 603              		.loc 1 432 0
 604              		.cfi_startproc
 605              	.LVL43:
 606 0000 08B5     		push	{r3, lr}
 607              		.cfi_def_cfa_offset 8
 608              		.cfi_offset 3, -8
 609              		.cfi_offset 14, -4
 610              		.loc 1 438 0
 611 0002 FFF7FEFF 		bl	chMtxUnlock
 612              	.LVL44:
 613              		.loc 1 442 0
 614              		@ sp needed
 615 0006 08BD     		pop	{r3, pc}
 616              		.cfi_endproc
 617              	.LFE54:
 618              		.size	spiReleaseBus, .-spiReleaseBus
 619              		.text
 620              	.Letext0:
 621              		.file 2 "/usr/local/lpcxpresso_7.3.0_186/lpcxpresso/tools/lib/gcc/arm-none-eabi/4.8.4/include/stdd
 622              		.file 3 "/usr/local/lpcxpresso_7.3.0_186/lpcxpresso/tools/arm-none-eabi/include/machine/_default_t
 623              		.file 4 "/usr/local/lpcxpresso_7.3.0_186/lpcxpresso/tools/arm-none-eabi/include/stdint.h"
 624              		.file 5 "ChibiOS_2.6.5/os/ports/GCC/ARMCMx/chtypes.h"
 625              		.file 6 "ChibiOS_2.6.5/os/kernel/include/chlists.h"
 626              		.file 7 "ChibiOS_2.6.5/os/kernel/include/chthreads.h"
 627              		.file 8 "ChibiOS_2.6.5/os/ports/GCC/ARMCMx/chcore_v6m.h"
ARM GAS  /tmp/ccNl6upi.s 			page 12


 628              		.file 9 "ChibiOS_2.6.5/os/kernel/include/chschd.h"
 629              		.file 10 "ChibiOS_2.6.5/os/kernel/include/chmtx.h"
 630              		.file 11 "CMSIS_CORE_LPC11Uxx/inc/LPC11Uxx.h"
 631              		.file 12 "ChibiOS_2.6.5/os/hal/platforms/LPC11Uxx/pal_lld.h"
 632              		.file 13 "ChibiOS_2.6.5/os/hal/include/spi.h"
 633              		.file 14 "ChibiOS_2.6.5/os/hal/platforms/LPC11Uxx/spi_lld.h"