ARM GAS  /tmp/ccNl6upi.s 			page 1


   1              		.cpu cortex-m0
   2              		.fpu softvfp
   3              		.eabi_attribute 20, 1
   4              		.eabi_attribute 21, 1
   5              		.eabi_attribute 23, 3
   6              		.eabi_attribute 24, 1
   7              		.eabi_attribute 25, 1
   8              		.eabi_attribute 26, 1
   9              		.eabi_attribute 30, 1
  10              		.eabi_attribute 34, 0
  11              		.eabi_attribute 18, 4
  12              		.code	16
  13              		.file	"spi.c"
  14              		.text
  15              	.Ltext0:
  16              		.cfi_sections	.debug_frame
  17              		.section	.text.spiInit,"ax",%progbits
  18              		.align	2
  19              		.global	spiInit
  20              		.code	16
  21              		.thumb_func
  22              		.type	spiInit, %function
  23              	spiInit:
  24              	.LFB39:
  25              		.file 1 "ChibiOS_2.6.5/os/hal/src/spi.c"
  26              		.loc 1 68 0
  27              		.cfi_startproc
  28 0000 08B5     		push	{r3, lr}
  29              		.cfi_def_cfa_offset 8
  30              		.cfi_offset 3, -8
  31              		.cfi_offset 14, -4
  32              		.loc 1 70 0
  33 0002 FFF7FEFF 		bl	spi_lld_init
  34              	.LVL0:
  35              		.loc 1 71 0
  36              		@ sp needed
  37 0006 08BD     		pop	{r3, pc}
  38              		.cfi_endproc
  39              	.LFE39:
  40              		.size	spiInit, .-spiInit
  41              		.section	.text.spiObjectInit,"ax",%progbits
  42              		.align	2
  43              		.global	spiObjectInit
  44              		.code	16
  45              		.thumb_func
  46              		.type	spiObjectInit, %function
  47              	spiObjectInit:
  48              	.LFB40:
  49              		.loc 1 80 0
  50              		.cfi_startproc
  51              	.LVL1:
  52 0000 08B5     		push	{r3, lr}
  53              		.cfi_def_cfa_offset 8
  54              		.cfi_offset 3, -8
  55              		.cfi_offset 14, -4
  56              		.loc 1 82 0
  57 0002 0123     		mov	r3, #1
ARM GAS  /tmp/ccNl6upi.s 			page 2


  58 0004 0370     		strb	r3, [r0]
  59              		.loc 1 83 0
  60 0006 0023     		mov	r3, #0
  61 0008 4360     		str	r3, [r0, #4]
  62              		.loc 1 85 0
  63 000a 8360     		str	r3, [r0, #8]
  64              		.loc 1 89 0
  65 000c 0C30     		add	r0, r0, #12
  66              	.LVL2:
  67 000e FFF7FEFF 		bl	chMtxInit
  68              	.LVL3:
  69              		.loc 1 97 0
  70              		@ sp needed
  71 0012 08BD     		pop	{r3, pc}
  72              		.cfi_endproc
  73              	.LFE40:
  74              		.size	spiObjectInit, .-spiObjectInit
  75              		.section	.text.spiStart,"ax",%progbits
  76              		.align	2
  77              		.global	spiStart
  78              		.code	16
  79              		.thumb_func
  80              		.type	spiStart, %function
  81              	spiStart:
  82              	.LFB41:
  83              		.loc 1 107 0
  84              		.cfi_startproc
  85              	.LVL4:
  86 0000 10B5     		push	{r4, lr}
  87              		.cfi_def_cfa_offset 8
  88              		.cfi_offset 4, -8
  89              		.cfi_offset 14, -4
  90 0002 041C     		mov	r4, r0
  91              		.loc 1 111 0
  92              	@ 111 "ChibiOS_2.6.5/os/hal/src/spi.c" 1
  93 0004 72B6     		cpsid   i
  94              	@ 0 "" 2
  95              		.loc 1 114 0
  96              		.code	16
  97 0006 4160     		str	r1, [r0, #4]
  98              		.loc 1 115 0
  99 0008 FFF7FEFF 		bl	spi_lld_start
 100              	.LVL5:
 101              		.loc 1 116 0
 102 000c 0223     		mov	r3, #2
 103 000e 2370     		strb	r3, [r4]
 104              		.loc 1 117 0
 105              	@ 117 "ChibiOS_2.6.5/os/hal/src/spi.c" 1
 106 0010 62B6     		cpsie   i
 107              	@ 0 "" 2
 108              		.loc 1 118 0
 109              		.code	16
 110              		@ sp needed
 111              	.LVL6:
 112 0012 10BD     		pop	{r4, pc}
 113              		.cfi_endproc
 114              	.LFE41:
ARM GAS  /tmp/ccNl6upi.s 			page 3


 115              		.size	spiStart, .-spiStart
 116              		.section	.text.spiStop,"ax",%progbits
 117              		.align	2
 118              		.global	spiStop
 119              		.code	16
 120              		.thumb_func
 121              		.type	spiStop, %function
 122              	spiStop:
 123              	.LFB42:
 124              		.loc 1 129 0
 125              		.cfi_startproc
 126              	.LVL7:
 127 0000 10B5     		push	{r4, lr}
 128              		.cfi_def_cfa_offset 8
 129              		.cfi_offset 4, -8
 130              		.cfi_offset 14, -4
 131 0002 041C     		mov	r4, r0
 132              		.loc 1 133 0
 133              	@ 133 "ChibiOS_2.6.5/os/hal/src/spi.c" 1
 134 0004 72B6     		cpsid   i
 135              	@ 0 "" 2
 136              		.loc 1 136 0
 137              		.code	16
 138 0006 FFF7FEFF 		bl	spi_lld_unselect
 139              	.LVL8:
 140              		.loc 1 137 0
 141 000a 201C     		mov	r0, r4
 142 000c FFF7FEFF 		bl	spi_lld_stop
 143              	.LVL9:
 144              		.loc 1 138 0
 145 0010 0123     		mov	r3, #1
 146 0012 2370     		strb	r3, [r4]
 147              		.loc 1 139 0
 148              	@ 139 "ChibiOS_2.6.5/os/hal/src/spi.c" 1
 149 0014 62B6     		cpsie   i
 150              	@ 0 "" 2
 151              		.loc 1 140 0
 152              		.code	16
 153              		@ sp needed
 154              	.LVL10:
 155 0016 10BD     		pop	{r4, pc}
 156              		.cfi_endproc
 157              	.LFE42:
 158              		.size	spiStop, .-spiStop
 159              		.section	.text.spiSelect,"ax",%progbits
 160              		.align	2
 161              		.global	spiSelect
 162              		.code	16
 163              		.thumb_func
 164              		.type	spiSelect, %function
 165              	spiSelect:
 166              	.LFB43:
 167              		.loc 1 149 0
 168              		.cfi_startproc
 169              	.LVL11:
 170 0000 08B5     		push	{r3, lr}
 171              		.cfi_def_cfa_offset 8
ARM GAS  /tmp/ccNl6upi.s 			page 4


 172              		.cfi_offset 3, -8
 173              		.cfi_offset 14, -4
 174              		.loc 1 153 0
 175              	@ 153 "ChibiOS_2.6.5/os/hal/src/spi.c" 1
 176 0002 72B6     		cpsid   i
 177              	@ 0 "" 2
 178              		.loc 1 155 0
 179              		.code	16
 180 0004 FFF7FEFF 		bl	spi_lld_select
 181              	.LVL12:
 182              		.loc 1 156 0
 183              	@ 156 "ChibiOS_2.6.5/os/hal/src/spi.c" 1
 184 0008 62B6     		cpsie   i
 185              	@ 0 "" 2
 186              		.loc 1 157 0
 187              		.code	16
 188              		@ sp needed
 189 000a 08BD     		pop	{r3, pc}
 190              		.cfi_endproc
 191              	.LFE43:
 192              		.size	spiSelect, .-spiSelect
 193              		.section	.text.spiUnselect,"ax",%progbits
 194              		.align	2
 195              		.global	spiUnselect
 196              		.code	16
 197              		.thumb_func
 198              		.type	spiUnselect, %function
 199              	spiUnselect:
 200              	.LFB44:
 201              		.loc 1 167 0
 202              		.cfi_startproc
 203              	.LVL13:
 204 0000 08B5     		push	{r3, lr}
 205              		.cfi_def_cfa_offset 8
 206              		.cfi_offset 3, -8
 207              		.cfi_offset 14, -4
 208              		.loc 1 171 0
 209              	@ 171 "ChibiOS_2.6.5/os/hal/src/spi.c" 1
 210 0002 72B6     		cpsid   i
 211              	@ 0 "" 2
 212              		.loc 1 173 0
 213              		.code	16
 214 0004 FFF7FEFF 		bl	spi_lld_unselect
 215              	.LVL14:
 216              		.loc 1 174 0
 217              	@ 174 "ChibiOS_2.6.5/os/hal/src/spi.c" 1
 218 0008 62B6     		cpsie   i
 219              	@ 0 "" 2
 220              		.loc 1 175 0
 221              		.code	16
 222              		@ sp needed
 223 000a 08BD     		pop	{r3, pc}
 224              		.cfi_endproc
 225              	.LFE44:
 226              		.size	spiUnselect, .-spiUnselect
 227              		.section	.text.spiStartIgnore,"ax",%progbits
 228              		.align	2
ARM GAS  /tmp/ccNl6upi.s 			page 5


 229              		.global	spiStartIgnore
 230              		.code	16
 231              		.thumb_func
 232              		.type	spiStartIgnore, %function
 233              	spiStartIgnore:
 234              	.LFB45:
 235              		.loc 1 190 0
 236              		.cfi_startproc
 237              	.LVL15:
 238 0000 08B5     		push	{r3, lr}
 239              		.cfi_def_cfa_offset 8
 240              		.cfi_offset 3, -8
 241              		.cfi_offset 14, -4
 242              		.loc 1 194 0
 243              	@ 194 "ChibiOS_2.6.5/os/hal/src/spi.c" 1
 244 0002 72B6     		cpsid   i
 245              	@ 0 "" 2
 246              		.loc 1 196 0
 247              		.code	16
 248 0004 0323     		mov	r3, #3
 249 0006 0370     		strb	r3, [r0]
 250 0008 FFF7FEFF 		bl	spi_lld_ignore
 251              	.LVL16:
 252              		.loc 1 197 0
 253              	@ 197 "ChibiOS_2.6.5/os/hal/src/spi.c" 1
 254 000c 62B6     		cpsie   i
 255              	@ 0 "" 2
 256              		.loc 1 198 0
 257              		.code	16
 258              		@ sp needed
 259 000e 08BD     		pop	{r3, pc}
 260              		.cfi_endproc
 261              	.LFE45:
 262              		.size	spiStartIgnore, .-spiStartIgnore
 263              		.section	.text.spiStartExchange,"ax",%progbits
 264              		.align	2
 265              		.global	spiStartExchange
 266              		.code	16
 267              		.thumb_func
 268              		.type	spiStartExchange, %function
 269              	spiStartExchange:
 270              	.LFB46:
 271              		.loc 1 218 0
 272              		.cfi_startproc
 273              	.LVL17:
 274 0000 10B5     		push	{r4, lr}
 275              		.cfi_def_cfa_offset 8
 276              		.cfi_offset 4, -8
 277              		.cfi_offset 14, -4
 278              		.loc 1 223 0
 279              	@ 223 "ChibiOS_2.6.5/os/hal/src/spi.c" 1
 280 0002 72B6     		cpsid   i
 281              	@ 0 "" 2
 282              		.loc 1 225 0
 283              		.code	16
 284 0004 0324     		mov	r4, #3
 285 0006 0470     		strb	r4, [r0]
ARM GAS  /tmp/ccNl6upi.s 			page 6


 286 0008 FFF7FEFF 		bl	spi_lld_exchange
 287              	.LVL18:
 288              		.loc 1 226 0
 289              	@ 226 "ChibiOS_2.6.5/os/hal/src/spi.c" 1
 290 000c 62B6     		cpsie   i
 291              	@ 0 "" 2
 292              		.loc 1 227 0
 293              		.code	16
 294              		@ sp needed
 295 000e 10BD     		pop	{r4, pc}
 296              		.cfi_endproc
 297              	.LFE46:
 298              		.size	spiStartExchange, .-spiStartExchange
 299              		.section	.text.spiStartSend,"ax",%progbits
 300              		.align	2
 301              		.global	spiStartSend
 302              		.code	16
 303              		.thumb_func
 304              		.type	spiStartSend, %function
 305              	spiStartSend:
 306              	.LFB47:
 307              		.loc 1 244 0
 308              		.cfi_startproc
 309              	.LVL19:
 310 0000 08B5     		push	{r3, lr}
 311              		.cfi_def_cfa_offset 8
 312              		.cfi_offset 3, -8
 313              		.cfi_offset 14, -4
 314              		.loc 1 249 0
 315              	@ 249 "ChibiOS_2.6.5/os/hal/src/spi.c" 1
 316 0002 72B6     		cpsid   i
 317              	@ 0 "" 2
 318              		.loc 1 251 0
 319              		.code	16
 320 0004 0323     		mov	r3, #3
 321 0006 0370     		strb	r3, [r0]
 322 0008 FFF7FEFF 		bl	spi_lld_send
 323              	.LVL20:
 324              		.loc 1 252 0
 325              	@ 252 "ChibiOS_2.6.5/os/hal/src/spi.c" 1
 326 000c 62B6     		cpsie   i
 327              	@ 0 "" 2
 328              		.loc 1 253 0
 329              		.code	16
 330              		@ sp needed
 331 000e 08BD     		pop	{r3, pc}
 332              		.cfi_endproc
 333              	.LFE47:
 334              		.size	spiStartSend, .-spiStartSend
 335              		.section	.text.spiStartReceive,"ax",%progbits
 336              		.align	2
 337              		.global	spiStartReceive
 338              		.code	16
 339              		.thumb_func
 340              		.type	spiStartReceive, %function
 341              	spiStartReceive:
 342              	.LFB48:
ARM GAS  /tmp/ccNl6upi.s 			page 7


 343              		.loc 1 270 0
 344              		.cfi_startproc
 345              	.LVL21:
 346 0000 08B5     		push	{r3, lr}
 347              		.cfi_def_cfa_offset 8
 348              		.cfi_offset 3, -8
 349              		.cfi_offset 14, -4
 350              		.loc 1 275 0
 351              	@ 275 "ChibiOS_2.6.5/os/hal/src/spi.c" 1
 352 0002 72B6     		cpsid   i
 353              	@ 0 "" 2
 354              		.loc 1 277 0
 355              		.code	16
 356 0004 0323     		mov	r3, #3
 357 0006 0370     		strb	r3, [r0]
 358 0008 FFF7FEFF 		bl	spi_lld_receive
 359              	.LVL22:
 360              		.loc 1 278 0
 361              	@ 278 "ChibiOS_2.6.5/os/hal/src/spi.c" 1
 362 000c 62B6     		cpsie   i
 363              	@ 0 "" 2
 364              		.loc 1 279 0
 365              		.code	16
 366              		@ sp needed
 367 000e 08BD     		pop	{r3, pc}
 368              		.cfi_endproc
 369              	.LFE48:
 370              		.size	spiStartReceive, .-spiStartReceive
 371              		.section	.text.spiIgnore,"ax",%progbits
 372              		.align	2
 373              		.global	spiIgnore
 374              		.code	16
 375              		.thumb_func
 376              		.type	spiIgnore, %function
 377              	spiIgnore:
 378              	.LFB49:
 379              		.loc 1 296 0
 380              		.cfi_startproc
 381              	.LVL23:
 382 0000 10B5     		push	{r4, lr}
 383              		.cfi_def_cfa_offset 8
 384              		.cfi_offset 4, -8
 385              		.cfi_offset 14, -4
 386 0002 041C     		mov	r4, r0
 387              		.loc 1 300 0
 388              	@ 300 "ChibiOS_2.6.5/os/hal/src/spi.c" 1
 389 0004 72B6     		cpsid   i
 390              	@ 0 "" 2
 391              		.loc 1 303 0
 392              		.code	16
 393 0006 0323     		mov	r3, #3
 394 0008 0370     		strb	r3, [r0]
 395 000a FFF7FEFF 		bl	spi_lld_ignore
 396              	.LVL24:
 397              		.loc 1 304 0
 398 000e 044B     		ldr	r3, .L12
 399 0010 9B69     		ldr	r3, [r3, #24]
ARM GAS  /tmp/ccNl6upi.s 			page 8


 400 0012 A360     		str	r3, [r4, #8]
 401 0014 0220     		mov	r0, #2
 402 0016 FFF7FEFF 		bl	chSchGoSleepS
 403              	.LVL25:
 404              		.loc 1 305 0
 405              	@ 305 "ChibiOS_2.6.5/os/hal/src/spi.c" 1
 406 001a 62B6     		cpsie   i
 407              	@ 0 "" 2
 408              		.loc 1 306 0
 409              		.code	16
 410              		@ sp needed
 411              	.LVL26:
 412 001c 10BD     		pop	{r4, pc}
 413              	.L13:
 414 001e C046     		.align	2
 415              	.L12:
 416 0020 00000000 		.word	rlist
 417              		.cfi_endproc
 418              	.LFE49:
 419              		.size	spiIgnore, .-spiIgnore
 420              		.section	.text.spiExchange,"ax",%progbits
 421              		.align	2
 422              		.global	spiExchange
 423              		.code	16
 424              		.thumb_func
 425              		.type	spiExchange, %function
 426              	spiExchange:
 427              	.LFB50:
 428              		.loc 1 327 0
 429              		.cfi_startproc
 430              	.LVL27:
 431 0000 10B5     		push	{r4, lr}
 432              		.cfi_def_cfa_offset 8
 433              		.cfi_offset 4, -8
 434              		.cfi_offset 14, -4
 435 0002 041C     		mov	r4, r0
 436              		.loc 1 332 0
 437              	@ 332 "ChibiOS_2.6.5/os/hal/src/spi.c" 1
 438 0004 72B6     		cpsid   i
 439              	@ 0 "" 2
 440              		.loc 1 336 0
 441              		.code	16
 442 0006 0320     		mov	r0, #3
 443              	.LVL28:
 444 0008 2070     		strb	r0, [r4]
 445 000a 201C     		mov	r0, r4
 446 000c FFF7FEFF 		bl	spi_lld_exchange
 447              	.LVL29:
 448              		.loc 1 337 0
 449 0010 034B     		ldr	r3, .L15
 450 0012 9B69     		ldr	r3, [r3, #24]
 451 0014 A360     		str	r3, [r4, #8]
 452 0016 0220     		mov	r0, #2
 453 0018 FFF7FEFF 		bl	chSchGoSleepS
 454              	.LVL30:
 455              		.loc 1 338 0
 456              	@ 338 "ChibiOS_2.6.5/os/hal/src/spi.c" 1
ARM GAS  /tmp/ccNl6upi.s 			page 9


 457 001c 62B6     		cpsie   i
 458              	@ 0 "" 2
 459              		.loc 1 339 0
 460              		.code	16
 461              		@ sp needed
 462              	.LVL31:
 463 001e 10BD     		pop	{r4, pc}
 464              	.L16:
 465              		.align	2
 466              	.L15:
 467 0020 00000000 		.word	rlist
 468              		.cfi_endproc
 469              	.LFE50:
 470              		.size	spiExchange, .-spiExchange
 471              		.section	.text.spiSend,"ax",%progbits
 472              		.align	2
 473              		.global	spiSend
 474              		.code	16
 475              		.thumb_func
 476              		.type	spiSend, %function
 477              	spiSend:
 478              	.LFB51:
 479              		.loc 1 357 0
 480              		.cfi_startproc
 481              	.LVL32:
 482 0000 10B5     		push	{r4, lr}
 483              		.cfi_def_cfa_offset 8
 484              		.cfi_offset 4, -8
 485              		.cfi_offset 14, -4
 486 0002 041C     		mov	r4, r0
 487              		.loc 1 361 0
 488              	@ 361 "ChibiOS_2.6.5/os/hal/src/spi.c" 1
 489 0004 72B6     		cpsid   i
 490              	@ 0 "" 2
 491              		.loc 1 364 0
 492              		.code	16
 493 0006 0323     		mov	r3, #3
 494 0008 0370     		strb	r3, [r0]
 495 000a FFF7FEFF 		bl	spi_lld_send
 496              	.LVL33:
 497              		.loc 1 365 0
 498 000e 044B     		ldr	r3, .L18
 499 0010 9B69     		ldr	r3, [r3, #24]
 500 0012 A360     		str	r3, [r4, #8]
 501 0014 0220     		mov	r0, #2
 502 0016 FFF7FEFF 		bl	chSchGoSleepS
 503              	.LVL34:
 504              		.loc 1 366 0
 505              	@ 366 "ChibiOS_2.6.5/os/hal/src/spi.c" 1
 506 001a 62B6     		cpsie   i
 507              	@ 0 "" 2
 508              		.loc 1 367 0
 509              		.code	16
 510              		@ sp needed
 511              	.LVL35:
 512 001c 10BD     		pop	{r4, pc}
 513              	.L19:
ARM GAS  /tmp/ccNl6upi.s 			page 10


 514 001e C046     		.align	2
 515              	.L18:
 516 0020 00000000 		.word	rlist
 517              		.cfi_endproc
 518              	.LFE51:
 519              		.size	spiSend, .-spiSend
 520              		.section	.text.spiReceive,"ax",%progbits
 521              		.align	2
 522              		.global	spiReceive
 523              		.code	16
 524              		.thumb_func
 525              		.type	spiReceive, %function
 526              	spiReceive:
 527              	.LFB52:
 528              		.loc 1 385 0
 529              		.cfi_startproc
 530              	.LVL36:
 531 0000 10B5     		push	{r4, lr}
 532              		.cfi_def_cfa_offset 8
 533              		.cfi_offset 4, -8
 534              		.cfi_offset 14, -4
 535 0002 041C     		mov	r4, r0
 536              		.loc 1 390 0
 537              	@ 390 "ChibiOS_2.6.5/os/hal/src/spi.c" 1
 538 0004 72B6     		cpsid   i
 539              	@ 0 "" 2
 540              		.loc 1 394 0
 541              		.code	16
 542 0006 0323     		mov	r3, #3
 543 0008 0370     		strb	r3, [r0]
 544 000a FFF7FEFF 		bl	spi_lld_receive
 545              	.LVL37:
 546              		.loc 1 395 0
 547 000e 044B     		ldr	r3, .L21
 548 0010 9B69     		ldr	r3, [r3, #24]
 549 0012 A360     		str	r3, [r4, #8]
 550 0014 0220     		mov	r0, #2
 551 0016 FFF7FEFF 		bl	chSchGoSleepS
 552              	.LVL38:
 553              		.loc 1 396 0
 554              	@ 396 "ChibiOS_2.6.5/os/hal/src/spi.c" 1
 555 001a 62B6     		cpsie   i
 556              	@ 0 "" 2
 557              		.loc 1 397 0
 558              		.code	16
 559              		@ sp needed
 560              	.LVL39:
 561 001c 10BD     		pop	{r4, pc}
 562              	.L22:
 563 001e C046     		.align	2
 564              	.L21:
 565 0020 00000000 		.word	rlist
 566              		.cfi_endproc
 567              	.LFE52:
 568              		.size	spiReceive, .-spiReceive
 569              		.section	.text.spiAcquireBus,"ax",%progbits
 570              		.align	2
ARM GAS  /tmp/ccNl6upi.s 			page 11


 571              		.global	spiAcquireBus
 572              		.code	16
 573              		.thumb_func
 574              		.type	spiAcquireBus, %function
 575              	spiAcquireBus:
 576              	.LFB53:
 577              		.loc 1 412 0
 578              		.cfi_startproc
 579              	.LVL40:
 580 0000 08B5     		push	{r3, lr}
 581              		.cfi_def_cfa_offset 8
 582              		.cfi_offset 3, -8
 583              		.cfi_offset 14, -4
 584              		.loc 1 417 0
 585 0002 0C30     		add	r0, r0, #12
 586              	.LVL41:
 587 0004 FFF7FEFF 		bl	chMtxLock
 588              	.LVL42:
 589              		.loc 1 421 0
 590              		@ sp needed
 591 0008 08BD     		pop	{r3, pc}
 592              		.cfi_endproc
 593              	.LFE53:
 594              		.size	spiAcquireBus, .-spiAcquireBus
 595 000a C046     		.section	.text.spiReleaseBus,"ax",%progbits
 596              		.align	2
 597              		.global	spiReleaseBus
 598              		.code	16
 599              		.thumb_func
 600              		.type	spiReleaseBus, %function
 601              	spiReleaseBus:
 602              	.LFB54:
 603              		.loc 1 432 0
 604              		.cfi_startproc
 605              	.LVL43:
 606 0000 08B5     		push	{r3, lr}
 607              		.cfi_def_cfa_offset 8
 608              		.cfi_offset 3, -8
 609              		.cfi_offset 14, -4
 610              		.loc 1 438 0
 611 0002 FFF7FEFF 		bl	chMtxUnlock
 612              	.LVL44:
 613              		.loc 1 442 0
 614              		@ sp needed
 615 0006 08BD     		pop	{r3, pc}
 616              		.cfi_endproc
 617              	.LFE54:
 618              		.size	spiReleaseBus, .-spiReleaseBus
 619              		.text
 620              	.Letext0:
 621              		.file 2 "/usr/local/lpcxpresso_7.3.0_186/lpcxpresso/tools/lib/gcc/arm-none-eabi/4.8.4/include/stdd
 622              		.file 3 "/usr/local/lpcxpresso_7.3.0_186/lpcxpresso/tools/arm-none-eabi/include/machine/_default_t
 623              		.file 4 "/usr/local/lpcxpresso_7.3.0_186/lpcxpresso/tools/arm-none-eabi/include/stdint.h"
 624              		.file 5 "ChibiOS_2.6.5/os/ports/GCC/ARMCMx/chtypes.h"
 625              		.file 6 "ChibiOS_2.6.5/os/kernel/include/chlists.h"
 626              		.file 7 "ChibiOS_2.6.5/os/kernel/include/chthreads.h"
 627              		.file 8 "ChibiOS_2.6.5/os/ports/GCC/ARMCMx/chcore_v6m.h"
ARM GAS  /tmp/ccNl6upi.s 			page 12


 628              		.file 9 "ChibiOS_2.6.5/os/kernel/include/chschd.h"
 629              		.file 10 "ChibiOS_2.6.5/os/kernel/include/chmtx.h"
 630              		.file 11 "CMSIS_CORE_LPC11Uxx/inc/LPC11Uxx.h"
 631              		.file 12 "ChibiOS_2.6.5/os/hal/platforms/LPC11Uxx/pal_lld.h"
 632              		.file 13 "ChibiOS_2.6.5/os/hal/include/spi.h"
 633              		.file 14 "ChibiOS_2.6.5/os/hal/platforms/LPC11Uxx/spi_lld.h"
 634              		.section	.debug_info,"",%progbits
 635              	.Ldebug_info0:
 636 0000 1A0C0000 		.4byte	0xc1a
 637 0004 0400     		.2byte	0x4
 638 0006 00000000 		.4byte	.Ldebug_abbrev0
 639 000a 04       		.byte	0x4
 640 000b 01       		.uleb128 0x1
 641 000c 23020000 		.4byte	.LASF124
 642 0010 01       		.byte	0x1
 643 0011 A1050000 		.4byte	.LASF125
 644 0015 FA020000 		.4byte	.LASF126
 645 0019 00000000 		.4byte	.Ldebug_ranges0+0
 646 001d 00000000 		.4byte	0
 647 0021 00000000 		.4byte	.Ldebug_line0
 648 0025 02       		.uleb128 0x2
 649 0026 04       		.byte	0x4
 650 0027 05       		.byte	0x5
 651 0028 696E7400 		.ascii	"int\000"
 652 002c 03       		.uleb128 0x3
 653 002d 06000000 		.4byte	.LASF2
 654 0031 02       		.byte	0x2
 655 0032 D4       		.byte	0xd4
 656 0033 37000000 		.4byte	0x37
 657 0037 04       		.uleb128 0x4
 658 0038 04       		.byte	0x4
 659 0039 07       		.byte	0x7
 660 003a 95010000 		.4byte	.LASF0
 661 003e 04       		.uleb128 0x4
 662 003f 01       		.byte	0x1
 663 0040 06       		.byte	0x6
 664 0041 A5000000 		.4byte	.LASF1
 665 0045 03       		.uleb128 0x3
 666 0046 14000000 		.4byte	.LASF3
 667 004a 03       		.byte	0x3
 668 004b 1C       		.byte	0x1c
 669 004c 50000000 		.4byte	0x50
 670 0050 04       		.uleb128 0x4
 671 0051 01       		.byte	0x1
 672 0052 08       		.byte	0x8
 673 0053 D5030000 		.4byte	.LASF4
 674 0057 04       		.uleb128 0x4
 675 0058 02       		.byte	0x2
 676 0059 05       		.byte	0x5
 677 005a ED030000 		.4byte	.LASF5
 678 005e 03       		.uleb128 0x3
 679 005f 92040000 		.4byte	.LASF6
 680 0063 03       		.byte	0x3
 681 0064 26       		.byte	0x26
 682 0065 69000000 		.4byte	0x69
 683 0069 04       		.uleb128 0x4
 684 006a 02       		.byte	0x2
ARM GAS  /tmp/ccNl6upi.s 			page 13


 685 006b 07       		.byte	0x7
 686 006c E4010000 		.4byte	.LASF7
 687 0070 03       		.uleb128 0x3
 688 0071 C4040000 		.4byte	.LASF8
 689 0075 03       		.byte	0x3
 690 0076 37       		.byte	0x37
 691 0077 7B000000 		.4byte	0x7b
 692 007b 04       		.uleb128 0x4
 693 007c 04       		.byte	0x4
 694 007d 05       		.byte	0x5
 695 007e E7000000 		.4byte	.LASF9
 696 0082 03       		.uleb128 0x3
 697 0083 CE040000 		.4byte	.LASF10
 698 0087 03       		.byte	0x3
 699 0088 38       		.byte	0x38
 700 0089 8D000000 		.4byte	0x8d
 701 008d 04       		.uleb128 0x4
 702 008e 04       		.byte	0x4
 703 008f 07       		.byte	0x7
 704 0090 67040000 		.4byte	.LASF11
 705 0094 04       		.uleb128 0x4
 706 0095 08       		.byte	0x8
 707 0096 05       		.byte	0x5
 708 0097 21010000 		.4byte	.LASF12
 709 009b 04       		.uleb128 0x4
 710 009c 08       		.byte	0x8
 711 009d 07       		.byte	0x7
 712 009e 3D000000 		.4byte	.LASF13
 713 00a2 03       		.uleb128 0x3
 714 00a3 76050000 		.4byte	.LASF14
 715 00a7 04       		.byte	0x4
 716 00a8 2A       		.byte	0x2a
 717 00a9 45000000 		.4byte	0x45
 718 00ad 03       		.uleb128 0x3
 719 00ae 2F010000 		.4byte	.LASF15
 720 00b2 04       		.byte	0x4
 721 00b3 36       		.byte	0x36
 722 00b4 5E000000 		.4byte	0x5e
 723 00b8 03       		.uleb128 0x3
 724 00b9 CD030000 		.4byte	.LASF16
 725 00bd 04       		.byte	0x4
 726 00be 41       		.byte	0x41
 727 00bf 70000000 		.4byte	0x70
 728 00c3 03       		.uleb128 0x3
 729 00c4 51040000 		.4byte	.LASF17
 730 00c8 04       		.byte	0x4
 731 00c9 42       		.byte	0x42
 732 00ca 82000000 		.4byte	0x82
 733 00ce 04       		.uleb128 0x4
 734 00cf 01       		.byte	0x1
 735 00d0 02       		.byte	0x2
 736 00d1 C7030000 		.4byte	.LASF18
 737 00d5 03       		.uleb128 0x3
 738 00d6 FD010000 		.4byte	.LASF19
 739 00da 05       		.byte	0x5
 740 00db 2C       		.byte	0x2c
 741 00dc A2000000 		.4byte	0xa2
ARM GAS  /tmp/ccNl6upi.s 			page 14


 742 00e0 03       		.uleb128 0x3
 743 00e1 F0000000 		.4byte	.LASF20
 744 00e5 05       		.byte	0x5
 745 00e6 2D       		.byte	0x2d
 746 00e7 A2000000 		.4byte	0xa2
 747 00eb 03       		.uleb128 0x3
 748 00ec A2030000 		.4byte	.LASF21
 749 00f0 05       		.byte	0x5
 750 00f1 2E       		.byte	0x2e
 751 00f2 A2000000 		.4byte	0xa2
 752 00f6 03       		.uleb128 0x3
 753 00f7 D7000000 		.4byte	.LASF22
 754 00fb 05       		.byte	0x5
 755 00fc 2F       		.byte	0x2f
 756 00fd A2000000 		.4byte	0xa2
 757 0101 03       		.uleb128 0x3
 758 0102 B9030000 		.4byte	.LASF23
 759 0106 05       		.byte	0x5
 760 0107 30       		.byte	0x30
 761 0108 C3000000 		.4byte	0xc3
 762 010c 03       		.uleb128 0x3
 763 010d F7010000 		.4byte	.LASF24
 764 0111 05       		.byte	0x5
 765 0112 31       		.byte	0x31
 766 0113 B8000000 		.4byte	0xb8
 767 0117 03       		.uleb128 0x3
 768 0118 17020000 		.4byte	.LASF25
 769 011c 05       		.byte	0x5
 770 011d 33       		.byte	0x33
 771 011e C3000000 		.4byte	0xc3
 772 0122 03       		.uleb128 0x3
 773 0123 AF040000 		.4byte	.LASF26
 774 0127 05       		.byte	0x5
 775 0128 35       		.byte	0x35
 776 0129 C3000000 		.4byte	0xc3
 777 012d 03       		.uleb128 0x3
 778 012e 31040000 		.4byte	.LASF27
 779 0132 06       		.byte	0x6
 780 0133 2A       		.byte	0x2a
 781 0134 38010000 		.4byte	0x138
 782 0138 05       		.uleb128 0x5
 783 0139 31040000 		.4byte	.LASF27
 784 013d 48       		.byte	0x48
 785 013e 07       		.byte	0x7
 786 013f 5E       		.byte	0x5e
 787 0140 35020000 		.4byte	0x235
 788 0144 06       		.uleb128 0x6
 789 0145 1C040000 		.4byte	.LASF28
 790 0149 07       		.byte	0x7
 791 014a 5F       		.byte	0x5f
 792 014b 56020000 		.4byte	0x256
 793 014f 00       		.byte	0
 794 0150 06       		.uleb128 0x6
 795 0151 AA030000 		.4byte	.LASF29
 796 0155 07       		.byte	0x7
 797 0156 61       		.byte	0x61
 798 0157 56020000 		.4byte	0x256
ARM GAS  /tmp/ccNl6upi.s 			page 15


 799 015b 04       		.byte	0x4
 800 015c 06       		.uleb128 0x6
 801 015d 92000000 		.4byte	.LASF30
 802 0161 07       		.byte	0x7
 803 0162 63       		.byte	0x63
 804 0163 01010000 		.4byte	0x101
 805 0167 08       		.byte	0x8
 806 0168 06       		.uleb128 0x6
 807 0169 C8050000 		.4byte	.LASF31
 808 016d 07       		.byte	0x7
 809 016e 64       		.byte	0x64
 810 016f 06030000 		.4byte	0x306
 811 0173 0C       		.byte	0xc
 812 0174 06       		.uleb128 0x6
 813 0175 4E010000 		.4byte	.LASF32
 814 0179 07       		.byte	0x7
 815 017a 66       		.byte	0x66
 816 017b 56020000 		.4byte	0x256
 817 017f 10       		.byte	0x10
 818 0180 06       		.uleb128 0x6
 819 0181 70030000 		.4byte	.LASF33
 820 0185 07       		.byte	0x7
 821 0186 67       		.byte	0x67
 822 0187 56020000 		.4byte	0x256
 823 018b 14       		.byte	0x14
 824 018c 06       		.uleb128 0x6
 825 018d 8A050000 		.4byte	.LASF34
 826 0191 07       		.byte	0x7
 827 0192 6E       		.byte	0x6e
 828 0193 09040000 		.4byte	0x409
 829 0197 18       		.byte	0x18
 830 0198 06       		.uleb128 0x6
 831 0199 F7030000 		.4byte	.LASF35
 832 019d 07       		.byte	0x7
 833 019e 79       		.byte	0x79
 834 019f E0000000 		.4byte	0xe0
 835 01a3 1C       		.byte	0x1c
 836 01a4 06       		.uleb128 0x6
 837 01a5 23040000 		.4byte	.LASF36
 838 01a9 07       		.byte	0x7
 839 01aa 7D       		.byte	0x7d
 840 01ab D5000000 		.4byte	0xd5
 841 01af 1D       		.byte	0x1d
 842 01b0 06       		.uleb128 0x6
 843 01b1 1A010000 		.4byte	.LASF37
 844 01b5 07       		.byte	0x7
 845 01b6 82       		.byte	0x82
 846 01b7 EB000000 		.4byte	0xeb
 847 01bb 1E       		.byte	0x1e
 848 01bc 06       		.uleb128 0x6
 849 01bd FF030000 		.4byte	.LASF38
 850 01c1 07       		.byte	0x7
 851 01c2 88       		.byte	0x88
 852 01c3 F6000000 		.4byte	0xf6
 853 01c7 1F       		.byte	0x1f
 854 01c8 06       		.uleb128 0x6
 855 01c9 38010000 		.4byte	.LASF39
ARM GAS  /tmp/ccNl6upi.s 			page 16


 856 01cd 07       		.byte	0x7
 857 01ce 8F       		.byte	0x8f
 858 01cf 31030000 		.4byte	0x331
 859 01d3 20       		.byte	0x20
 860 01d4 07       		.uleb128 0x7
 861 01d5 705F7500 		.ascii	"p_u\000"
 862 01d9 07       		.byte	0x7
 863 01da B4       		.byte	0xb4
 864 01db D4030000 		.4byte	0x3d4
 865 01df 24       		.byte	0x24
 866 01e0 06       		.uleb128 0x6
 867 01e1 CE050000 		.4byte	.LASF40
 868 01e5 07       		.byte	0x7
 869 01e6 B9       		.byte	0xb9
 870 01e7 7C020000 		.4byte	0x27c
 871 01eb 28       		.byte	0x28
 872 01ec 06       		.uleb128 0x6
 873 01ed C4010000 		.4byte	.LASF41
 874 01f1 07       		.byte	0x7
 875 01f2 BF       		.byte	0xbf
 876 01f3 5C020000 		.4byte	0x25c
 877 01f7 2C       		.byte	0x2c
 878 01f8 06       		.uleb128 0x6
 879 01f9 9B050000 		.4byte	.LASF42
 880 01fd 07       		.byte	0x7
 881 01fe C3       		.byte	0xc3
 882 01ff 0C010000 		.4byte	0x10c
 883 0203 34       		.byte	0x34
 884 0204 06       		.uleb128 0x6
 885 0205 46040000 		.4byte	.LASF43
 886 0209 07       		.byte	0x7
 887 020a C9       		.byte	0xc9
 888 020b 17010000 		.4byte	0x117
 889 020f 38       		.byte	0x38
 890 0210 06       		.uleb128 0x6
 891 0211 E3030000 		.4byte	.LASF44
 892 0215 07       		.byte	0x7
 893 0216 D0       		.byte	0xd0
 894 0217 1B040000 		.4byte	0x41b
 895 021b 3C       		.byte	0x3c
 896 021c 06       		.uleb128 0x6
 897 021d B9040000 		.4byte	.LASF45
 898 0221 07       		.byte	0x7
 899 0222 D4       		.byte	0xd4
 900 0223 01010000 		.4byte	0x101
 901 0227 40       		.byte	0x40
 902 0228 06       		.uleb128 0x6
 903 0229 BA000000 		.4byte	.LASF46
 904 022d 07       		.byte	0x7
 905 022e DA       		.byte	0xda
 906 022f 92020000 		.4byte	0x292
 907 0233 44       		.byte	0x44
 908 0234 00       		.byte	0
 909 0235 08       		.uleb128 0x8
 910 0236 08       		.byte	0x8
 911 0237 06       		.byte	0x6
 912 0238 61       		.byte	0x61
ARM GAS  /tmp/ccNl6upi.s 			page 17


 913 0239 56020000 		.4byte	0x256
 914 023d 06       		.uleb128 0x6
 915 023e 1C040000 		.4byte	.LASF28
 916 0242 06       		.byte	0x6
 917 0243 62       		.byte	0x62
 918 0244 56020000 		.4byte	0x256
 919 0248 00       		.byte	0
 920 0249 06       		.uleb128 0x6
 921 024a AA030000 		.4byte	.LASF29
 922 024e 06       		.byte	0x6
 923 024f 64       		.byte	0x64
 924 0250 56020000 		.4byte	0x256
 925 0254 04       		.byte	0x4
 926 0255 00       		.byte	0
 927 0256 09       		.uleb128 0x9
 928 0257 04       		.byte	0x4
 929 0258 2D010000 		.4byte	0x12d
 930 025c 03       		.uleb128 0x3
 931 025d 7E030000 		.4byte	.LASF47
 932 0261 06       		.byte	0x6
 933 0262 66       		.byte	0x66
 934 0263 35020000 		.4byte	0x235
 935 0267 08       		.uleb128 0x8
 936 0268 04       		.byte	0x4
 937 0269 06       		.byte	0x6
 938 026a 6B       		.byte	0x6b
 939 026b 7C020000 		.4byte	0x27c
 940 026f 06       		.uleb128 0x6
 941 0270 1C040000 		.4byte	.LASF28
 942 0274 06       		.byte	0x6
 943 0275 6D       		.byte	0x6d
 944 0276 56020000 		.4byte	0x256
 945 027a 00       		.byte	0
 946 027b 00       		.byte	0
 947 027c 03       		.uleb128 0x3
 948 027d 0B020000 		.4byte	.LASF48
 949 0281 06       		.byte	0x6
 950 0282 70       		.byte	0x70
 951 0283 67020000 		.4byte	0x267
 952 0287 03       		.uleb128 0x3
 953 0288 6B010000 		.4byte	.LASF49
 954 028c 08       		.byte	0x8
 955 028d A7       		.byte	0xa7
 956 028e 92020000 		.4byte	0x292
 957 0292 0A       		.uleb128 0xa
 958 0293 04       		.byte	0x4
 959 0294 05       		.uleb128 0x5
 960 0295 1B050000 		.4byte	.LASF50
 961 0299 24       		.byte	0x24
 962 029a 08       		.byte	0x8
 963 029b BA       		.byte	0xba
 964 029c 06030000 		.4byte	0x306
 965 02a0 07       		.uleb128 0x7
 966 02a1 723800   		.ascii	"r8\000"
 967 02a4 08       		.byte	0x8
 968 02a5 BB       		.byte	0xbb
 969 02a6 87020000 		.4byte	0x287
ARM GAS  /tmp/ccNl6upi.s 			page 18


 970 02aa 00       		.byte	0
 971 02ab 07       		.uleb128 0x7
 972 02ac 723900   		.ascii	"r9\000"
 973 02af 08       		.byte	0x8
 974 02b0 BC       		.byte	0xbc
 975 02b1 87020000 		.4byte	0x287
 976 02b5 04       		.byte	0x4
 977 02b6 07       		.uleb128 0x7
 978 02b7 72313000 		.ascii	"r10\000"
 979 02bb 08       		.byte	0x8
 980 02bc BD       		.byte	0xbd
 981 02bd 87020000 		.4byte	0x287
 982 02c1 08       		.byte	0x8
 983 02c2 07       		.uleb128 0x7
 984 02c3 72313100 		.ascii	"r11\000"
 985 02c7 08       		.byte	0x8
 986 02c8 BE       		.byte	0xbe
 987 02c9 87020000 		.4byte	0x287
 988 02cd 0C       		.byte	0xc
 989 02ce 07       		.uleb128 0x7
 990 02cf 723400   		.ascii	"r4\000"
 991 02d2 08       		.byte	0x8
 992 02d3 BF       		.byte	0xbf
 993 02d4 87020000 		.4byte	0x287
 994 02d8 10       		.byte	0x10
 995 02d9 07       		.uleb128 0x7
 996 02da 723500   		.ascii	"r5\000"
 997 02dd 08       		.byte	0x8
 998 02de C0       		.byte	0xc0
 999 02df 87020000 		.4byte	0x287
 1000 02e3 14       		.byte	0x14
 1001 02e4 07       		.uleb128 0x7
 1002 02e5 723600   		.ascii	"r6\000"
 1003 02e8 08       		.byte	0x8
 1004 02e9 C1       		.byte	0xc1
 1005 02ea 87020000 		.4byte	0x287
 1006 02ee 18       		.byte	0x18
 1007 02ef 07       		.uleb128 0x7
 1008 02f0 723700   		.ascii	"r7\000"
 1009 02f3 08       		.byte	0x8
 1010 02f4 C2       		.byte	0xc2
 1011 02f5 87020000 		.4byte	0x287
 1012 02f9 1C       		.byte	0x1c
 1013 02fa 07       		.uleb128 0x7
 1014 02fb 6C7200   		.ascii	"lr\000"
 1015 02fe 08       		.byte	0x8
 1016 02ff C3       		.byte	0xc3
 1017 0300 87020000 		.4byte	0x287
 1018 0304 20       		.byte	0x20
 1019 0305 00       		.byte	0
 1020 0306 05       		.uleb128 0x5
 1021 0307 DC010000 		.4byte	.LASF51
 1022 030b 04       		.byte	0x4
 1023 030c 08       		.byte	0x8
 1024 030d CD       		.byte	0xcd
 1025 030e 1F030000 		.4byte	0x31f
 1026 0312 07       		.uleb128 0x7
ARM GAS  /tmp/ccNl6upi.s 			page 19


 1027 0313 72313300 		.ascii	"r13\000"
 1028 0317 08       		.byte	0x8
 1029 0318 CE       		.byte	0xce
 1030 0319 1F030000 		.4byte	0x31f
 1031 031d 00       		.byte	0
 1032 031e 00       		.byte	0
 1033 031f 09       		.uleb128 0x9
 1034 0320 04       		.byte	0x4
 1035 0321 94020000 		.4byte	0x294
 1036 0325 0B       		.uleb128 0xb
 1037 0326 C3000000 		.4byte	0xc3
 1038 032a 04       		.uleb128 0x4
 1039 032b 04       		.byte	0x4
 1040 032c 07       		.byte	0x7
 1041 032d 3C030000 		.4byte	.LASF52
 1042 0331 0B       		.uleb128 0xb
 1043 0332 22010000 		.4byte	0x122
 1044 0336 08       		.uleb128 0x8
 1045 0337 1C       		.byte	0x1c
 1046 0338 09       		.byte	0x9
 1047 0339 5E       		.byte	0x5e
 1048 033a 87030000 		.4byte	0x387
 1049 033e 06       		.uleb128 0x6
 1050 033f 5A040000 		.4byte	.LASF53
 1051 0343 09       		.byte	0x9
 1052 0344 5F       		.byte	0x5f
 1053 0345 5C020000 		.4byte	0x25c
 1054 0349 00       		.byte	0
 1055 034a 06       		.uleb128 0x6
 1056 034b 19030000 		.4byte	.LASF54
 1057 034f 09       		.byte	0x9
 1058 0350 60       		.byte	0x60
 1059 0351 01010000 		.4byte	0x101
 1060 0355 08       		.byte	0x8
 1061 0356 06       		.uleb128 0x6
 1062 0357 78030000 		.4byte	.LASF55
 1063 035b 09       		.byte	0x9
 1064 035c 62       		.byte	0x62
 1065 035d 06030000 		.4byte	0x306
 1066 0361 0C       		.byte	0xc
 1067 0362 06       		.uleb128 0x6
 1068 0363 63010000 		.4byte	.LASF56
 1069 0367 09       		.byte	0x9
 1070 0368 65       		.byte	0x65
 1071 0369 56020000 		.4byte	0x256
 1072 036d 10       		.byte	0x10
 1073 036e 06       		.uleb128 0x6
 1074 036f 9A030000 		.4byte	.LASF57
 1075 0373 09       		.byte	0x9
 1076 0374 66       		.byte	0x66
 1077 0375 56020000 		.4byte	0x256
 1078 0379 14       		.byte	0x14
 1079 037a 06       		.uleb128 0x6
 1080 037b 90030000 		.4byte	.LASF58
 1081 037f 09       		.byte	0x9
 1082 0380 69       		.byte	0x69
 1083 0381 56020000 		.4byte	0x256
ARM GAS  /tmp/ccNl6upi.s 			page 20


 1084 0385 18       		.byte	0x18
 1085 0386 00       		.byte	0
 1086 0387 03       		.uleb128 0x3
 1087 0388 E8020000 		.4byte	.LASF59
 1088 038c 09       		.byte	0x9
 1089 038d 6B       		.byte	0x6b
 1090 038e 36030000 		.4byte	0x336
 1091 0392 05       		.uleb128 0x5
 1092 0393 45030000 		.4byte	.LASF60
 1093 0397 10       		.byte	0x10
 1094 0398 0A       		.byte	0xa
 1095 0399 2C       		.byte	0x2c
 1096 039a C3030000 		.4byte	0x3c3
 1097 039e 06       		.uleb128 0x6
 1098 039f CF000000 		.4byte	.LASF61
 1099 03a3 0A       		.byte	0xa
 1100 03a4 2D       		.byte	0x2d
 1101 03a5 5C020000 		.4byte	0x25c
 1102 03a9 00       		.byte	0
 1103 03aa 06       		.uleb128 0x6
 1104 03ab C0050000 		.4byte	.LASF62
 1105 03af 0A       		.byte	0xa
 1106 03b0 2F       		.byte	0x2f
 1107 03b1 56020000 		.4byte	0x256
 1108 03b5 08       		.byte	0x8
 1109 03b6 06       		.uleb128 0x6
 1110 03b7 A8040000 		.4byte	.LASF63
 1111 03bb 0A       		.byte	0xa
 1112 03bc 31       		.byte	0x31
 1113 03bd C3030000 		.4byte	0x3c3
 1114 03c1 0C       		.byte	0xc
 1115 03c2 00       		.byte	0
 1116 03c3 09       		.uleb128 0x9
 1117 03c4 04       		.byte	0x4
 1118 03c5 92030000 		.4byte	0x392
 1119 03c9 03       		.uleb128 0x3
 1120 03ca 45030000 		.4byte	.LASF60
 1121 03ce 0A       		.byte	0xa
 1122 03cf 33       		.byte	0x33
 1123 03d0 92030000 		.4byte	0x392
 1124 03d4 0C       		.uleb128 0xc
 1125 03d5 04       		.byte	0x4
 1126 03d6 07       		.byte	0x7
 1127 03d7 96       		.byte	0x96
 1128 03d8 09040000 		.4byte	0x409
 1129 03dc 0D       		.uleb128 0xd
 1130 03dd 0D000000 		.4byte	.LASF64
 1131 03e1 07       		.byte	0x7
 1132 03e2 9D       		.byte	0x9d
 1133 03e3 0C010000 		.4byte	0x10c
 1134 03e7 0D       		.uleb128 0xd
 1135 03e8 65000000 		.4byte	.LASF65
 1136 03ec 07       		.byte	0x7
 1137 03ed A4       		.byte	0xa4
 1138 03ee 0C010000 		.4byte	0x10c
 1139 03f2 0D       		.uleb128 0xd
 1140 03f3 83050000 		.4byte	.LASF66
ARM GAS  /tmp/ccNl6upi.s 			page 21


 1141 03f7 07       		.byte	0x7
 1142 03f8 AB       		.byte	0xab
 1143 03f9 92020000 		.4byte	0x292
 1144 03fd 0D       		.uleb128 0xd
 1145 03fe 15040000 		.4byte	.LASF67
 1146 0402 07       		.byte	0x7
 1147 0403 B2       		.byte	0xb2
 1148 0404 17010000 		.4byte	0x117
 1149 0408 00       		.byte	0
 1150 0409 09       		.uleb128 0x9
 1151 040a 04       		.byte	0x4
 1152 040b 0F040000 		.4byte	0x40f
 1153 040f 0E       		.uleb128 0xe
 1154 0410 14040000 		.4byte	0x414
 1155 0414 04       		.uleb128 0x4
 1156 0415 01       		.byte	0x1
 1157 0416 08       		.byte	0x8
 1158 0417 79040000 		.4byte	.LASF68
 1159 041b 09       		.uleb128 0x9
 1160 041c 04       		.byte	0x4
 1161 041d C9030000 		.4byte	0x3c9
 1162 0421 0E       		.uleb128 0xe
 1163 0422 25030000 		.4byte	0x325
 1164 0426 0F       		.uleb128 0xf
 1165 0427 24       		.byte	0x24
 1166 0428 0B       		.byte	0xb
 1167 0429 5701     		.2byte	0x157
 1168 042b A3040000 		.4byte	0x4a3
 1169 042f 10       		.uleb128 0x10
 1170 0430 43523000 		.ascii	"CR0\000"
 1171 0434 0B       		.byte	0xb
 1172 0435 5801     		.2byte	0x158
 1173 0437 25030000 		.4byte	0x325
 1174 043b 00       		.byte	0
 1175 043c 10       		.uleb128 0x10
 1176 043d 43523100 		.ascii	"CR1\000"
 1177 0441 0B       		.byte	0xb
 1178 0442 5901     		.2byte	0x159
 1179 0444 25030000 		.4byte	0x325
 1180 0448 04       		.byte	0x4
 1181 0449 10       		.uleb128 0x10
 1182 044a 445200   		.ascii	"DR\000"
 1183 044d 0B       		.byte	0xb
 1184 044e 5A01     		.2byte	0x15a
 1185 0450 25030000 		.4byte	0x325
 1186 0454 08       		.byte	0x8
 1187 0455 10       		.uleb128 0x10
 1188 0456 535200   		.ascii	"SR\000"
 1189 0459 0B       		.byte	0xb
 1190 045a 5B01     		.2byte	0x15b
 1191 045c 21040000 		.4byte	0x421
 1192 0460 0C       		.byte	0xc
 1193 0461 11       		.uleb128 0x11
 1194 0462 62040000 		.4byte	.LASF69
 1195 0466 0B       		.byte	0xb
 1196 0467 5C01     		.2byte	0x15c
 1197 0469 25030000 		.4byte	0x325
ARM GAS  /tmp/ccNl6upi.s 			page 22


 1198 046d 10       		.byte	0x10
 1199 046e 11       		.uleb128 0x11
 1200 046f 8B030000 		.4byte	.LASF70
 1201 0473 0B       		.byte	0xb
 1202 0474 5D01     		.2byte	0x15d
 1203 0476 25030000 		.4byte	0x325
 1204 047a 14       		.byte	0x14
 1205 047b 10       		.uleb128 0x10
 1206 047c 52495300 		.ascii	"RIS\000"
 1207 0480 0B       		.byte	0xb
 1208 0481 5E01     		.2byte	0x15e
 1209 0483 21040000 		.4byte	0x421
 1210 0487 18       		.byte	0x18
 1211 0488 10       		.uleb128 0x10
 1212 0489 4D495300 		.ascii	"MIS\000"
 1213 048d 0B       		.byte	0xb
 1214 048e 5F01     		.2byte	0x15f
 1215 0490 21040000 		.4byte	0x421
 1216 0494 1C       		.byte	0x1c
 1217 0495 10       		.uleb128 0x10
 1218 0496 49435200 		.ascii	"ICR\000"
 1219 049a 0B       		.byte	0xb
 1220 049b 6001     		.2byte	0x160
 1221 049d 25030000 		.4byte	0x325
 1222 04a1 20       		.byte	0x20
 1223 04a2 00       		.byte	0
 1224 04a3 12       		.uleb128 0x12
 1225 04a4 50050000 		.4byte	.LASF71
 1226 04a8 0B       		.byte	0xb
 1227 04a9 6101     		.2byte	0x161
 1228 04ab 26040000 		.4byte	0x426
 1229 04af 03       		.uleb128 0x3
 1230 04b0 EE040000 		.4byte	.LASF72
 1231 04b4 0C       		.byte	0xc
 1232 04b5 60       		.byte	0x60
 1233 04b6 C3000000 		.4byte	0xc3
 1234 04ba 13       		.uleb128 0x13
 1235 04bb 01       		.byte	0x1
 1236 04bc 0D       		.byte	0xd
 1237 04bd 55       		.byte	0x55
 1238 04be E1040000 		.4byte	0x4e1
 1239 04c2 14       		.uleb128 0x14
 1240 04c3 2C050000 		.4byte	.LASF73
 1241 04c7 00       		.sleb128 0
 1242 04c8 14       		.uleb128 0x14
 1243 04c9 B1000000 		.4byte	.LASF74
 1244 04cd 01       		.sleb128 1
 1245 04ce 14       		.uleb128 0x14
 1246 04cf 22050000 		.4byte	.LASF75
 1247 04d3 02       		.sleb128 2
 1248 04d4 14       		.uleb128 0x14
 1249 04d5 1E000000 		.4byte	.LASF76
 1250 04d9 03       		.sleb128 3
 1251 04da 14       		.uleb128 0x14
 1252 04db 7E040000 		.4byte	.LASF77
 1253 04df 04       		.sleb128 4
 1254 04e0 00       		.byte	0
ARM GAS  /tmp/ccNl6upi.s 			page 23


 1255 04e1 03       		.uleb128 0x3
 1256 04e2 9D040000 		.4byte	.LASF78
 1257 04e6 0D       		.byte	0xd
 1258 04e7 5B       		.byte	0x5b
 1259 04e8 BA040000 		.4byte	0x4ba
 1260 04ec 03       		.uleb128 0x3
 1261 04ed 73000000 		.4byte	.LASF79
 1262 04f1 0E       		.byte	0xe
 1263 04f2 B6       		.byte	0xb6
 1264 04f3 F7040000 		.4byte	0x4f7
 1265 04f7 05       		.uleb128 0x5
 1266 04f8 73000000 		.4byte	.LASF79
 1267 04fc 30       		.byte	0x30
 1268 04fd 0E       		.byte	0xe
 1269 04fe DE       		.byte	0xde
 1270 04ff 74050000 		.4byte	0x574
 1271 0503 06       		.uleb128 0x6
 1272 0504 E1000000 		.4byte	.LASF80
 1273 0508 0E       		.byte	0xe
 1274 0509 E2       		.byte	0xe2
 1275 050a E1040000 		.4byte	0x4e1
 1276 050e 00       		.byte	0
 1277 050f 06       		.uleb128 0x6
 1278 0510 8B040000 		.4byte	.LASF81
 1279 0514 0E       		.byte	0xe
 1280 0515 E6       		.byte	0xe6
 1281 0516 E6050000 		.4byte	0x5e6
 1282 051a 04       		.byte	0x4
 1283 051b 06       		.uleb128 0x6
 1284 051c D9040000 		.4byte	.LASF82
 1285 0520 0E       		.byte	0xe
 1286 0521 EB       		.byte	0xeb
 1287 0522 56020000 		.4byte	0x256
 1288 0526 08       		.byte	0x8
 1289 0527 06       		.uleb128 0x6
 1290 0528 C1030000 		.4byte	.LASF83
 1291 052c 0E       		.byte	0xe
 1292 052d F2       		.byte	0xf2
 1293 052e C9030000 		.4byte	0x3c9
 1294 0532 0C       		.byte	0xc
 1295 0533 07       		.uleb128 0x7
 1296 0534 73737000 		.ascii	"ssp\000"
 1297 0538 0E       		.byte	0xe
 1298 0539 FE       		.byte	0xfe
 1299 053a F1050000 		.4byte	0x5f1
 1300 053e 1C       		.byte	0x1c
 1301 053f 11       		.uleb128 0x11
 1302 0540 00000000 		.4byte	.LASF84
 1303 0544 0E       		.byte	0xe
 1304 0545 0201     		.2byte	0x102
 1305 0547 C3000000 		.4byte	0xc3
 1306 054b 20       		.byte	0x20
 1307 054c 11       		.uleb128 0x11
 1308 054d 05020000 		.4byte	.LASF85
 1309 0551 0E       		.byte	0xe
 1310 0552 0601     		.2byte	0x106
 1311 0554 92020000 		.4byte	0x292
ARM GAS  /tmp/ccNl6upi.s 			page 24


 1312 0558 24       		.byte	0x24
 1313 0559 11       		.uleb128 0x11
 1314 055a 5D010000 		.4byte	.LASF86
 1315 055e 0E       		.byte	0xe
 1316 055f 0A01     		.2byte	0x10a
 1317 0561 C3000000 		.4byte	0xc3
 1318 0565 28       		.byte	0x28
 1319 0566 11       		.uleb128 0x11
 1320 0567 2B040000 		.4byte	.LASF87
 1321 056b 0E       		.byte	0xe
 1322 056c 0E01     		.2byte	0x10e
 1323 056e F7050000 		.4byte	0x5f7
 1324 0572 2C       		.byte	0x2c
 1325 0573 00       		.byte	0
 1326 0574 03       		.uleb128 0x3
 1327 0575 74010000 		.4byte	.LASF88
 1328 0579 0E       		.byte	0xe
 1329 057a BE       		.byte	0xbe
 1330 057b 7F050000 		.4byte	0x57f
 1331 057f 09       		.uleb128 0x9
 1332 0580 04       		.byte	0x4
 1333 0581 85050000 		.4byte	0x585
 1334 0585 15       		.uleb128 0x15
 1335 0586 90050000 		.4byte	0x590
 1336 058a 16       		.uleb128 0x16
 1337 058b 90050000 		.4byte	0x590
 1338 058f 00       		.byte	0
 1339 0590 09       		.uleb128 0x9
 1340 0591 04       		.byte	0x4
 1341 0592 EC040000 		.4byte	0x4ec
 1342 0596 08       		.uleb128 0x8
 1343 0597 10       		.byte	0x10
 1344 0598 0E       		.byte	0xe
 1345 0599 C3       		.byte	0xc3
 1346 059a DB050000 		.4byte	0x5db
 1347 059e 06       		.uleb128 0x6
 1348 059f 56010000 		.4byte	.LASF89
 1349 05a3 0E       		.byte	0xe
 1350 05a4 C7       		.byte	0xc7
 1351 05a5 74050000 		.4byte	0x574
 1352 05a9 00       		.byte	0
 1353 05aa 06       		.uleb128 0x6
 1354 05ab 7D000000 		.4byte	.LASF90
 1355 05af 0E       		.byte	0xe
 1356 05b0 CC       		.byte	0xcc
 1357 05b1 AF040000 		.4byte	0x4af
 1358 05b5 04       		.byte	0x4
 1359 05b6 06       		.uleb128 0x6
 1360 05b7 37000000 		.4byte	.LASF91
 1361 05bb 0E       		.byte	0xe
 1362 05bc D0       		.byte	0xd0
 1363 05bd AD000000 		.4byte	0xad
 1364 05c1 08       		.byte	0x8
 1365 05c2 07       		.uleb128 0x7
 1366 05c3 63723000 		.ascii	"cr0\000"
 1367 05c7 0E       		.byte	0xe
 1368 05c8 D4       		.byte	0xd4
ARM GAS  /tmp/ccNl6upi.s 			page 25


 1369 05c9 AD000000 		.4byte	0xad
 1370 05cd 0A       		.byte	0xa
 1371 05ce 06       		.uleb128 0x6
 1372 05cf 6E000000 		.4byte	.LASF92
 1373 05d3 0E       		.byte	0xe
 1374 05d4 D8       		.byte	0xd8
 1375 05d5 C3000000 		.4byte	0xc3
 1376 05d9 0C       		.byte	0xc
 1377 05da 00       		.byte	0
 1378 05db 03       		.uleb128 0x3
 1379 05dc 91050000 		.4byte	.LASF93
 1380 05e0 0E       		.byte	0xe
 1381 05e1 D9       		.byte	0xd9
 1382 05e2 96050000 		.4byte	0x596
 1383 05e6 09       		.uleb128 0x9
 1384 05e7 04       		.byte	0x4
 1385 05e8 EC050000 		.4byte	0x5ec
 1386 05ec 0E       		.uleb128 0xe
 1387 05ed DB050000 		.4byte	0x5db
 1388 05f1 09       		.uleb128 0x9
 1389 05f2 04       		.byte	0x4
 1390 05f3 A3040000 		.4byte	0x4a3
 1391 05f7 09       		.uleb128 0x9
 1392 05f8 04       		.byte	0x4
 1393 05f9 FD050000 		.4byte	0x5fd
 1394 05fd 17       		.uleb128 0x17
 1395 05fe 18       		.uleb128 0x18
 1396 05ff F2020000 		.4byte	.LASF94
 1397 0603 01       		.byte	0x1
 1398 0604 44       		.byte	0x44
 1399 0605 00000000 		.4byte	.LFB39
 1400 0609 08000000 		.4byte	.LFE39-.LFB39
 1401 060d 01       		.uleb128 0x1
 1402 060e 9C       		.byte	0x9c
 1403 060f 1D060000 		.4byte	0x61d
 1404 0613 19       		.uleb128 0x19
 1405 0614 06000000 		.4byte	.LVL0
 1406 0618 1F0B0000 		.4byte	0xb1f
 1407 061c 00       		.byte	0
 1408 061d 18       		.uleb128 0x18
 1409 061e 84000000 		.4byte	.LASF95
 1410 0622 01       		.byte	0x1
 1411 0623 50       		.byte	0x50
 1412 0624 00000000 		.4byte	.LFB40
 1413 0628 14000000 		.4byte	.LFE40-.LFB40
 1414 062c 01       		.uleb128 0x1
 1415 062d 9C       		.byte	0x9c
 1416 062e 55060000 		.4byte	0x655
 1417 0632 1A       		.uleb128 0x1a
 1418 0633 7E050000 		.4byte	.LASF97
 1419 0637 01       		.byte	0x1
 1420 0638 50       		.byte	0x50
 1421 0639 90050000 		.4byte	0x590
 1422 063d 00000000 		.4byte	.LLST0
 1423 0641 1B       		.uleb128 0x1b
 1424 0642 12000000 		.4byte	.LVL3
 1425 0646 270B0000 		.4byte	0xb27
ARM GAS  /tmp/ccNl6upi.s 			page 26


 1426 064a 1C       		.uleb128 0x1c
 1427 064b 01       		.uleb128 0x1
 1428 064c 50       		.byte	0x50
 1429 064d 05       		.uleb128 0x5
 1430 064e F3       		.byte	0xf3
 1431 064f 01       		.uleb128 0x1
 1432 0650 50       		.byte	0x50
 1433 0651 23       		.byte	0x23
 1434 0652 0C       		.uleb128 0xc
 1435 0653 00       		.byte	0
 1436 0654 00       		.byte	0
 1437 0655 18       		.uleb128 0x18
 1438 0656 08050000 		.4byte	.LASF96
 1439 065a 01       		.byte	0x1
 1440 065b 6B       		.byte	0x6b
 1441 065c 00000000 		.4byte	.LFB41
 1442 0660 14000000 		.4byte	.LFE41-.LFB41
 1443 0664 01       		.uleb128 0x1
 1444 0665 9C       		.byte	0x9c
 1445 0666 99060000 		.4byte	0x699
 1446 066a 1A       		.uleb128 0x1a
 1447 066b 7E050000 		.4byte	.LASF97
 1448 066f 01       		.byte	0x1
 1449 0670 6B       		.byte	0x6b
 1450 0671 90050000 		.4byte	0x590
 1451 0675 2E000000 		.4byte	.LLST1
 1452 0679 1A       		.uleb128 0x1a
 1453 067a 8B040000 		.4byte	.LASF81
 1454 067e 01       		.byte	0x1
 1455 067f 6B       		.byte	0x6b
 1456 0680 E6050000 		.4byte	0x5e6
 1457 0684 5A000000 		.4byte	.LLST2
 1458 0688 1B       		.uleb128 0x1b
 1459 0689 0C000000 		.4byte	.LVL5
 1460 068d 380B0000 		.4byte	0xb38
 1461 0691 1C       		.uleb128 0x1c
 1462 0692 01       		.uleb128 0x1
 1463 0693 50       		.byte	0x50
 1464 0694 02       		.uleb128 0x2
 1465 0695 74       		.byte	0x74
 1466 0696 00       		.sleb128 0
 1467 0697 00       		.byte	0
 1468 0698 00       		.byte	0
 1469 0699 18       		.uleb128 0x18
 1470 069a 29000000 		.4byte	.LASF98
 1471 069e 01       		.byte	0x1
 1472 069f 81       		.byte	0x81
 1473 06a0 00000000 		.4byte	.LFB42
 1474 06a4 18000000 		.4byte	.LFE42-.LFB42
 1475 06a8 01       		.uleb128 0x1
 1476 06a9 9C       		.byte	0x9c
 1477 06aa E2060000 		.4byte	0x6e2
 1478 06ae 1A       		.uleb128 0x1a
 1479 06af 7E050000 		.4byte	.LASF97
 1480 06b3 01       		.byte	0x1
 1481 06b4 81       		.byte	0x81
 1482 06b5 90050000 		.4byte	0x590
ARM GAS  /tmp/ccNl6upi.s 			page 27


 1483 06b9 7B000000 		.4byte	.LLST3
 1484 06bd 1D       		.uleb128 0x1d
 1485 06be 0A000000 		.4byte	.LVL8
 1486 06c2 4A0B0000 		.4byte	0xb4a
 1487 06c6 D1060000 		.4byte	0x6d1
 1488 06ca 1C       		.uleb128 0x1c
 1489 06cb 01       		.uleb128 0x1
 1490 06cc 50       		.byte	0x50
 1491 06cd 02       		.uleb128 0x2
 1492 06ce 74       		.byte	0x74
 1493 06cf 00       		.sleb128 0
 1494 06d0 00       		.byte	0
 1495 06d1 1B       		.uleb128 0x1b
 1496 06d2 10000000 		.4byte	.LVL9
 1497 06d6 5C0B0000 		.4byte	0xb5c
 1498 06da 1C       		.uleb128 0x1c
 1499 06db 01       		.uleb128 0x1
 1500 06dc 50       		.byte	0x50
 1501 06dd 02       		.uleb128 0x2
 1502 06de 74       		.byte	0x74
 1503 06df 00       		.sleb128 0
 1504 06e0 00       		.byte	0
 1505 06e1 00       		.byte	0
 1506 06e2 18       		.uleb128 0x18
 1507 06e3 11050000 		.4byte	.LASF99
 1508 06e7 01       		.byte	0x1
 1509 06e8 95       		.byte	0x95
 1510 06e9 00000000 		.4byte	.LFB43
 1511 06ed 0C000000 		.4byte	.LFE43-.LFB43
 1512 06f1 01       		.uleb128 0x1
 1513 06f2 9C       		.byte	0x9c
 1514 06f3 18070000 		.4byte	0x718
 1515 06f7 1A       		.uleb128 0x1a
 1516 06f8 7E050000 		.4byte	.LASF97
 1517 06fc 01       		.byte	0x1
 1518 06fd 95       		.byte	0x95
 1519 06fe 90050000 		.4byte	0x590
 1520 0702 A7000000 		.4byte	.LLST4
 1521 0706 1B       		.uleb128 0x1b
 1522 0707 08000000 		.4byte	.LVL12
 1523 070b 6E0B0000 		.4byte	0xb6e
 1524 070f 1C       		.uleb128 0x1c
 1525 0710 01       		.uleb128 0x1
 1526 0711 50       		.byte	0x50
 1527 0712 03       		.uleb128 0x3
 1528 0713 F3       		.byte	0xf3
 1529 0714 01       		.uleb128 0x1
 1530 0715 50       		.byte	0x50
 1531 0716 00       		.byte	0
 1532 0717 00       		.byte	0
 1533 0718 18       		.uleb128 0x18
 1534 0719 09040000 		.4byte	.LASF100
 1535 071d 01       		.byte	0x1
 1536 071e A7       		.byte	0xa7
 1537 071f 00000000 		.4byte	.LFB44
 1538 0723 0C000000 		.4byte	.LFE44-.LFB44
 1539 0727 01       		.uleb128 0x1
ARM GAS  /tmp/ccNl6upi.s 			page 28


 1540 0728 9C       		.byte	0x9c
 1541 0729 4E070000 		.4byte	0x74e
 1542 072d 1A       		.uleb128 0x1a
 1543 072e 7E050000 		.4byte	.LASF97
 1544 0732 01       		.byte	0x1
 1545 0733 A7       		.byte	0xa7
 1546 0734 90050000 		.4byte	0x590
 1547 0738 C8000000 		.4byte	.LLST5
 1548 073c 1B       		.uleb128 0x1b
 1549 073d 08000000 		.4byte	.LVL14
 1550 0741 4A0B0000 		.4byte	0xb4a
 1551 0745 1C       		.uleb128 0x1c
 1552 0746 01       		.uleb128 0x1
 1553 0747 50       		.byte	0x50
 1554 0748 03       		.uleb128 0x3
 1555 0749 F3       		.byte	0xf3
 1556 074a 01       		.uleb128 0x1
 1557 074b 50       		.byte	0x50
 1558 074c 00       		.byte	0
 1559 074d 00       		.byte	0
 1560 074e 18       		.uleb128 0x18
 1561 074f 3F010000 		.4byte	.LASF101
 1562 0753 01       		.byte	0x1
 1563 0754 BE       		.byte	0xbe
 1564 0755 00000000 		.4byte	.LFB45
 1565 0759 10000000 		.4byte	.LFE45-.LFB45
 1566 075d 01       		.uleb128 0x1
 1567 075e 9C       		.byte	0x9c
 1568 075f 98070000 		.4byte	0x798
 1569 0763 1A       		.uleb128 0x1a
 1570 0764 7E050000 		.4byte	.LASF97
 1571 0768 01       		.byte	0x1
 1572 0769 BE       		.byte	0xbe
 1573 076a 90050000 		.4byte	0x590
 1574 076e E9000000 		.4byte	.LLST6
 1575 0772 1E       		.uleb128 0x1e
 1576 0773 6E00     		.ascii	"n\000"
 1577 0775 01       		.byte	0x1
 1578 0776 BE       		.byte	0xbe
 1579 0777 2C000000 		.4byte	0x2c
 1580 077b 0A010000 		.4byte	.LLST7
 1581 077f 1B       		.uleb128 0x1b
 1582 0780 0C000000 		.4byte	.LVL16
 1583 0784 800B0000 		.4byte	0xb80
 1584 0788 1C       		.uleb128 0x1c
 1585 0789 01       		.uleb128 0x1
 1586 078a 51       		.byte	0x51
 1587 078b 03       		.uleb128 0x3
 1588 078c F3       		.byte	0xf3
 1589 078d 01       		.uleb128 0x1
 1590 078e 51       		.byte	0x51
 1591 078f 1C       		.uleb128 0x1c
 1592 0790 01       		.uleb128 0x1
 1593 0791 50       		.byte	0x50
 1594 0792 03       		.uleb128 0x3
 1595 0793 F3       		.byte	0xf3
 1596 0794 01       		.uleb128 0x1
ARM GAS  /tmp/ccNl6upi.s 			page 29


 1597 0795 50       		.byte	0x50
 1598 0796 00       		.byte	0
 1599 0797 00       		.byte	0
 1600 0798 18       		.uleb128 0x18
 1601 0799 54000000 		.4byte	.LASF102
 1602 079d 01       		.byte	0x1
 1603 079e D9       		.byte	0xd9
 1604 079f 00000000 		.4byte	.LFB46
 1605 07a3 10000000 		.4byte	.LFE46-.LFB46
 1606 07a7 01       		.uleb128 0x1
 1607 07a8 9C       		.byte	0x9c
 1608 07a9 0E080000 		.4byte	0x80e
 1609 07ad 1A       		.uleb128 0x1a
 1610 07ae 7E050000 		.4byte	.LASF97
 1611 07b2 01       		.byte	0x1
 1612 07b3 D9       		.byte	0xd9
 1613 07b4 90050000 		.4byte	0x590
 1614 07b8 2B010000 		.4byte	.LLST8
 1615 07bc 1E       		.uleb128 0x1e
 1616 07bd 6E00     		.ascii	"n\000"
 1617 07bf 01       		.byte	0x1
 1618 07c0 D9       		.byte	0xd9
 1619 07c1 2C000000 		.4byte	0x2c
 1620 07c5 4C010000 		.4byte	.LLST9
 1621 07c9 1A       		.uleb128 0x1a
 1622 07ca B3010000 		.4byte	.LASF103
 1623 07ce 01       		.byte	0x1
 1624 07cf DA       		.byte	0xda
 1625 07d0 F7050000 		.4byte	0x5f7
 1626 07d4 6D010000 		.4byte	.LLST10
 1627 07d8 1A       		.uleb128 0x1a
 1628 07d9 31000000 		.4byte	.LASF104
 1629 07dd 01       		.byte	0x1
 1630 07de DA       		.byte	0xda
 1631 07df 92020000 		.4byte	0x292
 1632 07e3 8E010000 		.4byte	.LLST11
 1633 07e7 1B       		.uleb128 0x1b
 1634 07e8 0C000000 		.4byte	.LVL18
 1635 07ec 970B0000 		.4byte	0xb97
 1636 07f0 1C       		.uleb128 0x1c
 1637 07f1 01       		.uleb128 0x1
 1638 07f2 53       		.byte	0x53
 1639 07f3 03       		.uleb128 0x3
 1640 07f4 F3       		.byte	0xf3
 1641 07f5 01       		.uleb128 0x1
 1642 07f6 53       		.byte	0x53
 1643 07f7 1C       		.uleb128 0x1c
 1644 07f8 01       		.uleb128 0x1
 1645 07f9 52       		.byte	0x52
 1646 07fa 03       		.uleb128 0x3
 1647 07fb F3       		.byte	0xf3
 1648 07fc 01       		.uleb128 0x1
 1649 07fd 52       		.byte	0x52
 1650 07fe 1C       		.uleb128 0x1c
 1651 07ff 01       		.uleb128 0x1
 1652 0800 51       		.byte	0x51
 1653 0801 03       		.uleb128 0x3
ARM GAS  /tmp/ccNl6upi.s 			page 30


 1654 0802 F3       		.byte	0xf3
 1655 0803 01       		.uleb128 0x1
 1656 0804 51       		.byte	0x51
 1657 0805 1C       		.uleb128 0x1c
 1658 0806 01       		.uleb128 0x1
 1659 0807 50       		.byte	0x50
 1660 0808 03       		.uleb128 0x3
 1661 0809 F3       		.byte	0xf3
 1662 080a 01       		.uleb128 0x1
 1663 080b 50       		.byte	0x50
 1664 080c 00       		.byte	0
 1665 080d 00       		.byte	0
 1666 080e 18       		.uleb128 0x18
 1667 080f CF010000 		.4byte	.LASF105
 1668 0813 01       		.byte	0x1
 1669 0814 F4       		.byte	0xf4
 1670 0815 00000000 		.4byte	.LFB47
 1671 0819 10000000 		.4byte	.LFE47-.LFB47
 1672 081d 01       		.uleb128 0x1
 1673 081e 9C       		.byte	0x9c
 1674 081f 6E080000 		.4byte	0x86e
 1675 0823 1A       		.uleb128 0x1a
 1676 0824 7E050000 		.4byte	.LASF97
 1677 0828 01       		.byte	0x1
 1678 0829 F4       		.byte	0xf4
 1679 082a 90050000 		.4byte	0x590
 1680 082e AF010000 		.4byte	.LLST12
 1681 0832 1E       		.uleb128 0x1e
 1682 0833 6E00     		.ascii	"n\000"
 1683 0835 01       		.byte	0x1
 1684 0836 F4       		.byte	0xf4
 1685 0837 2C000000 		.4byte	0x2c
 1686 083b D0010000 		.4byte	.LLST13
 1687 083f 1A       		.uleb128 0x1a
 1688 0840 B3010000 		.4byte	.LASF103
 1689 0844 01       		.byte	0x1
 1690 0845 F4       		.byte	0xf4
 1691 0846 F7050000 		.4byte	0x5f7
 1692 084a F1010000 		.4byte	.LLST14
 1693 084e 1B       		.uleb128 0x1b
 1694 084f 0C000000 		.4byte	.LVL20
 1695 0853 B80B0000 		.4byte	0xbb8
 1696 0857 1C       		.uleb128 0x1c
 1697 0858 01       		.uleb128 0x1
 1698 0859 52       		.byte	0x52
 1699 085a 03       		.uleb128 0x3
 1700 085b F3       		.byte	0xf3
 1701 085c 01       		.uleb128 0x1
 1702 085d 52       		.byte	0x52
 1703 085e 1C       		.uleb128 0x1c
 1704 085f 01       		.uleb128 0x1
 1705 0860 51       		.byte	0x51
 1706 0861 03       		.uleb128 0x3
 1707 0862 F3       		.byte	0xf3
 1708 0863 01       		.uleb128 0x1
 1709 0864 51       		.byte	0x51
 1710 0865 1C       		.uleb128 0x1c
ARM GAS  /tmp/ccNl6upi.s 			page 31


 1711 0866 01       		.uleb128 0x1
 1712 0867 50       		.byte	0x50
 1713 0868 03       		.uleb128 0x3
 1714 0869 F3       		.byte	0xf3
 1715 086a 01       		.uleb128 0x1
 1716 086b 50       		.byte	0x50
 1717 086c 00       		.byte	0
 1718 086d 00       		.byte	0
 1719 086e 1F       		.uleb128 0x1f
 1720 086f F9000000 		.4byte	.LASF106
 1721 0873 01       		.byte	0x1
 1722 0874 0E01     		.2byte	0x10e
 1723 0876 00000000 		.4byte	.LFB48
 1724 087a 10000000 		.4byte	.LFE48-.LFB48
 1725 087e 01       		.uleb128 0x1
 1726 087f 9C       		.byte	0x9c
 1727 0880 D2080000 		.4byte	0x8d2
 1728 0884 20       		.uleb128 0x20
 1729 0885 7E050000 		.4byte	.LASF97
 1730 0889 01       		.byte	0x1
 1731 088a 0E01     		.2byte	0x10e
 1732 088c 90050000 		.4byte	0x590
 1733 0890 12020000 		.4byte	.LLST15
 1734 0894 21       		.uleb128 0x21
 1735 0895 6E00     		.ascii	"n\000"
 1736 0897 01       		.byte	0x1
 1737 0898 0E01     		.2byte	0x10e
 1738 089a 2C000000 		.4byte	0x2c
 1739 089e 33020000 		.4byte	.LLST16
 1740 08a2 20       		.uleb128 0x20
 1741 08a3 31000000 		.4byte	.LASF104
 1742 08a7 01       		.byte	0x1
 1743 08a8 0E01     		.2byte	0x10e
 1744 08aa 92020000 		.4byte	0x292
 1745 08ae 54020000 		.4byte	.LLST17
 1746 08b2 1B       		.uleb128 0x1b
 1747 08b3 0C000000 		.4byte	.LVL22
 1748 08b7 D40B0000 		.4byte	0xbd4
 1749 08bb 1C       		.uleb128 0x1c
 1750 08bc 01       		.uleb128 0x1
 1751 08bd 52       		.byte	0x52
 1752 08be 03       		.uleb128 0x3
 1753 08bf F3       		.byte	0xf3
 1754 08c0 01       		.uleb128 0x1
 1755 08c1 52       		.byte	0x52
 1756 08c2 1C       		.uleb128 0x1c
 1757 08c3 01       		.uleb128 0x1
 1758 08c4 51       		.byte	0x51
 1759 08c5 03       		.uleb128 0x3
 1760 08c6 F3       		.byte	0xf3
 1761 08c7 01       		.uleb128 0x1
 1762 08c8 51       		.byte	0x51
 1763 08c9 1C       		.uleb128 0x1c
 1764 08ca 01       		.uleb128 0x1
 1765 08cb 50       		.byte	0x50
 1766 08cc 03       		.uleb128 0x3
 1767 08cd F3       		.byte	0xf3
ARM GAS  /tmp/ccNl6upi.s 			page 32


 1768 08ce 01       		.uleb128 0x1
 1769 08cf 50       		.byte	0x50
 1770 08d0 00       		.byte	0
 1771 08d1 00       		.byte	0
 1772 08d2 1F       		.uleb128 0x1f
 1773 08d3 5E050000 		.4byte	.LASF107
 1774 08d7 01       		.byte	0x1
 1775 08d8 2801     		.2byte	0x128
 1776 08da 00000000 		.4byte	.LFB49
 1777 08de 24000000 		.4byte	.LFE49-.LFB49
 1778 08e2 01       		.uleb128 0x1
 1779 08e3 9C       		.byte	0x9c
 1780 08e4 31090000 		.4byte	0x931
 1781 08e8 20       		.uleb128 0x20
 1782 08e9 7E050000 		.4byte	.LASF97
 1783 08ed 01       		.byte	0x1
 1784 08ee 2801     		.2byte	0x128
 1785 08f0 90050000 		.4byte	0x590
 1786 08f4 75020000 		.4byte	.LLST18
 1787 08f8 21       		.uleb128 0x21
 1788 08f9 6E00     		.ascii	"n\000"
 1789 08fb 01       		.byte	0x1
 1790 08fc 2801     		.2byte	0x128
 1791 08fe 2C000000 		.4byte	0x2c
 1792 0902 A1020000 		.4byte	.LLST19
 1793 0906 1D       		.uleb128 0x1d
 1794 0907 0E000000 		.4byte	.LVL24
 1795 090b 800B0000 		.4byte	0xb80
 1796 090f 21090000 		.4byte	0x921
 1797 0913 1C       		.uleb128 0x1c
 1798 0914 01       		.uleb128 0x1
 1799 0915 51       		.byte	0x51
 1800 0916 03       		.uleb128 0x3
 1801 0917 F3       		.byte	0xf3
 1802 0918 01       		.uleb128 0x1
 1803 0919 51       		.byte	0x51
 1804 091a 1C       		.uleb128 0x1c
 1805 091b 01       		.uleb128 0x1
 1806 091c 50       		.byte	0x50
 1807 091d 02       		.uleb128 0x2
 1808 091e 74       		.byte	0x74
 1809 091f 00       		.sleb128 0
 1810 0920 00       		.byte	0
 1811 0921 1B       		.uleb128 0x1b
 1812 0922 1A000000 		.4byte	.LVL25
 1813 0926 F00B0000 		.4byte	0xbf0
 1814 092a 1C       		.uleb128 0x1c
 1815 092b 01       		.uleb128 0x1
 1816 092c 50       		.byte	0x50
 1817 092d 01       		.uleb128 0x1
 1818 092e 32       		.byte	0x32
 1819 092f 00       		.byte	0
 1820 0930 00       		.byte	0
 1821 0931 1F       		.uleb128 0x1f
 1822 0932 20030000 		.4byte	.LASF108
 1823 0936 01       		.byte	0x1
 1824 0937 4601     		.2byte	0x146
ARM GAS  /tmp/ccNl6upi.s 			page 33


 1825 0939 00000000 		.4byte	.LFB50
 1826 093d 24000000 		.4byte	.LFE50-.LFB50
 1827 0941 01       		.uleb128 0x1
 1828 0942 9C       		.byte	0x9c
 1829 0943 BE090000 		.4byte	0x9be
 1830 0947 20       		.uleb128 0x20
 1831 0948 7E050000 		.4byte	.LASF97
 1832 094c 01       		.byte	0x1
 1833 094d 4601     		.2byte	0x146
 1834 094f 90050000 		.4byte	0x590
 1835 0953 C2020000 		.4byte	.LLST20
 1836 0957 21       		.uleb128 0x21
 1837 0958 6E00     		.ascii	"n\000"
 1838 095a 01       		.byte	0x1
 1839 095b 4601     		.2byte	0x146
 1840 095d 2C000000 		.4byte	0x2c
 1841 0961 EE020000 		.4byte	.LLST21
 1842 0965 20       		.uleb128 0x20
 1843 0966 B3010000 		.4byte	.LASF103
 1844 096a 01       		.byte	0x1
 1845 096b 4701     		.2byte	0x147
 1846 096d F7050000 		.4byte	0x5f7
 1847 0971 0F030000 		.4byte	.LLST22
 1848 0975 20       		.uleb128 0x20
 1849 0976 31000000 		.4byte	.LASF104
 1850 097a 01       		.byte	0x1
 1851 097b 4701     		.2byte	0x147
 1852 097d 92020000 		.4byte	0x292
 1853 0981 30030000 		.4byte	.LLST23
 1854 0985 1D       		.uleb128 0x1d
 1855 0986 10000000 		.4byte	.LVL29
 1856 098a 970B0000 		.4byte	0xb97
 1857 098e AE090000 		.4byte	0x9ae
 1858 0992 1C       		.uleb128 0x1c
 1859 0993 01       		.uleb128 0x1
 1860 0994 53       		.byte	0x53
 1861 0995 03       		.uleb128 0x3
 1862 0996 F3       		.byte	0xf3
 1863 0997 01       		.uleb128 0x1
 1864 0998 53       		.byte	0x53
 1865 0999 1C       		.uleb128 0x1c
 1866 099a 01       		.uleb128 0x1
 1867 099b 52       		.byte	0x52
 1868 099c 03       		.uleb128 0x3
 1869 099d F3       		.byte	0xf3
 1870 099e 01       		.uleb128 0x1
 1871 099f 52       		.byte	0x52
 1872 09a0 1C       		.uleb128 0x1c
 1873 09a1 01       		.uleb128 0x1
 1874 09a2 51       		.byte	0x51
 1875 09a3 03       		.uleb128 0x3
 1876 09a4 F3       		.byte	0xf3
 1877 09a5 01       		.uleb128 0x1
 1878 09a6 51       		.byte	0x51
 1879 09a7 1C       		.uleb128 0x1c
 1880 09a8 01       		.uleb128 0x1
 1881 09a9 50       		.byte	0x50
ARM GAS  /tmp/ccNl6upi.s 			page 34


 1882 09aa 02       		.uleb128 0x2
 1883 09ab 74       		.byte	0x74
 1884 09ac 00       		.sleb128 0
 1885 09ad 00       		.byte	0
 1886 09ae 1B       		.uleb128 0x1b
 1887 09af 1C000000 		.4byte	.LVL30
 1888 09b3 F00B0000 		.4byte	0xbf0
 1889 09b7 1C       		.uleb128 0x1c
 1890 09b8 01       		.uleb128 0x1
 1891 09b9 50       		.byte	0x50
 1892 09ba 01       		.uleb128 0x1
 1893 09bb 32       		.byte	0x32
 1894 09bc 00       		.byte	0
 1895 09bd 00       		.byte	0
 1896 09be 1F       		.uleb128 0x1f
 1897 09bf B1030000 		.4byte	.LASF109
 1898 09c3 01       		.byte	0x1
 1899 09c4 6501     		.2byte	0x165
 1900 09c6 00000000 		.4byte	.LFB51
 1901 09ca 24000000 		.4byte	.LFE51-.LFB51
 1902 09ce 01       		.uleb128 0x1
 1903 09cf 9C       		.byte	0x9c
 1904 09d0 340A0000 		.4byte	0xa34
 1905 09d4 20       		.uleb128 0x20
 1906 09d5 7E050000 		.4byte	.LASF97
 1907 09d9 01       		.byte	0x1
 1908 09da 6501     		.2byte	0x165
 1909 09dc 90050000 		.4byte	0x590
 1910 09e0 51030000 		.4byte	.LLST24
 1911 09e4 21       		.uleb128 0x21
 1912 09e5 6E00     		.ascii	"n\000"
 1913 09e7 01       		.byte	0x1
 1914 09e8 6501     		.2byte	0x165
 1915 09ea 2C000000 		.4byte	0x2c
 1916 09ee 7D030000 		.4byte	.LLST25
 1917 09f2 20       		.uleb128 0x20
 1918 09f3 B3010000 		.4byte	.LASF103
 1919 09f7 01       		.byte	0x1
 1920 09f8 6501     		.2byte	0x165
 1921 09fa F7050000 		.4byte	0x5f7
 1922 09fe 9E030000 		.4byte	.LLST26
 1923 0a02 1D       		.uleb128 0x1d
 1924 0a03 0E000000 		.4byte	.LVL33
 1925 0a07 B80B0000 		.4byte	0xbb8
 1926 0a0b 240A0000 		.4byte	0xa24
 1927 0a0f 1C       		.uleb128 0x1c
 1928 0a10 01       		.uleb128 0x1
 1929 0a11 52       		.byte	0x52
 1930 0a12 03       		.uleb128 0x3
 1931 0a13 F3       		.byte	0xf3
 1932 0a14 01       		.uleb128 0x1
 1933 0a15 52       		.byte	0x52
 1934 0a16 1C       		.uleb128 0x1c
 1935 0a17 01       		.uleb128 0x1
 1936 0a18 51       		.byte	0x51
 1937 0a19 03       		.uleb128 0x3
 1938 0a1a F3       		.byte	0xf3
ARM GAS  /tmp/ccNl6upi.s 			page 35


 1939 0a1b 01       		.uleb128 0x1
 1940 0a1c 51       		.byte	0x51
 1941 0a1d 1C       		.uleb128 0x1c
 1942 0a1e 01       		.uleb128 0x1
 1943 0a1f 50       		.byte	0x50
 1944 0a20 02       		.uleb128 0x2
 1945 0a21 74       		.byte	0x74
 1946 0a22 00       		.sleb128 0
 1947 0a23 00       		.byte	0
 1948 0a24 1B       		.uleb128 0x1b
 1949 0a25 1A000000 		.4byte	.LVL34
 1950 0a29 F00B0000 		.4byte	0xbf0
 1951 0a2d 1C       		.uleb128 0x1c
 1952 0a2e 01       		.uleb128 0x1
 1953 0a2f 50       		.byte	0x50
 1954 0a30 01       		.uleb128 0x1
 1955 0a31 32       		.byte	0x32
 1956 0a32 00       		.byte	0
 1957 0a33 00       		.byte	0
 1958 0a34 1F       		.uleb128 0x1f
 1959 0a35 B9010000 		.4byte	.LASF110
 1960 0a39 01       		.byte	0x1
 1961 0a3a 8101     		.2byte	0x181
 1962 0a3c 00000000 		.4byte	.LFB52
 1963 0a40 24000000 		.4byte	.LFE52-.LFB52
 1964 0a44 01       		.uleb128 0x1
 1965 0a45 9C       		.byte	0x9c
 1966 0a46 AA0A0000 		.4byte	0xaaa
 1967 0a4a 20       		.uleb128 0x20
 1968 0a4b 7E050000 		.4byte	.LASF97
 1969 0a4f 01       		.byte	0x1
 1970 0a50 8101     		.2byte	0x181
 1971 0a52 90050000 		.4byte	0x590
 1972 0a56 BF030000 		.4byte	.LLST27
 1973 0a5a 21       		.uleb128 0x21
 1974 0a5b 6E00     		.ascii	"n\000"
 1975 0a5d 01       		.byte	0x1
 1976 0a5e 8101     		.2byte	0x181
 1977 0a60 2C000000 		.4byte	0x2c
 1978 0a64 EB030000 		.4byte	.LLST28
 1979 0a68 20       		.uleb128 0x20
 1980 0a69 31000000 		.4byte	.LASF104
 1981 0a6d 01       		.byte	0x1
 1982 0a6e 8101     		.2byte	0x181
 1983 0a70 92020000 		.4byte	0x292
 1984 0a74 0C040000 		.4byte	.LLST29
 1985 0a78 1D       		.uleb128 0x1d
 1986 0a79 0E000000 		.4byte	.LVL37
 1987 0a7d D40B0000 		.4byte	0xbd4
 1988 0a81 9A0A0000 		.4byte	0xa9a
 1989 0a85 1C       		.uleb128 0x1c
 1990 0a86 01       		.uleb128 0x1
 1991 0a87 52       		.byte	0x52
 1992 0a88 03       		.uleb128 0x3
 1993 0a89 F3       		.byte	0xf3
 1994 0a8a 01       		.uleb128 0x1
 1995 0a8b 52       		.byte	0x52
ARM GAS  /tmp/ccNl6upi.s 			page 36


 1996 0a8c 1C       		.uleb128 0x1c
 1997 0a8d 01       		.uleb128 0x1
 1998 0a8e 51       		.byte	0x51
 1999 0a8f 03       		.uleb128 0x3
 2000 0a90 F3       		.byte	0xf3
 2001 0a91 01       		.uleb128 0x1
 2002 0a92 51       		.byte	0x51
 2003 0a93 1C       		.uleb128 0x1c
 2004 0a94 01       		.uleb128 0x1
 2005 0a95 50       		.byte	0x50
 2006 0a96 02       		.uleb128 0x2
 2007 0a97 74       		.byte	0x74
 2008 0a98 00       		.sleb128 0
 2009 0a99 00       		.byte	0
 2010 0a9a 1B       		.uleb128 0x1b
 2011 0a9b 1A000000 		.4byte	.LVL38
 2012 0a9f F00B0000 		.4byte	0xbf0
 2013 0aa3 1C       		.uleb128 0x1c
 2014 0aa4 01       		.uleb128 0x1
 2015 0aa5 50       		.byte	0x50
 2016 0aa6 01       		.uleb128 0x1
 2017 0aa7 32       		.byte	0x32
 2018 0aa8 00       		.byte	0
 2019 0aa9 00       		.byte	0
 2020 0aaa 1F       		.uleb128 0x1f
 2021 0aab 58030000 		.4byte	.LASF111
 2022 0aaf 01       		.byte	0x1
 2023 0ab0 9C01     		.2byte	0x19c
 2024 0ab2 00000000 		.4byte	.LFB53
 2025 0ab6 0A000000 		.4byte	.LFE53-.LFB53
 2026 0aba 01       		.uleb128 0x1
 2027 0abb 9C       		.byte	0x9c
 2028 0abc E40A0000 		.4byte	0xae4
 2029 0ac0 20       		.uleb128 0x20
 2030 0ac1 7E050000 		.4byte	.LASF97
 2031 0ac5 01       		.byte	0x1
 2032 0ac6 9C01     		.2byte	0x19c
 2033 0ac8 90050000 		.4byte	0x590
 2034 0acc 2D040000 		.4byte	.LLST30
 2035 0ad0 1B       		.uleb128 0x1b
 2036 0ad1 08000000 		.4byte	.LVL42
 2037 0ad5 010C0000 		.4byte	0xc01
 2038 0ad9 1C       		.uleb128 0x1c
 2039 0ada 01       		.uleb128 0x1
 2040 0adb 50       		.byte	0x50
 2041 0adc 05       		.uleb128 0x5
 2042 0add F3       		.byte	0xf3
 2043 0ade 01       		.uleb128 0x1
 2044 0adf 50       		.byte	0x50
 2045 0ae0 23       		.byte	0x23
 2046 0ae1 0C       		.uleb128 0xc
 2047 0ae2 00       		.byte	0
 2048 0ae3 00       		.byte	0
 2049 0ae4 1F       		.uleb128 0x1f
 2050 0ae5 E0040000 		.4byte	.LASF112
 2051 0ae9 01       		.byte	0x1
 2052 0aea B001     		.2byte	0x1b0
ARM GAS  /tmp/ccNl6upi.s 			page 37


 2053 0aec 00000000 		.4byte	.LFB54
 2054 0af0 08000000 		.4byte	.LFE54-.LFB54
 2055 0af4 01       		.uleb128 0x1
 2056 0af5 9C       		.byte	0x9c
 2057 0af6 140B0000 		.4byte	0xb14
 2058 0afa 20       		.uleb128 0x20
 2059 0afb 7E050000 		.4byte	.LASF97
 2060 0aff 01       		.byte	0x1
 2061 0b00 B001     		.2byte	0x1b0
 2062 0b02 90050000 		.4byte	0x590
 2063 0b06 5B040000 		.4byte	.LLST31
 2064 0b0a 19       		.uleb128 0x19
 2065 0b0b 06000000 		.4byte	.LVL44
 2066 0b0f 120C0000 		.4byte	0xc12
 2067 0b13 00       		.byte	0
 2068 0b14 22       		.uleb128 0x22
 2069 0b15 82010000 		.4byte	.LASF127
 2070 0b19 09       		.byte	0x9
 2071 0b1a 6F       		.byte	0x6f
 2072 0b1b 87030000 		.4byte	0x387
 2073 0b1f 23       		.uleb128 0x23
 2074 0b20 C2000000 		.4byte	.LASF128
 2075 0b24 0E       		.byte	0xe
 2076 0b25 2401     		.2byte	0x124
 2077 0b27 24       		.uleb128 0x24
 2078 0b28 37050000 		.4byte	.LASF113
 2079 0b2c 0A       		.byte	0xa
 2080 0b2d 38       		.byte	0x38
 2081 0b2e 380B0000 		.4byte	0xb38
 2082 0b32 16       		.uleb128 0x16
 2083 0b33 1B040000 		.4byte	0x41b
 2084 0b37 00       		.byte	0
 2085 0b38 25       		.uleb128 0x25
 2086 0b39 68050000 		.4byte	.LASF114
 2087 0b3d 0E       		.byte	0xe
 2088 0b3e 2501     		.2byte	0x125
 2089 0b40 4A0B0000 		.4byte	0xb4a
 2090 0b44 16       		.uleb128 0x16
 2091 0b45 90050000 		.4byte	0x590
 2092 0b49 00       		.byte	0
 2093 0b4a 25       		.uleb128 0x25
 2094 0b4b A2010000 		.4byte	.LASF115
 2095 0b4f 0E       		.byte	0xe
 2096 0b50 2801     		.2byte	0x128
 2097 0b52 5C0B0000 		.4byte	0xb5c
 2098 0b56 16       		.uleb128 0x16
 2099 0b57 90050000 		.4byte	0x590
 2100 0b5b 00       		.byte	0
 2101 0b5c 25       		.uleb128 0x25
 2102 0b5d 4B030000 		.4byte	.LASF116
 2103 0b61 0E       		.byte	0xe
 2104 0b62 2601     		.2byte	0x126
 2105 0b64 6E0B0000 		.4byte	0xb6e
 2106 0b68 16       		.uleb128 0x16
 2107 0b69 90050000 		.4byte	0x590
 2108 0b6d 00       		.byte	0
 2109 0b6e 25       		.uleb128 0x25
ARM GAS  /tmp/ccNl6upi.s 			page 38


 2110 0b6f F9040000 		.4byte	.LASF117
 2111 0b73 0E       		.byte	0xe
 2112 0b74 2701     		.2byte	0x127
 2113 0b76 800B0000 		.4byte	0xb80
 2114 0b7a 16       		.uleb128 0x16
 2115 0b7b 90050000 		.4byte	0x590
 2116 0b7f 00       		.byte	0
 2117 0b80 25       		.uleb128 0x25
 2118 0b81 41050000 		.4byte	.LASF118
 2119 0b85 0E       		.byte	0xe
 2120 0b86 2901     		.2byte	0x129
 2121 0b88 970B0000 		.4byte	0xb97
 2122 0b8c 16       		.uleb128 0x16
 2123 0b8d 90050000 		.4byte	0x590
 2124 0b91 16       		.uleb128 0x16
 2125 0b92 2C000000 		.4byte	0x2c
 2126 0b96 00       		.byte	0
 2127 0b97 25       		.uleb128 0x25
 2128 0b98 09010000 		.4byte	.LASF119
 2129 0b9c 0E       		.byte	0xe
 2130 0b9d 2A01     		.2byte	0x12a
 2131 0b9f B80B0000 		.4byte	0xbb8
 2132 0ba3 16       		.uleb128 0x16
 2133 0ba4 90050000 		.4byte	0x590
 2134 0ba8 16       		.uleb128 0x16
 2135 0ba9 2C000000 		.4byte	0x2c
 2136 0bad 16       		.uleb128 0x16
 2137 0bae F7050000 		.4byte	0x5f7
 2138 0bb2 16       		.uleb128 0x16
 2139 0bb3 92020000 		.4byte	0x292
 2140 0bb7 00       		.byte	0
 2141 0bb8 25       		.uleb128 0x25
 2142 0bb9 88010000 		.4byte	.LASF120
 2143 0bbd 0E       		.byte	0xe
 2144 0bbe 2C01     		.2byte	0x12c
 2145 0bc0 D40B0000 		.4byte	0xbd4
 2146 0bc4 16       		.uleb128 0x16
 2147 0bc5 90050000 		.4byte	0x590
 2148 0bc9 16       		.uleb128 0x16
 2149 0bca 2C000000 		.4byte	0x2c
 2150 0bce 16       		.uleb128 0x16
 2151 0bcf F7050000 		.4byte	0x5f7
 2152 0bd3 00       		.byte	0
 2153 0bd4 25       		.uleb128 0x25
 2154 0bd5 2C030000 		.4byte	.LASF121
 2155 0bd9 0E       		.byte	0xe
 2156 0bda 2D01     		.2byte	0x12d
 2157 0bdc F00B0000 		.4byte	0xbf0
 2158 0be0 16       		.uleb128 0x16
 2159 0be1 90050000 		.4byte	0x590
 2160 0be5 16       		.uleb128 0x16
 2161 0be6 2C000000 		.4byte	0x2c
 2162 0bea 16       		.uleb128 0x16
 2163 0beb 92020000 		.4byte	0x292
 2164 0bef 00       		.byte	0
 2165 0bf0 24       		.uleb128 0x24
 2166 0bf1 38040000 		.4byte	.LASF122
ARM GAS  /tmp/ccNl6upi.s 			page 39


 2167 0bf5 09       		.byte	0x9
 2168 0bf6 93       		.byte	0x93
 2169 0bf7 010C0000 		.4byte	0xc01
 2170 0bfb 16       		.uleb128 0x16
 2171 0bfc E0000000 		.4byte	0xe0
 2172 0c00 00       		.byte	0
 2173 0c01 24       		.uleb128 0x24
 2174 0c02 66030000 		.4byte	.LASF123
 2175 0c06 0A       		.byte	0xa
 2176 0c07 39       		.byte	0x39
 2177 0c08 120C0000 		.4byte	0xc12
 2178 0c0c 16       		.uleb128 0x16
 2179 0c0d 1B040000 		.4byte	0x41b
 2180 0c11 00       		.byte	0
 2181 0c12 26       		.uleb128 0x26
 2182 0c13 99000000 		.4byte	.LASF129
 2183 0c17 0A       		.byte	0xa
 2184 0c18 3D       		.byte	0x3d
 2185 0c19 1B040000 		.4byte	0x41b
 2186 0c1d 00       		.byte	0
 2187              		.section	.debug_abbrev,"",%progbits
 2188              	.Ldebug_abbrev0:
 2189 0000 01       		.uleb128 0x1
 2190 0001 11       		.uleb128 0x11
 2191 0002 01       		.byte	0x1
 2192 0003 25       		.uleb128 0x25
 2193 0004 0E       		.uleb128 0xe
 2194 0005 13       		.uleb128 0x13
 2195 0006 0B       		.uleb128 0xb
 2196 0007 03       		.uleb128 0x3
 2197 0008 0E       		.uleb128 0xe
 2198 0009 1B       		.uleb128 0x1b
 2199 000a 0E       		.uleb128 0xe
 2200 000b 55       		.uleb128 0x55
 2201 000c 17       		.uleb128 0x17
 2202 000d 11       		.uleb128 0x11
 2203 000e 01       		.uleb128 0x1
 2204 000f 10       		.uleb128 0x10
 2205 0010 17       		.uleb128 0x17
 2206 0011 00       		.byte	0
 2207 0012 00       		.byte	0
 2208 0013 02       		.uleb128 0x2
 2209 0014 24       		.uleb128 0x24
 2210 0015 00       		.byte	0
 2211 0016 0B       		.uleb128 0xb
 2212 0017 0B       		.uleb128 0xb
 2213 0018 3E       		.uleb128 0x3e
 2214 0019 0B       		.uleb128 0xb
 2215 001a 03       		.uleb128 0x3
 2216 001b 08       		.uleb128 0x8
 2217 001c 00       		.byte	0
 2218 001d 00       		.byte	0
 2219 001e 03       		.uleb128 0x3
 2220 001f 16       		.uleb128 0x16
 2221 0020 00       		.byte	0
 2222 0021 03       		.uleb128 0x3
 2223 0022 0E       		.uleb128 0xe
ARM GAS  /tmp/ccNl6upi.s 			page 40


 2224 0023 3A       		.uleb128 0x3a
 2225 0024 0B       		.uleb128 0xb
 2226 0025 3B       		.uleb128 0x3b
 2227 0026 0B       		.uleb128 0xb
 2228 0027 49       		.uleb128 0x49
 2229 0028 13       		.uleb128 0x13
 2230 0029 00       		.byte	0
 2231 002a 00       		.byte	0
 2232 002b 04       		.uleb128 0x4
 2233 002c 24       		.uleb128 0x24
 2234 002d 00       		.byte	0
 2235 002e 0B       		.uleb128 0xb
 2236 002f 0B       		.uleb128 0xb
 2237 0030 3E       		.uleb128 0x3e
 2238 0031 0B       		.uleb128 0xb
 2239 0032 03       		.uleb128 0x3
 2240 0033 0E       		.uleb128 0xe
 2241 0034 00       		.byte	0
 2242 0035 00       		.byte	0
 2243 0036 05       		.uleb128 0x5
 2244 0037 13       		.uleb128 0x13
 2245 0038 01       		.byte	0x1
 2246 0039 03       		.uleb128 0x3
 2247 003a 0E       		.uleb128 0xe
 2248 003b 0B       		.uleb128 0xb
 2249 003c 0B       		.uleb128 0xb
 2250 003d 3A       		.uleb128 0x3a
 2251 003e 0B       		.uleb128 0xb
 2252 003f 3B       		.uleb128 0x3b
 2253 0040 0B       		.uleb128 0xb
 2254 0041 01       		.uleb128 0x1
 2255 0042 13       		.uleb128 0x13
 2256 0043 00       		.byte	0
 2257 0044 00       		.byte	0
 2258 0045 06       		.uleb128 0x6
 2259 0046 0D       		.uleb128 0xd
 2260 0047 00       		.byte	0
 2261 0048 03       		.uleb128 0x3
 2262 0049 0E       		.uleb128 0xe
 2263 004a 3A       		.uleb128 0x3a
 2264 004b 0B       		.uleb128 0xb
 2265 004c 3B       		.uleb128 0x3b
 2266 004d 0B       		.uleb128 0xb
 2267 004e 49       		.uleb128 0x49
 2268 004f 13       		.uleb128 0x13
 2269 0050 38       		.uleb128 0x38
 2270 0051 0B       		.uleb128 0xb
 2271 0052 00       		.byte	0
 2272 0053 00       		.byte	0
 2273 0054 07       		.uleb128 0x7
 2274 0055 0D       		.uleb128 0xd
 2275 0056 00       		.byte	0
 2276 0057 03       		.uleb128 0x3
 2277 0058 08       		.uleb128 0x8
 2278 0059 3A       		.uleb128 0x3a
 2279 005a 0B       		.uleb128 0xb
 2280 005b 3B       		.uleb128 0x3b
ARM GAS  /tmp/ccNl6upi.s 			page 41


 2281 005c 0B       		.uleb128 0xb
 2282 005d 49       		.uleb128 0x49
 2283 005e 13       		.uleb128 0x13
 2284 005f 38       		.uleb128 0x38
 2285 0060 0B       		.uleb128 0xb
 2286 0061 00       		.byte	0
 2287 0062 00       		.byte	0
 2288 0063 08       		.uleb128 0x8
 2289 0064 13       		.uleb128 0x13
 2290 0065 01       		.byte	0x1
 2291 0066 0B       		.uleb128 0xb
 2292 0067 0B       		.uleb128 0xb
 2293 0068 3A       		.uleb128 0x3a
 2294 0069 0B       		.uleb128 0xb
 2295 006a 3B       		.uleb128 0x3b
 2296 006b 0B       		.uleb128 0xb
 2297 006c 01       		.uleb128 0x1
 2298 006d 13       		.uleb128 0x13
 2299 006e 00       		.byte	0
 2300 006f 00       		.byte	0
 2301 0070 09       		.uleb128 0x9
 2302 0071 0F       		.uleb128 0xf
 2303 0072 00       		.byte	0
 2304 0073 0B       		.uleb128 0xb
 2305 0074 0B       		.uleb128 0xb
 2306 0075 49       		.uleb128 0x49
 2307 0076 13       		.uleb128 0x13
 2308 0077 00       		.byte	0
 2309 0078 00       		.byte	0
 2310 0079 0A       		.uleb128 0xa
 2311 007a 0F       		.uleb128 0xf
 2312 007b 00       		.byte	0
 2313 007c 0B       		.uleb128 0xb
 2314 007d 0B       		.uleb128 0xb
 2315 007e 00       		.byte	0
 2316 007f 00       		.byte	0
 2317 0080 0B       		.uleb128 0xb
 2318 0081 35       		.uleb128 0x35
 2319 0082 00       		.byte	0
 2320 0083 49       		.uleb128 0x49
 2321 0084 13       		.uleb128 0x13
 2322 0085 00       		.byte	0
 2323 0086 00       		.byte	0
 2324 0087 0C       		.uleb128 0xc
 2325 0088 17       		.uleb128 0x17
 2326 0089 01       		.byte	0x1
 2327 008a 0B       		.uleb128 0xb
 2328 008b 0B       		.uleb128 0xb
 2329 008c 3A       		.uleb128 0x3a
 2330 008d 0B       		.uleb128 0xb
 2331 008e 3B       		.uleb128 0x3b
 2332 008f 0B       		.uleb128 0xb
 2333 0090 01       		.uleb128 0x1
 2334 0091 13       		.uleb128 0x13
 2335 0092 00       		.byte	0
 2336 0093 00       		.byte	0
 2337 0094 0D       		.uleb128 0xd
ARM GAS  /tmp/ccNl6upi.s 			page 42


 2338 0095 0D       		.uleb128 0xd
 2339 0096 00       		.byte	0
 2340 0097 03       		.uleb128 0x3
 2341 0098 0E       		.uleb128 0xe
 2342 0099 3A       		.uleb128 0x3a
 2343 009a 0B       		.uleb128 0xb
 2344 009b 3B       		.uleb128 0x3b
 2345 009c 0B       		.uleb128 0xb
 2346 009d 49       		.uleb128 0x49
 2347 009e 13       		.uleb128 0x13
 2348 009f 00       		.byte	0
 2349 00a0 00       		.byte	0
 2350 00a1 0E       		.uleb128 0xe
 2351 00a2 26       		.uleb128 0x26
 2352 00a3 00       		.byte	0
 2353 00a4 49       		.uleb128 0x49
 2354 00a5 13       		.uleb128 0x13
 2355 00a6 00       		.byte	0
 2356 00a7 00       		.byte	0
 2357 00a8 0F       		.uleb128 0xf
 2358 00a9 13       		.uleb128 0x13
 2359 00aa 01       		.byte	0x1
 2360 00ab 0B       		.uleb128 0xb
 2361 00ac 0B       		.uleb128 0xb
 2362 00ad 3A       		.uleb128 0x3a
 2363 00ae 0B       		.uleb128 0xb
 2364 00af 3B       		.uleb128 0x3b
 2365 00b0 05       		.uleb128 0x5
 2366 00b1 01       		.uleb128 0x1
 2367 00b2 13       		.uleb128 0x13
 2368 00b3 00       		.byte	0
 2369 00b4 00       		.byte	0
 2370 00b5 10       		.uleb128 0x10
 2371 00b6 0D       		.uleb128 0xd
 2372 00b7 00       		.byte	0
 2373 00b8 03       		.uleb128 0x3
 2374 00b9 08       		.uleb128 0x8
 2375 00ba 3A       		.uleb128 0x3a
 2376 00bb 0B       		.uleb128 0xb
 2377 00bc 3B       		.uleb128 0x3b
 2378 00bd 05       		.uleb128 0x5
 2379 00be 49       		.uleb128 0x49
 2380 00bf 13       		.uleb128 0x13
 2381 00c0 38       		.uleb128 0x38
 2382 00c1 0B       		.uleb128 0xb
 2383 00c2 00       		.byte	0
 2384 00c3 00       		.byte	0
 2385 00c4 11       		.uleb128 0x11
 2386 00c5 0D       		.uleb128 0xd
 2387 00c6 00       		.byte	0
 2388 00c7 03       		.uleb128 0x3
 2389 00c8 0E       		.uleb128 0xe
 2390 00c9 3A       		.uleb128 0x3a
 2391 00ca 0B       		.uleb128 0xb
 2392 00cb 3B       		.uleb128 0x3b
 2393 00cc 05       		.uleb128 0x5
 2394 00cd 49       		.uleb128 0x49
ARM GAS  /tmp/ccNl6upi.s 			page 43


 2395 00ce 13       		.uleb128 0x13
 2396 00cf 38       		.uleb128 0x38
 2397 00d0 0B       		.uleb128 0xb
 2398 00d1 00       		.byte	0
 2399 00d2 00       		.byte	0
 2400 00d3 12       		.uleb128 0x12
 2401 00d4 16       		.uleb128 0x16
 2402 00d5 00       		.byte	0
 2403 00d6 03       		.uleb128 0x3
 2404 00d7 0E       		.uleb128 0xe
 2405 00d8 3A       		.uleb128 0x3a
 2406 00d9 0B       		.uleb128 0xb
 2407 00da 3B       		.uleb128 0x3b
 2408 00db 05       		.uleb128 0x5
 2409 00dc 49       		.uleb128 0x49
 2410 00dd 13       		.uleb128 0x13
 2411 00de 00       		.byte	0
 2412 00df 00       		.byte	0
 2413 00e0 13       		.uleb128 0x13
 2414 00e1 04       		.uleb128 0x4
 2415 00e2 01       		.byte	0x1
 2416 00e3 0B       		.uleb128 0xb
 2417 00e4 0B       		.uleb128 0xb
 2418 00e5 3A       		.uleb128 0x3a
 2419 00e6 0B       		.uleb128 0xb
 2420 00e7 3B       		.uleb128 0x3b
 2421 00e8 0B       		.uleb128 0xb
 2422 00e9 01       		.uleb128 0x1
 2423 00ea 13       		.uleb128 0x13
 2424 00eb 00       		.byte	0
 2425 00ec 00       		.byte	0
 2426 00ed 14       		.uleb128 0x14
 2427 00ee 28       		.uleb128 0x28
 2428 00ef 00       		.byte	0
 2429 00f0 03       		.uleb128 0x3
 2430 00f1 0E       		.uleb128 0xe
 2431 00f2 1C       		.uleb128 0x1c
 2432 00f3 0D       		.uleb128 0xd
 2433 00f4 00       		.byte	0
 2434 00f5 00       		.byte	0
 2435 00f6 15       		.uleb128 0x15
 2436 00f7 15       		.uleb128 0x15
 2437 00f8 01       		.byte	0x1
 2438 00f9 27       		.uleb128 0x27
 2439 00fa 19       		.uleb128 0x19
 2440 00fb 01       		.uleb128 0x1
 2441 00fc 13       		.uleb128 0x13
 2442 00fd 00       		.byte	0
 2443 00fe 00       		.byte	0
 2444 00ff 16       		.uleb128 0x16
 2445 0100 05       		.uleb128 0x5
 2446 0101 00       		.byte	0
 2447 0102 49       		.uleb128 0x49
 2448 0103 13       		.uleb128 0x13
 2449 0104 00       		.byte	0
 2450 0105 00       		.byte	0
 2451 0106 17       		.uleb128 0x17
ARM GAS  /tmp/ccNl6upi.s 			page 44


 2452 0107 26       		.uleb128 0x26
 2453 0108 00       		.byte	0
 2454 0109 00       		.byte	0
 2455 010a 00       		.byte	0
 2456 010b 18       		.uleb128 0x18
 2457 010c 2E       		.uleb128 0x2e
 2458 010d 01       		.byte	0x1
 2459 010e 3F       		.uleb128 0x3f
 2460 010f 19       		.uleb128 0x19
 2461 0110 03       		.uleb128 0x3
 2462 0111 0E       		.uleb128 0xe
 2463 0112 3A       		.uleb128 0x3a
 2464 0113 0B       		.uleb128 0xb
 2465 0114 3B       		.uleb128 0x3b
 2466 0115 0B       		.uleb128 0xb
 2467 0116 27       		.uleb128 0x27
 2468 0117 19       		.uleb128 0x19
 2469 0118 11       		.uleb128 0x11
 2470 0119 01       		.uleb128 0x1
 2471 011a 12       		.uleb128 0x12
 2472 011b 06       		.uleb128 0x6
 2473 011c 40       		.uleb128 0x40
 2474 011d 18       		.uleb128 0x18
 2475 011e 9742     		.uleb128 0x2117
 2476 0120 19       		.uleb128 0x19
 2477 0121 01       		.uleb128 0x1
 2478 0122 13       		.uleb128 0x13
 2479 0123 00       		.byte	0
 2480 0124 00       		.byte	0
 2481 0125 19       		.uleb128 0x19
 2482 0126 898201   		.uleb128 0x4109
 2483 0129 00       		.byte	0
 2484 012a 11       		.uleb128 0x11
 2485 012b 01       		.uleb128 0x1
 2486 012c 31       		.uleb128 0x31
 2487 012d 13       		.uleb128 0x13
 2488 012e 00       		.byte	0
 2489 012f 00       		.byte	0
 2490 0130 1A       		.uleb128 0x1a
 2491 0131 05       		.uleb128 0x5
 2492 0132 00       		.byte	0
 2493 0133 03       		.uleb128 0x3
 2494 0134 0E       		.uleb128 0xe
 2495 0135 3A       		.uleb128 0x3a
 2496 0136 0B       		.uleb128 0xb
 2497 0137 3B       		.uleb128 0x3b
 2498 0138 0B       		.uleb128 0xb
 2499 0139 49       		.uleb128 0x49
 2500 013a 13       		.uleb128 0x13
 2501 013b 02       		.uleb128 0x2
 2502 013c 17       		.uleb128 0x17
 2503 013d 00       		.byte	0
 2504 013e 00       		.byte	0
 2505 013f 1B       		.uleb128 0x1b
 2506 0140 898201   		.uleb128 0x4109
 2507 0143 01       		.byte	0x1
 2508 0144 11       		.uleb128 0x11
ARM GAS  /tmp/ccNl6upi.s 			page 45


 2509 0145 01       		.uleb128 0x1
 2510 0146 31       		.uleb128 0x31
 2511 0147 13       		.uleb128 0x13
 2512 0148 00       		.byte	0
 2513 0149 00       		.byte	0
 2514 014a 1C       		.uleb128 0x1c
 2515 014b 8A8201   		.uleb128 0x410a
 2516 014e 00       		.byte	0
 2517 014f 02       		.uleb128 0x2
 2518 0150 18       		.uleb128 0x18
 2519 0151 9142     		.uleb128 0x2111
 2520 0153 18       		.uleb128 0x18
 2521 0154 00       		.byte	0
 2522 0155 00       		.byte	0
 2523 0156 1D       		.uleb128 0x1d
 2524 0157 898201   		.uleb128 0x4109
 2525 015a 01       		.byte	0x1
 2526 015b 11       		.uleb128 0x11
 2527 015c 01       		.uleb128 0x1
 2528 015d 31       		.uleb128 0x31
 2529 015e 13       		.uleb128 0x13
 2530 015f 01       		.uleb128 0x1
 2531 0160 13       		.uleb128 0x13
 2532 0161 00       		.byte	0
 2533 0162 00       		.byte	0
 2534 0163 1E       		.uleb128 0x1e
 2535 0164 05       		.uleb128 0x5
 2536 0165 00       		.byte	0
 2537 0166 03       		.uleb128 0x3
 2538 0167 08       		.uleb128 0x8
 2539 0168 3A       		.uleb128 0x3a
 2540 0169 0B       		.uleb128 0xb
 2541 016a 3B       		.uleb128 0x3b
 2542 016b 0B       		.uleb128 0xb
 2543 016c 49       		.uleb128 0x49
 2544 016d 13       		.uleb128 0x13
 2545 016e 02       		.uleb128 0x2
 2546 016f 17       		.uleb128 0x17
 2547 0170 00       		.byte	0
 2548 0171 00       		.byte	0
 2549 0172 1F       		.uleb128 0x1f
 2550 0173 2E       		.uleb128 0x2e
 2551 0174 01       		.byte	0x1
 2552 0175 3F       		.uleb128 0x3f
 2553 0176 19       		.uleb128 0x19
 2554 0177 03       		.uleb128 0x3
 2555 0178 0E       		.uleb128 0xe
 2556 0179 3A       		.uleb128 0x3a
 2557 017a 0B       		.uleb128 0xb
 2558 017b 3B       		.uleb128 0x3b
 2559 017c 05       		.uleb128 0x5
 2560 017d 27       		.uleb128 0x27
 2561 017e 19       		.uleb128 0x19
 2562 017f 11       		.uleb128 0x11
 2563 0180 01       		.uleb128 0x1
 2564 0181 12       		.uleb128 0x12
 2565 0182 06       		.uleb128 0x6
ARM GAS  /tmp/ccNl6upi.s 			page 46


 2566 0183 40       		.uleb128 0x40
 2567 0184 18       		.uleb128 0x18
 2568 0185 9742     		.uleb128 0x2117
 2569 0187 19       		.uleb128 0x19
 2570 0188 01       		.uleb128 0x1
 2571 0189 13       		.uleb128 0x13
 2572 018a 00       		.byte	0
 2573 018b 00       		.byte	0
 2574 018c 20       		.uleb128 0x20
 2575 018d 05       		.uleb128 0x5
 2576 018e 00       		.byte	0
 2577 018f 03       		.uleb128 0x3
 2578 0190 0E       		.uleb128 0xe
 2579 0191 3A       		.uleb128 0x3a
 2580 0192 0B       		.uleb128 0xb
 2581 0193 3B       		.uleb128 0x3b
 2582 0194 05       		.uleb128 0x5
 2583 0195 49       		.uleb128 0x49
 2584 0196 13       		.uleb128 0x13
 2585 0197 02       		.uleb128 0x2
 2586 0198 17       		.uleb128 0x17
 2587 0199 00       		.byte	0
 2588 019a 00       		.byte	0
 2589 019b 21       		.uleb128 0x21
 2590 019c 05       		.uleb128 0x5
 2591 019d 00       		.byte	0
 2592 019e 03       		.uleb128 0x3
 2593 019f 08       		.uleb128 0x8
 2594 01a0 3A       		.uleb128 0x3a
 2595 01a1 0B       		.uleb128 0xb
 2596 01a2 3B       		.uleb128 0x3b
 2597 01a3 05       		.uleb128 0x5
 2598 01a4 49       		.uleb128 0x49
 2599 01a5 13       		.uleb128 0x13
 2600 01a6 02       		.uleb128 0x2
 2601 01a7 17       		.uleb128 0x17
 2602 01a8 00       		.byte	0
 2603 01a9 00       		.byte	0
 2604 01aa 22       		.uleb128 0x22
 2605 01ab 34       		.uleb128 0x34
 2606 01ac 00       		.byte	0
 2607 01ad 03       		.uleb128 0x3
 2608 01ae 0E       		.uleb128 0xe
 2609 01af 3A       		.uleb128 0x3a
 2610 01b0 0B       		.uleb128 0xb
 2611 01b1 3B       		.uleb128 0x3b
 2612 01b2 0B       		.uleb128 0xb
 2613 01b3 49       		.uleb128 0x49
 2614 01b4 13       		.uleb128 0x13
 2615 01b5 3F       		.uleb128 0x3f
 2616 01b6 19       		.uleb128 0x19
 2617 01b7 3C       		.uleb128 0x3c
 2618 01b8 19       		.uleb128 0x19
 2619 01b9 00       		.byte	0
 2620 01ba 00       		.byte	0
 2621 01bb 23       		.uleb128 0x23
 2622 01bc 2E       		.uleb128 0x2e
ARM GAS  /tmp/ccNl6upi.s 			page 47


 2623 01bd 00       		.byte	0
 2624 01be 3F       		.uleb128 0x3f
 2625 01bf 19       		.uleb128 0x19
 2626 01c0 03       		.uleb128 0x3
 2627 01c1 0E       		.uleb128 0xe
 2628 01c2 3A       		.uleb128 0x3a
 2629 01c3 0B       		.uleb128 0xb
 2630 01c4 3B       		.uleb128 0x3b
 2631 01c5 05       		.uleb128 0x5
 2632 01c6 27       		.uleb128 0x27
 2633 01c7 19       		.uleb128 0x19
 2634 01c8 3C       		.uleb128 0x3c
 2635 01c9 19       		.uleb128 0x19
 2636 01ca 00       		.byte	0
 2637 01cb 00       		.byte	0
 2638 01cc 24       		.uleb128 0x24
 2639 01cd 2E       		.uleb128 0x2e
 2640 01ce 01       		.byte	0x1
 2641 01cf 3F       		.uleb128 0x3f
 2642 01d0 19       		.uleb128 0x19
 2643 01d1 03       		.uleb128 0x3
 2644 01d2 0E       		.uleb128 0xe
 2645 01d3 3A       		.uleb128 0x3a
 2646 01d4 0B       		.uleb128 0xb
 2647 01d5 3B       		.uleb128 0x3b
 2648 01d6 0B       		.uleb128 0xb
 2649 01d7 27       		.uleb128 0x27
 2650 01d8 19       		.uleb128 0x19
 2651 01d9 3C       		.uleb128 0x3c
 2652 01da 19       		.uleb128 0x19
 2653 01db 01       		.uleb128 0x1
 2654 01dc 13       		.uleb128 0x13
 2655 01dd 00       		.byte	0
 2656 01de 00       		.byte	0
 2657 01df 25       		.uleb128 0x25
 2658 01e0 2E       		.uleb128 0x2e
 2659 01e1 01       		.byte	0x1
 2660 01e2 3F       		.uleb128 0x3f
 2661 01e3 19       		.uleb128 0x19
 2662 01e4 03       		.uleb128 0x3
 2663 01e5 0E       		.uleb128 0xe
 2664 01e6 3A       		.uleb128 0x3a
 2665 01e7 0B       		.uleb128 0xb
 2666 01e8 3B       		.uleb128 0x3b
 2667 01e9 05       		.uleb128 0x5
 2668 01ea 27       		.uleb128 0x27
 2669 01eb 19       		.uleb128 0x19
 2670 01ec 3C       		.uleb128 0x3c
 2671 01ed 19       		.uleb128 0x19
 2672 01ee 01       		.uleb128 0x1
 2673 01ef 13       		.uleb128 0x13
 2674 01f0 00       		.byte	0
 2675 01f1 00       		.byte	0
 2676 01f2 26       		.uleb128 0x26
 2677 01f3 2E       		.uleb128 0x2e
 2678 01f4 00       		.byte	0
 2679 01f5 3F       		.uleb128 0x3f
ARM GAS  /tmp/ccNl6upi.s 			page 48


 2680 01f6 19       		.uleb128 0x19
 2681 01f7 03       		.uleb128 0x3
 2682 01f8 0E       		.uleb128 0xe
 2683 01f9 3A       		.uleb128 0x3a
 2684 01fa 0B       		.uleb128 0xb
 2685 01fb 3B       		.uleb128 0x3b
 2686 01fc 0B       		.uleb128 0xb
 2687 01fd 27       		.uleb128 0x27
 2688 01fe 19       		.uleb128 0x19
 2689 01ff 49       		.uleb128 0x49
 2690 0200 13       		.uleb128 0x13
 2691 0201 3C       		.uleb128 0x3c
 2692 0202 19       		.uleb128 0x19
 2693 0203 00       		.byte	0
 2694 0204 00       		.byte	0
 2695 0205 00       		.byte	0
 2696              		.section	.debug_loc,"",%progbits
 2697              	.Ldebug_loc0:
 2698              	.LLST0:
 2699 0000 00000000 		.4byte	.LVL1
 2700 0004 0E000000 		.4byte	.LVL2
 2701 0008 0100     		.2byte	0x1
 2702 000a 50       		.byte	0x50
 2703 000b 0E000000 		.4byte	.LVL2
 2704 000f 11000000 		.4byte	.LVL3-1
 2705 0013 0300     		.2byte	0x3
 2706 0015 70       		.byte	0x70
 2707 0016 74       		.sleb128 -12
 2708 0017 9F       		.byte	0x9f
 2709 0018 11000000 		.4byte	.LVL3-1
 2710 001c 14000000 		.4byte	.LFE40
 2711 0020 0400     		.2byte	0x4
 2712 0022 F3       		.byte	0xf3
 2713 0023 01       		.uleb128 0x1
 2714 0024 50       		.byte	0x50
 2715 0025 9F       		.byte	0x9f
 2716 0026 00000000 		.4byte	0
 2717 002a 00000000 		.4byte	0
 2718              	.LLST1:
 2719 002e 00000000 		.4byte	.LVL4
 2720 0032 0B000000 		.4byte	.LVL5-1
 2721 0036 0100     		.2byte	0x1
 2722 0038 50       		.byte	0x50
 2723 0039 0B000000 		.4byte	.LVL5-1
 2724 003d 12000000 		.4byte	.LVL6
 2725 0041 0100     		.2byte	0x1
 2726 0043 54       		.byte	0x54
 2727 0044 12000000 		.4byte	.LVL6
 2728 0048 14000000 		.4byte	.LFE41
 2729 004c 0400     		.2byte	0x4
 2730 004e F3       		.byte	0xf3
 2731 004f 01       		.uleb128 0x1
 2732 0050 50       		.byte	0x50
 2733 0051 9F       		.byte	0x9f
 2734 0052 00000000 		.4byte	0
 2735 0056 00000000 		.4byte	0
 2736              	.LLST2:
ARM GAS  /tmp/ccNl6upi.s 			page 49


 2737 005a 00000000 		.4byte	.LVL4
 2738 005e 0B000000 		.4byte	.LVL5-1
 2739 0062 0100     		.2byte	0x1
 2740 0064 51       		.byte	0x51
 2741 0065 0B000000 		.4byte	.LVL5-1
 2742 0069 14000000 		.4byte	.LFE41
 2743 006d 0400     		.2byte	0x4
 2744 006f F3       		.byte	0xf3
 2745 0070 01       		.uleb128 0x1
 2746 0071 51       		.byte	0x51
 2747 0072 9F       		.byte	0x9f
 2748 0073 00000000 		.4byte	0
 2749 0077 00000000 		.4byte	0
 2750              	.LLST3:
 2751 007b 00000000 		.4byte	.LVL7
 2752 007f 09000000 		.4byte	.LVL8-1
 2753 0083 0100     		.2byte	0x1
 2754 0085 50       		.byte	0x50
 2755 0086 09000000 		.4byte	.LVL8-1
 2756 008a 16000000 		.4byte	.LVL10
 2757 008e 0100     		.2byte	0x1
 2758 0090 54       		.byte	0x54
 2759 0091 16000000 		.4byte	.LVL10
 2760 0095 18000000 		.4byte	.LFE42
 2761 0099 0400     		.2byte	0x4
 2762 009b F3       		.byte	0xf3
 2763 009c 01       		.uleb128 0x1
 2764 009d 50       		.byte	0x50
 2765 009e 9F       		.byte	0x9f
 2766 009f 00000000 		.4byte	0
 2767 00a3 00000000 		.4byte	0
 2768              	.LLST4:
 2769 00a7 00000000 		.4byte	.LVL11
 2770 00ab 07000000 		.4byte	.LVL12-1
 2771 00af 0100     		.2byte	0x1
 2772 00b1 50       		.byte	0x50
 2773 00b2 07000000 		.4byte	.LVL12-1
 2774 00b6 0C000000 		.4byte	.LFE43
 2775 00ba 0400     		.2byte	0x4
 2776 00bc F3       		.byte	0xf3
 2777 00bd 01       		.uleb128 0x1
 2778 00be 50       		.byte	0x50
 2779 00bf 9F       		.byte	0x9f
 2780 00c0 00000000 		.4byte	0
 2781 00c4 00000000 		.4byte	0
 2782              	.LLST5:
 2783 00c8 00000000 		.4byte	.LVL13
 2784 00cc 07000000 		.4byte	.LVL14-1
 2785 00d0 0100     		.2byte	0x1
 2786 00d2 50       		.byte	0x50
 2787 00d3 07000000 		.4byte	.LVL14-1
 2788 00d7 0C000000 		.4byte	.LFE44
 2789 00db 0400     		.2byte	0x4
 2790 00dd F3       		.byte	0xf3
 2791 00de 01       		.uleb128 0x1
 2792 00df 50       		.byte	0x50
 2793 00e0 9F       		.byte	0x9f
ARM GAS  /tmp/ccNl6upi.s 			page 50


 2794 00e1 00000000 		.4byte	0
 2795 00e5 00000000 		.4byte	0
 2796              	.LLST6:
 2797 00e9 00000000 		.4byte	.LVL15
 2798 00ed 0B000000 		.4byte	.LVL16-1
 2799 00f1 0100     		.2byte	0x1
 2800 00f3 50       		.byte	0x50
 2801 00f4 0B000000 		.4byte	.LVL16-1
 2802 00f8 10000000 		.4byte	.LFE45
 2803 00fc 0400     		.2byte	0x4
 2804 00fe F3       		.byte	0xf3
 2805 00ff 01       		.uleb128 0x1
 2806 0100 50       		.byte	0x50
 2807 0101 9F       		.byte	0x9f
 2808 0102 00000000 		.4byte	0
 2809 0106 00000000 		.4byte	0
 2810              	.LLST7:
 2811 010a 00000000 		.4byte	.LVL15
 2812 010e 0B000000 		.4byte	.LVL16-1
 2813 0112 0100     		.2byte	0x1
 2814 0114 51       		.byte	0x51
 2815 0115 0B000000 		.4byte	.LVL16-1
 2816 0119 10000000 		.4byte	.LFE45
 2817 011d 0400     		.2byte	0x4
 2818 011f F3       		.byte	0xf3
 2819 0120 01       		.uleb128 0x1
 2820 0121 51       		.byte	0x51
 2821 0122 9F       		.byte	0x9f
 2822 0123 00000000 		.4byte	0
 2823 0127 00000000 		.4byte	0
 2824              	.LLST8:
 2825 012b 00000000 		.4byte	.LVL17
 2826 012f 0B000000 		.4byte	.LVL18-1
 2827 0133 0100     		.2byte	0x1
 2828 0135 50       		.byte	0x50
 2829 0136 0B000000 		.4byte	.LVL18-1
 2830 013a 10000000 		.4byte	.LFE46
 2831 013e 0400     		.2byte	0x4
 2832 0140 F3       		.byte	0xf3
 2833 0141 01       		.uleb128 0x1
 2834 0142 50       		.byte	0x50
 2835 0143 9F       		.byte	0x9f
 2836 0144 00000000 		.4byte	0
 2837 0148 00000000 		.4byte	0
 2838              	.LLST9:
 2839 014c 00000000 		.4byte	.LVL17
 2840 0150 0B000000 		.4byte	.LVL18-1
 2841 0154 0100     		.2byte	0x1
 2842 0156 51       		.byte	0x51
 2843 0157 0B000000 		.4byte	.LVL18-1
 2844 015b 10000000 		.4byte	.LFE46
 2845 015f 0400     		.2byte	0x4
 2846 0161 F3       		.byte	0xf3
 2847 0162 01       		.uleb128 0x1
 2848 0163 51       		.byte	0x51
 2849 0164 9F       		.byte	0x9f
 2850 0165 00000000 		.4byte	0
ARM GAS  /tmp/ccNl6upi.s 			page 51


 2851 0169 00000000 		.4byte	0
 2852              	.LLST10:
 2853 016d 00000000 		.4byte	.LVL17
 2854 0171 0B000000 		.4byte	.LVL18-1
 2855 0175 0100     		.2byte	0x1
 2856 0177 52       		.byte	0x52
 2857 0178 0B000000 		.4byte	.LVL18-1
 2858 017c 10000000 		.4byte	.LFE46
 2859 0180 0400     		.2byte	0x4
 2860 0182 F3       		.byte	0xf3
 2861 0183 01       		.uleb128 0x1
 2862 0184 52       		.byte	0x52
 2863 0185 9F       		.byte	0x9f
 2864 0186 00000000 		.4byte	0
 2865 018a 00000000 		.4byte	0
 2866              	.LLST11:
 2867 018e 00000000 		.4byte	.LVL17
 2868 0192 0B000000 		.4byte	.LVL18-1
 2869 0196 0100     		.2byte	0x1
 2870 0198 53       		.byte	0x53
 2871 0199 0B000000 		.4byte	.LVL18-1
 2872 019d 10000000 		.4byte	.LFE46
 2873 01a1 0400     		.2byte	0x4
 2874 01a3 F3       		.byte	0xf3
 2875 01a4 01       		.uleb128 0x1
 2876 01a5 53       		.byte	0x53
 2877 01a6 9F       		.byte	0x9f
 2878 01a7 00000000 		.4byte	0
 2879 01ab 00000000 		.4byte	0
 2880              	.LLST12:
 2881 01af 00000000 		.4byte	.LVL19
 2882 01b3 0B000000 		.4byte	.LVL20-1
 2883 01b7 0100     		.2byte	0x1
 2884 01b9 50       		.byte	0x50
 2885 01ba 0B000000 		.4byte	.LVL20-1
 2886 01be 10000000 		.4byte	.LFE47
 2887 01c2 0400     		.2byte	0x4
 2888 01c4 F3       		.byte	0xf3
 2889 01c5 01       		.uleb128 0x1
 2890 01c6 50       		.byte	0x50
 2891 01c7 9F       		.byte	0x9f
 2892 01c8 00000000 		.4byte	0
 2893 01cc 00000000 		.4byte	0
 2894              	.LLST13:
 2895 01d0 00000000 		.4byte	.LVL19
 2896 01d4 0B000000 		.4byte	.LVL20-1
 2897 01d8 0100     		.2byte	0x1
 2898 01da 51       		.byte	0x51
 2899 01db 0B000000 		.4byte	.LVL20-1
 2900 01df 10000000 		.4byte	.LFE47
 2901 01e3 0400     		.2byte	0x4
 2902 01e5 F3       		.byte	0xf3
 2903 01e6 01       		.uleb128 0x1
 2904 01e7 51       		.byte	0x51
 2905 01e8 9F       		.byte	0x9f
 2906 01e9 00000000 		.4byte	0
 2907 01ed 00000000 		.4byte	0
ARM GAS  /tmp/ccNl6upi.s 			page 52


 2908              	.LLST14:
 2909 01f1 00000000 		.4byte	.LVL19
 2910 01f5 0B000000 		.4byte	.LVL20-1
 2911 01f9 0100     		.2byte	0x1
 2912 01fb 52       		.byte	0x52
 2913 01fc 0B000000 		.4byte	.LVL20-1
 2914 0200 10000000 		.4byte	.LFE47
 2915 0204 0400     		.2byte	0x4
 2916 0206 F3       		.byte	0xf3
 2917 0207 01       		.uleb128 0x1
 2918 0208 52       		.byte	0x52
 2919 0209 9F       		.byte	0x9f
 2920 020a 00000000 		.4byte	0
 2921 020e 00000000 		.4byte	0
 2922              	.LLST15:
 2923 0212 00000000 		.4byte	.LVL21
 2924 0216 0B000000 		.4byte	.LVL22-1
 2925 021a 0100     		.2byte	0x1
 2926 021c 50       		.byte	0x50
 2927 021d 0B000000 		.4byte	.LVL22-1
 2928 0221 10000000 		.4byte	.LFE48
 2929 0225 0400     		.2byte	0x4
 2930 0227 F3       		.byte	0xf3
 2931 0228 01       		.uleb128 0x1
 2932 0229 50       		.byte	0x50
 2933 022a 9F       		.byte	0x9f
 2934 022b 00000000 		.4byte	0
 2935 022f 00000000 		.4byte	0
 2936              	.LLST16:
 2937 0233 00000000 		.4byte	.LVL21
 2938 0237 0B000000 		.4byte	.LVL22-1
 2939 023b 0100     		.2byte	0x1
 2940 023d 51       		.byte	0x51
 2941 023e 0B000000 		.4byte	.LVL22-1
 2942 0242 10000000 		.4byte	.LFE48
 2943 0246 0400     		.2byte	0x4
 2944 0248 F3       		.byte	0xf3
 2945 0249 01       		.uleb128 0x1
 2946 024a 51       		.byte	0x51
 2947 024b 9F       		.byte	0x9f
 2948 024c 00000000 		.4byte	0
 2949 0250 00000000 		.4byte	0
 2950              	.LLST17:
 2951 0254 00000000 		.4byte	.LVL21
 2952 0258 0B000000 		.4byte	.LVL22-1
 2953 025c 0100     		.2byte	0x1
 2954 025e 52       		.byte	0x52
 2955 025f 0B000000 		.4byte	.LVL22-1
 2956 0263 10000000 		.4byte	.LFE48
 2957 0267 0400     		.2byte	0x4
 2958 0269 F3       		.byte	0xf3
 2959 026a 01       		.uleb128 0x1
 2960 026b 52       		.byte	0x52
 2961 026c 9F       		.byte	0x9f
 2962 026d 00000000 		.4byte	0
 2963 0271 00000000 		.4byte	0
 2964              	.LLST18:
ARM GAS  /tmp/ccNl6upi.s 			page 53


 2965 0275 00000000 		.4byte	.LVL23
 2966 0279 0D000000 		.4byte	.LVL24-1
 2967 027d 0100     		.2byte	0x1
 2968 027f 50       		.byte	0x50
 2969 0280 0D000000 		.4byte	.LVL24-1
 2970 0284 1C000000 		.4byte	.LVL26
 2971 0288 0100     		.2byte	0x1
 2972 028a 54       		.byte	0x54
 2973 028b 1C000000 		.4byte	.LVL26
 2974 028f 24000000 		.4byte	.LFE49
 2975 0293 0400     		.2byte	0x4
 2976 0295 F3       		.byte	0xf3
 2977 0296 01       		.uleb128 0x1
 2978 0297 50       		.byte	0x50
 2979 0298 9F       		.byte	0x9f
 2980 0299 00000000 		.4byte	0
 2981 029d 00000000 		.4byte	0
 2982              	.LLST19:
 2983 02a1 00000000 		.4byte	.LVL23
 2984 02a5 0D000000 		.4byte	.LVL24-1
 2985 02a9 0100     		.2byte	0x1
 2986 02ab 51       		.byte	0x51
 2987 02ac 0D000000 		.4byte	.LVL24-1
 2988 02b0 24000000 		.4byte	.LFE49
 2989 02b4 0400     		.2byte	0x4
 2990 02b6 F3       		.byte	0xf3
 2991 02b7 01       		.uleb128 0x1
 2992 02b8 51       		.byte	0x51
 2993 02b9 9F       		.byte	0x9f
 2994 02ba 00000000 		.4byte	0
 2995 02be 00000000 		.4byte	0
 2996              	.LLST20:
 2997 02c2 00000000 		.4byte	.LVL27
 2998 02c6 08000000 		.4byte	.LVL28
 2999 02ca 0100     		.2byte	0x1
 3000 02cc 50       		.byte	0x50
 3001 02cd 08000000 		.4byte	.LVL28
 3002 02d1 1E000000 		.4byte	.LVL31
 3003 02d5 0100     		.2byte	0x1
 3004 02d7 54       		.byte	0x54
 3005 02d8 1E000000 		.4byte	.LVL31
 3006 02dc 24000000 		.4byte	.LFE50
 3007 02e0 0400     		.2byte	0x4
 3008 02e2 F3       		.byte	0xf3
 3009 02e3 01       		.uleb128 0x1
 3010 02e4 50       		.byte	0x50
 3011 02e5 9F       		.byte	0x9f
 3012 02e6 00000000 		.4byte	0
 3013 02ea 00000000 		.4byte	0
 3014              	.LLST21:
 3015 02ee 00000000 		.4byte	.LVL27
 3016 02f2 0F000000 		.4byte	.LVL29-1
 3017 02f6 0100     		.2byte	0x1
 3018 02f8 51       		.byte	0x51
 3019 02f9 0F000000 		.4byte	.LVL29-1
 3020 02fd 24000000 		.4byte	.LFE50
 3021 0301 0400     		.2byte	0x4
ARM GAS  /tmp/ccNl6upi.s 			page 54


 3022 0303 F3       		.byte	0xf3
 3023 0304 01       		.uleb128 0x1
 3024 0305 51       		.byte	0x51
 3025 0306 9F       		.byte	0x9f
 3026 0307 00000000 		.4byte	0
 3027 030b 00000000 		.4byte	0
 3028              	.LLST22:
 3029 030f 00000000 		.4byte	.LVL27
 3030 0313 0F000000 		.4byte	.LVL29-1
 3031 0317 0100     		.2byte	0x1
 3032 0319 52       		.byte	0x52
 3033 031a 0F000000 		.4byte	.LVL29-1
 3034 031e 24000000 		.4byte	.LFE50
 3035 0322 0400     		.2byte	0x4
 3036 0324 F3       		.byte	0xf3
 3037 0325 01       		.uleb128 0x1
 3038 0326 52       		.byte	0x52
 3039 0327 9F       		.byte	0x9f
 3040 0328 00000000 		.4byte	0
 3041 032c 00000000 		.4byte	0
 3042              	.LLST23:
 3043 0330 00000000 		.4byte	.LVL27
 3044 0334 0F000000 		.4byte	.LVL29-1
 3045 0338 0100     		.2byte	0x1
 3046 033a 53       		.byte	0x53
 3047 033b 0F000000 		.4byte	.LVL29-1
 3048 033f 24000000 		.4byte	.LFE50
 3049 0343 0400     		.2byte	0x4
 3050 0345 F3       		.byte	0xf3
 3051 0346 01       		.uleb128 0x1
 3052 0347 53       		.byte	0x53
 3053 0348 9F       		.byte	0x9f
 3054 0349 00000000 		.4byte	0
 3055 034d 00000000 		.4byte	0
 3056              	.LLST24:
 3057 0351 00000000 		.4byte	.LVL32
 3058 0355 0D000000 		.4byte	.LVL33-1
 3059 0359 0100     		.2byte	0x1
 3060 035b 50       		.byte	0x50
 3061 035c 0D000000 		.4byte	.LVL33-1
 3062 0360 1C000000 		.4byte	.LVL35
 3063 0364 0100     		.2byte	0x1
 3064 0366 54       		.byte	0x54
 3065 0367 1C000000 		.4byte	.LVL35
 3066 036b 24000000 		.4byte	.LFE51
 3067 036f 0400     		.2byte	0x4
 3068 0371 F3       		.byte	0xf3
 3069 0372 01       		.uleb128 0x1
 3070 0373 50       		.byte	0x50
 3071 0374 9F       		.byte	0x9f
 3072 0375 00000000 		.4byte	0
 3073 0379 00000000 		.4byte	0
 3074              	.LLST25:
 3075 037d 00000000 		.4byte	.LVL32
 3076 0381 0D000000 		.4byte	.LVL33-1
 3077 0385 0100     		.2byte	0x1
 3078 0387 51       		.byte	0x51
ARM GAS  /tmp/ccNl6upi.s 			page 55


 3079 0388 0D000000 		.4byte	.LVL33-1
 3080 038c 24000000 		.4byte	.LFE51
 3081 0390 0400     		.2byte	0x4
 3082 0392 F3       		.byte	0xf3
 3083 0393 01       		.uleb128 0x1
 3084 0394 51       		.byte	0x51
 3085 0395 9F       		.byte	0x9f
 3086 0396 00000000 		.4byte	0
 3087 039a 00000000 		.4byte	0
 3088              	.LLST26:
 3089 039e 00000000 		.4byte	.LVL32
 3090 03a2 0D000000 		.4byte	.LVL33-1
 3091 03a6 0100     		.2byte	0x1
 3092 03a8 52       		.byte	0x52
 3093 03a9 0D000000 		.4byte	.LVL33-1
 3094 03ad 24000000 		.4byte	.LFE51
 3095 03b1 0400     		.2byte	0x4
 3096 03b3 F3       		.byte	0xf3
 3097 03b4 01       		.uleb128 0x1
 3098 03b5 52       		.byte	0x52
 3099 03b6 9F       		.byte	0x9f
 3100 03b7 00000000 		.4byte	0
 3101 03bb 00000000 		.4byte	0
 3102              	.LLST27:
 3103 03bf 00000000 		.4byte	.LVL36
 3104 03c3 0D000000 		.4byte	.LVL37-1
 3105 03c7 0100     		.2byte	0x1
 3106 03c9 50       		.byte	0x50
 3107 03ca 0D000000 		.4byte	.LVL37-1
 3108 03ce 1C000000 		.4byte	.LVL39
 3109 03d2 0100     		.2byte	0x1
 3110 03d4 54       		.byte	0x54
 3111 03d5 1C000000 		.4byte	.LVL39
 3112 03d9 24000000 		.4byte	.LFE52
 3113 03dd 0400     		.2byte	0x4
 3114 03df F3       		.byte	0xf3
 3115 03e0 01       		.uleb128 0x1
 3116 03e1 50       		.byte	0x50
 3117 03e2 9F       		.byte	0x9f
 3118 03e3 00000000 		.4byte	0
 3119 03e7 00000000 		.4byte	0
 3120              	.LLST28:
 3121 03eb 00000000 		.4byte	.LVL36
 3122 03ef 0D000000 		.4byte	.LVL37-1
 3123 03f3 0100     		.2byte	0x1
 3124 03f5 51       		.byte	0x51
 3125 03f6 0D000000 		.4byte	.LVL37-1
 3126 03fa 24000000 		.4byte	.LFE52
 3127 03fe 0400     		.2byte	0x4
 3128 0400 F3       		.byte	0xf3
 3129 0401 01       		.uleb128 0x1
 3130 0402 51       		.byte	0x51
 3131 0403 9F       		.byte	0x9f
 3132 0404 00000000 		.4byte	0
 3133 0408 00000000 		.4byte	0
 3134              	.LLST29:
 3135 040c 00000000 		.4byte	.LVL36
ARM GAS  /tmp/ccNl6upi.s 			page 56


 3136 0410 0D000000 		.4byte	.LVL37-1
 3137 0414 0100     		.2byte	0x1
 3138 0416 52       		.byte	0x52
 3139 0417 0D000000 		.4byte	.LVL37-1
 3140 041b 24000000 		.4byte	.LFE52
 3141 041f 0400     		.2byte	0x4
 3142 0421 F3       		.byte	0xf3
 3143 0422 01       		.uleb128 0x1
 3144 0423 52       		.byte	0x52
 3145 0424 9F       		.byte	0x9f
 3146 0425 00000000 		.4byte	0
 3147 0429 00000000 		.4byte	0
 3148              	.LLST30:
 3149 042d 00000000 		.4byte	.LVL40
 3150 0431 04000000 		.4byte	.LVL41
 3151 0435 0100     		.2byte	0x1
 3152 0437 50       		.byte	0x50
 3153 0438 04000000 		.4byte	.LVL41
 3154 043c 07000000 		.4byte	.LVL42-1
 3155 0440 0300     		.2byte	0x3
 3156 0442 70       		.byte	0x70
 3157 0443 74       		.sleb128 -12
 3158 0444 9F       		.byte	0x9f
 3159 0445 07000000 		.4byte	.LVL42-1
 3160 0449 0A000000 		.4byte	.LFE53
 3161 044d 0400     		.2byte	0x4
 3162 044f F3       		.byte	0xf3
 3163 0450 01       		.uleb128 0x1
 3164 0451 50       		.byte	0x50
 3165 0452 9F       		.byte	0x9f
 3166 0453 00000000 		.4byte	0
 3167 0457 00000000 		.4byte	0
 3168              	.LLST31:
 3169 045b 00000000 		.4byte	.LVL43
 3170 045f 05000000 		.4byte	.LVL44-1
 3171 0463 0100     		.2byte	0x1
 3172 0465 50       		.byte	0x50
 3173 0466 05000000 		.4byte	.LVL44-1
 3174 046a 08000000 		.4byte	.LFE54
 3175 046e 0400     		.2byte	0x4
 3176 0470 F3       		.byte	0xf3
 3177 0471 01       		.uleb128 0x1
 3178 0472 50       		.byte	0x50
 3179 0473 9F       		.byte	0x9f
 3180 0474 00000000 		.4byte	0
 3181 0478 00000000 		.4byte	0
 3182              		.section	.debug_aranges,"",%progbits
 3183 0000 94000000 		.4byte	0x94
 3184 0004 0200     		.2byte	0x2
 3185 0006 00000000 		.4byte	.Ldebug_info0
 3186 000a 04       		.byte	0x4
 3187 000b 00       		.byte	0
 3188 000c 0000     		.2byte	0
 3189 000e 0000     		.2byte	0
 3190 0010 00000000 		.4byte	.LFB39
 3191 0014 08000000 		.4byte	.LFE39-.LFB39
 3192 0018 00000000 		.4byte	.LFB40
ARM GAS  /tmp/ccNl6upi.s 			page 57


 3193 001c 14000000 		.4byte	.LFE40-.LFB40
 3194 0020 00000000 		.4byte	.LFB41
 3195 0024 14000000 		.4byte	.LFE41-.LFB41
 3196 0028 00000000 		.4byte	.LFB42
 3197 002c 18000000 		.4byte	.LFE42-.LFB42
 3198 0030 00000000 		.4byte	.LFB43
 3199 0034 0C000000 		.4byte	.LFE43-.LFB43
 3200 0038 00000000 		.4byte	.LFB44
 3201 003c 0C000000 		.4byte	.LFE44-.LFB44
 3202 0040 00000000 		.4byte	.LFB45
 3203 0044 10000000 		.4byte	.LFE45-.LFB45
 3204 0048 00000000 		.4byte	.LFB46
 3205 004c 10000000 		.4byte	.LFE46-.LFB46
 3206 0050 00000000 		.4byte	.LFB47
 3207 0054 10000000 		.4byte	.LFE47-.LFB47
 3208 0058 00000000 		.4byte	.LFB48
 3209 005c 10000000 		.4byte	.LFE48-.LFB48
 3210 0060 00000000 		.4byte	.LFB49
 3211 0064 24000000 		.4byte	.LFE49-.LFB49
 3212 0068 00000000 		.4byte	.LFB50
 3213 006c 24000000 		.4byte	.LFE50-.LFB50
 3214 0070 00000000 		.4byte	.LFB51
 3215 0074 24000000 		.4byte	.LFE51-.LFB51
 3216 0078 00000000 		.4byte	.LFB52
 3217 007c 24000000 		.4byte	.LFE52-.LFB52
 3218 0080 00000000 		.4byte	.LFB53
 3219 0084 0A000000 		.4byte	.LFE53-.LFB53
 3220 0088 00000000 		.4byte	.LFB54
 3221 008c 08000000 		.4byte	.LFE54-.LFB54
 3222 0090 00000000 		.4byte	0
 3223 0094 00000000 		.4byte	0
 3224              		.section	.debug_ranges,"",%progbits
 3225              	.Ldebug_ranges0:
 3226 0000 00000000 		.4byte	.LFB39
 3227 0004 08000000 		.4byte	.LFE39
 3228 0008 00000000 		.4byte	.LFB40
 3229 000c 14000000 		.4byte	.LFE40
 3230 0010 00000000 		.4byte	.LFB41
 3231 0014 14000000 		.4byte	.LFE41
 3232 0018 00000000 		.4byte	.LFB42
 3233 001c 18000000 		.4byte	.LFE42
 3234 0020 00000000 		.4byte	.LFB43
 3235 0024 0C000000 		.4byte	.LFE43
 3236 0028 00000000 		.4byte	.LFB44
 3237 002c 0C000000 		.4byte	.LFE44
 3238 0030 00000000 		.4byte	.LFB45
 3239 0034 10000000 		.4byte	.LFE45
 3240 0038 00000000 		.4byte	.LFB46
 3241 003c 10000000 		.4byte	.LFE46
 3242 0040 00000000 		.4byte	.LFB47
 3243 0044 10000000 		.4byte	.LFE47
 3244 0048 00000000 		.4byte	.LFB48
 3245 004c 10000000 		.4byte	.LFE48
 3246 0050 00000000 		.4byte	.LFB49
 3247 0054 24000000 		.4byte	.LFE49
 3248 0058 00000000 		.4byte	.LFB50
 3249 005c 24000000 		.4byte	.LFE50
ARM GAS  /tmp/ccNl6upi.s 			page 58


 3250 0060 00000000 		.4byte	.LFB51
 3251 0064 24000000 		.4byte	.LFE51
 3252 0068 00000000 		.4byte	.LFB52
 3253 006c 24000000 		.4byte	.LFE52
 3254 0070 00000000 		.4byte	.LFB53
 3255 0074 0A000000 		.4byte	.LFE53
 3256 0078 00000000 		.4byte	.LFB54
 3257 007c 08000000 		.4byte	.LFE54
 3258 0080 00000000 		.4byte	0
 3259 0084 00000000 		.4byte	0
 3260              		.section	.debug_line,"",%progbits
 3261              	.Ldebug_line0:
 3262 0000 B5030000 		.section	.debug_str,"MS",%progbits,1
 3262      02006C02 
 3262      00000201 
 3262      FB0E0D00 
 3262      01010101 
 3263              	.LASF84:
 3264 0000 7278636E 		.ascii	"rxcnt\000"
 3264      7400
 3265              	.LASF2:
 3266 0006 73697A65 		.ascii	"size_t\000"
 3266      5F7400
 3267              	.LASF64:
 3268 000d 7264796D 		.ascii	"rdymsg\000"
 3268      736700
 3269              	.LASF3:
 3270 0014 5F5F7569 		.ascii	"__uint8_t\000"
 3270      6E74385F 
 3270      7400
 3271              	.LASF76:
 3272 001e 5350495F 		.ascii	"SPI_ACTIVE\000"
 3272      41435449 
 3272      564500
 3273              	.LASF98:
 3274 0029 73706953 		.ascii	"spiStop\000"
 3274      746F7000 
 3275              	.LASF104:
 3276 0031 72786275 		.ascii	"rxbuf\000"
 3276      6600
 3277              	.LASF91:
 3278 0037 73737061 		.ascii	"sspad\000"
 3278      6400
 3279              	.LASF13:
 3280 003d 6C6F6E67 		.ascii	"long long unsigned int\000"
 3280      206C6F6E 
 3280      6720756E 
 3280      7369676E 
 3280      65642069 
 3281              	.LASF102:
 3282 0054 73706953 		.ascii	"spiStartExchange\000"
 3282      74617274 
 3282      45786368 
 3282      616E6765 
 3282      00
 3283              	.LASF65:
 3284 0065 65786974 		.ascii	"exitcode\000"
ARM GAS  /tmp/ccNl6upi.s 			page 59


 3284      636F6465 
 3284      00
 3285              	.LASF92:
 3286 006e 63707372 		.ascii	"cpsr\000"
 3286      00
 3287              	.LASF79:
 3288 0073 53504944 		.ascii	"SPIDriver\000"
 3288      72697665 
 3288      7200
 3289              	.LASF90:
 3290 007d 7373706F 		.ascii	"ssport\000"
 3290      727400
 3291              	.LASF95:
 3292 0084 7370694F 		.ascii	"spiObjectInit\000"
 3292      626A6563 
 3292      74496E69 
 3292      7400
 3293              	.LASF30:
 3294 0092 705F7072 		.ascii	"p_prio\000"
 3294      696F00
 3295              	.LASF129:
 3296 0099 63684D74 		.ascii	"chMtxUnlock\000"
 3296      78556E6C 
 3296      6F636B00 
 3297              	.LASF1:
 3298 00a5 7369676E 		.ascii	"signed char\000"
 3298      65642063 
 3298      68617200 
 3299              	.LASF74:
 3300 00b1 5350495F 		.ascii	"SPI_STOP\000"
 3300      53544F50 
 3300      00
 3301              	.LASF46:
 3302 00ba 705F6D70 		.ascii	"p_mpool\000"
 3302      6F6F6C00 
 3303              	.LASF128:
 3304 00c2 7370695F 		.ascii	"spi_lld_init\000"
 3304      6C6C645F 
 3304      696E6974 
 3304      00
 3305              	.LASF61:
 3306 00cf 6D5F7175 		.ascii	"m_queue\000"
 3306      65756500 
 3307              	.LASF22:
 3308 00d7 74736C69 		.ascii	"tslices_t\000"
 3308      6365735F 
 3308      7400
 3309              	.LASF80:
 3310 00e1 73746174 		.ascii	"state\000"
 3310      6500
 3311              	.LASF9:
 3312 00e7 6C6F6E67 		.ascii	"long int\000"
 3312      20696E74 
 3312      00
 3313              	.LASF20:
 3314 00f0 74737461 		.ascii	"tstate_t\000"
 3314      74655F74 
ARM GAS  /tmp/ccNl6upi.s 			page 60


 3314      00
 3315              	.LASF106:
 3316 00f9 73706953 		.ascii	"spiStartReceive\000"
 3316      74617274 
 3316      52656365 
 3316      69766500 
 3317              	.LASF119:
 3318 0109 7370695F 		.ascii	"spi_lld_exchange\000"
 3318      6C6C645F 
 3318      65786368 
 3318      616E6765 
 3318      00
 3319              	.LASF37:
 3320 011a 705F7265 		.ascii	"p_refs\000"
 3320      667300
 3321              	.LASF12:
 3322 0121 6C6F6E67 		.ascii	"long long int\000"
 3322      206C6F6E 
 3322      6720696E 
 3322      7400
 3323              	.LASF15:
 3324 012f 75696E74 		.ascii	"uint16_t\000"
 3324      31365F74 
 3324      00
 3325              	.LASF39:
 3326 0138 705F7469 		.ascii	"p_time\000"
 3326      6D6500
 3327              	.LASF101:
 3328 013f 73706953 		.ascii	"spiStartIgnore\000"
 3328      74617274 
 3328      49676E6F 
 3328      726500
 3329              	.LASF32:
 3330 014e 705F6E65 		.ascii	"p_newer\000"
 3330      77657200 
 3331              	.LASF89:
 3332 0156 656E645F 		.ascii	"end_cb\000"
 3332      636200
 3333              	.LASF86:
 3334 015d 7478636E 		.ascii	"txcnt\000"
 3334      7400
 3335              	.LASF56:
 3336 0163 725F6E65 		.ascii	"r_newer\000"
 3336      77657200 
 3337              	.LASF49:
 3338 016b 72656761 		.ascii	"regarm_t\000"
 3338      726D5F74 
 3338      00
 3339              	.LASF88:
 3340 0174 73706963 		.ascii	"spicallback_t\000"
 3340      616C6C62 
 3340      61636B5F 
 3340      7400
 3341              	.LASF127:
 3342 0182 726C6973 		.ascii	"rlist\000"
 3342      7400
 3343              	.LASF120:
ARM GAS  /tmp/ccNl6upi.s 			page 61


 3344 0188 7370695F 		.ascii	"spi_lld_send\000"
 3344      6C6C645F 
 3344      73656E64 
 3344      00
 3345              	.LASF0:
 3346 0195 756E7369 		.ascii	"unsigned int\000"
 3346      676E6564 
 3346      20696E74 
 3346      00
 3347              	.LASF115:
 3348 01a2 7370695F 		.ascii	"spi_lld_unselect\000"
 3348      6C6C645F 
 3348      756E7365 
 3348      6C656374 
 3348      00
 3349              	.LASF103:
 3350 01b3 74786275 		.ascii	"txbuf\000"
 3350      6600
 3351              	.LASF110:
 3352 01b9 73706952 		.ascii	"spiReceive\000"
 3352      65636569 
 3352      766500
 3353              	.LASF41:
 3354 01c4 705F6D73 		.ascii	"p_msgqueue\000"
 3354      67717565 
 3354      756500
 3355              	.LASF105:
 3356 01cf 73706953 		.ascii	"spiStartSend\000"
 3356      74617274 
 3356      53656E64 
 3356      00
 3357              	.LASF51:
 3358 01dc 636F6E74 		.ascii	"context\000"
 3358      65787400 
 3359              	.LASF7:
 3360 01e4 73686F72 		.ascii	"short unsigned int\000"
 3360      7420756E 
 3360      7369676E 
 3360      65642069 
 3360      6E7400
 3361              	.LASF24:
 3362 01f7 6D73675F 		.ascii	"msg_t\000"
 3362      7400
 3363              	.LASF19:
 3364 01fd 746D6F64 		.ascii	"tmode_t\000"
 3364      655F7400 
 3365              	.LASF85:
 3366 0205 72787074 		.ascii	"rxptr\000"
 3366      7200
 3367              	.LASF48:
 3368 020b 54687265 		.ascii	"ThreadsList\000"
 3368      6164734C 
 3368      69737400 
 3369              	.LASF25:
 3370 0217 6576656E 		.ascii	"eventmask_t\000"
 3370      746D6173 
 3370      6B5F7400 
ARM GAS  /tmp/ccNl6upi.s 			page 62


 3371              	.LASF124:
 3372 0223 474E5520 		.ascii	"GNU C 4.8.4 20140526 (release) [ARM/embedded-4_8-br"
 3372      4320342E 
 3372      382E3420 
 3372      32303134 
 3372      30353236 
 3373 0256 616E6368 		.ascii	"anch revision 211358] -mcpu=cortex-m0 -mno-thumb-in"
 3373      20726576 
 3373      6973696F 
 3373      6E203231 
 3373      31333538 
 3374 0289 74657277 		.ascii	"terwork -mthumb -ggdb -O1 -fomit-frame-pointer -ffu"
 3374      6F726B20 
 3374      2D6D7468 
 3374      756D6220 
 3374      2D676764 
 3375 02bc 6E637469 		.ascii	"nction-sections -fdata-sections -fno-common\000"
 3375      6F6E2D73 
 3375      65637469 
 3375      6F6E7320 
 3375      2D666461 
 3376              	.LASF59:
 3377 02e8 52656164 		.ascii	"ReadyList\000"
 3377      794C6973 
 3377      7400
 3378              	.LASF94:
 3379 02f2 73706949 		.ascii	"spiInit\000"
 3379      6E697400 
 3380              	.LASF126:
 3381 02fa 2F484444 		.ascii	"/HDD/GIT/variometer/Altimeter/\000"
 3381      2F474954 
 3381      2F766172 
 3381      696F6D65 
 3381      7465722F 
 3382              	.LASF54:
 3383 0319 725F7072 		.ascii	"r_prio\000"
 3383      696F00
 3384              	.LASF108:
 3385 0320 73706945 		.ascii	"spiExchange\000"
 3385      78636861 
 3385      6E676500 
 3386              	.LASF121:
 3387 032c 7370695F 		.ascii	"spi_lld_receive\000"
 3387      6C6C645F 
 3387      72656365 
 3387      69766500 
 3388              	.LASF52:
 3389 033c 73697A65 		.ascii	"sizetype\000"
 3389      74797065 
 3389      00
 3390              	.LASF60:
 3391 0345 4D757465 		.ascii	"Mutex\000"
 3391      7800
 3392              	.LASF116:
 3393 034b 7370695F 		.ascii	"spi_lld_stop\000"
 3393      6C6C645F 
 3393      73746F70 
ARM GAS  /tmp/ccNl6upi.s 			page 63


 3393      00
 3394              	.LASF111:
 3395 0358 73706941 		.ascii	"spiAcquireBus\000"
 3395      63717569 
 3395      72654275 
 3395      7300
 3396              	.LASF123:
 3397 0366 63684D74 		.ascii	"chMtxLock\000"
 3397      784C6F63 
 3397      6B00
 3398              	.LASF33:
 3399 0370 705F6F6C 		.ascii	"p_older\000"
 3399      64657200 
 3400              	.LASF55:
 3401 0378 725F6374 		.ascii	"r_ctx\000"
 3401      7800
 3402              	.LASF47:
 3403 037e 54687265 		.ascii	"ThreadsQueue\000"
 3403      61647351 
 3403      75657565 
 3403      00
 3404              	.LASF70:
 3405 038b 494D5343 		.ascii	"IMSC\000"
 3405      00
 3406              	.LASF58:
 3407 0390 725F6375 		.ascii	"r_current\000"
 3407      7272656E 
 3407      7400
 3408              	.LASF57:
 3409 039a 725F6F6C 		.ascii	"r_older\000"
 3409      64657200 
 3410              	.LASF21:
 3411 03a2 74726566 		.ascii	"trefs_t\000"
 3411      735F7400 
 3412              	.LASF29:
 3413 03aa 705F7072 		.ascii	"p_prev\000"
 3413      657600
 3414              	.LASF109:
 3415 03b1 73706953 		.ascii	"spiSend\000"
 3415      656E6400 
 3416              	.LASF23:
 3417 03b9 74707269 		.ascii	"tprio_t\000"
 3417      6F5F7400 
 3418              	.LASF83:
 3419 03c1 6D757465 		.ascii	"mutex\000"
 3419      7800
 3420              	.LASF18:
 3421 03c7 5F426F6F 		.ascii	"_Bool\000"
 3421      6C00
 3422              	.LASF16:
 3423 03cd 696E7433 		.ascii	"int32_t\000"
 3423      325F7400 
 3424              	.LASF4:
 3425 03d5 756E7369 		.ascii	"unsigned char\000"
 3425      676E6564 
 3425      20636861 
 3425      7200
ARM GAS  /tmp/ccNl6upi.s 			page 64


 3426              	.LASF44:
 3427 03e3 705F6D74 		.ascii	"p_mtxlist\000"
 3427      786C6973 
 3427      7400
 3428              	.LASF5:
 3429 03ed 73686F72 		.ascii	"short int\000"
 3429      7420696E 
 3429      7400
 3430              	.LASF35:
 3431 03f7 705F7374 		.ascii	"p_state\000"
 3431      61746500 
 3432              	.LASF38:
 3433 03ff 705F7072 		.ascii	"p_preempt\000"
 3433      65656D70 
 3433      7400
 3434              	.LASF100:
 3435 0409 73706955 		.ascii	"spiUnselect\000"
 3435      6E73656C 
 3435      65637400 
 3436              	.LASF67:
 3437 0415 65776D61 		.ascii	"ewmask\000"
 3437      736B00
 3438              	.LASF28:
 3439 041c 705F6E65 		.ascii	"p_next\000"
 3439      787400
 3440              	.LASF36:
 3441 0423 705F666C 		.ascii	"p_flags\000"
 3441      61677300 
 3442              	.LASF87:
 3443 042b 74787074 		.ascii	"txptr\000"
 3443      7200
 3444              	.LASF27:
 3445 0431 54687265 		.ascii	"Thread\000"
 3445      616400
 3446              	.LASF122:
 3447 0438 63685363 		.ascii	"chSchGoSleepS\000"
 3447      68476F53 
 3447      6C656570 
 3447      5300
 3448              	.LASF43:
 3449 0446 705F6570 		.ascii	"p_epending\000"
 3449      656E6469 
 3449      6E6700
 3450              	.LASF17:
 3451 0451 75696E74 		.ascii	"uint32_t\000"
 3451      33325F74 
 3451      00
 3452              	.LASF53:
 3453 045a 725F7175 		.ascii	"r_queue\000"
 3453      65756500 
 3454              	.LASF69:
 3455 0462 43505352 		.ascii	"CPSR\000"
 3455      00
 3456              	.LASF11:
 3457 0467 6C6F6E67 		.ascii	"long unsigned int\000"
 3457      20756E73 
 3457      69676E65 
ARM GAS  /tmp/ccNl6upi.s 			page 65


 3457      6420696E 
 3457      7400
 3458              	.LASF68:
 3459 0479 63686172 		.ascii	"char\000"
 3459      00
 3460              	.LASF77:
 3461 047e 5350495F 		.ascii	"SPI_COMPLETE\000"
 3461      434F4D50 
 3461      4C455445 
 3461      00
 3462              	.LASF81:
 3463 048b 636F6E66 		.ascii	"config\000"
 3463      696700
 3464              	.LASF6:
 3465 0492 5F5F7569 		.ascii	"__uint16_t\000"
 3465      6E743136 
 3465      5F7400
 3466              	.LASF78:
 3467 049d 73706973 		.ascii	"spistate_t\000"
 3467      74617465 
 3467      5F7400
 3468              	.LASF63:
 3469 04a8 6D5F6E65 		.ascii	"m_next\000"
 3469      787400
 3470              	.LASF26:
 3471 04af 73797374 		.ascii	"systime_t\000"
 3471      696D655F 
 3471      7400
 3472              	.LASF45:
 3473 04b9 705F7265 		.ascii	"p_realprio\000"
 3473      616C7072 
 3473      696F00
 3474              	.LASF8:
 3475 04c4 5F5F696E 		.ascii	"__int32_t\000"
 3475      7433325F 
 3475      7400
 3476              	.LASF10:
 3477 04ce 5F5F7569 		.ascii	"__uint32_t\000"
 3477      6E743332 
 3477      5F7400
 3478              	.LASF82:
 3479 04d9 74687265 		.ascii	"thread\000"
 3479      616400
 3480              	.LASF112:
 3481 04e0 73706952 		.ascii	"spiReleaseBus\000"
 3481      656C6561 
 3481      73654275 
 3481      7300
 3482              	.LASF72:
 3483 04ee 696F706F 		.ascii	"ioportid_t\000"
 3483      72746964 
 3483      5F7400
 3484              	.LASF117:
 3485 04f9 7370695F 		.ascii	"spi_lld_select\000"
 3485      6C6C645F 
 3485      73656C65 
 3485      637400
ARM GAS  /tmp/ccNl6upi.s 			page 66


 3486              	.LASF96:
 3487 0508 73706953 		.ascii	"spiStart\000"
 3487      74617274 
 3487      00
 3488              	.LASF99:
 3489 0511 73706953 		.ascii	"spiSelect\000"
 3489      656C6563 
 3489      7400
 3490              	.LASF50:
 3491 051b 696E7463 		.ascii	"intctx\000"
 3491      747800
 3492              	.LASF75:
 3493 0522 5350495F 		.ascii	"SPI_READY\000"
 3493      52454144 
 3493      5900
 3494              	.LASF73:
 3495 052c 5350495F 		.ascii	"SPI_UNINIT\000"
 3495      554E494E 
 3495      495400
 3496              	.LASF113:
 3497 0537 63684D74 		.ascii	"chMtxInit\000"
 3497      78496E69 
 3497      7400
 3498              	.LASF118:
 3499 0541 7370695F 		.ascii	"spi_lld_ignore\000"
 3499      6C6C645F 
 3499      69676E6F 
 3499      726500
 3500              	.LASF71:
 3501 0550 4C50435F 		.ascii	"LPC_SSPx_Type\000"
 3501      53535078 
 3501      5F547970 
 3501      6500
 3502              	.LASF107:
 3503 055e 73706949 		.ascii	"spiIgnore\000"
 3503      676E6F72 
 3503      6500
 3504              	.LASF114:
 3505 0568 7370695F 		.ascii	"spi_lld_start\000"
 3505      6C6C645F 
 3505      73746172 
 3505      7400
 3506              	.LASF14:
 3507 0576 75696E74 		.ascii	"uint8_t\000"
 3507      385F7400 
 3508              	.LASF97:
 3509 057e 73706970 		.ascii	"spip\000"
 3509      00
 3510              	.LASF66:
 3511 0583 77746F62 		.ascii	"wtobjp\000"
 3511      6A7000
 3512              	.LASF34:
 3513 058a 705F6E61 		.ascii	"p_name\000"
 3513      6D6500
 3514              	.LASF93:
 3515 0591 53504943 		.ascii	"SPIConfig\000"
 3515      6F6E6669 
ARM GAS  /tmp/ccNl6upi.s 			page 67


 3515      6700
 3516              	.LASF42:
 3517 059b 705F6D73 		.ascii	"p_msg\000"
 3517      6700
 3518              	.LASF125:
 3519 05a1 43686962 		.ascii	"ChibiOS_2.6.5/os/hal/src/spi.c\000"
 3519      694F535F 
 3519      322E362E 
 3519      352F6F73 
 3519      2F68616C 
 3520              	.LASF62:
 3521 05c0 6D5F6F77 		.ascii	"m_owner\000"
 3521      6E657200 
 3522              	.LASF31:
 3523 05c8 705F6374 		.ascii	"p_ctx\000"
 3523      7800
 3524              	.LASF40:
 3525 05ce 705F7761 		.ascii	"p_waiting\000"
 3525      6974696E 
 3525      6700
 3526              		.ident	"GCC: (GNU Tools for ARM Embedded Processors) 4.8.4 20140526 (release) [ARM/embedded-4_8-br
ARM GAS  /tmp/ccNl6upi.s 			page 68


DEFINED SYMBOLS
                            *ABS*:00000000 spi.c
     /tmp/ccNl6upi.s:18     .text.spiInit:00000000 $t
     /tmp/ccNl6upi.s:23     .text.spiInit:00000000 spiInit
     /tmp/ccNl6upi.s:42     .text.spiObjectInit:00000000 $t
     /tmp/ccNl6upi.s:47     .text.spiObjectInit:00000000 spiObjectInit
     /tmp/ccNl6upi.s:76     .text.spiStart:00000000 $t
     /tmp/ccNl6upi.s:81     .text.spiStart:00000000 spiStart
     /tmp/ccNl6upi.s:117    .text.spiStop:00000000 $t
     /tmp/ccNl6upi.s:122    .text.spiStop:00000000 spiStop
     /tmp/ccNl6upi.s:160    .text.spiSelect:00000000 $t
     /tmp/ccNl6upi.s:165    .text.spiSelect:00000000 spiSelect
     /tmp/ccNl6upi.s:194    .text.spiUnselect:00000000 $t
     /tmp/ccNl6upi.s:199    .text.spiUnselect:00000000 spiUnselect
     /tmp/ccNl6upi.s:228    .text.spiStartIgnore:00000000 $t
     /tmp/ccNl6upi.s:233    .text.spiStartIgnore:00000000 spiStartIgnore
     /tmp/ccNl6upi.s:264    .text.spiStartExchange:00000000 $t
     /tmp/ccNl6upi.s:269    .text.spiStartExchange:00000000 spiStartExchange
     /tmp/ccNl6upi.s:300    .text.spiStartSend:00000000 $t
     /tmp/ccNl6upi.s:305    .text.spiStartSend:00000000 spiStartSend
     /tmp/ccNl6upi.s:336    .text.spiStartReceive:00000000 $t
     /tmp/ccNl6upi.s:341    .text.spiStartReceive:00000000 spiStartReceive
     /tmp/ccNl6upi.s:372    .text.spiIgnore:00000000 $t
     /tmp/ccNl6upi.s:377    .text.spiIgnore:00000000 spiIgnore
     /tmp/ccNl6upi.s:416    .text.spiIgnore:00000020 $d
     /tmp/ccNl6upi.s:421    .text.spiExchange:00000000 $t
     /tmp/ccNl6upi.s:426    .text.spiExchange:00000000 spiExchange
     /tmp/ccNl6upi.s:467    .text.spiExchange:00000020 $d
     /tmp/ccNl6upi.s:472    .text.spiSend:00000000 $t
     /tmp/ccNl6upi.s:477    .text.spiSend:00000000 spiSend
     /tmp/ccNl6upi.s:516    .text.spiSend:00000020 $d
     /tmp/ccNl6upi.s:521    .text.spiReceive:00000000 $t
     /tmp/ccNl6upi.s:526    .text.spiReceive:00000000 spiReceive
     /tmp/ccNl6upi.s:565    .text.spiReceive:00000020 $d
     /tmp/ccNl6upi.s:570    .text.spiAcquireBus:00000000 $t
     /tmp/ccNl6upi.s:575    .text.spiAcquireBus:00000000 spiAcquireBus
     /tmp/ccNl6upi.s:596    .text.spiReleaseBus:00000000 $t
     /tmp/ccNl6upi.s:601    .text.spiReleaseBus:00000000 spiReleaseBus
                     .debug_frame:00000010 $d

UNDEFINED SYMBOLS
spi_lld_init
chMtxInit
spi_lld_start
spi_lld_unselect
spi_lld_stop
spi_lld_select
spi_lld_ignore
spi_lld_exchange
spi_lld_send
spi_lld_receive
chSchGoSleepS
rlist
chMtxLock
chMtxUnlock
