ARM GAS  /tmp/ccxAEpps.s 			page 1


   1              		.cpu cortex-m0
   2              		.fpu softvfp
   3              		.eabi_attribute 20, 1
   4              		.eabi_attribute 21, 1
   5              		.eabi_attribute 23, 3
   6              		.eabi_attribute 24, 1
   7              		.eabi_attribute 25, 1
   8              		.eabi_attribute 26, 1
   9              		.eabi_attribute 30, 1
  10              		.eabi_attribute 34, 0
  11              		.eabi_attribute 18, 4
  12              		.code	16
  13              		.file	"spi_lld.c"
  14              		.text
  15              	.Ltext0:
  16              		.cfi_sections	.debug_frame
  17              		.section	.text.ssp_fifo_preload,"ax",%progbits
  18              		.align	2
  19              		.code	16
  20              		.thumb_func
  21              		.type	ssp_fifo_preload, %function
  22              	ssp_fifo_preload:
  23              	.LFB39:
  24              		.file 1 "ChibiOS_2.6.5/os/hal/platforms/LPC11Uxx/spi_lld.c"
  25              		.loc 1 57 0
  26              		.cfi_startproc
  27              	.LVL0:
  28 0000 F0B5     		push	{r4, r5, r6, r7, lr}
  29              		.cfi_def_cfa_offset 20
  30              		.cfi_offset 4, -20
  31              		.cfi_offset 5, -16
  32              		.cfi_offset 6, -12
  33              		.cfi_offset 7, -8
  34              		.cfi_offset 14, -4
  35              		.loc 1 58 0
  36 0002 C169     		ldr	r1, [r0, #28]
  37              	.LVL1:
  38              		.loc 1 59 0
  39 0004 826A     		ldr	r2, [r0, #40]
  40 0006 082A     		cmp	r2, #8
  41 0008 00D9     		bls	.L2
  42 000a 0822     		mov	r2, #8
  43              	.L2:
  44              	.LVL2:
  45              		.loc 1 62 0
  46 000c CB68     		ldr	r3, [r1, #12]
  47 000e 9C07     		lsl	r4, r3, #30
  48 0010 20D5     		bpl	.L1
  49 0012 002A     		cmp	r2, #0
  50 0014 1ED0     		beq	.L1
  51              		.loc 1 76 0
  52 0016 0127     		mov	r7, #1
  53 0018 7F42     		neg	r7, r7
  54              		.loc 1 64 0
  55 001a 0F26     		mov	r6, #15
  56              		.loc 1 62 0
  57 001c 0225     		mov	r5, #2
ARM GAS  /tmp/ccxAEpps.s 			page 2


  58              	.L7:
  59              		.loc 1 63 0
  60 001e C36A     		ldr	r3, [r0, #44]
  61 0020 002B     		cmp	r3, #0
  62 0022 0DD0     		beq	.L4
  63              		.loc 1 64 0
  64 0024 0C68     		ldr	r4, [r1]
  65 0026 3440     		and	r4, r6
  66 0028 072C     		cmp	r4, #7
  67 002a 04D9     		bls	.L5
  68              	.LVL3:
  69              	.LBB2:
  70              		.loc 1 66 0
  71 002c 1C88     		ldrh	r4, [r3]
  72 002e 8C60     		str	r4, [r1, #8]
  73 0030 0233     		add	r3, r3, #2
  74              	.LVL4:
  75              		.loc 1 67 0
  76 0032 C362     		str	r3, [r0, #44]
  77              	.LBE2:
  78 0034 05E0     		b	.L6
  79              	.LVL5:
  80              	.L5:
  81              	.LBB3:
  82              		.loc 1 71 0
  83 0036 1C78     		ldrb	r4, [r3]
  84 0038 8C60     		str	r4, [r1, #8]
  85 003a 0133     		add	r3, r3, #1
  86              	.LVL6:
  87              		.loc 1 72 0
  88 003c C362     		str	r3, [r0, #44]
  89 003e 00E0     		b	.L6
  90              	.LVL7:
  91              	.L4:
  92              	.LBE3:
  93              		.loc 1 76 0
  94 0040 8F60     		str	r7, [r1, #8]
  95              	.L6:
  96              		.loc 1 77 0
  97 0042 013A     		sub	r2, r2, #1
  98              	.LVL8:
  99              		.loc 1 78 0
 100 0044 836A     		ldr	r3, [r0, #40]
 101 0046 013B     		sub	r3, r3, #1
 102 0048 8362     		str	r3, [r0, #40]
 103              		.loc 1 62 0
 104 004a CB68     		ldr	r3, [r1, #12]
 105 004c 1D42     		tst	r5, r3
 106 004e 01D0     		beq	.L1
 107              		.loc 1 62 0 is_stmt 0 discriminator 2
 108 0050 002A     		cmp	r2, #0
 109 0052 E4D1     		bne	.L7
 110              	.L1:
 111              		.loc 1 80 0 is_stmt 1
 112              		@ sp needed
 113 0054 F0BD     		pop	{r4, r5, r6, r7, pc}
 114              		.cfi_endproc
ARM GAS  /tmp/ccxAEpps.s 			page 3


 115              	.LFE39:
 116              		.size	ssp_fifo_preload, .-ssp_fifo_preload
 117 0056 C046     		.section	.text.Vector90,"ax",%progbits
 118              		.align	2
 119              		.global	Vector90
 120              		.code	16
 121              		.thumb_func
 122              		.type	Vector90, %function
 123              	Vector90:
 124              	.LFB41:
 125              		.loc 1 137 0
 126              		.cfi_startproc
 127 0000 F0B5     		push	{r4, r5, r6, r7, lr}
 128              		.cfi_def_cfa_offset 20
 129              		.cfi_offset 4, -20
 130              		.cfi_offset 5, -16
 131              		.cfi_offset 6, -12
 132              		.cfi_offset 7, -8
 133              		.cfi_offset 14, -4
 134 0002 4746     		mov	r7, r8
 135 0004 80B4     		push	{r7}
 136              		.cfi_def_cfa_offset 24
 137              		.cfi_offset 8, -24
 138              		.loc 1 139 0
 139              	@ 139 "ChibiOS_2.6.5/os/hal/platforms/LPC11Uxx/spi_lld.c" 1
 140 0006 7546     		mov     r5, lr
 141              	@ 0 "" 2
 142              	.LVL9:
 143              		.code	16
 144              	.LBB9:
 145              	.LBB10:
 146              		.loc 1 88 0
 147 0008 2E4B     		ldr	r3, .L20
 148 000a DC69     		ldr	r4, [r3, #28]
 149              	.LVL10:
 150              		.loc 1 90 0
 151 000c E369     		ldr	r3, [r4, #28]
 152 000e D907     		lsl	r1, r3, #31
 153 0010 01D5     		bpl	.L9
 154              		.loc 1 93 0
 155 0012 FFF7FEFF 		bl	port_halt
 156              	.LVL11:
 157              	.L9:
 158              		.loc 1 95 0
 159 0016 0323     		mov	r3, #3
 160 0018 2362     		str	r3, [r4, #32]
 161              		.loc 1 96 0
 162 001a 0420     		mov	r0, #4
 163              		.loc 1 97 0
 164 001c 294E     		ldr	r6, .L20
 165              		.loc 1 98 0
 166 001e 0F27     		mov	r7, #15
 167              	.LBB11:
 168              		.loc 1 106 0
 169 0020 B046     		mov	r8, r6
 170              	.LBE11:
 171              	.LBB12:
ARM GAS  /tmp/ccxAEpps.s 			page 4


 172              		.loc 1 101 0
 173 0022 B446     		mov	ip, r6
 174              	.LBE12:
 175              		.loc 1 111 0
 176 0024 321C     		mov	r2, r6
 177 0026 3BE0     		b	.L10
 178              	.L19:
 179              		.loc 1 97 0
 180 0028 736A     		ldr	r3, [r6, #36]
 181 002a 002B     		cmp	r3, #0
 182 002c 0FD0     		beq	.L11
 183              		.loc 1 98 0
 184 002e 2168     		ldr	r1, [r4]
 185 0030 3940     		and	r1, r7
 186 0032 0729     		cmp	r1, #7
 187 0034 05D9     		bls	.L12
 188              	.LVL12:
 189              	.LBB13:
 190              		.loc 1 100 0
 191 0036 A168     		ldr	r1, [r4, #8]
 192 0038 1980     		strh	r1, [r3]
 193 003a 0233     		add	r3, r3, #2
 194              	.LVL13:
 195              		.loc 1 101 0
 196 003c 6146     		mov	r1, ip
 197 003e 4B62     		str	r3, [r1, #36]
 198 0040 06E0     		b	.L13
 199              	.LVL14:
 200              	.L12:
 201              	.LBE13:
 202              	.LBB14:
 203              		.loc 1 105 0
 204 0042 A168     		ldr	r1, [r4, #8]
 205 0044 1970     		strb	r1, [r3]
 206 0046 0133     		add	r3, r3, #1
 207              	.LVL15:
 208              		.loc 1 106 0
 209 0048 4146     		mov	r1, r8
 210 004a 4B62     		str	r3, [r1, #36]
 211 004c 00E0     		b	.L13
 212              	.LVL16:
 213              	.L11:
 214              	.LBE14:
 215              		.loc 1 110 0
 216 004e A368     		ldr	r3, [r4, #8]
 217              	.L13:
 218              		.loc 1 111 0
 219 0050 136A     		ldr	r3, [r2, #32]
 220 0052 013B     		sub	r3, r3, #1
 221 0054 1362     		str	r3, [r2, #32]
 222 0056 002B     		cmp	r3, #0
 223 0058 22D1     		bne	.L10
 224              		.loc 1 115 0
 225 005a 6361     		str	r3, [r4, #20]
 226              		.loc 1 118 0
 227 005c 194B     		ldr	r3, .L20
 228 005e 5B68     		ldr	r3, [r3, #4]
ARM GAS  /tmp/ccxAEpps.s 			page 5


 229 0060 1A68     		ldr	r2, [r3]
 230 0062 002A     		cmp	r2, #0
 231 0064 0CD0     		beq	.L15
 232 0066 174C     		ldr	r4, .L20
 233              	.LVL17:
 234 0068 0422     		mov	r2, #4
 235 006a 2270     		strb	r2, [r4]
 236 006c 1B68     		ldr	r3, [r3]
 237 006e 201C     		mov	r0, r4
 238 0070 9847     		blx	r3
 239              	.LVL18:
 240 0072 2378     		ldrb	r3, [r4]
 241 0074 042B     		cmp	r3, #4
 242 0076 06D1     		bne	.L16
 243 0078 0222     		mov	r2, #2
 244 007a 124B     		ldr	r3, .L20
 245 007c 1A70     		strb	r2, [r3]
 246 007e 02E0     		b	.L16
 247              	.LVL19:
 248              	.L15:
 249 0080 0222     		mov	r2, #2
 250 0082 104B     		ldr	r3, .L20
 251 0084 1A70     		strb	r2, [r3]
 252              	.LVL20:
 253              	.L16:
 254              	@ 118 "ChibiOS_2.6.5/os/hal/platforms/LPC11Uxx/spi_lld.c" 1
 255 0086 72B6     		cpsid   i
 256              	@ 0 "" 2
 257              		.code	16
 258 0088 0E4B     		ldr	r3, .L20
 259 008a 9868     		ldr	r0, [r3, #8]
 260 008c 0028     		cmp	r0, #0
 261 008e 05D0     		beq	.L17
 262              	.LVL21:
 263              	.LBB15:
 264 0090 0023     		mov	r3, #0
 265 0092 0C4A     		ldr	r2, .L20
 266 0094 9360     		str	r3, [r2, #8]
 267 0096 4362     		str	r3, [r0, #36]
 268 0098 FFF7FEFF 		bl	chSchReadyI
 269              	.LVL22:
 270              	.L17:
 271              	.LBE15:
 272              	@ 118 "ChibiOS_2.6.5/os/hal/platforms/LPC11Uxx/spi_lld.c" 1
 273 009c 62B6     		cpsie   i
 274              	@ 0 "" 2
 275              		.code	16
 276 009e 0BE0     		b	.L18
 277              	.LVL23:
 278              	.L10:
 279              		.loc 1 96 0
 280 00a0 E368     		ldr	r3, [r4, #12]
 281 00a2 1842     		tst	r0, r3
 282 00a4 C0D1     		bne	.L19
 283              		.loc 1 122 0
 284 00a6 074E     		ldr	r6, .L20
 285 00a8 301C     		mov	r0, r6
ARM GAS  /tmp/ccxAEpps.s 			page 6


 286 00aa FFF7FEFF 		bl	ssp_fifo_preload
 287              	.LVL24:
 288              		.loc 1 123 0
 289 00ae B36A     		ldr	r3, [r6, #40]
 290 00b0 002B     		cmp	r3, #0
 291 00b2 01D1     		bne	.L18
 292              		.loc 1 124 0
 293 00b4 0723     		mov	r3, #7
 294 00b6 6361     		str	r3, [r4, #20]
 295              	.LVL25:
 296              	.L18:
 297              	.LBE10:
 298              	.LBE9:
 299              		.loc 1 143 0
 300 00b8 281C     		mov	r0, r5
 301 00ba FFF7FEFF 		bl	_port_irq_epilogue
 302              	.LVL26:
 303              		.loc 1 144 0
 304              		@ sp needed
 305              	.LVL27:
 306 00be 04BC     		pop	{r2}
 307 00c0 9046     		mov	r8, r2
 308 00c2 F0BD     		pop	{r4, r5, r6, r7, pc}
 309              	.L21:
 310              		.align	2
 311              	.L20:
 312 00c4 00000000 		.word	.LANCHOR0
 313              		.cfi_endproc
 314              	.LFE41:
 315              		.size	Vector90, .-Vector90
 316              		.section	.text.spi_lld_init,"ax",%progbits
 317              		.align	2
 318              		.global	spi_lld_init
 319              		.code	16
 320              		.thumb_func
 321              		.type	spi_lld_init, %function
 322              	spi_lld_init:
 323              	.LFB42:
 324              		.loc 1 172 0
 325              		.cfi_startproc
 326 0000 10B5     		push	{r4, lr}
 327              		.cfi_def_cfa_offset 8
 328              		.cfi_offset 4, -8
 329              		.cfi_offset 14, -4
 330              		.loc 1 175 0
 331 0002 034C     		ldr	r4, .L23
 332 0004 201C     		mov	r0, r4
 333 0006 FFF7FEFF 		bl	spiObjectInit
 334              	.LVL28:
 335              		.loc 1 176 0
 336 000a 024B     		ldr	r3, .L23+4
 337 000c E361     		str	r3, [r4, #28]
 338              		.loc 1 183 0
 339              		@ sp needed
 340 000e 10BD     		pop	{r4, pc}
 341              	.L24:
 342              		.align	2
ARM GAS  /tmp/ccxAEpps.s 			page 7


 343              	.L23:
 344 0010 00000000 		.word	.LANCHOR0
 345 0014 00000440 		.word	1074003968
 346              		.cfi_endproc
 347              	.LFE42:
 348              		.size	spi_lld_init, .-spi_lld_init
 349              		.section	.text.spi_lld_start,"ax",%progbits
 350              		.align	2
 351              		.global	spi_lld_start
 352              		.code	16
 353              		.thumb_func
 354              		.type	spi_lld_start, %function
 355              	spi_lld_start:
 356              	.LFB43:
 357              		.loc 1 192 0
 358              		.cfi_startproc
 359              	.LVL29:
 360 0000 38B5     		push	{r3, r4, r5, lr}
 361              		.cfi_def_cfa_offset 16
 362              		.cfi_offset 3, -16
 363              		.cfi_offset 4, -12
 364              		.cfi_offset 5, -8
 365              		.cfi_offset 14, -4
 366 0002 041C     		mov	r4, r0
 367              		.loc 1 194 0
 368 0004 0378     		ldrb	r3, [r0]
 369 0006 012B     		cmp	r3, #1
 370 0008 13D1     		bne	.L26
 371              		.loc 1 197 0
 372 000a 134B     		ldr	r3, .L27
 373 000c 9842     		cmp	r0, r3
 374 000e 10D1     		bne	.L26
 375              		.loc 1 198 0
 376 0010 124B     		ldr	r3, .L27+4
 377 0012 0122     		mov	r2, #1
 378 0014 9421     		mov	r1, #148
 379 0016 5A50     		str	r2, [r3, r1]
 380              		.loc 1 199 0
 381 0018 8021     		mov	r1, #128
 382 001a 5D58     		ldr	r5, [r3, r1]
 383 001c 8020     		mov	r0, #128
 384              	.LVL30:
 385 001e 0001     		lsl	r0, r0, #4
 386 0020 2843     		orr	r0, r5
 387 0022 5850     		str	r0, [r3, r1]
 388              		.loc 1 200 0
 389 0024 5968     		ldr	r1, [r3, #4]
 390 0026 0A43     		orr	r2, r1
 391 0028 5A60     		str	r2, [r3, #4]
 392              		.loc 1 201 0
 393 002a 1420     		mov	r0, #20
 394 002c 4021     		mov	r1, #64
 395 002e FFF7FEFF 		bl	nvicEnableVector
 396              	.LVL31:
 397              	.L26:
 398              		.loc 1 216 0
 399 0032 E369     		ldr	r3, [r4, #28]
ARM GAS  /tmp/ccxAEpps.s 			page 8


 400 0034 0022     		mov	r2, #0
 401 0036 5A60     		str	r2, [r3, #4]
 402              		.loc 1 217 0
 403 0038 E369     		ldr	r3, [r4, #28]
 404 003a 0322     		mov	r2, #3
 405 003c 1A62     		str	r2, [r3, #32]
 406              		.loc 1 218 0
 407 003e E369     		ldr	r3, [r4, #28]
 408 0040 6168     		ldr	r1, [r4, #4]
 409 0042 4A89     		ldrh	r2, [r1, #10]
 410 0044 1A60     		str	r2, [r3]
 411              		.loc 1 219 0
 412 0046 E369     		ldr	r3, [r4, #28]
 413 0048 6268     		ldr	r2, [r4, #4]
 414 004a D268     		ldr	r2, [r2, #12]
 415 004c 1A61     		str	r2, [r3, #16]
 416              		.loc 1 220 0
 417 004e E369     		ldr	r3, [r4, #28]
 418 0050 0222     		mov	r2, #2
 419 0052 5A60     		str	r2, [r3, #4]
 420              		.loc 1 221 0
 421              		@ sp needed
 422              	.LVL32:
 423 0054 38BD     		pop	{r3, r4, r5, pc}
 424              	.L28:
 425 0056 C046     		.align	2
 426              	.L27:
 427 0058 00000000 		.word	.LANCHOR0
 428 005c 00800440 		.word	1074036736
 429              		.cfi_endproc
 430              	.LFE43:
 431              		.size	spi_lld_start, .-spi_lld_start
 432              		.section	.text.spi_lld_stop,"ax",%progbits
 433              		.align	2
 434              		.global	spi_lld_stop
 435              		.code	16
 436              		.thumb_func
 437              		.type	spi_lld_stop, %function
 438              	spi_lld_stop:
 439              	.LFB44:
 440              		.loc 1 230 0
 441              		.cfi_startproc
 442              	.LVL33:
 443 0000 08B5     		push	{r3, lr}
 444              		.cfi_def_cfa_offset 8
 445              		.cfi_offset 3, -8
 446              		.cfi_offset 14, -4
 447              		.loc 1 232 0
 448 0002 0378     		ldrb	r3, [r0]
 449 0004 012B     		cmp	r3, #1
 450 0006 19D0     		beq	.L29
 451              		.loc 1 233 0
 452 0008 C269     		ldr	r2, [r0, #28]
 453 000a 0023     		mov	r3, #0
 454 000c 5360     		str	r3, [r2, #4]
 455              		.loc 1 234 0
 456 000e C269     		ldr	r2, [r0, #28]
ARM GAS  /tmp/ccxAEpps.s 			page 9


 457 0010 1360     		str	r3, [r2]
 458              		.loc 1 235 0
 459 0012 C269     		ldr	r2, [r0, #28]
 460 0014 1361     		str	r3, [r2, #16]
 461              		.loc 1 237 0
 462 0016 0A4B     		ldr	r3, .L31
 463 0018 9842     		cmp	r0, r3
 464 001a 0FD1     		bne	.L29
 465              		.loc 1 238 0
 466 001c 094B     		ldr	r3, .L31+4
 467 001e 5A68     		ldr	r2, [r3, #4]
 468 0020 0121     		mov	r1, #1
 469 0022 8A43     		bic	r2, r1
 470 0024 5A60     		str	r2, [r3, #4]
 471              		.loc 1 239 0
 472 0026 8022     		mov	r2, #128
 473 0028 9858     		ldr	r0, [r3, r2]
 474              	.LVL34:
 475 002a 0749     		ldr	r1, .L31+8
 476 002c 0140     		and	r1, r0
 477 002e 9950     		str	r1, [r3, r2]
 478              		.loc 1 240 0
 479 0030 0021     		mov	r1, #0
 480 0032 9422     		mov	r2, #148
 481 0034 9950     		str	r1, [r3, r2]
 482              		.loc 1 241 0
 483 0036 1420     		mov	r0, #20
 484 0038 FFF7FEFF 		bl	nvicDisableVector
 485              	.LVL35:
 486              	.L29:
 487              		.loc 1 253 0
 488              		@ sp needed
 489 003c 08BD     		pop	{r3, pc}
 490              	.L32:
 491 003e C046     		.align	2
 492              	.L31:
 493 0040 00000000 		.word	.LANCHOR0
 494 0044 00800440 		.word	1074036736
 495 0048 FFF7FFFF 		.word	-2049
 496              		.cfi_endproc
 497              	.LFE44:
 498              		.size	spi_lld_stop, .-spi_lld_stop
 499              		.section	.text.spi_lld_select,"ax",%progbits
 500              		.align	2
 501              		.global	spi_lld_select
 502              		.code	16
 503              		.thumb_func
 504              		.type	spi_lld_select, %function
 505              	spi_lld_select:
 506              	.LFB45:
 507              		.loc 1 262 0
 508              		.cfi_startproc
 509              	.LVL36:
 510              		.loc 1 264 0
 511 0000 4368     		ldr	r3, [r0, #4]
 512 0002 5A68     		ldr	r2, [r3, #4]
 513 0004 1B89     		ldrh	r3, [r3, #8]
ARM GAS  /tmp/ccxAEpps.s 			page 10


 514 0006 0121     		mov	r1, #1
 515 0008 9940     		lsl	r1, r1, r3
 516 000a 8A23     		mov	r3, #138
 517 000c 1B01     		lsl	r3, r3, #4
 518 000e D218     		add	r2, r2, r3
 519 0010 9200     		lsl	r2, r2, #2
 520 0012 A023     		mov	r3, #160
 521 0014 DB05     		lsl	r3, r3, #23
 522 0016 D150     		str	r1, [r2, r3]
 523              		.loc 1 265 0
 524              		@ sp needed
 525 0018 7047     		bx	lr
 526              		.cfi_endproc
 527              	.LFE45:
 528              		.size	spi_lld_select, .-spi_lld_select
 529 001a C046     		.section	.text.spi_lld_unselect,"ax",%progbits
 530              		.align	2
 531              		.global	spi_lld_unselect
 532              		.code	16
 533              		.thumb_func
 534              		.type	spi_lld_unselect, %function
 535              	spi_lld_unselect:
 536              	.LFB46:
 537              		.loc 1 275 0
 538              		.cfi_startproc
 539              	.LVL37:
 540              		.loc 1 277 0
 541 0000 4368     		ldr	r3, [r0, #4]
 542 0002 5A68     		ldr	r2, [r3, #4]
 543 0004 1B89     		ldrh	r3, [r3, #8]
 544 0006 0121     		mov	r1, #1
 545 0008 9940     		lsl	r1, r1, r3
 546 000a 8823     		mov	r3, #136
 547 000c 1B01     		lsl	r3, r3, #4
 548 000e D218     		add	r2, r2, r3
 549 0010 9200     		lsl	r2, r2, #2
 550 0012 A023     		mov	r3, #160
 551 0014 DB05     		lsl	r3, r3, #23
 552 0016 D150     		str	r1, [r2, r3]
 553              		.loc 1 278 0
 554              		@ sp needed
 555 0018 7047     		bx	lr
 556              		.cfi_endproc
 557              	.LFE46:
 558              		.size	spi_lld_unselect, .-spi_lld_unselect
 559 001a C046     		.section	.text.spi_lld_ignore,"ax",%progbits
 560              		.align	2
 561              		.global	spi_lld_ignore
 562              		.code	16
 563              		.thumb_func
 564              		.type	spi_lld_ignore, %function
 565              	spi_lld_ignore:
 566              	.LFB47:
 567              		.loc 1 291 0
 568              		.cfi_startproc
 569              	.LVL38:
 570 0000 10B5     		push	{r4, lr}
ARM GAS  /tmp/ccxAEpps.s 			page 11


 571              		.cfi_def_cfa_offset 8
 572              		.cfi_offset 4, -8
 573              		.cfi_offset 14, -4
 574 0002 041C     		mov	r4, r0
 575              		.loc 1 293 0
 576 0004 0023     		mov	r3, #0
 577 0006 4362     		str	r3, [r0, #36]
 578              		.loc 1 294 0
 579 0008 C362     		str	r3, [r0, #44]
 580              		.loc 1 295 0
 581 000a 8162     		str	r1, [r0, #40]
 582 000c 0162     		str	r1, [r0, #32]
 583              		.loc 1 296 0
 584 000e FFF7FEFF 		bl	ssp_fifo_preload
 585              	.LVL39:
 586              		.loc 1 297 0
 587 0012 E369     		ldr	r3, [r4, #28]
 588 0014 0F22     		mov	r2, #15
 589 0016 5A61     		str	r2, [r3, #20]
 590              		.loc 1 298 0
 591              		@ sp needed
 592              	.LVL40:
 593 0018 10BD     		pop	{r4, pc}
 594              		.cfi_endproc
 595              	.LFE47:
 596              		.size	spi_lld_ignore, .-spi_lld_ignore
 597 001a C046     		.section	.text.spi_lld_exchange,"ax",%progbits
 598              		.align	2
 599              		.global	spi_lld_exchange
 600              		.code	16
 601              		.thumb_func
 602              		.type	spi_lld_exchange, %function
 603              	spi_lld_exchange:
 604              	.LFB48:
 605              		.loc 1 316 0
 606              		.cfi_startproc
 607              	.LVL41:
 608 0000 10B5     		push	{r4, lr}
 609              		.cfi_def_cfa_offset 8
 610              		.cfi_offset 4, -8
 611              		.cfi_offset 14, -4
 612 0002 041C     		mov	r4, r0
 613              		.loc 1 318 0
 614 0004 4362     		str	r3, [r0, #36]
 615              		.loc 1 319 0
 616 0006 C262     		str	r2, [r0, #44]
 617              		.loc 1 320 0
 618 0008 8162     		str	r1, [r0, #40]
 619 000a 0162     		str	r1, [r0, #32]
 620              		.loc 1 321 0
 621 000c FFF7FEFF 		bl	ssp_fifo_preload
 622              	.LVL42:
 623              		.loc 1 322 0
 624 0010 E369     		ldr	r3, [r4, #28]
 625 0012 0F22     		mov	r2, #15
 626 0014 5A61     		str	r2, [r3, #20]
 627              		.loc 1 323 0
ARM GAS  /tmp/ccxAEpps.s 			page 12


 628              		@ sp needed
 629              	.LVL43:
 630 0016 10BD     		pop	{r4, pc}
 631              		.cfi_endproc
 632              	.LFE48:
 633              		.size	spi_lld_exchange, .-spi_lld_exchange
 634              		.section	.text.spi_lld_send,"ax",%progbits
 635              		.align	2
 636              		.global	spi_lld_send
 637              		.code	16
 638              		.thumb_func
 639              		.type	spi_lld_send, %function
 640              	spi_lld_send:
 641              	.LFB49:
 642              		.loc 1 338 0
 643              		.cfi_startproc
 644              	.LVL44:
 645 0000 10B5     		push	{r4, lr}
 646              		.cfi_def_cfa_offset 8
 647              		.cfi_offset 4, -8
 648              		.cfi_offset 14, -4
 649 0002 041C     		mov	r4, r0
 650              		.loc 1 340 0
 651 0004 0023     		mov	r3, #0
 652 0006 4362     		str	r3, [r0, #36]
 653              		.loc 1 341 0
 654 0008 C262     		str	r2, [r0, #44]
 655              		.loc 1 342 0
 656 000a 8162     		str	r1, [r0, #40]
 657 000c 0162     		str	r1, [r0, #32]
 658              		.loc 1 343 0
 659 000e FFF7FEFF 		bl	ssp_fifo_preload
 660              	.LVL45:
 661              		.loc 1 344 0
 662 0012 E369     		ldr	r3, [r4, #28]
 663 0014 0F22     		mov	r2, #15
 664 0016 5A61     		str	r2, [r3, #20]
 665              		.loc 1 345 0
 666              		@ sp needed
 667              	.LVL46:
 668 0018 10BD     		pop	{r4, pc}
 669              		.cfi_endproc
 670              	.LFE49:
 671              		.size	spi_lld_send, .-spi_lld_send
 672 001a C046     		.section	.text.spi_lld_receive,"ax",%progbits
 673              		.align	2
 674              		.global	spi_lld_receive
 675              		.code	16
 676              		.thumb_func
 677              		.type	spi_lld_receive, %function
 678              	spi_lld_receive:
 679              	.LFB50:
 680              		.loc 1 360 0
 681              		.cfi_startproc
 682              	.LVL47:
 683 0000 10B5     		push	{r4, lr}
 684              		.cfi_def_cfa_offset 8
ARM GAS  /tmp/ccxAEpps.s 			page 13


 685              		.cfi_offset 4, -8
 686              		.cfi_offset 14, -4
 687 0002 041C     		mov	r4, r0
 688              		.loc 1 362 0
 689 0004 4262     		str	r2, [r0, #36]
 690              		.loc 1 363 0
 691 0006 0023     		mov	r3, #0
 692 0008 C362     		str	r3, [r0, #44]
 693              		.loc 1 364 0
 694 000a 8162     		str	r1, [r0, #40]
 695 000c 0162     		str	r1, [r0, #32]
 696              		.loc 1 365 0
 697 000e FFF7FEFF 		bl	ssp_fifo_preload
 698              	.LVL48:
 699              		.loc 1 366 0
 700 0012 E369     		ldr	r3, [r4, #28]
 701 0014 0F22     		mov	r2, #15
 702 0016 5A61     		str	r2, [r3, #20]
 703              		.loc 1 367 0
 704              		@ sp needed
 705              	.LVL49:
 706 0018 10BD     		pop	{r4, pc}
 707              		.cfi_endproc
 708              	.LFE50:
 709              		.size	spi_lld_receive, .-spi_lld_receive
 710 001a C046     		.section	.text.spi_lld_polled_exchange,"ax",%progbits
 711              		.align	2
 712              		.global	spi_lld_polled_exchange
 713              		.code	16
 714              		.thumb_func
 715              		.type	spi_lld_polled_exchange, %function
 716              	spi_lld_polled_exchange:
 717              	.LFB51:
 718              		.loc 1 381 0
 719              		.cfi_startproc
 720              	.LVL50:
 721              		.loc 1 383 0
 722 0000 C369     		ldr	r3, [r0, #28]
 723 0002 9960     		str	r1, [r3, #8]
 724              		.loc 1 384 0
 725 0004 C269     		ldr	r2, [r0, #28]
 726 0006 0421     		mov	r1, #4
 727              	.LVL51:
 728              	.L41:
 729              		.loc 1 384 0 is_stmt 0 discriminator 1
 730 0008 D368     		ldr	r3, [r2, #12]
 731 000a 1942     		tst	r1, r3
 732 000c FCD0     		beq	.L41
 733              		.loc 1 386 0 is_stmt 1
 734 000e 9068     		ldr	r0, [r2, #8]
 735              	.LVL52:
 736 0010 80B2     		uxth	r0, r0
 737              		.loc 1 387 0
 738              		@ sp needed
 739 0012 7047     		bx	lr
 740              		.cfi_endproc
 741              	.LFE51:
ARM GAS  /tmp/ccxAEpps.s 			page 14


 742              		.size	spi_lld_polled_exchange, .-spi_lld_polled_exchange
 743              		.global	SPID1
 744              		.section	.bss.SPID1,"aw",%nobits
 745              		.align	2
 746              		.set	.LANCHOR0,. + 0
 747              		.type	SPID1, %object
 748              		.size	SPID1, 48
 749              	SPID1:
 750 0000 00000000 		.space	48
 750      00000000 
 750      00000000 
 750      00000000 
 750      00000000 
 751              		.text
 752              	.Letext0:
 753              		.file 2 "/usr/local/lpcxpresso_7.3.0_186/lpcxpresso/tools/lib/gcc/arm-none-eabi/4.8.4/include/stdd
 754              		.file 3 "/usr/local/lpcxpresso_7.3.0_186/lpcxpresso/tools/arm-none-eabi/include/machine/_default_t
 755              		.file 4 "/usr/local/lpcxpresso_7.3.0_186/lpcxpresso/tools/arm-none-eabi/include/stdint.h"
 756              		.file 5 "ChibiOS_2.6.5/os/ports/GCC/ARMCMx/chtypes.h"
 757              		.file 6 "ChibiOS_2.6.5/os/kernel/include/chlists.h"
 758              		.file 7 "ChibiOS_2.6.5/os/kernel/include/chthreads.h"
 759              		.file 8 "ChibiOS_2.6.5/os/ports/GCC/ARMCMx/chcore_v6m.h"
 760              		.file 9 "ChibiOS_2.6.5/os/kernel/include/chmtx.h"
 761              		.file 10 "CMSIS_CORE_LPC11Uxx/inc/LPC11Uxx.h"
 762              		.file 11 "ChibiOS_2.6.5/os/hal/platforms/LPC11Uxx/pal_lld.h"
 763              		.file 12 "ChibiOS_2.6.5/os/hal/include/spi.h"
 764              		.file 13 "ChibiOS_2.6.5/os/hal/platforms/LPC11Uxx/spi_lld.h"
 765              		.file 14 "CMSIS_CORE_LPC11Uxx/inc/nvic.h"
 766              		.file 15 "ChibiOS_2.6.5/os/kernel/include/chschd.h"