ARM GAS  /tmp/ccNs8WS0.s 			page 1


   1              		.cpu cortex-m0
   2              		.fpu softvfp
   3              		.eabi_attribute 20, 1
   4              		.eabi_attribute 21, 1
   5              		.eabi_attribute 23, 3
   6              		.eabi_attribute 24, 1
   7              		.eabi_attribute 25, 1
   8              		.eabi_attribute 26, 1
   9              		.eabi_attribute 30, 1
  10              		.eabi_attribute 34, 0
  11              		.eabi_attribute 18, 4
  12              		.code	16
  13              		.file	"syscalls.c"
  14              		.text
  15              	.Ltext0:
  16              		.cfi_sections	.debug_frame
  17              		.section	.text._read_r,"ax",%progbits
  18              		.align	2
  19              		.global	_read_r
  20              		.code	16
  21              		.thumb_func
  22              		.type	_read_r, %function
  23              	_read_r:
  24              	.LFB7:
  25              		.file 1 "ChibiOS_2.6.5/os/various/syscalls.c"
  26              		.loc 1 76 0
  27              		.cfi_startproc
  28              	.LVL0:
  29              		.loc 1 89 0
  30 0000 1623     		mov	r3, #22
  31              	.LVL1:
  32 0002 0360     		str	r3, [r0]
  33              		.loc 1 90 0
  34 0004 0120     		mov	r0, #1
  35              	.LVL2:
  36              		.loc 1 92 0
  37 0006 4042     		neg	r0, r0
  38              		@ sp needed
  39 0008 7047     		bx	lr
  40              		.cfi_endproc
  41              	.LFE7:
  42              		.size	_read_r, .-_read_r
  43 000a C046     		.section	.text._lseek_r,"ax",%progbits
  44              		.align	2
  45              		.global	_lseek_r
  46              		.code	16
  47              		.thumb_func
  48              		.type	_lseek_r, %function
  49              	_lseek_r:
  50              	.LFB8:
  51              		.loc 1 97 0
  52              		.cfi_startproc
  53              	.LVL3:
  54              		.loc 1 104 0
  55 0000 0020     		mov	r0, #0
  56              	.LVL4:
  57              		@ sp needed
ARM GAS  /tmp/ccNs8WS0.s 			page 2


  58 0002 7047     		bx	lr
  59              		.cfi_endproc
  60              	.LFE8:
  61              		.size	_lseek_r, .-_lseek_r
  62              		.section	.text._write_r,"ax",%progbits
  63              		.align	2
  64              		.global	_write_r
  65              		.code	16
  66              		.thumb_func
  67              		.type	_write_r, %function
  68              	_write_r:
  69              	.LFB9:
  70              		.loc 1 109 0
  71              		.cfi_startproc
  72              	.LVL5:
  73              		.loc 1 121 0
  74 0000 181C     		mov	r0, r3
  75              	.LVL6:
  76              		@ sp needed
  77 0002 7047     		bx	lr
  78              		.cfi_endproc
  79              	.LFE9:
  80              		.size	_write_r, .-_write_r
  81              		.section	.text._close_r,"ax",%progbits
  82              		.align	2
  83              		.global	_close_r
  84              		.code	16
  85              		.thumb_func
  86              		.type	_close_r, %function
  87              	_close_r:
  88              	.LFB10:
  89              		.loc 1 126 0
  90              		.cfi_startproc
  91              	.LVL7:
  92              		.loc 1 131 0
  93 0000 0020     		mov	r0, #0
  94              	.LVL8:
  95              		@ sp needed
  96 0002 7047     		bx	lr
  97              		.cfi_endproc
  98              	.LFE10:
  99              		.size	_close_r, .-_close_r
 100              		.section	.text._sbrk_r,"ax",%progbits
 101              		.align	2
 102              		.global	_sbrk_r
 103              		.code	16
 104              		.thumb_func
 105              		.type	_sbrk_r, %function
 106              	_sbrk_r:
 107              	.LFB11:
 108              		.loc 1 136 0
 109              		.cfi_startproc
 110              	.LVL9:
 111 0000 10B5     		push	{r4, lr}
 112              		.cfi_def_cfa_offset 8
 113              		.cfi_offset 4, -8
 114              		.cfi_offset 14, -4
ARM GAS  /tmp/ccNs8WS0.s 			page 3


 115 0002 041C     		mov	r4, r0
 116              		.loc 1 142 0
 117 0004 081C     		mov	r0, r1
 118              	.LVL10:
 119 0006 FFF7FEFF 		bl	chCoreAlloc
 120              	.LVL11:
 121 000a 031C     		mov	r3, r0
 122              	.LVL12:
 123              		.loc 1 143 0
 124 000c 002B     		cmp	r3, #0
 125 000e 03D1     		bne	.L6
 126              		.loc 1 144 0
 127 0010 0C23     		mov	r3, #12
 128 0012 2360     		str	r3, [r4]
 129              		.loc 1 145 0
 130 0014 0120     		mov	r0, #1
 131              	.LVL13:
 132 0016 4042     		neg	r0, r0
 133              	.L6:
 134              		.loc 1 153 0
 135              		@ sp needed
 136              	.LVL14:
 137 0018 10BD     		pop	{r4, pc}
 138              		.cfi_endproc
 139              	.LFE11:
 140              		.size	_sbrk_r, .-_sbrk_r
 141 001a C046     		.section	.text._fstat_r,"ax",%progbits
 142              		.align	2
 143              		.global	_fstat_r
 144              		.code	16
 145              		.thumb_func
 146              		.type	_fstat_r, %function
 147              	_fstat_r:
 148              	.LFB12:
 149              		.loc 1 158 0
 150              		.cfi_startproc
 151              	.LVL15:
 152 0000 10B5     		push	{r4, lr}
 153              		.cfi_def_cfa_offset 8
 154              		.cfi_offset 4, -8
 155              		.cfi_offset 14, -4
 156 0002 141C     		mov	r4, r2
 157              		.loc 1 162 0
 158 0004 101C     		mov	r0, r2
 159              	.LVL16:
 160 0006 0021     		mov	r1, #0
 161              	.LVL17:
 162 0008 3C22     		mov	r2, #60
 163              	.LVL18:
 164 000a FFF7FEFF 		bl	memset
 165              	.LVL19:
 166              		.loc 1 163 0
 167 000e 8023     		mov	r3, #128
 168 0010 9B01     		lsl	r3, r3, #6
 169 0012 6360     		str	r3, [r4, #4]
 170              		.loc 1 165 0
 171 0014 0020     		mov	r0, #0
ARM GAS  /tmp/ccNs8WS0.s 			page 4


 172              		@ sp needed
 173              	.LVL20:
 174 0016 10BD     		pop	{r4, pc}
 175              		.cfi_endproc
 176              	.LFE12:
 177              		.size	_fstat_r, .-_fstat_r
 178              		.section	.text._isatty_r,"ax",%progbits
 179              		.align	2
 180              		.global	_isatty_r
 181              		.code	16
 182              		.thumb_func
 183              		.type	_isatty_r, %function
 184              	_isatty_r:
 185              	.LFB13:
 186              		.loc 1 170 0
 187              		.cfi_startproc
 188              	.LVL21:
 189              		.loc 1 175 0
 190 0000 0120     		mov	r0, #1
 191              	.LVL22:
 192              		@ sp needed
 193 0002 7047     		bx	lr
 194              		.cfi_endproc
 195              	.LFE13:
 196              		.size	_isatty_r, .-_isatty_r
 197              		.text
 198              	.Letext0:
 199              		.file 2 "/usr/local/lpcxpresso_7.3.0_186/lpcxpresso/tools/lib/gcc/arm-none-eabi/4.8.4/include/stdd
 200              		.file 3 "/usr/local/lpcxpresso_7.3.0_186/lpcxpresso/tools/arm-none-eabi/include/sys/lock.h"
 201              		.file 4 "/usr/local/lpcxpresso_7.3.0_186/lpcxpresso/tools/arm-none-eabi/include/sys/_types.h"
 202              		.file 5 "/usr/local/lpcxpresso_7.3.0_186/lpcxpresso/tools/arm-none-eabi/include/sys/reent.h"
 203              		.file 6 "/usr/local/lpcxpresso_7.3.0_186/lpcxpresso/tools/arm-none-eabi/include/sys/types.h"
 204              		.file 7 "/usr/local/lpcxpresso_7.3.0_186/lpcxpresso/tools/arm-none-eabi/include/sys/stat.h"
 205              		.file 8 "ChibiOS_2.6.5/os/kernel/include/chmemcore.h"
 206              		.section	.debug_info,"",%progbits
 207              	.Ldebug_info0:
 208 0000 170C0000 		.4byte	0xc17
 209 0004 0400     		.2byte	0x4
 210 0006 00000000 		.4byte	.Ldebug_abbrev0
 211 000a 04       		.byte	0x4
 212 000b 01       		.uleb128 0x1
 213 000c 77030000 		.4byte	.LASF158
 214 0010 01       		.byte	0x1
 215 0011 A7040000 		.4byte	.LASF159
 216 0015 38050000 		.4byte	.LASF160
 217 0019 00000000 		.4byte	.Ldebug_ranges0+0
 218 001d 00000000 		.4byte	0
 219 0021 00000000 		.4byte	.Ldebug_line0
 220 0025 02       		.uleb128 0x2
 221 0026 80010000 		.4byte	.LASF9
 222 002a 02       		.byte	0x2
 223 002b D4       		.byte	0xd4
 224 002c 30000000 		.4byte	0x30
 225 0030 03       		.uleb128 0x3
 226 0031 04       		.byte	0x4
 227 0032 07       		.byte	0x7
 228 0033 40000000 		.4byte	.LASF0
ARM GAS  /tmp/ccNs8WS0.s 			page 5


 229 0037 04       		.uleb128 0x4
 230 0038 04       		.byte	0x4
 231 0039 05       		.byte	0x5
 232 003a 696E7400 		.ascii	"int\000"
 233 003e 03       		.uleb128 0x3
 234 003f 01       		.byte	0x1
 235 0040 06       		.byte	0x6
 236 0041 04060000 		.4byte	.LASF1
 237 0045 03       		.uleb128 0x3
 238 0046 01       		.byte	0x1
 239 0047 08       		.byte	0x8
 240 0048 9C050000 		.4byte	.LASF2
 241 004c 03       		.uleb128 0x3
 242 004d 02       		.byte	0x2
 243 004e 05       		.byte	0x5
 244 004f 62040000 		.4byte	.LASF3
 245 0053 03       		.uleb128 0x3
 246 0054 02       		.byte	0x2
 247 0055 07       		.byte	0x7
 248 0056 24060000 		.4byte	.LASF4
 249 005a 03       		.uleb128 0x3
 250 005b 04       		.byte	0x4
 251 005c 05       		.byte	0x5
 252 005d 6C040000 		.4byte	.LASF5
 253 0061 03       		.uleb128 0x3
 254 0062 04       		.byte	0x4
 255 0063 07       		.byte	0x7
 256 0064 60050000 		.4byte	.LASF6
 257 0068 03       		.uleb128 0x3
 258 0069 08       		.byte	0x8
 259 006a 05       		.byte	0x5
 260 006b 9D020000 		.4byte	.LASF7
 261 006f 03       		.uleb128 0x3
 262 0070 08       		.byte	0x8
 263 0071 07       		.byte	0x7
 264 0072 0E010000 		.4byte	.LASF8
 265 0076 02       		.uleb128 0x2
 266 0077 6F000000 		.4byte	.LASF10
 267 007b 03       		.byte	0x3
 268 007c 07       		.byte	0x7
 269 007d 37000000 		.4byte	0x37
 270 0081 02       		.uleb128 0x2
 271 0082 46060000 		.4byte	.LASF11
 272 0086 04       		.byte	0x4
 273 0087 10       		.byte	0x10
 274 0088 5A000000 		.4byte	0x5a
 275 008c 02       		.uleb128 0x2
 276 008d C7020000 		.4byte	.LASF12
 277 0091 04       		.byte	0x4
 278 0092 14       		.byte	0x14
 279 0093 4C000000 		.4byte	0x4c
 280 0097 02       		.uleb128 0x2
 281 0098 DA040000 		.4byte	.LASF13
 282 009c 04       		.byte	0x4
 283 009d 18       		.byte	0x18
 284 009e 53000000 		.4byte	0x53
 285 00a2 02       		.uleb128 0x2
ARM GAS  /tmp/ccNs8WS0.s 			page 6


 286 00a3 3C040000 		.4byte	.LASF14
 287 00a7 04       		.byte	0x4
 288 00a8 1B       		.byte	0x1b
 289 00a9 53000000 		.4byte	0x53
 290 00ad 02       		.uleb128 0x2
 291 00ae 9D000000 		.4byte	.LASF15
 292 00b2 04       		.byte	0x4
 293 00b3 27       		.byte	0x27
 294 00b4 5A000000 		.4byte	0x5a
 295 00b8 05       		.uleb128 0x5
 296 00b9 79050000 		.4byte	.LASF16
 297 00bd 02       		.byte	0x2
 298 00be 6101     		.2byte	0x161
 299 00c0 30000000 		.4byte	0x30
 300 00c4 06       		.uleb128 0x6
 301 00c5 04       		.byte	0x4
 302 00c6 04       		.byte	0x4
 303 00c7 4A       		.byte	0x4a
 304 00c8 E3000000 		.4byte	0xe3
 305 00cc 07       		.uleb128 0x7
 306 00cd 5B020000 		.4byte	.LASF17
 307 00d1 04       		.byte	0x4
 308 00d2 4C       		.byte	0x4c
 309 00d3 B8000000 		.4byte	0xb8
 310 00d7 07       		.uleb128 0x7
 311 00d8 96040000 		.4byte	.LASF18
 312 00dc 04       		.byte	0x4
 313 00dd 4D       		.byte	0x4d
 314 00de E3000000 		.4byte	0xe3
 315 00e2 00       		.byte	0
 316 00e3 08       		.uleb128 0x8
 317 00e4 45000000 		.4byte	0x45
 318 00e8 F3000000 		.4byte	0xf3
 319 00ec 09       		.uleb128 0x9
 320 00ed F3000000 		.4byte	0xf3
 321 00f1 03       		.byte	0x3
 322 00f2 00       		.byte	0
 323 00f3 03       		.uleb128 0x3
 324 00f4 04       		.byte	0x4
 325 00f5 07       		.byte	0x7
 326 00f6 57050000 		.4byte	.LASF19
 327 00fa 0A       		.uleb128 0xa
 328 00fb 08       		.byte	0x8
 329 00fc 04       		.byte	0x4
 330 00fd 47       		.byte	0x47
 331 00fe 1B010000 		.4byte	0x11b
 332 0102 0B       		.uleb128 0xb
 333 0103 E4000000 		.4byte	.LASF20
 334 0107 04       		.byte	0x4
 335 0108 49       		.byte	0x49
 336 0109 37000000 		.4byte	0x37
 337 010d 00       		.byte	0
 338 010e 0B       		.uleb128 0xb
 339 010f E1010000 		.4byte	.LASF21
 340 0113 04       		.byte	0x4
 341 0114 4E       		.byte	0x4e
 342 0115 C4000000 		.4byte	0xc4
ARM GAS  /tmp/ccNs8WS0.s 			page 7


 343 0119 04       		.byte	0x4
 344 011a 00       		.byte	0
 345 011b 02       		.uleb128 0x2
 346 011c 0F030000 		.4byte	.LASF22
 347 0120 04       		.byte	0x4
 348 0121 4F       		.byte	0x4f
 349 0122 FA000000 		.4byte	0xfa
 350 0126 02       		.uleb128 0x2
 351 0127 44020000 		.4byte	.LASF23
 352 012b 04       		.byte	0x4
 353 012c 53       		.byte	0x53
 354 012d 76000000 		.4byte	0x76
 355 0131 0C       		.uleb128 0xc
 356 0132 04       		.byte	0x4
 357 0133 02       		.uleb128 0x2
 358 0134 D5020000 		.4byte	.LASF24
 359 0138 05       		.byte	0x5
 360 0139 16       		.byte	0x16
 361 013a 61000000 		.4byte	0x61
 362 013e 0D       		.uleb128 0xd
 363 013f B2000000 		.4byte	.LASF29
 364 0143 18       		.byte	0x18
 365 0144 05       		.byte	0x5
 366 0145 2D       		.byte	0x2d
 367 0146 91010000 		.4byte	0x191
 368 014a 0B       		.uleb128 0xb
 369 014b AB010000 		.4byte	.LASF25
 370 014f 05       		.byte	0x5
 371 0150 2F       		.byte	0x2f
 372 0151 91010000 		.4byte	0x191
 373 0155 00       		.byte	0
 374 0156 0E       		.uleb128 0xe
 375 0157 5F6B00   		.ascii	"_k\000"
 376 015a 05       		.byte	0x5
 377 015b 30       		.byte	0x30
 378 015c 37000000 		.4byte	0x37
 379 0160 04       		.byte	0x4
 380 0161 0B       		.uleb128 0xb
 381 0162 F8040000 		.4byte	.LASF26
 382 0166 05       		.byte	0x5
 383 0167 30       		.byte	0x30
 384 0168 37000000 		.4byte	0x37
 385 016c 08       		.byte	0x8
 386 016d 0B       		.uleb128 0xb
 387 016e 7A040000 		.4byte	.LASF27
 388 0172 05       		.byte	0x5
 389 0173 30       		.byte	0x30
 390 0174 37000000 		.4byte	0x37
 391 0178 0C       		.byte	0xc
 392 0179 0B       		.uleb128 0xb
 393 017a 44010000 		.4byte	.LASF28
 394 017e 05       		.byte	0x5
 395 017f 30       		.byte	0x30
 396 0180 37000000 		.4byte	0x37
 397 0184 10       		.byte	0x10
 398 0185 0E       		.uleb128 0xe
 399 0186 5F7800   		.ascii	"_x\000"
ARM GAS  /tmp/ccNs8WS0.s 			page 8


 400 0189 05       		.byte	0x5
 401 018a 31       		.byte	0x31
 402 018b 97010000 		.4byte	0x197
 403 018f 14       		.byte	0x14
 404 0190 00       		.byte	0
 405 0191 0F       		.uleb128 0xf
 406 0192 04       		.byte	0x4
 407 0193 3E010000 		.4byte	0x13e
 408 0197 08       		.uleb128 0x8
 409 0198 33010000 		.4byte	0x133
 410 019c A7010000 		.4byte	0x1a7
 411 01a0 09       		.uleb128 0x9
 412 01a1 F3000000 		.4byte	0xf3
 413 01a5 00       		.byte	0
 414 01a6 00       		.byte	0
 415 01a7 0D       		.uleb128 0xd
 416 01a8 2D050000 		.4byte	.LASF30
 417 01ac 24       		.byte	0x24
 418 01ad 05       		.byte	0x5
 419 01ae 35       		.byte	0x35
 420 01af 20020000 		.4byte	0x220
 421 01b3 0B       		.uleb128 0xb
 422 01b4 87010000 		.4byte	.LASF31
 423 01b8 05       		.byte	0x5
 424 01b9 37       		.byte	0x37
 425 01ba 37000000 		.4byte	0x37
 426 01be 00       		.byte	0
 427 01bf 0B       		.uleb128 0xb
 428 01c0 EC000000 		.4byte	.LASF32
 429 01c4 05       		.byte	0x5
 430 01c5 38       		.byte	0x38
 431 01c6 37000000 		.4byte	0x37
 432 01ca 04       		.byte	0x4
 433 01cb 0B       		.uleb128 0xb
 434 01cc D2000000 		.4byte	.LASF33
 435 01d0 05       		.byte	0x5
 436 01d1 39       		.byte	0x39
 437 01d2 37000000 		.4byte	0x37
 438 01d6 08       		.byte	0x8
 439 01d7 0B       		.uleb128 0xb
 440 01d8 11020000 		.4byte	.LASF34
 441 01dc 05       		.byte	0x5
 442 01dd 3A       		.byte	0x3a
 443 01de 37000000 		.4byte	0x37
 444 01e2 0C       		.byte	0xc
 445 01e3 0B       		.uleb128 0xb
 446 01e4 65030000 		.4byte	.LASF35
 447 01e8 05       		.byte	0x5
 448 01e9 3B       		.byte	0x3b
 449 01ea 37000000 		.4byte	0x37
 450 01ee 10       		.byte	0x10
 451 01ef 0B       		.uleb128 0xb
 452 01f0 9D040000 		.4byte	.LASF36
 453 01f4 05       		.byte	0x5
 454 01f5 3C       		.byte	0x3c
 455 01f6 37000000 		.4byte	0x37
 456 01fa 14       		.byte	0x14
ARM GAS  /tmp/ccNs8WS0.s 			page 9


 457 01fb 0B       		.uleb128 0xb
 458 01fc BA000000 		.4byte	.LASF37
 459 0200 05       		.byte	0x5
 460 0201 3D       		.byte	0x3d
 461 0202 37000000 		.4byte	0x37
 462 0206 18       		.byte	0x18
 463 0207 0B       		.uleb128 0xb
 464 0208 90010000 		.4byte	.LASF38
 465 020c 05       		.byte	0x5
 466 020d 3E       		.byte	0x3e
 467 020e 37000000 		.4byte	0x37
 468 0212 1C       		.byte	0x1c
 469 0213 0B       		.uleb128 0xb
 470 0214 1A030000 		.4byte	.LASF39
 471 0218 05       		.byte	0x5
 472 0219 3F       		.byte	0x3f
 473 021a 37000000 		.4byte	0x37
 474 021e 20       		.byte	0x20
 475 021f 00       		.byte	0
 476 0220 10       		.uleb128 0x10
 477 0221 00000000 		.4byte	.LASF40
 478 0225 0801     		.2byte	0x108
 479 0227 05       		.byte	0x5
 480 0228 48       		.byte	0x48
 481 0229 60020000 		.4byte	0x260
 482 022d 0B       		.uleb128 0xb
 483 022e FC050000 		.4byte	.LASF41
 484 0232 05       		.byte	0x5
 485 0233 49       		.byte	0x49
 486 0234 60020000 		.4byte	0x260
 487 0238 00       		.byte	0
 488 0239 0B       		.uleb128 0xb
 489 023a 80050000 		.4byte	.LASF42
 490 023e 05       		.byte	0x5
 491 023f 4A       		.byte	0x4a
 492 0240 60020000 		.4byte	0x260
 493 0244 80       		.byte	0x80
 494 0245 11       		.uleb128 0x11
 495 0246 37060000 		.4byte	.LASF43
 496 024a 05       		.byte	0x5
 497 024b 4C       		.byte	0x4c
 498 024c 33010000 		.4byte	0x133
 499 0250 0001     		.2byte	0x100
 500 0252 11       		.uleb128 0x11
 501 0253 70060000 		.4byte	.LASF44
 502 0257 05       		.byte	0x5
 503 0258 4F       		.byte	0x4f
 504 0259 33010000 		.4byte	0x133
 505 025d 0401     		.2byte	0x104
 506 025f 00       		.byte	0
 507 0260 08       		.uleb128 0x8
 508 0261 31010000 		.4byte	0x131
 509 0265 70020000 		.4byte	0x270
 510 0269 09       		.uleb128 0x9
 511 026a F3000000 		.4byte	0xf3
 512 026e 1F       		.byte	0x1f
 513 026f 00       		.byte	0
ARM GAS  /tmp/ccNs8WS0.s 			page 10


 514 0270 10       		.uleb128 0x10
 515 0271 51040000 		.4byte	.LASF45
 516 0275 9001     		.2byte	0x190
 517 0277 05       		.byte	0x5
 518 0278 5B       		.byte	0x5b
 519 0279 AE020000 		.4byte	0x2ae
 520 027d 0B       		.uleb128 0xb
 521 027e AB010000 		.4byte	.LASF25
 522 0282 05       		.byte	0x5
 523 0283 5C       		.byte	0x5c
 524 0284 AE020000 		.4byte	0x2ae
 525 0288 00       		.byte	0
 526 0289 0B       		.uleb128 0xb
 527 028a 9F010000 		.4byte	.LASF46
 528 028e 05       		.byte	0x5
 529 028f 5D       		.byte	0x5d
 530 0290 37000000 		.4byte	0x37
 531 0294 04       		.byte	0x4
 532 0295 0B       		.uleb128 0xb
 533 0296 A5000000 		.4byte	.LASF47
 534 029a 05       		.byte	0x5
 535 029b 5F       		.byte	0x5f
 536 029c B4020000 		.4byte	0x2b4
 537 02a0 08       		.byte	0x8
 538 02a1 0B       		.uleb128 0xb
 539 02a2 00000000 		.4byte	.LASF40
 540 02a6 05       		.byte	0x5
 541 02a7 60       		.byte	0x60
 542 02a8 20020000 		.4byte	0x220
 543 02ac 88       		.byte	0x88
 544 02ad 00       		.byte	0
 545 02ae 0F       		.uleb128 0xf
 546 02af 04       		.byte	0x4
 547 02b0 70020000 		.4byte	0x270
 548 02b4 08       		.uleb128 0x8
 549 02b5 C4020000 		.4byte	0x2c4
 550 02b9 C4020000 		.4byte	0x2c4
 551 02bd 09       		.uleb128 0x9
 552 02be F3000000 		.4byte	0xf3
 553 02c2 1F       		.byte	0x1f
 554 02c3 00       		.byte	0
 555 02c4 0F       		.uleb128 0xf
 556 02c5 04       		.byte	0x4
 557 02c6 CA020000 		.4byte	0x2ca
 558 02ca 12       		.uleb128 0x12
 559 02cb 0D       		.uleb128 0xd
 560 02cc C4050000 		.4byte	.LASF48
 561 02d0 08       		.byte	0x8
 562 02d1 05       		.byte	0x5
 563 02d2 73       		.byte	0x73
 564 02d3 F0020000 		.4byte	0x2f0
 565 02d7 0B       		.uleb128 0xb
 566 02d8 B7020000 		.4byte	.LASF49
 567 02dc 05       		.byte	0x5
 568 02dd 74       		.byte	0x74
 569 02de F0020000 		.4byte	0x2f0
 570 02e2 00       		.byte	0
ARM GAS  /tmp/ccNs8WS0.s 			page 11


 571 02e3 0B       		.uleb128 0xb
 572 02e4 40060000 		.4byte	.LASF50
 573 02e8 05       		.byte	0x5
 574 02e9 75       		.byte	0x75
 575 02ea 37000000 		.4byte	0x37
 576 02ee 04       		.byte	0x4
 577 02ef 00       		.byte	0
 578 02f0 0F       		.uleb128 0xf
 579 02f1 04       		.byte	0x4
 580 02f2 45000000 		.4byte	0x45
 581 02f6 0D       		.uleb128 0xd
 582 02f7 3C010000 		.4byte	.LASF51
 583 02fb 68       		.byte	0x68
 584 02fc 05       		.byte	0x5
 585 02fd B3       		.byte	0xb3
 586 02fe 20040000 		.4byte	0x420
 587 0302 0E       		.uleb128 0xe
 588 0303 5F7000   		.ascii	"_p\000"
 589 0306 05       		.byte	0x5
 590 0307 B4       		.byte	0xb4
 591 0308 F0020000 		.4byte	0x2f0
 592 030c 00       		.byte	0
 593 030d 0E       		.uleb128 0xe
 594 030e 5F7200   		.ascii	"_r\000"
 595 0311 05       		.byte	0x5
 596 0312 B5       		.byte	0xb5
 597 0313 37000000 		.4byte	0x37
 598 0317 04       		.byte	0x4
 599 0318 0E       		.uleb128 0xe
 600 0319 5F7700   		.ascii	"_w\000"
 601 031c 05       		.byte	0x5
 602 031d B6       		.byte	0xb6
 603 031e 37000000 		.4byte	0x37
 604 0322 08       		.byte	0x8
 605 0323 0B       		.uleb128 0xb
 606 0324 61000000 		.4byte	.LASF52
 607 0328 05       		.byte	0x5
 608 0329 B7       		.byte	0xb7
 609 032a 4C000000 		.4byte	0x4c
 610 032e 0C       		.byte	0xc
 611 032f 0B       		.uleb128 0xb
 612 0330 F8020000 		.4byte	.LASF53
 613 0334 05       		.byte	0x5
 614 0335 B8       		.byte	0xb8
 615 0336 4C000000 		.4byte	0x4c
 616 033a 0E       		.byte	0xe
 617 033b 0E       		.uleb128 0xe
 618 033c 5F626600 		.ascii	"_bf\000"
 619 0340 05       		.byte	0x5
 620 0341 B9       		.byte	0xb9
 621 0342 CB020000 		.4byte	0x2cb
 622 0346 10       		.byte	0x10
 623 0347 0B       		.uleb128 0xb
 624 0348 58000000 		.4byte	.LASF54
 625 034c 05       		.byte	0x5
 626 034d BA       		.byte	0xba
 627 034e 37000000 		.4byte	0x37
ARM GAS  /tmp/ccNs8WS0.s 			page 12


 628 0352 18       		.byte	0x18
 629 0353 0B       		.uleb128 0xb
 630 0354 AA000000 		.4byte	.LASF55
 631 0358 05       		.byte	0x5
 632 0359 C1       		.byte	0xc1
 633 035a 31010000 		.4byte	0x131
 634 035e 1C       		.byte	0x1c
 635 035f 0B       		.uleb128 0xb
 636 0360 81000000 		.4byte	.LASF56
 637 0364 05       		.byte	0x5
 638 0365 C3       		.byte	0xc3
 639 0366 83050000 		.4byte	0x583
 640 036a 20       		.byte	0x20
 641 036b 0B       		.uleb128 0xb
 642 036c 44040000 		.4byte	.LASF57
 643 0370 05       		.byte	0x5
 644 0371 C5       		.byte	0xc5
 645 0372 B2050000 		.4byte	0x5b2
 646 0376 24       		.byte	0x24
 647 0377 0B       		.uleb128 0xb
 648 0378 89060000 		.4byte	.LASF58
 649 037c 05       		.byte	0x5
 650 037d C8       		.byte	0xc8
 651 037e D6050000 		.4byte	0x5d6
 652 0382 28       		.byte	0x28
 653 0383 0B       		.uleb128 0xb
 654 0384 6E020000 		.4byte	.LASF59
 655 0388 05       		.byte	0x5
 656 0389 C9       		.byte	0xc9
 657 038a F0050000 		.4byte	0x5f0
 658 038e 2C       		.byte	0x2c
 659 038f 0E       		.uleb128 0xe
 660 0390 5F756200 		.ascii	"_ub\000"
 661 0394 05       		.byte	0x5
 662 0395 CC       		.byte	0xcc
 663 0396 CB020000 		.4byte	0x2cb
 664 039a 30       		.byte	0x30
 665 039b 0E       		.uleb128 0xe
 666 039c 5F757000 		.ascii	"_up\000"
 667 03a0 05       		.byte	0x5
 668 03a1 CD       		.byte	0xcd
 669 03a2 F0020000 		.4byte	0x2f0
 670 03a6 38       		.byte	0x38
 671 03a7 0E       		.uleb128 0xe
 672 03a8 5F757200 		.ascii	"_ur\000"
 673 03ac 05       		.byte	0x5
 674 03ad CE       		.byte	0xce
 675 03ae 37000000 		.4byte	0x37
 676 03b2 3C       		.byte	0x3c
 677 03b3 0B       		.uleb128 0xb
 678 03b4 A0060000 		.4byte	.LASF60
 679 03b8 05       		.byte	0x5
 680 03b9 D1       		.byte	0xd1
 681 03ba F6050000 		.4byte	0x5f6
 682 03be 40       		.byte	0x40
 683 03bf 0B       		.uleb128 0xb
 684 03c0 4D060000 		.4byte	.LASF61
ARM GAS  /tmp/ccNs8WS0.s 			page 13


 685 03c4 05       		.byte	0x5
 686 03c5 D2       		.byte	0xd2
 687 03c6 06060000 		.4byte	0x606
 688 03ca 43       		.byte	0x43
 689 03cb 0E       		.uleb128 0xe
 690 03cc 5F6C6200 		.ascii	"_lb\000"
 691 03d0 05       		.byte	0x5
 692 03d1 D5       		.byte	0xd5
 693 03d2 CB020000 		.4byte	0x2cb
 694 03d6 44       		.byte	0x44
 695 03d7 0B       		.uleb128 0xb
 696 03d8 24050000 		.4byte	.LASF62
 697 03dc 05       		.byte	0x5
 698 03dd D8       		.byte	0xd8
 699 03de 37000000 		.4byte	0x37
 700 03e2 4C       		.byte	0x4c
 701 03e3 0B       		.uleb128 0xb
 702 03e4 61010000 		.4byte	.LASF63
 703 03e8 05       		.byte	0x5
 704 03e9 D9       		.byte	0xd9
 705 03ea 81000000 		.4byte	0x81
 706 03ee 50       		.byte	0x50
 707 03ef 0B       		.uleb128 0xb
 708 03f0 90040000 		.4byte	.LASF64
 709 03f4 05       		.byte	0x5
 710 03f5 DC       		.byte	0xdc
 711 03f6 3E040000 		.4byte	0x43e
 712 03fa 54       		.byte	0x54
 713 03fb 0B       		.uleb128 0xb
 714 03fc 32050000 		.4byte	.LASF65
 715 0400 05       		.byte	0x5
 716 0401 E0       		.byte	0xe0
 717 0402 26010000 		.4byte	0x126
 718 0406 58       		.byte	0x58
 719 0407 0B       		.uleb128 0xb
 720 0408 59040000 		.4byte	.LASF66
 721 040c 05       		.byte	0x5
 722 040d E2       		.byte	0xe2
 723 040e 1B010000 		.4byte	0x11b
 724 0412 5C       		.byte	0x5c
 725 0413 0B       		.uleb128 0xb
 726 0414 68060000 		.4byte	.LASF67
 727 0418 05       		.byte	0x5
 728 0419 E3       		.byte	0xe3
 729 041a 37000000 		.4byte	0x37
 730 041e 64       		.byte	0x64
 731 041f 00       		.byte	0
 732 0420 13       		.uleb128 0x13
 733 0421 37000000 		.4byte	0x37
 734 0425 3E040000 		.4byte	0x43e
 735 0429 14       		.uleb128 0x14
 736 042a 3E040000 		.4byte	0x43e
 737 042e 14       		.uleb128 0x14
 738 042f 31010000 		.4byte	0x131
 739 0433 14       		.uleb128 0x14
 740 0434 76050000 		.4byte	0x576
 741 0438 14       		.uleb128 0x14
ARM GAS  /tmp/ccNs8WS0.s 			page 14


 742 0439 37000000 		.4byte	0x37
 743 043d 00       		.byte	0
 744 043e 0F       		.uleb128 0xf
 745 043f 04       		.byte	0x4
 746 0440 44040000 		.4byte	0x444
 747 0444 15       		.uleb128 0x15
 748 0445 17060000 		.4byte	.LASF68
 749 0449 2804     		.2byte	0x428
 750 044b 05       		.byte	0x5
 751 044c 3902     		.2byte	0x239
 752 044e 76050000 		.4byte	0x576
 753 0452 16       		.uleb128 0x16
 754 0453 68000000 		.4byte	.LASF69
 755 0457 05       		.byte	0x5
 756 0458 3B02     		.2byte	0x23b
 757 045a 37000000 		.4byte	0x37
 758 045e 00       		.byte	0
 759 045f 16       		.uleb128 0x16
 760 0460 87020000 		.4byte	.LASF70
 761 0464 05       		.byte	0x5
 762 0465 4002     		.2byte	0x240
 763 0467 5D060000 		.4byte	0x65d
 764 046b 04       		.byte	0x4
 765 046c 16       		.uleb128 0x16
 766 046d 95000000 		.4byte	.LASF71
 767 0471 05       		.byte	0x5
 768 0472 4002     		.2byte	0x240
 769 0474 5D060000 		.4byte	0x65d
 770 0478 08       		.byte	0x8
 771 0479 16       		.uleb128 0x16
 772 047a 8F060000 		.4byte	.LASF72
 773 047e 05       		.byte	0x5
 774 047f 4002     		.2byte	0x240
 775 0481 5D060000 		.4byte	0x65d
 776 0485 0C       		.byte	0xc
 777 0486 16       		.uleb128 0x16
 778 0487 9A010000 		.4byte	.LASF73
 779 048b 05       		.byte	0x5
 780 048c 4202     		.2byte	0x242
 781 048e 37000000 		.4byte	0x37
 782 0492 10       		.byte	0x10
 783 0493 16       		.uleb128 0x16
 784 0494 6E010000 		.4byte	.LASF74
 785 0498 05       		.byte	0x5
 786 0499 4302     		.2byte	0x243
 787 049b 3F080000 		.4byte	0x83f
 788 049f 14       		.byte	0x14
 789 04a0 16       		.uleb128 0x16
 790 04a1 0A050000 		.4byte	.LASF75
 791 04a5 05       		.byte	0x5
 792 04a6 4502     		.2byte	0x245
 793 04a8 37000000 		.4byte	0x37
 794 04ac 30       		.byte	0x30
 795 04ad 16       		.uleb128 0x16
 796 04ae 80040000 		.4byte	.LASF76
 797 04b2 05       		.byte	0x5
 798 04b3 4602     		.2byte	0x246
ARM GAS  /tmp/ccNs8WS0.s 			page 15


 799 04b5 A7050000 		.4byte	0x5a7
 800 04b9 34       		.byte	0x34
 801 04ba 16       		.uleb128 0x16
 802 04bb 75020000 		.4byte	.LASF77
 803 04bf 05       		.byte	0x5
 804 04c0 4802     		.2byte	0x248
 805 04c2 37000000 		.4byte	0x37
 806 04c6 38       		.byte	0x38
 807 04c7 16       		.uleb128 0x16
 808 04c8 05030000 		.4byte	.LASF78
 809 04cc 05       		.byte	0x5
 810 04cd 4A02     		.2byte	0x24a
 811 04cf 5A080000 		.4byte	0x85a
 812 04d3 3C       		.byte	0x3c
 813 04d4 16       		.uleb128 0x16
 814 04d5 C4000000 		.4byte	.LASF79
 815 04d9 05       		.byte	0x5
 816 04da 4D02     		.2byte	0x24d
 817 04dc 91010000 		.4byte	0x191
 818 04e0 40       		.byte	0x40
 819 04e1 16       		.uleb128 0x16
 820 04e2 04010000 		.4byte	.LASF80
 821 04e6 05       		.byte	0x5
 822 04e7 4E02     		.2byte	0x24e
 823 04e9 37000000 		.4byte	0x37
 824 04ed 44       		.byte	0x44
 825 04ee 16       		.uleb128 0x16
 826 04ef E9010000 		.4byte	.LASF81
 827 04f3 05       		.byte	0x5
 828 04f4 4F02     		.2byte	0x24f
 829 04f6 91010000 		.4byte	0x191
 830 04fa 48       		.byte	0x48
 831 04fb 16       		.uleb128 0x16
 832 04fc BD020000 		.4byte	.LASF82
 833 0500 05       		.byte	0x5
 834 0501 5002     		.2byte	0x250
 835 0503 60080000 		.4byte	0x860
 836 0507 4C       		.byte	0x4c
 837 0508 16       		.uleb128 0x16
 838 0509 F0040000 		.4byte	.LASF83
 839 050d 05       		.byte	0x5
 840 050e 5302     		.2byte	0x253
 841 0510 37000000 		.4byte	0x37
 842 0514 50       		.byte	0x50
 843 0515 16       		.uleb128 0x16
 844 0516 94050000 		.4byte	.LASF84
 845 051a 05       		.byte	0x5
 846 051b 5402     		.2byte	0x254
 847 051d 76050000 		.4byte	0x576
 848 0521 54       		.byte	0x54
 849 0522 16       		.uleb128 0x16
 850 0523 EB040000 		.4byte	.LASF85
 851 0527 05       		.byte	0x5
 852 0528 7702     		.2byte	0x277
 853 052a 1D080000 		.4byte	0x81d
 854 052e 58       		.byte	0x58
 855 052f 17       		.uleb128 0x17
ARM GAS  /tmp/ccNs8WS0.s 			page 16


 856 0530 51040000 		.4byte	.LASF45
 857 0534 05       		.byte	0x5
 858 0535 7B02     		.2byte	0x27b
 859 0537 AE020000 		.4byte	0x2ae
 860 053b 4801     		.2byte	0x148
 861 053d 17       		.uleb128 0x17
 862 053e 34020000 		.4byte	.LASF86
 863 0542 05       		.byte	0x5
 864 0543 7C02     		.2byte	0x27c
 865 0545 70020000 		.4byte	0x270
 866 0549 4C01     		.2byte	0x14c
 867 054b 17       		.uleb128 0x17
 868 054c 1B020000 		.4byte	.LASF87
 869 0550 05       		.byte	0x5
 870 0551 8002     		.2byte	0x280
 871 0553 71080000 		.4byte	0x871
 872 0557 DC02     		.2byte	0x2dc
 873 0559 17       		.uleb128 0x17
 874 055a D9050000 		.4byte	.LASF88
 875 055e 05       		.byte	0x5
 876 055f 8502     		.2byte	0x285
 877 0561 22060000 		.4byte	0x622
 878 0565 E002     		.2byte	0x2e0
 879 0567 17       		.uleb128 0x17
 880 0568 75040000 		.4byte	.LASF89
 881 056c 05       		.byte	0x5
 882 056d 8602     		.2byte	0x286
 883 056f 7D080000 		.4byte	0x87d
 884 0573 EC02     		.2byte	0x2ec
 885 0575 00       		.byte	0
 886 0576 0F       		.uleb128 0xf
 887 0577 04       		.byte	0x4
 888 0578 7C050000 		.4byte	0x57c
 889 057c 03       		.uleb128 0x3
 890 057d 01       		.byte	0x1
 891 057e 08       		.byte	0x8
 892 057f 0C020000 		.4byte	.LASF90
 893 0583 0F       		.uleb128 0xf
 894 0584 04       		.byte	0x4
 895 0585 20040000 		.4byte	0x420
 896 0589 13       		.uleb128 0x13
 897 058a 37000000 		.4byte	0x37
 898 058e A7050000 		.4byte	0x5a7
 899 0592 14       		.uleb128 0x14
 900 0593 3E040000 		.4byte	0x43e
 901 0597 14       		.uleb128 0x14
 902 0598 31010000 		.4byte	0x131
 903 059c 14       		.uleb128 0x14
 904 059d A7050000 		.4byte	0x5a7
 905 05a1 14       		.uleb128 0x14
 906 05a2 37000000 		.4byte	0x37
 907 05a6 00       		.byte	0
 908 05a7 0F       		.uleb128 0xf
 909 05a8 04       		.byte	0x4
 910 05a9 AD050000 		.4byte	0x5ad
 911 05ad 18       		.uleb128 0x18
 912 05ae 7C050000 		.4byte	0x57c
ARM GAS  /tmp/ccNs8WS0.s 			page 17


 913 05b2 0F       		.uleb128 0xf
 914 05b3 04       		.byte	0x4
 915 05b4 89050000 		.4byte	0x589
 916 05b8 13       		.uleb128 0x13
 917 05b9 AD000000 		.4byte	0xad
 918 05bd D6050000 		.4byte	0x5d6
 919 05c1 14       		.uleb128 0x14
 920 05c2 3E040000 		.4byte	0x43e
 921 05c6 14       		.uleb128 0x14
 922 05c7 31010000 		.4byte	0x131
 923 05cb 14       		.uleb128 0x14
 924 05cc AD000000 		.4byte	0xad
 925 05d0 14       		.uleb128 0x14
 926 05d1 37000000 		.4byte	0x37
 927 05d5 00       		.byte	0
 928 05d6 0F       		.uleb128 0xf
 929 05d7 04       		.byte	0x4
 930 05d8 B8050000 		.4byte	0x5b8
 931 05dc 13       		.uleb128 0x13
 932 05dd 37000000 		.4byte	0x37
 933 05e1 F0050000 		.4byte	0x5f0
 934 05e5 14       		.uleb128 0x14
 935 05e6 3E040000 		.4byte	0x43e
 936 05ea 14       		.uleb128 0x14
 937 05eb 31010000 		.4byte	0x131
 938 05ef 00       		.byte	0
 939 05f0 0F       		.uleb128 0xf
 940 05f1 04       		.byte	0x4
 941 05f2 DC050000 		.4byte	0x5dc
 942 05f6 08       		.uleb128 0x8
 943 05f7 45000000 		.4byte	0x45
 944 05fb 06060000 		.4byte	0x606
 945 05ff 09       		.uleb128 0x9
 946 0600 F3000000 		.4byte	0xf3
 947 0604 02       		.byte	0x2
 948 0605 00       		.byte	0
 949 0606 08       		.uleb128 0x8
 950 0607 45000000 		.4byte	0x45
 951 060b 16060000 		.4byte	0x616
 952 060f 09       		.uleb128 0x9
 953 0610 F3000000 		.4byte	0xf3
 954 0614 00       		.byte	0
 955 0615 00       		.byte	0
 956 0616 05       		.uleb128 0x5
 957 0617 5A010000 		.4byte	.LASF91
 958 061b 05       		.byte	0x5
 959 061c 1D01     		.2byte	0x11d
 960 061e F6020000 		.4byte	0x2f6
 961 0622 19       		.uleb128 0x19
 962 0623 D3050000 		.4byte	.LASF92
 963 0627 0C       		.byte	0xc
 964 0628 05       		.byte	0x5
 965 0629 2101     		.2byte	0x121
 966 062b 57060000 		.4byte	0x657
 967 062f 16       		.uleb128 0x16
 968 0630 AB010000 		.4byte	.LASF25
 969 0634 05       		.byte	0x5
ARM GAS  /tmp/ccNs8WS0.s 			page 18


 970 0635 2301     		.2byte	0x123
 971 0637 57060000 		.4byte	0x657
 972 063b 00       		.byte	0
 973 063c 16       		.uleb128 0x16
 974 063d 72050000 		.4byte	.LASF93
 975 0641 05       		.byte	0x5
 976 0642 2401     		.2byte	0x124
 977 0644 37000000 		.4byte	0x37
 978 0648 04       		.byte	0x4
 979 0649 16       		.uleb128 0x16
 980 064a 61020000 		.4byte	.LASF94
 981 064e 05       		.byte	0x5
 982 064f 2501     		.2byte	0x125
 983 0651 5D060000 		.4byte	0x65d
 984 0655 08       		.byte	0x8
 985 0656 00       		.byte	0
 986 0657 0F       		.uleb128 0xf
 987 0658 04       		.byte	0x4
 988 0659 22060000 		.4byte	0x622
 989 065d 0F       		.uleb128 0xf
 990 065e 04       		.byte	0x4
 991 065f 16060000 		.4byte	0x616
 992 0663 19       		.uleb128 0x19
 993 0664 FC000000 		.4byte	.LASF95
 994 0668 0E       		.byte	0xe
 995 0669 05       		.byte	0x5
 996 066a 3D01     		.2byte	0x13d
 997 066c 98060000 		.4byte	0x698
 998 0670 16       		.uleb128 0x16
 999 0671 78060000 		.4byte	.LASF96
 1000 0675 05       		.byte	0x5
 1001 0676 3E01     		.2byte	0x13e
 1002 0678 98060000 		.4byte	0x698
 1003 067c 00       		.byte	0
 1004 067d 16       		.uleb128 0x16
 1005 067e CF020000 		.4byte	.LASF97
 1006 0682 05       		.byte	0x5
 1007 0683 3F01     		.2byte	0x13f
 1008 0685 98060000 		.4byte	0x698
 1009 0689 06       		.byte	0x6
 1010 068a 16       		.uleb128 0x16
 1011 068b B7050000 		.4byte	.LASF98
 1012 068f 05       		.byte	0x5
 1013 0690 4001     		.2byte	0x140
 1014 0692 53000000 		.4byte	0x53
 1015 0696 0C       		.byte	0xc
 1016 0697 00       		.byte	0
 1017 0698 08       		.uleb128 0x8
 1018 0699 53000000 		.4byte	0x53
 1019 069d A8060000 		.4byte	0x6a8
 1020 06a1 09       		.uleb128 0x9
 1021 06a2 F3000000 		.4byte	0xf3
 1022 06a6 02       		.byte	0x2
 1023 06a7 00       		.byte	0
 1024 06a8 1A       		.uleb128 0x1a
 1025 06a9 D0       		.byte	0xd0
 1026 06aa 05       		.byte	0x5
ARM GAS  /tmp/ccNs8WS0.s 			page 19


 1027 06ab 5802     		.2byte	0x258
 1028 06ad A9070000 		.4byte	0x7a9
 1029 06b1 16       		.uleb128 0x16
 1030 06b2 53060000 		.4byte	.LASF99
 1031 06b6 05       		.byte	0x5
 1032 06b7 5A02     		.2byte	0x25a
 1033 06b9 30000000 		.4byte	0x30
 1034 06bd 00       		.byte	0
 1035 06be 16       		.uleb128 0x16
 1036 06bf E1050000 		.4byte	.LASF100
 1037 06c3 05       		.byte	0x5
 1038 06c4 5B02     		.2byte	0x25b
 1039 06c6 76050000 		.4byte	0x576
 1040 06ca 04       		.byte	0x4
 1041 06cb 16       		.uleb128 0x16
 1042 06cc 2F010000 		.4byte	.LASF101
 1043 06d0 05       		.byte	0x5
 1044 06d1 5C02     		.2byte	0x25c
 1045 06d3 A9070000 		.4byte	0x7a9
 1046 06d7 08       		.byte	0x8
 1047 06d8 16       		.uleb128 0x16
 1048 06d9 CB040000 		.4byte	.LASF102
 1049 06dd 05       		.byte	0x5
 1050 06de 5D02     		.2byte	0x25d
 1051 06e0 A7010000 		.4byte	0x1a7
 1052 06e4 24       		.byte	0x24
 1053 06e5 16       		.uleb128 0x16
 1054 06e6 8E020000 		.4byte	.LASF103
 1055 06ea 05       		.byte	0x5
 1056 06eb 5E02     		.2byte	0x25e
 1057 06ed 37000000 		.4byte	0x37
 1058 06f1 48       		.byte	0x48
 1059 06f2 16       		.uleb128 0x16
 1060 06f3 7E060000 		.4byte	.LASF104
 1061 06f7 05       		.byte	0x5
 1062 06f8 5F02     		.2byte	0x25f
 1063 06fa 6F000000 		.4byte	0x6f
 1064 06fe 50       		.byte	0x50
 1065 06ff 16       		.uleb128 0x16
 1066 0700 26000000 		.4byte	.LASF105
 1067 0704 05       		.byte	0x5
 1068 0705 6002     		.2byte	0x260
 1069 0707 63060000 		.4byte	0x663
 1070 070b 58       		.byte	0x58
 1071 070c 16       		.uleb128 0x16
 1072 070d FF010000 		.4byte	.LASF106
 1073 0711 05       		.byte	0x5
 1074 0712 6102     		.2byte	0x261
 1075 0714 1B010000 		.4byte	0x11b
 1076 0718 68       		.byte	0x68
 1077 0719 16       		.uleb128 0x16
 1078 071a EE050000 		.4byte	.LASF107
 1079 071e 05       		.byte	0x5
 1080 071f 6202     		.2byte	0x262
 1081 0721 1B010000 		.4byte	0x11b
 1082 0725 70       		.byte	0x70
 1083 0726 16       		.uleb128 0x16
ARM GAS  /tmp/ccNs8WS0.s 			page 20


 1084 0727 0E000000 		.4byte	.LASF108
 1085 072b 05       		.byte	0x5
 1086 072c 6302     		.2byte	0x263
 1087 072e 1B010000 		.4byte	0x11b
 1088 0732 78       		.byte	0x78
 1089 0733 16       		.uleb128 0x16
 1090 0734 00050000 		.4byte	.LASF109
 1091 0738 05       		.byte	0x5
 1092 0739 6402     		.2byte	0x264
 1093 073b B9070000 		.4byte	0x7b9
 1094 073f 80       		.byte	0x80
 1095 0740 16       		.uleb128 0x16
 1096 0741 34000000 		.4byte	.LASF110
 1097 0745 05       		.byte	0x5
 1098 0746 6502     		.2byte	0x265
 1099 0748 C9070000 		.4byte	0x7c9
 1100 074c 88       		.byte	0x88
 1101 074d 16       		.uleb128 0x16
 1102 074e AA050000 		.4byte	.LASF111
 1103 0752 05       		.byte	0x5
 1104 0753 6602     		.2byte	0x266
 1105 0755 37000000 		.4byte	0x37
 1106 0759 A0       		.byte	0xa0
 1107 075a 16       		.uleb128 0x16
 1108 075b 87000000 		.4byte	.LASF112
 1109 075f 05       		.byte	0x5
 1110 0760 6702     		.2byte	0x267
 1111 0762 1B010000 		.4byte	0x11b
 1112 0766 A4       		.byte	0xa4
 1113 0767 16       		.uleb128 0x16
 1114 0768 25020000 		.4byte	.LASF113
 1115 076c 05       		.byte	0x5
 1116 076d 6802     		.2byte	0x268
 1117 076f 1B010000 		.4byte	0x11b
 1118 0773 AC       		.byte	0xac
 1119 0774 16       		.uleb128 0x16
 1120 0775 B9010000 		.4byte	.LASF114
 1121 0779 05       		.byte	0x5
 1122 077a 6902     		.2byte	0x269
 1123 077c 1B010000 		.4byte	0x11b
 1124 0780 B4       		.byte	0xb4
 1125 0781 16       		.uleb128 0x16
 1126 0782 DD020000 		.4byte	.LASF115
 1127 0786 05       		.byte	0x5
 1128 0787 6A02     		.2byte	0x26a
 1129 0789 1B010000 		.4byte	0x11b
 1130 078d BC       		.byte	0xbc
 1131 078e 16       		.uleb128 0x16
 1132 078f EE010000 		.4byte	.LASF116
 1133 0793 05       		.byte	0x5
 1134 0794 6B02     		.2byte	0x26b
 1135 0796 1B010000 		.4byte	0x11b
 1136 079a C4       		.byte	0xc4
 1137 079b 16       		.uleb128 0x16
 1138 079c 25030000 		.4byte	.LASF117
 1139 07a0 05       		.byte	0x5
 1140 07a1 6C02     		.2byte	0x26c
ARM GAS  /tmp/ccNs8WS0.s 			page 21


 1141 07a3 37000000 		.4byte	0x37
 1142 07a7 CC       		.byte	0xcc
 1143 07a8 00       		.byte	0
 1144 07a9 08       		.uleb128 0x8
 1145 07aa 7C050000 		.4byte	0x57c
 1146 07ae B9070000 		.4byte	0x7b9
 1147 07b2 09       		.uleb128 0x9
 1148 07b3 F3000000 		.4byte	0xf3
 1149 07b7 19       		.byte	0x19
 1150 07b8 00       		.byte	0
 1151 07b9 08       		.uleb128 0x8
 1152 07ba 7C050000 		.4byte	0x57c
 1153 07be C9070000 		.4byte	0x7c9
 1154 07c2 09       		.uleb128 0x9
 1155 07c3 F3000000 		.4byte	0xf3
 1156 07c7 07       		.byte	0x7
 1157 07c8 00       		.byte	0
 1158 07c9 08       		.uleb128 0x8
 1159 07ca 7C050000 		.4byte	0x57c
 1160 07ce D9070000 		.4byte	0x7d9
 1161 07d2 09       		.uleb128 0x9
 1162 07d3 F3000000 		.4byte	0xf3
 1163 07d7 17       		.byte	0x17
 1164 07d8 00       		.byte	0
 1165 07d9 1A       		.uleb128 0x1a
 1166 07da F0       		.byte	0xf0
 1167 07db 05       		.byte	0x5
 1168 07dc 7102     		.2byte	0x271
 1169 07de FD070000 		.4byte	0x7fd
 1170 07e2 16       		.uleb128 0x16
 1171 07e3 F5000000 		.4byte	.LASF118
 1172 07e7 05       		.byte	0x5
 1173 07e8 7402     		.2byte	0x274
 1174 07ea FD070000 		.4byte	0x7fd
 1175 07ee 00       		.byte	0
 1176 07ef 16       		.uleb128 0x16
 1177 07f0 97060000 		.4byte	.LASF119
 1178 07f4 05       		.byte	0x5
 1179 07f5 7502     		.2byte	0x275
 1180 07f7 0D080000 		.4byte	0x80d
 1181 07fb 78       		.byte	0x78
 1182 07fc 00       		.byte	0
 1183 07fd 08       		.uleb128 0x8
 1184 07fe F0020000 		.4byte	0x2f0
 1185 0802 0D080000 		.4byte	0x80d
 1186 0806 09       		.uleb128 0x9
 1187 0807 F3000000 		.4byte	0xf3
 1188 080b 1D       		.byte	0x1d
 1189 080c 00       		.byte	0
 1190 080d 08       		.uleb128 0x8
 1191 080e 30000000 		.4byte	0x30
 1192 0812 1D080000 		.4byte	0x81d
 1193 0816 09       		.uleb128 0x9
 1194 0817 F3000000 		.4byte	0xf3
 1195 081b 1D       		.byte	0x1d
 1196 081c 00       		.byte	0
 1197 081d 1B       		.uleb128 0x1b
ARM GAS  /tmp/ccNs8WS0.s 			page 22


 1198 081e F0       		.byte	0xf0
 1199 081f 05       		.byte	0x5
 1200 0820 5602     		.2byte	0x256
 1201 0822 3F080000 		.4byte	0x83f
 1202 0826 1C       		.uleb128 0x1c
 1203 0827 17060000 		.4byte	.LASF68
 1204 082b 05       		.byte	0x5
 1205 082c 6D02     		.2byte	0x26d
 1206 082e A8060000 		.4byte	0x6a8
 1207 0832 1C       		.uleb128 0x1c
 1208 0833 BC050000 		.4byte	.LASF120
 1209 0837 05       		.byte	0x5
 1210 0838 7602     		.2byte	0x276
 1211 083a D9070000 		.4byte	0x7d9
 1212 083e 00       		.byte	0
 1213 083f 08       		.uleb128 0x8
 1214 0840 7C050000 		.4byte	0x57c
 1215 0844 4F080000 		.4byte	0x84f
 1216 0848 09       		.uleb128 0x9
 1217 0849 F3000000 		.4byte	0xf3
 1218 084d 18       		.byte	0x18
 1219 084e 00       		.byte	0
 1220 084f 1D       		.uleb128 0x1d
 1221 0850 5A080000 		.4byte	0x85a
 1222 0854 14       		.uleb128 0x14
 1223 0855 3E040000 		.4byte	0x43e
 1224 0859 00       		.byte	0
 1225 085a 0F       		.uleb128 0xf
 1226 085b 04       		.byte	0x4
 1227 085c 4F080000 		.4byte	0x84f
 1228 0860 0F       		.uleb128 0xf
 1229 0861 04       		.byte	0x4
 1230 0862 91010000 		.4byte	0x191
 1231 0866 1D       		.uleb128 0x1d
 1232 0867 71080000 		.4byte	0x871
 1233 086b 14       		.uleb128 0x14
 1234 086c 37000000 		.4byte	0x37
 1235 0870 00       		.byte	0
 1236 0871 0F       		.uleb128 0xf
 1237 0872 04       		.byte	0x4
 1238 0873 77080000 		.4byte	0x877
 1239 0877 0F       		.uleb128 0xf
 1240 0878 04       		.byte	0x4
 1241 0879 66080000 		.4byte	0x866
 1242 087d 08       		.uleb128 0x8
 1243 087e 16060000 		.4byte	0x616
 1244 0882 8D080000 		.4byte	0x88d
 1245 0886 09       		.uleb128 0x9
 1246 0887 F3000000 		.4byte	0xf3
 1247 088b 02       		.byte	0x2
 1248 088c 00       		.byte	0
 1249 088d 02       		.uleb128 0x2
 1250 088e 67020000 		.4byte	.LASF121
 1251 0892 06       		.byte	0x6
 1252 0893 7A       		.byte	0x7a
 1253 0894 5A000000 		.4byte	0x5a
 1254 0898 02       		.uleb128 0x2
ARM GAS  /tmp/ccNs8WS0.s 			page 23


 1255 0899 1C050000 		.4byte	.LASF122
 1256 089d 06       		.byte	0x6
 1257 089e 92       		.byte	0x92
 1258 089f 76050000 		.4byte	0x576
 1259 08a3 02       		.uleb128 0x2
 1260 08a4 CC000000 		.4byte	.LASF123
 1261 08a8 06       		.byte	0x6
 1262 08a9 9B       		.byte	0x9b
 1263 08aa 53000000 		.4byte	0x53
 1264 08ae 02       		.uleb128 0x2
 1265 08af 1E060000 		.4byte	.LASF124
 1266 08b3 06       		.byte	0x6
 1267 08b4 B8       		.byte	0xb8
 1268 08b5 81000000 		.4byte	0x81
 1269 08b9 02       		.uleb128 0x2
 1270 08ba F2020000 		.4byte	.LASF125
 1271 08be 06       		.byte	0x6
 1272 08bf B9       		.byte	0xb9
 1273 08c0 8C000000 		.4byte	0x8c
 1274 08c4 02       		.uleb128 0x2
 1275 08c5 EC020000 		.4byte	.LASF126
 1276 08c9 06       		.byte	0x6
 1277 08ca BA       		.byte	0xba
 1278 08cb 97000000 		.4byte	0x97
 1279 08cf 02       		.uleb128 0x2
 1280 08d0 4B040000 		.4byte	.LASF127
 1281 08d4 06       		.byte	0x6
 1282 08d5 BB       		.byte	0xbb
 1283 08d6 A2000000 		.4byte	0xa2
 1284 08da 02       		.uleb128 0x2
 1285 08db 10060000 		.4byte	.LASF128
 1286 08df 06       		.byte	0x6
 1287 08e0 D9       		.byte	0xd9
 1288 08e1 30000000 		.4byte	0x30
 1289 08e5 02       		.uleb128 0x2
 1290 08e6 8C050000 		.4byte	.LASF129
 1291 08ea 06       		.byte	0x6
 1292 08eb DE       		.byte	0xde
 1293 08ec 53000000 		.4byte	0x53
 1294 08f0 0D       		.uleb128 0xd
 1295 08f1 69010000 		.4byte	.LASF130
 1296 08f5 3C       		.byte	0x3c
 1297 08f6 07       		.byte	0x7
 1298 08f7 19       		.byte	0x19
 1299 08f8 C9090000 		.4byte	0x9c9
 1300 08fc 0B       		.uleb128 0xb
 1301 08fd 79010000 		.4byte	.LASF131
 1302 0901 07       		.byte	0x7
 1303 0902 1B       		.byte	0x1b
 1304 0903 B9080000 		.4byte	0x8b9
 1305 0907 00       		.byte	0
 1306 0908 0B       		.uleb128 0xb
 1307 0909 80020000 		.4byte	.LASF132
 1308 090d 07       		.byte	0x7
 1309 090e 1C       		.byte	0x1c
 1310 090f A3080000 		.4byte	0x8a3
 1311 0913 02       		.byte	0x2
ARM GAS  /tmp/ccNs8WS0.s 			page 24


 1312 0914 0B       		.uleb128 0xb
 1313 0915 B1010000 		.4byte	.LASF133
 1314 0919 07       		.byte	0x7
 1315 091a 1D       		.byte	0x1d
 1316 091b DA080000 		.4byte	0x8da
 1317 091f 04       		.byte	0x4
 1318 0920 0B       		.uleb128 0xb
 1319 0921 CA010000 		.4byte	.LASF134
 1320 0925 07       		.byte	0x7
 1321 0926 1E       		.byte	0x1e
 1322 0927 E5080000 		.4byte	0x8e5
 1323 092b 08       		.byte	0x8
 1324 092c 0B       		.uleb128 0xb
 1325 092d 3D020000 		.4byte	.LASF135
 1326 0931 07       		.byte	0x7
 1327 0932 1F       		.byte	0x1f
 1328 0933 C4080000 		.4byte	0x8c4
 1329 0937 0A       		.byte	0xa
 1330 0938 0B       		.uleb128 0xb
 1331 0939 A4010000 		.4byte	.LASF136
 1332 093d 07       		.byte	0x7
 1333 093e 20       		.byte	0x20
 1334 093f CF080000 		.4byte	0x8cf
 1335 0943 0C       		.byte	0xc
 1336 0944 0B       		.uleb128 0xb
 1337 0945 60060000 		.4byte	.LASF137
 1338 0949 07       		.byte	0x7
 1339 094a 21       		.byte	0x21
 1340 094b B9080000 		.4byte	0x8b9
 1341 094f 0E       		.byte	0xe
 1342 0950 0B       		.uleb128 0xb
 1343 0951 CB050000 		.4byte	.LASF138
 1344 0955 07       		.byte	0x7
 1345 0956 22       		.byte	0x22
 1346 0957 AE080000 		.4byte	0x8ae
 1347 095b 10       		.byte	0x10
 1348 095c 0B       		.uleb128 0xb
 1349 095d 4D020000 		.4byte	.LASF139
 1350 0961 07       		.byte	0x7
 1351 0962 30       		.byte	0x30
 1352 0963 8D080000 		.4byte	0x88d
 1353 0967 14       		.byte	0x14
 1354 0968 0B       		.uleb128 0xb
 1355 0969 2E030000 		.4byte	.LASF140
 1356 096d 07       		.byte	0x7
 1357 096e 31       		.byte	0x31
 1358 096f 5A000000 		.4byte	0x5a
 1359 0973 18       		.byte	0x18
 1360 0974 0B       		.uleb128 0xb
 1361 0975 51010000 		.4byte	.LASF141
 1362 0979 07       		.byte	0x7
 1363 097a 32       		.byte	0x32
 1364 097b 8D080000 		.4byte	0x88d
 1365 097f 1C       		.byte	0x1c
 1366 0980 0B       		.uleb128 0xb
 1367 0981 38030000 		.4byte	.LASF142
 1368 0985 07       		.byte	0x7
ARM GAS  /tmp/ccNs8WS0.s 			page 25


 1369 0986 33       		.byte	0x33
 1370 0987 5A000000 		.4byte	0x5a
 1371 098b 20       		.byte	0x20
 1372 098c 0B       		.uleb128 0xb
 1373 098d E2040000 		.4byte	.LASF143
 1374 0991 07       		.byte	0x7
 1375 0992 34       		.byte	0x34
 1376 0993 8D080000 		.4byte	0x88d
 1377 0997 24       		.byte	0x24
 1378 0998 0B       		.uleb128 0xb
 1379 0999 42030000 		.4byte	.LASF144
 1380 099d 07       		.byte	0x7
 1381 099e 35       		.byte	0x35
 1382 099f 5A000000 		.4byte	0x5a
 1383 09a3 28       		.byte	0x28
 1384 09a4 0B       		.uleb128 0xb
 1385 09a5 4D000000 		.4byte	.LASF145
 1386 09a9 07       		.byte	0x7
 1387 09aa 36       		.byte	0x36
 1388 09ab 5A000000 		.4byte	0x5a
 1389 09af 2C       		.byte	0x2c
 1390 09b0 0B       		.uleb128 0xb
 1391 09b1 25010000 		.4byte	.LASF146
 1392 09b5 07       		.byte	0x7
 1393 09b6 37       		.byte	0x37
 1394 09b7 5A000000 		.4byte	0x5a
 1395 09bb 30       		.byte	0x30
 1396 09bc 0B       		.uleb128 0xb
 1397 09bd 4C030000 		.4byte	.LASF147
 1398 09c1 07       		.byte	0x7
 1399 09c2 38       		.byte	0x38
 1400 09c3 C9090000 		.4byte	0x9c9
 1401 09c7 34       		.byte	0x34
 1402 09c8 00       		.byte	0
 1403 09c9 08       		.uleb128 0x8
 1404 09ca 5A000000 		.4byte	0x5a
 1405 09ce D9090000 		.4byte	0x9d9
 1406 09d2 09       		.uleb128 0x9
 1407 09d3 F3000000 		.4byte	0xf3
 1408 09d7 01       		.byte	0x1
 1409 09d8 00       		.byte	0
 1410 09d9 03       		.uleb128 0x3
 1411 09da 01       		.byte	0x1
 1412 09db 02       		.byte	0x2
 1413 09dc 5F030000 		.4byte	.LASF148
 1414 09e0 1E       		.uleb128 0x1e
 1415 09e1 DC000000 		.4byte	.LASF150
 1416 09e5 01       		.byte	0x1
 1417 09e6 4B       		.byte	0x4b
 1418 09e7 37000000 		.4byte	0x37
 1419 09eb 00000000 		.4byte	.LFB7
 1420 09ef 0A000000 		.4byte	.LFE7-.LFB7
 1421 09f3 01       		.uleb128 0x1
 1422 09f4 9C       		.byte	0x9c
 1423 09f5 300A0000 		.4byte	0xa30
 1424 09f9 1F       		.uleb128 0x1f
 1425 09fa 7200     		.ascii	"r\000"
ARM GAS  /tmp/ccNs8WS0.s 			page 26


 1426 09fc 01       		.byte	0x1
 1427 09fd 4B       		.byte	0x4b
 1428 09fe 3E040000 		.4byte	0x43e
 1429 0a02 00000000 		.4byte	.LLST0
 1430 0a06 20       		.uleb128 0x20
 1431 0a07 56020000 		.4byte	.LASF149
 1432 0a0b 01       		.byte	0x1
 1433 0a0c 4B       		.byte	0x4b
 1434 0a0d 37000000 		.4byte	0x37
 1435 0a11 01       		.uleb128 0x1
 1436 0a12 51       		.byte	0x51
 1437 0a13 21       		.uleb128 0x21
 1438 0a14 70747200 		.ascii	"ptr\000"
 1439 0a18 01       		.byte	0x1
 1440 0a19 4B       		.byte	0x4b
 1441 0a1a 76050000 		.4byte	0x576
 1442 0a1e 01       		.uleb128 0x1
 1443 0a1f 52       		.byte	0x52
 1444 0a20 1F       		.uleb128 0x1f
 1445 0a21 6C656E00 		.ascii	"len\000"
 1446 0a25 01       		.byte	0x1
 1447 0a26 4B       		.byte	0x4b
 1448 0a27 37000000 		.4byte	0x37
 1449 0a2b 21000000 		.4byte	.LLST1
 1450 0a2f 00       		.byte	0
 1451 0a30 1E       		.uleb128 0x1e
 1452 0a31 6E030000 		.4byte	.LASF151
 1453 0a35 01       		.byte	0x1
 1454 0a36 60       		.byte	0x60
 1455 0a37 37000000 		.4byte	0x37
 1456 0a3b 00000000 		.4byte	.LFB8
 1457 0a3f 04000000 		.4byte	.LFE8-.LFB8
 1458 0a43 01       		.uleb128 0x1
 1459 0a44 9C       		.byte	0x9c
 1460 0a45 7E0A0000 		.4byte	0xa7e
 1461 0a49 1F       		.uleb128 0x1f
 1462 0a4a 7200     		.ascii	"r\000"
 1463 0a4c 01       		.byte	0x1
 1464 0a4d 60       		.byte	0x60
 1465 0a4e 3E040000 		.4byte	0x43e
 1466 0a52 42000000 		.4byte	.LLST2
 1467 0a56 20       		.uleb128 0x20
 1468 0a57 56020000 		.4byte	.LASF149
 1469 0a5b 01       		.byte	0x1
 1470 0a5c 60       		.byte	0x60
 1471 0a5d 37000000 		.4byte	0x37
 1472 0a61 01       		.uleb128 0x1
 1473 0a62 51       		.byte	0x51
 1474 0a63 21       		.uleb128 0x21
 1475 0a64 70747200 		.ascii	"ptr\000"
 1476 0a68 01       		.byte	0x1
 1477 0a69 60       		.byte	0x60
 1478 0a6a 37000000 		.4byte	0x37
 1479 0a6e 01       		.uleb128 0x1
 1480 0a6f 52       		.byte	0x52
 1481 0a70 21       		.uleb128 0x21
 1482 0a71 64697200 		.ascii	"dir\000"
ARM GAS  /tmp/ccNs8WS0.s 			page 27


 1483 0a75 01       		.byte	0x1
 1484 0a76 60       		.byte	0x60
 1485 0a77 37000000 		.4byte	0x37
 1486 0a7b 01       		.uleb128 0x1
 1487 0a7c 53       		.byte	0x53
 1488 0a7d 00       		.byte	0
 1489 0a7e 1E       		.uleb128 0x1e
 1490 0a7f 2B000000 		.4byte	.LASF152
 1491 0a83 01       		.byte	0x1
 1492 0a84 6C       		.byte	0x6c
 1493 0a85 37000000 		.4byte	0x37
 1494 0a89 00000000 		.4byte	.LFB9
 1495 0a8d 04000000 		.4byte	.LFE9-.LFB9
 1496 0a91 01       		.uleb128 0x1
 1497 0a92 9C       		.byte	0x9c
 1498 0a93 CC0A0000 		.4byte	0xacc
 1499 0a97 1F       		.uleb128 0x1f
 1500 0a98 7200     		.ascii	"r\000"
 1501 0a9a 01       		.byte	0x1
 1502 0a9b 6C       		.byte	0x6c
 1503 0a9c 3E040000 		.4byte	0x43e
 1504 0aa0 63000000 		.4byte	.LLST3
 1505 0aa4 20       		.uleb128 0x20
 1506 0aa5 56020000 		.4byte	.LASF149
 1507 0aa9 01       		.byte	0x1
 1508 0aaa 6C       		.byte	0x6c
 1509 0aab 37000000 		.4byte	0x37
 1510 0aaf 01       		.uleb128 0x1
 1511 0ab0 51       		.byte	0x51
 1512 0ab1 21       		.uleb128 0x21
 1513 0ab2 70747200 		.ascii	"ptr\000"
 1514 0ab6 01       		.byte	0x1
 1515 0ab7 6C       		.byte	0x6c
 1516 0ab8 76050000 		.4byte	0x576
 1517 0abc 01       		.uleb128 0x1
 1518 0abd 52       		.byte	0x52
 1519 0abe 21       		.uleb128 0x21
 1520 0abf 6C656E00 		.ascii	"len\000"
 1521 0ac3 01       		.byte	0x1
 1522 0ac4 6C       		.byte	0x6c
 1523 0ac5 37000000 		.4byte	0x37
 1524 0ac9 01       		.uleb128 0x1
 1525 0aca 53       		.byte	0x53
 1526 0acb 00       		.byte	0
 1527 0acc 1E       		.uleb128 0x1e
 1528 0acd 56030000 		.4byte	.LASF153
 1529 0ad1 01       		.byte	0x1
 1530 0ad2 7D       		.byte	0x7d
 1531 0ad3 37000000 		.4byte	0x37
 1532 0ad7 00000000 		.4byte	.LFB10
 1533 0adb 04000000 		.4byte	.LFE10-.LFB10
 1534 0adf 01       		.uleb128 0x1
 1535 0ae0 9C       		.byte	0x9c
 1536 0ae1 000B0000 		.4byte	0xb00
 1537 0ae5 1F       		.uleb128 0x1f
 1538 0ae6 7200     		.ascii	"r\000"
 1539 0ae8 01       		.byte	0x1
ARM GAS  /tmp/ccNs8WS0.s 			page 28


 1540 0ae9 7D       		.byte	0x7d
 1541 0aea 3E040000 		.4byte	0x43e
 1542 0aee 84000000 		.4byte	.LLST4
 1543 0af2 20       		.uleb128 0x20
 1544 0af3 56020000 		.4byte	.LASF149
 1545 0af7 01       		.byte	0x1
 1546 0af8 7D       		.byte	0x7d
 1547 0af9 37000000 		.4byte	0x37
 1548 0afd 01       		.uleb128 0x1
 1549 0afe 51       		.byte	0x51
 1550 0aff 00       		.byte	0
 1551 0b00 1E       		.uleb128 0x1e
 1552 0b01 49010000 		.4byte	.LASF154
 1553 0b05 01       		.byte	0x1
 1554 0b06 87       		.byte	0x87
 1555 0b07 98080000 		.4byte	0x898
 1556 0b0b 00000000 		.4byte	.LFB11
 1557 0b0f 1A000000 		.4byte	.LFE11-.LFB11
 1558 0b13 01       		.uleb128 0x1
 1559 0b14 9C       		.byte	0x9c
 1560 0b15 540B0000 		.4byte	0xb54
 1561 0b19 1F       		.uleb128 0x1f
 1562 0b1a 7200     		.ascii	"r\000"
 1563 0b1c 01       		.byte	0x1
 1564 0b1d 87       		.byte	0x87
 1565 0b1e 3E040000 		.4byte	0x43e
 1566 0b22 A5000000 		.4byte	.LLST5
 1567 0b26 22       		.uleb128 0x22
 1568 0b27 DC010000 		.4byte	.LASF155
 1569 0b2b 01       		.byte	0x1
 1570 0b2c 87       		.byte	0x87
 1571 0b2d 37000000 		.4byte	0x37
 1572 0b31 D1000000 		.4byte	.LLST6
 1573 0b35 23       		.uleb128 0x23
 1574 0b36 7000     		.ascii	"p\000"
 1575 0b38 01       		.byte	0x1
 1576 0b39 8A       		.byte	0x8a
 1577 0b3a 31010000 		.4byte	0x131
 1578 0b3e F2000000 		.4byte	.LLST7
 1579 0b42 24       		.uleb128 0x24
 1580 0b43 0A000000 		.4byte	.LVL11
 1581 0b47 EC0B0000 		.4byte	0xbec
 1582 0b4b 25       		.uleb128 0x25
 1583 0b4c 01       		.uleb128 0x1
 1584 0b4d 50       		.byte	0x50
 1585 0b4e 03       		.uleb128 0x3
 1586 0b4f F3       		.byte	0xf3
 1587 0b50 01       		.uleb128 0x1
 1588 0b51 51       		.byte	0x51
 1589 0b52 00       		.byte	0
 1590 0b53 00       		.byte	0
 1591 0b54 1E       		.uleb128 0x1e
 1592 0b55 D3010000 		.4byte	.LASF156
 1593 0b59 01       		.byte	0x1
 1594 0b5a 9D       		.byte	0x9d
 1595 0b5b 37000000 		.4byte	0x37
 1596 0b5f 00000000 		.4byte	.LFB12
ARM GAS  /tmp/ccNs8WS0.s 			page 29


 1597 0b63 18000000 		.4byte	.LFE12-.LFB12
 1598 0b67 01       		.uleb128 0x1
 1599 0b68 9C       		.byte	0x9c
 1600 0b69 B30B0000 		.4byte	0xbb3
 1601 0b6d 1F       		.uleb128 0x1f
 1602 0b6e 7200     		.ascii	"r\000"
 1603 0b70 01       		.byte	0x1
 1604 0b71 9D       		.byte	0x9d
 1605 0b72 3E040000 		.4byte	0x43e
 1606 0b76 05010000 		.4byte	.LLST8
 1607 0b7a 22       		.uleb128 0x22
 1608 0b7b 56020000 		.4byte	.LASF149
 1609 0b7f 01       		.byte	0x1
 1610 0b80 9D       		.byte	0x9d
 1611 0b81 37000000 		.4byte	0x37
 1612 0b85 26010000 		.4byte	.LLST9
 1613 0b89 1F       		.uleb128 0x1f
 1614 0b8a 737400   		.ascii	"st\000"
 1615 0b8d 01       		.byte	0x1
 1616 0b8e 9D       		.byte	0x9d
 1617 0b8f B30B0000 		.4byte	0xbb3
 1618 0b93 47010000 		.4byte	.LLST10
 1619 0b97 24       		.uleb128 0x24
 1620 0b98 0E000000 		.4byte	.LVL19
 1621 0b9c 010C0000 		.4byte	0xc01
 1622 0ba0 25       		.uleb128 0x25
 1623 0ba1 01       		.uleb128 0x1
 1624 0ba2 52       		.byte	0x52
 1625 0ba3 02       		.uleb128 0x2
 1626 0ba4 08       		.byte	0x8
 1627 0ba5 3C       		.byte	0x3c
 1628 0ba6 25       		.uleb128 0x25
 1629 0ba7 01       		.uleb128 0x1
 1630 0ba8 51       		.byte	0x51
 1631 0ba9 01       		.uleb128 0x1
 1632 0baa 30       		.byte	0x30
 1633 0bab 25       		.uleb128 0x25
 1634 0bac 01       		.uleb128 0x1
 1635 0bad 50       		.byte	0x50
 1636 0bae 02       		.uleb128 0x2
 1637 0baf 74       		.byte	0x74
 1638 0bb0 00       		.sleb128 0
 1639 0bb1 00       		.byte	0
 1640 0bb2 00       		.byte	0
 1641 0bb3 0F       		.uleb128 0xf
 1642 0bb4 04       		.byte	0x4
 1643 0bb5 F0080000 		.4byte	0x8f0
 1644 0bb9 1E       		.uleb128 0x1e
 1645 0bba 1C000000 		.4byte	.LASF157
 1646 0bbe 01       		.byte	0x1
 1647 0bbf A9       		.byte	0xa9
 1648 0bc0 37000000 		.4byte	0x37
 1649 0bc4 00000000 		.4byte	.LFB13
 1650 0bc8 04000000 		.4byte	.LFE13-.LFB13
 1651 0bcc 01       		.uleb128 0x1
 1652 0bcd 9C       		.byte	0x9c
 1653 0bce EC0B0000 		.4byte	0xbec
ARM GAS  /tmp/ccNs8WS0.s 			page 30


 1654 0bd2 1F       		.uleb128 0x1f
 1655 0bd3 7200     		.ascii	"r\000"
 1656 0bd5 01       		.byte	0x1
 1657 0bd6 A9       		.byte	0xa9
 1658 0bd7 3E040000 		.4byte	0x43e
 1659 0bdb 7E010000 		.4byte	.LLST11
 1660 0bdf 21       		.uleb128 0x21
 1661 0be0 666400   		.ascii	"fd\000"
 1662 0be3 01       		.byte	0x1
 1663 0be4 A9       		.byte	0xa9
 1664 0be5 37000000 		.4byte	0x37
 1665 0be9 01       		.uleb128 0x1
 1666 0bea 51       		.byte	0x51
 1667 0beb 00       		.byte	0
 1668 0bec 26       		.uleb128 0x26
 1669 0bed AB020000 		.4byte	.LASF161
 1670 0bf1 08       		.byte	0x8
 1671 0bf2 52       		.byte	0x52
 1672 0bf3 31010000 		.4byte	0x131
 1673 0bf7 010C0000 		.4byte	0xc01
 1674 0bfb 14       		.uleb128 0x14
 1675 0bfc 25000000 		.4byte	0x25
 1676 0c00 00       		.byte	0
 1677 0c01 27       		.uleb128 0x27
 1678 0c02 FE020000 		.4byte	.LASF162
 1679 0c06 31010000 		.4byte	0x131
 1680 0c0a 14       		.uleb128 0x14
 1681 0c0b 31010000 		.4byte	0x131
 1682 0c0f 14       		.uleb128 0x14
 1683 0c10 37000000 		.4byte	0x37
 1684 0c14 14       		.uleb128 0x14
 1685 0c15 F3000000 		.4byte	0xf3
 1686 0c19 00       		.byte	0
 1687 0c1a 00       		.byte	0
 1688              		.section	.debug_abbrev,"",%progbits
 1689              	.Ldebug_abbrev0:
 1690 0000 01       		.uleb128 0x1
 1691 0001 11       		.uleb128 0x11
 1692 0002 01       		.byte	0x1
 1693 0003 25       		.uleb128 0x25
 1694 0004 0E       		.uleb128 0xe
 1695 0005 13       		.uleb128 0x13
 1696 0006 0B       		.uleb128 0xb
 1697 0007 03       		.uleb128 0x3
 1698 0008 0E       		.uleb128 0xe
 1699 0009 1B       		.uleb128 0x1b
 1700 000a 0E       		.uleb128 0xe
 1701 000b 55       		.uleb128 0x55
 1702 000c 17       		.uleb128 0x17
 1703 000d 11       		.uleb128 0x11
 1704 000e 01       		.uleb128 0x1
 1705 000f 10       		.uleb128 0x10
 1706 0010 17       		.uleb128 0x17
 1707 0011 00       		.byte	0
 1708 0012 00       		.byte	0
 1709 0013 02       		.uleb128 0x2
 1710 0014 16       		.uleb128 0x16
ARM GAS  /tmp/ccNs8WS0.s 			page 31


 1711 0015 00       		.byte	0
 1712 0016 03       		.uleb128 0x3
 1713 0017 0E       		.uleb128 0xe
 1714 0018 3A       		.uleb128 0x3a
 1715 0019 0B       		.uleb128 0xb
 1716 001a 3B       		.uleb128 0x3b
 1717 001b 0B       		.uleb128 0xb
 1718 001c 49       		.uleb128 0x49
 1719 001d 13       		.uleb128 0x13
 1720 001e 00       		.byte	0
 1721 001f 00       		.byte	0
 1722 0020 03       		.uleb128 0x3
 1723 0021 24       		.uleb128 0x24
 1724 0022 00       		.byte	0
 1725 0023 0B       		.uleb128 0xb
 1726 0024 0B       		.uleb128 0xb
 1727 0025 3E       		.uleb128 0x3e
 1728 0026 0B       		.uleb128 0xb
 1729 0027 03       		.uleb128 0x3
 1730 0028 0E       		.uleb128 0xe
 1731 0029 00       		.byte	0
 1732 002a 00       		.byte	0
 1733 002b 04       		.uleb128 0x4
 1734 002c 24       		.uleb128 0x24
 1735 002d 00       		.byte	0
 1736 002e 0B       		.uleb128 0xb
 1737 002f 0B       		.uleb128 0xb
 1738 0030 3E       		.uleb128 0x3e
 1739 0031 0B       		.uleb128 0xb
 1740 0032 03       		.uleb128 0x3
 1741 0033 08       		.uleb128 0x8
 1742 0034 00       		.byte	0
 1743 0035 00       		.byte	0
 1744 0036 05       		.uleb128 0x5
 1745 0037 16       		.uleb128 0x16
 1746 0038 00       		.byte	0
 1747 0039 03       		.uleb128 0x3
 1748 003a 0E       		.uleb128 0xe
 1749 003b 3A       		.uleb128 0x3a
 1750 003c 0B       		.uleb128 0xb
 1751 003d 3B       		.uleb128 0x3b
 1752 003e 05       		.uleb128 0x5
 1753 003f 49       		.uleb128 0x49
 1754 0040 13       		.uleb128 0x13
 1755 0041 00       		.byte	0
 1756 0042 00       		.byte	0
 1757 0043 06       		.uleb128 0x6
 1758 0044 17       		.uleb128 0x17
 1759 0045 01       		.byte	0x1
 1760 0046 0B       		.uleb128 0xb
 1761 0047 0B       		.uleb128 0xb
 1762 0048 3A       		.uleb128 0x3a
 1763 0049 0B       		.uleb128 0xb
 1764 004a 3B       		.uleb128 0x3b
 1765 004b 0B       		.uleb128 0xb
 1766 004c 01       		.uleb128 0x1
 1767 004d 13       		.uleb128 0x13
ARM GAS  /tmp/ccNs8WS0.s 			page 32


 1768 004e 00       		.byte	0
 1769 004f 00       		.byte	0
 1770 0050 07       		.uleb128 0x7
 1771 0051 0D       		.uleb128 0xd
 1772 0052 00       		.byte	0
 1773 0053 03       		.uleb128 0x3
 1774 0054 0E       		.uleb128 0xe
 1775 0055 3A       		.uleb128 0x3a
 1776 0056 0B       		.uleb128 0xb
 1777 0057 3B       		.uleb128 0x3b
 1778 0058 0B       		.uleb128 0xb
 1779 0059 49       		.uleb128 0x49
 1780 005a 13       		.uleb128 0x13
 1781 005b 00       		.byte	0
 1782 005c 00       		.byte	0
 1783 005d 08       		.uleb128 0x8
 1784 005e 01       		.uleb128 0x1
 1785 005f 01       		.byte	0x1
 1786 0060 49       		.uleb128 0x49
 1787 0061 13       		.uleb128 0x13
 1788 0062 01       		.uleb128 0x1
 1789 0063 13       		.uleb128 0x13
 1790 0064 00       		.byte	0
 1791 0065 00       		.byte	0
 1792 0066 09       		.uleb128 0x9
 1793 0067 21       		.uleb128 0x21
 1794 0068 00       		.byte	0
 1795 0069 49       		.uleb128 0x49
 1796 006a 13       		.uleb128 0x13
 1797 006b 2F       		.uleb128 0x2f
 1798 006c 0B       		.uleb128 0xb
 1799 006d 00       		.byte	0
 1800 006e 00       		.byte	0
 1801 006f 0A       		.uleb128 0xa
 1802 0070 13       		.uleb128 0x13
 1803 0071 01       		.byte	0x1
 1804 0072 0B       		.uleb128 0xb
 1805 0073 0B       		.uleb128 0xb
 1806 0074 3A       		.uleb128 0x3a
 1807 0075 0B       		.uleb128 0xb
 1808 0076 3B       		.uleb128 0x3b
 1809 0077 0B       		.uleb128 0xb
 1810 0078 01       		.uleb128 0x1
 1811 0079 13       		.uleb128 0x13
 1812 007a 00       		.byte	0
 1813 007b 00       		.byte	0
 1814 007c 0B       		.uleb128 0xb
 1815 007d 0D       		.uleb128 0xd
 1816 007e 00       		.byte	0
 1817 007f 03       		.uleb128 0x3
 1818 0080 0E       		.uleb128 0xe
 1819 0081 3A       		.uleb128 0x3a
 1820 0082 0B       		.uleb128 0xb
 1821 0083 3B       		.uleb128 0x3b
 1822 0084 0B       		.uleb128 0xb
 1823 0085 49       		.uleb128 0x49
 1824 0086 13       		.uleb128 0x13
ARM GAS  /tmp/ccNs8WS0.s 			page 33


 1825 0087 38       		.uleb128 0x38
 1826 0088 0B       		.uleb128 0xb
 1827 0089 00       		.byte	0
 1828 008a 00       		.byte	0
 1829 008b 0C       		.uleb128 0xc
 1830 008c 0F       		.uleb128 0xf
 1831 008d 00       		.byte	0
 1832 008e 0B       		.uleb128 0xb
 1833 008f 0B       		.uleb128 0xb
 1834 0090 00       		.byte	0
 1835 0091 00       		.byte	0
 1836 0092 0D       		.uleb128 0xd
 1837 0093 13       		.uleb128 0x13
 1838 0094 01       		.byte	0x1
 1839 0095 03       		.uleb128 0x3
 1840 0096 0E       		.uleb128 0xe
 1841 0097 0B       		.uleb128 0xb
 1842 0098 0B       		.uleb128 0xb
 1843 0099 3A       		.uleb128 0x3a
 1844 009a 0B       		.uleb128 0xb
 1845 009b 3B       		.uleb128 0x3b
 1846 009c 0B       		.uleb128 0xb
 1847 009d 01       		.uleb128 0x1
 1848 009e 13       		.uleb128 0x13
 1849 009f 00       		.byte	0
 1850 00a0 00       		.byte	0
 1851 00a1 0E       		.uleb128 0xe
 1852 00a2 0D       		.uleb128 0xd
 1853 00a3 00       		.byte	0
 1854 00a4 03       		.uleb128 0x3
 1855 00a5 08       		.uleb128 0x8
 1856 00a6 3A       		.uleb128 0x3a
 1857 00a7 0B       		.uleb128 0xb
 1858 00a8 3B       		.uleb128 0x3b
 1859 00a9 0B       		.uleb128 0xb
 1860 00aa 49       		.uleb128 0x49
 1861 00ab 13       		.uleb128 0x13
 1862 00ac 38       		.uleb128 0x38
 1863 00ad 0B       		.uleb128 0xb
 1864 00ae 00       		.byte	0
 1865 00af 00       		.byte	0
 1866 00b0 0F       		.uleb128 0xf
 1867 00b1 0F       		.uleb128 0xf
 1868 00b2 00       		.byte	0
 1869 00b3 0B       		.uleb128 0xb
 1870 00b4 0B       		.uleb128 0xb
 1871 00b5 49       		.uleb128 0x49
 1872 00b6 13       		.uleb128 0x13
 1873 00b7 00       		.byte	0
 1874 00b8 00       		.byte	0
 1875 00b9 10       		.uleb128 0x10
 1876 00ba 13       		.uleb128 0x13
 1877 00bb 01       		.byte	0x1
 1878 00bc 03       		.uleb128 0x3
 1879 00bd 0E       		.uleb128 0xe
 1880 00be 0B       		.uleb128 0xb
 1881 00bf 05       		.uleb128 0x5
ARM GAS  /tmp/ccNs8WS0.s 			page 34


 1882 00c0 3A       		.uleb128 0x3a
 1883 00c1 0B       		.uleb128 0xb
 1884 00c2 3B       		.uleb128 0x3b
 1885 00c3 0B       		.uleb128 0xb
 1886 00c4 01       		.uleb128 0x1
 1887 00c5 13       		.uleb128 0x13
 1888 00c6 00       		.byte	0
 1889 00c7 00       		.byte	0
 1890 00c8 11       		.uleb128 0x11
 1891 00c9 0D       		.uleb128 0xd
 1892 00ca 00       		.byte	0
 1893 00cb 03       		.uleb128 0x3
 1894 00cc 0E       		.uleb128 0xe
 1895 00cd 3A       		.uleb128 0x3a
 1896 00ce 0B       		.uleb128 0xb
 1897 00cf 3B       		.uleb128 0x3b
 1898 00d0 0B       		.uleb128 0xb
 1899 00d1 49       		.uleb128 0x49
 1900 00d2 13       		.uleb128 0x13
 1901 00d3 38       		.uleb128 0x38
 1902 00d4 05       		.uleb128 0x5
 1903 00d5 00       		.byte	0
 1904 00d6 00       		.byte	0
 1905 00d7 12       		.uleb128 0x12
 1906 00d8 15       		.uleb128 0x15
 1907 00d9 00       		.byte	0
 1908 00da 27       		.uleb128 0x27
 1909 00db 19       		.uleb128 0x19
 1910 00dc 00       		.byte	0
 1911 00dd 00       		.byte	0
 1912 00de 13       		.uleb128 0x13
 1913 00df 15       		.uleb128 0x15
 1914 00e0 01       		.byte	0x1
 1915 00e1 27       		.uleb128 0x27
 1916 00e2 19       		.uleb128 0x19
 1917 00e3 49       		.uleb128 0x49
 1918 00e4 13       		.uleb128 0x13
 1919 00e5 01       		.uleb128 0x1
 1920 00e6 13       		.uleb128 0x13
 1921 00e7 00       		.byte	0
 1922 00e8 00       		.byte	0
 1923 00e9 14       		.uleb128 0x14
 1924 00ea 05       		.uleb128 0x5
 1925 00eb 00       		.byte	0
 1926 00ec 49       		.uleb128 0x49
 1927 00ed 13       		.uleb128 0x13
 1928 00ee 00       		.byte	0
 1929 00ef 00       		.byte	0
 1930 00f0 15       		.uleb128 0x15
 1931 00f1 13       		.uleb128 0x13
 1932 00f2 01       		.byte	0x1
 1933 00f3 03       		.uleb128 0x3
 1934 00f4 0E       		.uleb128 0xe
 1935 00f5 0B       		.uleb128 0xb
 1936 00f6 05       		.uleb128 0x5
 1937 00f7 3A       		.uleb128 0x3a
 1938 00f8 0B       		.uleb128 0xb
ARM GAS  /tmp/ccNs8WS0.s 			page 35


 1939 00f9 3B       		.uleb128 0x3b
 1940 00fa 05       		.uleb128 0x5
 1941 00fb 01       		.uleb128 0x1
 1942 00fc 13       		.uleb128 0x13
 1943 00fd 00       		.byte	0
 1944 00fe 00       		.byte	0
 1945 00ff 16       		.uleb128 0x16
 1946 0100 0D       		.uleb128 0xd
 1947 0101 00       		.byte	0
 1948 0102 03       		.uleb128 0x3
 1949 0103 0E       		.uleb128 0xe
 1950 0104 3A       		.uleb128 0x3a
 1951 0105 0B       		.uleb128 0xb
 1952 0106 3B       		.uleb128 0x3b
 1953 0107 05       		.uleb128 0x5
 1954 0108 49       		.uleb128 0x49
 1955 0109 13       		.uleb128 0x13
 1956 010a 38       		.uleb128 0x38
 1957 010b 0B       		.uleb128 0xb
 1958 010c 00       		.byte	0
 1959 010d 00       		.byte	0
 1960 010e 17       		.uleb128 0x17
 1961 010f 0D       		.uleb128 0xd
 1962 0110 00       		.byte	0
 1963 0111 03       		.uleb128 0x3
 1964 0112 0E       		.uleb128 0xe
 1965 0113 3A       		.uleb128 0x3a
 1966 0114 0B       		.uleb128 0xb
 1967 0115 3B       		.uleb128 0x3b
 1968 0116 05       		.uleb128 0x5
 1969 0117 49       		.uleb128 0x49
 1970 0118 13       		.uleb128 0x13
 1971 0119 38       		.uleb128 0x38
 1972 011a 05       		.uleb128 0x5
 1973 011b 00       		.byte	0
 1974 011c 00       		.byte	0
 1975 011d 18       		.uleb128 0x18
 1976 011e 26       		.uleb128 0x26
 1977 011f 00       		.byte	0
 1978 0120 49       		.uleb128 0x49
 1979 0121 13       		.uleb128 0x13
 1980 0122 00       		.byte	0
 1981 0123 00       		.byte	0
 1982 0124 19       		.uleb128 0x19
 1983 0125 13       		.uleb128 0x13
 1984 0126 01       		.byte	0x1
 1985 0127 03       		.uleb128 0x3
 1986 0128 0E       		.uleb128 0xe
 1987 0129 0B       		.uleb128 0xb
 1988 012a 0B       		.uleb128 0xb
 1989 012b 3A       		.uleb128 0x3a
 1990 012c 0B       		.uleb128 0xb
 1991 012d 3B       		.uleb128 0x3b
 1992 012e 05       		.uleb128 0x5
 1993 012f 01       		.uleb128 0x1
 1994 0130 13       		.uleb128 0x13
 1995 0131 00       		.byte	0
ARM GAS  /tmp/ccNs8WS0.s 			page 36


 1996 0132 00       		.byte	0
 1997 0133 1A       		.uleb128 0x1a
 1998 0134 13       		.uleb128 0x13
 1999 0135 01       		.byte	0x1
 2000 0136 0B       		.uleb128 0xb
 2001 0137 0B       		.uleb128 0xb
 2002 0138 3A       		.uleb128 0x3a
 2003 0139 0B       		.uleb128 0xb
 2004 013a 3B       		.uleb128 0x3b
 2005 013b 05       		.uleb128 0x5
 2006 013c 01       		.uleb128 0x1
 2007 013d 13       		.uleb128 0x13
 2008 013e 00       		.byte	0
 2009 013f 00       		.byte	0
 2010 0140 1B       		.uleb128 0x1b
 2011 0141 17       		.uleb128 0x17
 2012 0142 01       		.byte	0x1
 2013 0143 0B       		.uleb128 0xb
 2014 0144 0B       		.uleb128 0xb
 2015 0145 3A       		.uleb128 0x3a
 2016 0146 0B       		.uleb128 0xb
 2017 0147 3B       		.uleb128 0x3b
 2018 0148 05       		.uleb128 0x5
 2019 0149 01       		.uleb128 0x1
 2020 014a 13       		.uleb128 0x13
 2021 014b 00       		.byte	0
 2022 014c 00       		.byte	0
 2023 014d 1C       		.uleb128 0x1c
 2024 014e 0D       		.uleb128 0xd
 2025 014f 00       		.byte	0
 2026 0150 03       		.uleb128 0x3
 2027 0151 0E       		.uleb128 0xe
 2028 0152 3A       		.uleb128 0x3a
 2029 0153 0B       		.uleb128 0xb
 2030 0154 3B       		.uleb128 0x3b
 2031 0155 05       		.uleb128 0x5
 2032 0156 49       		.uleb128 0x49
 2033 0157 13       		.uleb128 0x13
 2034 0158 00       		.byte	0
 2035 0159 00       		.byte	0
 2036 015a 1D       		.uleb128 0x1d
 2037 015b 15       		.uleb128 0x15
 2038 015c 01       		.byte	0x1
 2039 015d 27       		.uleb128 0x27
 2040 015e 19       		.uleb128 0x19
 2041 015f 01       		.uleb128 0x1
 2042 0160 13       		.uleb128 0x13
 2043 0161 00       		.byte	0
 2044 0162 00       		.byte	0
 2045 0163 1E       		.uleb128 0x1e
 2046 0164 2E       		.uleb128 0x2e
 2047 0165 01       		.byte	0x1
 2048 0166 3F       		.uleb128 0x3f
 2049 0167 19       		.uleb128 0x19
 2050 0168 03       		.uleb128 0x3
 2051 0169 0E       		.uleb128 0xe
 2052 016a 3A       		.uleb128 0x3a
ARM GAS  /tmp/ccNs8WS0.s 			page 37


 2053 016b 0B       		.uleb128 0xb
 2054 016c 3B       		.uleb128 0x3b
 2055 016d 0B       		.uleb128 0xb
 2056 016e 27       		.uleb128 0x27
 2057 016f 19       		.uleb128 0x19
 2058 0170 49       		.uleb128 0x49
 2059 0171 13       		.uleb128 0x13
 2060 0172 11       		.uleb128 0x11
 2061 0173 01       		.uleb128 0x1
 2062 0174 12       		.uleb128 0x12
 2063 0175 06       		.uleb128 0x6
 2064 0176 40       		.uleb128 0x40
 2065 0177 18       		.uleb128 0x18
 2066 0178 9742     		.uleb128 0x2117
 2067 017a 19       		.uleb128 0x19
 2068 017b 01       		.uleb128 0x1
 2069 017c 13       		.uleb128 0x13
 2070 017d 00       		.byte	0
 2071 017e 00       		.byte	0
 2072 017f 1F       		.uleb128 0x1f
 2073 0180 05       		.uleb128 0x5
 2074 0181 00       		.byte	0
 2075 0182 03       		.uleb128 0x3
 2076 0183 08       		.uleb128 0x8
 2077 0184 3A       		.uleb128 0x3a
 2078 0185 0B       		.uleb128 0xb
 2079 0186 3B       		.uleb128 0x3b
 2080 0187 0B       		.uleb128 0xb
 2081 0188 49       		.uleb128 0x49
 2082 0189 13       		.uleb128 0x13
 2083 018a 02       		.uleb128 0x2
 2084 018b 17       		.uleb128 0x17
 2085 018c 00       		.byte	0
 2086 018d 00       		.byte	0
 2087 018e 20       		.uleb128 0x20
 2088 018f 05       		.uleb128 0x5
 2089 0190 00       		.byte	0
 2090 0191 03       		.uleb128 0x3
 2091 0192 0E       		.uleb128 0xe
 2092 0193 3A       		.uleb128 0x3a
 2093 0194 0B       		.uleb128 0xb
 2094 0195 3B       		.uleb128 0x3b
 2095 0196 0B       		.uleb128 0xb
 2096 0197 49       		.uleb128 0x49
 2097 0198 13       		.uleb128 0x13
 2098 0199 02       		.uleb128 0x2
 2099 019a 18       		.uleb128 0x18
 2100 019b 00       		.byte	0
 2101 019c 00       		.byte	0
 2102 019d 21       		.uleb128 0x21
 2103 019e 05       		.uleb128 0x5
 2104 019f 00       		.byte	0
 2105 01a0 03       		.uleb128 0x3
 2106 01a1 08       		.uleb128 0x8
 2107 01a2 3A       		.uleb128 0x3a
 2108 01a3 0B       		.uleb128 0xb
 2109 01a4 3B       		.uleb128 0x3b
ARM GAS  /tmp/ccNs8WS0.s 			page 38


 2110 01a5 0B       		.uleb128 0xb
 2111 01a6 49       		.uleb128 0x49
 2112 01a7 13       		.uleb128 0x13
 2113 01a8 02       		.uleb128 0x2
 2114 01a9 18       		.uleb128 0x18
 2115 01aa 00       		.byte	0
 2116 01ab 00       		.byte	0
 2117 01ac 22       		.uleb128 0x22
 2118 01ad 05       		.uleb128 0x5
 2119 01ae 00       		.byte	0
 2120 01af 03       		.uleb128 0x3
 2121 01b0 0E       		.uleb128 0xe
 2122 01b1 3A       		.uleb128 0x3a
 2123 01b2 0B       		.uleb128 0xb
 2124 01b3 3B       		.uleb128 0x3b
 2125 01b4 0B       		.uleb128 0xb
 2126 01b5 49       		.uleb128 0x49
 2127 01b6 13       		.uleb128 0x13
 2128 01b7 02       		.uleb128 0x2
 2129 01b8 17       		.uleb128 0x17
 2130 01b9 00       		.byte	0
 2131 01ba 00       		.byte	0
 2132 01bb 23       		.uleb128 0x23
 2133 01bc 34       		.uleb128 0x34
 2134 01bd 00       		.byte	0
 2135 01be 03       		.uleb128 0x3
 2136 01bf 08       		.uleb128 0x8
 2137 01c0 3A       		.uleb128 0x3a
 2138 01c1 0B       		.uleb128 0xb
 2139 01c2 3B       		.uleb128 0x3b
 2140 01c3 0B       		.uleb128 0xb
 2141 01c4 49       		.uleb128 0x49
 2142 01c5 13       		.uleb128 0x13
 2143 01c6 02       		.uleb128 0x2
 2144 01c7 17       		.uleb128 0x17
 2145 01c8 00       		.byte	0
 2146 01c9 00       		.byte	0
 2147 01ca 24       		.uleb128 0x24
 2148 01cb 898201   		.uleb128 0x4109
 2149 01ce 01       		.byte	0x1
 2150 01cf 11       		.uleb128 0x11
 2151 01d0 01       		.uleb128 0x1
 2152 01d1 31       		.uleb128 0x31
 2153 01d2 13       		.uleb128 0x13
 2154 01d3 00       		.byte	0
 2155 01d4 00       		.byte	0
 2156 01d5 25       		.uleb128 0x25
 2157 01d6 8A8201   		.uleb128 0x410a
 2158 01d9 00       		.byte	0
 2159 01da 02       		.uleb128 0x2
 2160 01db 18       		.uleb128 0x18
 2161 01dc 9142     		.uleb128 0x2111
 2162 01de 18       		.uleb128 0x18
 2163 01df 00       		.byte	0
 2164 01e0 00       		.byte	0
 2165 01e1 26       		.uleb128 0x26
 2166 01e2 2E       		.uleb128 0x2e
ARM GAS  /tmp/ccNs8WS0.s 			page 39


 2167 01e3 01       		.byte	0x1
 2168 01e4 3F       		.uleb128 0x3f
 2169 01e5 19       		.uleb128 0x19
 2170 01e6 03       		.uleb128 0x3
 2171 01e7 0E       		.uleb128 0xe
 2172 01e8 3A       		.uleb128 0x3a
 2173 01e9 0B       		.uleb128 0xb
 2174 01ea 3B       		.uleb128 0x3b
 2175 01eb 0B       		.uleb128 0xb
 2176 01ec 27       		.uleb128 0x27
 2177 01ed 19       		.uleb128 0x19
 2178 01ee 49       		.uleb128 0x49
 2179 01ef 13       		.uleb128 0x13
 2180 01f0 3C       		.uleb128 0x3c
 2181 01f1 19       		.uleb128 0x19
 2182 01f2 01       		.uleb128 0x1
 2183 01f3 13       		.uleb128 0x13
 2184 01f4 00       		.byte	0
 2185 01f5 00       		.byte	0
 2186 01f6 27       		.uleb128 0x27
 2187 01f7 2E       		.uleb128 0x2e
 2188 01f8 01       		.byte	0x1
 2189 01f9 3F       		.uleb128 0x3f
 2190 01fa 19       		.uleb128 0x19
 2191 01fb 03       		.uleb128 0x3
 2192 01fc 0E       		.uleb128 0xe
 2193 01fd 27       		.uleb128 0x27
 2194 01fe 19       		.uleb128 0x19
 2195 01ff 49       		.uleb128 0x49
 2196 0200 13       		.uleb128 0x13
 2197 0201 34       		.uleb128 0x34
 2198 0202 19       		.uleb128 0x19
 2199 0203 3C       		.uleb128 0x3c
 2200 0204 19       		.uleb128 0x19
 2201 0205 00       		.byte	0
 2202 0206 00       		.byte	0
 2203 0207 00       		.byte	0
 2204              		.section	.debug_loc,"",%progbits
 2205              	.Ldebug_loc0:
 2206              	.LLST0:
 2207 0000 00000000 		.4byte	.LVL0
 2208 0004 06000000 		.4byte	.LVL2
 2209 0008 0100     		.2byte	0x1
 2210 000a 50       		.byte	0x50
 2211 000b 06000000 		.4byte	.LVL2
 2212 000f 0A000000 		.4byte	.LFE7
 2213 0013 0400     		.2byte	0x4
 2214 0015 F3       		.byte	0xf3
 2215 0016 01       		.uleb128 0x1
 2216 0017 50       		.byte	0x50
 2217 0018 9F       		.byte	0x9f
 2218 0019 00000000 		.4byte	0
 2219 001d 00000000 		.4byte	0
 2220              	.LLST1:
 2221 0021 00000000 		.4byte	.LVL0
 2222 0025 02000000 		.4byte	.LVL1
 2223 0029 0100     		.2byte	0x1
ARM GAS  /tmp/ccNs8WS0.s 			page 40


 2224 002b 53       		.byte	0x53
 2225 002c 02000000 		.4byte	.LVL1
 2226 0030 0A000000 		.4byte	.LFE7
 2227 0034 0400     		.2byte	0x4
 2228 0036 F3       		.byte	0xf3
 2229 0037 01       		.uleb128 0x1
 2230 0038 53       		.byte	0x53
 2231 0039 9F       		.byte	0x9f
 2232 003a 00000000 		.4byte	0
 2233 003e 00000000 		.4byte	0
 2234              	.LLST2:
 2235 0042 00000000 		.4byte	.LVL3
 2236 0046 02000000 		.4byte	.LVL4
 2237 004a 0100     		.2byte	0x1
 2238 004c 50       		.byte	0x50
 2239 004d 02000000 		.4byte	.LVL4
 2240 0051 04000000 		.4byte	.LFE8
 2241 0055 0400     		.2byte	0x4
 2242 0057 F3       		.byte	0xf3
 2243 0058 01       		.uleb128 0x1
 2244 0059 50       		.byte	0x50
 2245 005a 9F       		.byte	0x9f
 2246 005b 00000000 		.4byte	0
 2247 005f 00000000 		.4byte	0
 2248              	.LLST3:
 2249 0063 00000000 		.4byte	.LVL5
 2250 0067 02000000 		.4byte	.LVL6
 2251 006b 0100     		.2byte	0x1
 2252 006d 50       		.byte	0x50
 2253 006e 02000000 		.4byte	.LVL6
 2254 0072 04000000 		.4byte	.LFE9
 2255 0076 0400     		.2byte	0x4
 2256 0078 F3       		.byte	0xf3
 2257 0079 01       		.uleb128 0x1
 2258 007a 50       		.byte	0x50
 2259 007b 9F       		.byte	0x9f
 2260 007c 00000000 		.4byte	0
 2261 0080 00000000 		.4byte	0
 2262              	.LLST4:
 2263 0084 00000000 		.4byte	.LVL7
 2264 0088 02000000 		.4byte	.LVL8
 2265 008c 0100     		.2byte	0x1
 2266 008e 50       		.byte	0x50
 2267 008f 02000000 		.4byte	.LVL8
 2268 0093 04000000 		.4byte	.LFE10
 2269 0097 0400     		.2byte	0x4
 2270 0099 F3       		.byte	0xf3
 2271 009a 01       		.uleb128 0x1
 2272 009b 50       		.byte	0x50
 2273 009c 9F       		.byte	0x9f
 2274 009d 00000000 		.4byte	0
 2275 00a1 00000000 		.4byte	0
 2276              	.LLST5:
 2277 00a5 00000000 		.4byte	.LVL9
 2278 00a9 06000000 		.4byte	.LVL10
 2279 00ad 0100     		.2byte	0x1
 2280 00af 50       		.byte	0x50
ARM GAS  /tmp/ccNs8WS0.s 			page 41


 2281 00b0 06000000 		.4byte	.LVL10
 2282 00b4 18000000 		.4byte	.LVL14
 2283 00b8 0100     		.2byte	0x1
 2284 00ba 54       		.byte	0x54
 2285 00bb 18000000 		.4byte	.LVL14
 2286 00bf 1A000000 		.4byte	.LFE11
 2287 00c3 0400     		.2byte	0x4
 2288 00c5 F3       		.byte	0xf3
 2289 00c6 01       		.uleb128 0x1
 2290 00c7 50       		.byte	0x50
 2291 00c8 9F       		.byte	0x9f
 2292 00c9 00000000 		.4byte	0
 2293 00cd 00000000 		.4byte	0
 2294              	.LLST6:
 2295 00d1 00000000 		.4byte	.LVL9
 2296 00d5 09000000 		.4byte	.LVL11-1
 2297 00d9 0100     		.2byte	0x1
 2298 00db 51       		.byte	0x51
 2299 00dc 09000000 		.4byte	.LVL11-1
 2300 00e0 1A000000 		.4byte	.LFE11
 2301 00e4 0400     		.2byte	0x4
 2302 00e6 F3       		.byte	0xf3
 2303 00e7 01       		.uleb128 0x1
 2304 00e8 51       		.byte	0x51
 2305 00e9 9F       		.byte	0x9f
 2306 00ea 00000000 		.4byte	0
 2307 00ee 00000000 		.4byte	0
 2308              	.LLST7:
 2309 00f2 0C000000 		.4byte	.LVL12
 2310 00f6 16000000 		.4byte	.LVL13
 2311 00fa 0100     		.2byte	0x1
 2312 00fc 50       		.byte	0x50
 2313 00fd 00000000 		.4byte	0
 2314 0101 00000000 		.4byte	0
 2315              	.LLST8:
 2316 0105 00000000 		.4byte	.LVL15
 2317 0109 06000000 		.4byte	.LVL16
 2318 010d 0100     		.2byte	0x1
 2319 010f 50       		.byte	0x50
 2320 0110 06000000 		.4byte	.LVL16
 2321 0114 18000000 		.4byte	.LFE12
 2322 0118 0400     		.2byte	0x4
 2323 011a F3       		.byte	0xf3
 2324 011b 01       		.uleb128 0x1
 2325 011c 50       		.byte	0x50
 2326 011d 9F       		.byte	0x9f
 2327 011e 00000000 		.4byte	0
 2328 0122 00000000 		.4byte	0
 2329              	.LLST9:
 2330 0126 00000000 		.4byte	.LVL15
 2331 012a 08000000 		.4byte	.LVL17
 2332 012e 0100     		.2byte	0x1
 2333 0130 51       		.byte	0x51
 2334 0131 08000000 		.4byte	.LVL17
 2335 0135 18000000 		.4byte	.LFE12
 2336 0139 0400     		.2byte	0x4
 2337 013b F3       		.byte	0xf3
ARM GAS  /tmp/ccNs8WS0.s 			page 42


 2338 013c 01       		.uleb128 0x1
 2339 013d 51       		.byte	0x51
 2340 013e 9F       		.byte	0x9f
 2341 013f 00000000 		.4byte	0
 2342 0143 00000000 		.4byte	0
 2343              	.LLST10:
 2344 0147 00000000 		.4byte	.LVL15
 2345 014b 0A000000 		.4byte	.LVL18
 2346 014f 0100     		.2byte	0x1
 2347 0151 52       		.byte	0x52
 2348 0152 0A000000 		.4byte	.LVL18
 2349 0156 0D000000 		.4byte	.LVL19-1
 2350 015a 0100     		.2byte	0x1
 2351 015c 50       		.byte	0x50
 2352 015d 0D000000 		.4byte	.LVL19-1
 2353 0161 16000000 		.4byte	.LVL20
 2354 0165 0100     		.2byte	0x1
 2355 0167 54       		.byte	0x54
 2356 0168 16000000 		.4byte	.LVL20
 2357 016c 18000000 		.4byte	.LFE12
 2358 0170 0400     		.2byte	0x4
 2359 0172 F3       		.byte	0xf3
 2360 0173 01       		.uleb128 0x1
 2361 0174 52       		.byte	0x52
 2362 0175 9F       		.byte	0x9f
 2363 0176 00000000 		.4byte	0
 2364 017a 00000000 		.4byte	0
 2365              	.LLST11:
 2366 017e 00000000 		.4byte	.LVL21
 2367 0182 02000000 		.4byte	.LVL22
 2368 0186 0100     		.2byte	0x1
 2369 0188 50       		.byte	0x50
 2370 0189 02000000 		.4byte	.LVL22
 2371 018d 04000000 		.4byte	.LFE13
 2372 0191 0400     		.2byte	0x4
 2373 0193 F3       		.byte	0xf3
 2374 0194 01       		.uleb128 0x1
 2375 0195 50       		.byte	0x50
 2376 0196 9F       		.byte	0x9f
 2377 0197 00000000 		.4byte	0
 2378 019b 00000000 		.4byte	0
 2379              		.section	.debug_aranges,"",%progbits
 2380 0000 4C000000 		.4byte	0x4c
 2381 0004 0200     		.2byte	0x2
 2382 0006 00000000 		.4byte	.Ldebug_info0
 2383 000a 04       		.byte	0x4
 2384 000b 00       		.byte	0
 2385 000c 0000     		.2byte	0
 2386 000e 0000     		.2byte	0
 2387 0010 00000000 		.4byte	.LFB7
 2388 0014 0A000000 		.4byte	.LFE7-.LFB7
 2389 0018 00000000 		.4byte	.LFB8
 2390 001c 04000000 		.4byte	.LFE8-.LFB8
 2391 0020 00000000 		.4byte	.LFB9
 2392 0024 04000000 		.4byte	.LFE9-.LFB9
 2393 0028 00000000 		.4byte	.LFB10
 2394 002c 04000000 		.4byte	.LFE10-.LFB10
ARM GAS  /tmp/ccNs8WS0.s 			page 43


 2395 0030 00000000 		.4byte	.LFB11
 2396 0034 1A000000 		.4byte	.LFE11-.LFB11
 2397 0038 00000000 		.4byte	.LFB12
 2398 003c 18000000 		.4byte	.LFE12-.LFB12
 2399 0040 00000000 		.4byte	.LFB13
 2400 0044 04000000 		.4byte	.LFE13-.LFB13
 2401 0048 00000000 		.4byte	0
 2402 004c 00000000 		.4byte	0
 2403              		.section	.debug_ranges,"",%progbits
 2404              	.Ldebug_ranges0:
 2405 0000 00000000 		.4byte	.LFB7
 2406 0004 0A000000 		.4byte	.LFE7
 2407 0008 00000000 		.4byte	.LFB8
 2408 000c 04000000 		.4byte	.LFE8
 2409 0010 00000000 		.4byte	.LFB9
 2410 0014 04000000 		.4byte	.LFE9
 2411 0018 00000000 		.4byte	.LFB10
 2412 001c 04000000 		.4byte	.LFE10
 2413 0020 00000000 		.4byte	.LFB11
 2414 0024 1A000000 		.4byte	.LFE11
 2415 0028 00000000 		.4byte	.LFB12
 2416 002c 18000000 		.4byte	.LFE12
 2417 0030 00000000 		.4byte	.LFB13
 2418 0034 04000000 		.4byte	.LFE13
 2419 0038 00000000 		.4byte	0
 2420 003c 00000000 		.4byte	0
 2421              		.section	.debug_line,"",%progbits
 2422              	.Ldebug_line0:
 2423 0000 D4010000 		.section	.debug_str,"MS",%progbits,1
 2423      02004B01 
 2423      00000201 
 2423      FB0E0D00 
 2423      01010101 
 2424              	.LASF40:
 2425 0000 5F6F6E5F 		.ascii	"_on_exit_args\000"
 2425      65786974 
 2425      5F617267 
 2425      7300
 2426              	.LASF108:
 2427 000e 5F776374 		.ascii	"_wctomb_state\000"
 2427      6F6D625F 
 2427      73746174 
 2427      6500
 2428              	.LASF157:
 2429 001c 5F697361 		.ascii	"_isatty_r\000"
 2429      7474795F 
 2429      7200
 2430              	.LASF105:
 2431 0026 5F723438 		.ascii	"_r48\000"
 2431      00
 2432              	.LASF152:
 2433 002b 5F777269 		.ascii	"_write_r\000"
 2433      74655F72 
 2433      00
 2434              	.LASF110:
 2435 0034 5F736967 		.ascii	"_signal_buf\000"
 2435      6E616C5F 
ARM GAS  /tmp/ccNs8WS0.s 			page 44


 2435      62756600 
 2436              	.LASF0:
 2437 0040 756E7369 		.ascii	"unsigned int\000"
 2437      676E6564 
 2437      20696E74 
 2437      00
 2438              	.LASF145:
 2439 004d 73745F62 		.ascii	"st_blksize\000"
 2439      6C6B7369 
 2439      7A6500
 2440              	.LASF54:
 2441 0058 5F6C6266 		.ascii	"_lbfsize\000"
 2441      73697A65 
 2441      00
 2442              	.LASF52:
 2443 0061 5F666C61 		.ascii	"_flags\000"
 2443      677300
 2444              	.LASF69:
 2445 0068 5F657272 		.ascii	"_errno\000"
 2445      6E6F00
 2446              	.LASF10:
 2447 006f 5F4C4F43 		.ascii	"_LOCK_RECURSIVE_T\000"
 2447      4B5F5245 
 2447      43555253 
 2447      4956455F 
 2447      5400
 2448              	.LASF56:
 2449 0081 5F726561 		.ascii	"_read\000"
 2449      6400
 2450              	.LASF112:
 2451 0087 5F6D6272 		.ascii	"_mbrlen_state\000"
 2451      6C656E5F 
 2451      73746174 
 2451      6500
 2452              	.LASF71:
 2453 0095 5F737464 		.ascii	"_stdout\000"
 2453      6F757400 
 2454              	.LASF15:
 2455 009d 5F66706F 		.ascii	"_fpos_t\000"
 2455      735F7400 
 2456              	.LASF47:
 2457 00a5 5F666E73 		.ascii	"_fns\000"
 2457      00
 2458              	.LASF55:
 2459 00aa 5F636F6F 		.ascii	"_cookie\000"
 2459      6B696500 
 2460              	.LASF29:
 2461 00b2 5F426967 		.ascii	"_Bigint\000"
 2461      696E7400 
 2462              	.LASF37:
 2463 00ba 5F5F746D 		.ascii	"__tm_wday\000"
 2463      5F776461 
 2463      7900
 2464              	.LASF79:
 2465 00c4 5F726573 		.ascii	"_result\000"
 2465      756C7400 
 2466              	.LASF123:
ARM GAS  /tmp/ccNs8WS0.s 			page 45


 2467 00cc 696E6F5F 		.ascii	"ino_t\000"
 2467      7400
 2468              	.LASF33:
 2469 00d2 5F5F746D 		.ascii	"__tm_hour\000"
 2469      5F686F75 
 2469      7200
 2470              	.LASF150:
 2471 00dc 5F726561 		.ascii	"_read_r\000"
 2471      645F7200 
 2472              	.LASF20:
 2473 00e4 5F5F636F 		.ascii	"__count\000"
 2473      756E7400 
 2474              	.LASF32:
 2475 00ec 5F5F746D 		.ascii	"__tm_min\000"
 2475      5F6D696E 
 2475      00
 2476              	.LASF118:
 2477 00f5 5F6E6578 		.ascii	"_nextf\000"
 2477      746600
 2478              	.LASF95:
 2479 00fc 5F72616E 		.ascii	"_rand48\000"
 2479      64343800 
 2480              	.LASF80:
 2481 0104 5F726573 		.ascii	"_result_k\000"
 2481      756C745F 
 2481      6B00
 2482              	.LASF8:
 2483 010e 6C6F6E67 		.ascii	"long long unsigned int\000"
 2483      206C6F6E 
 2483      6720756E 
 2483      7369676E 
 2483      65642069 
 2484              	.LASF146:
 2485 0125 73745F62 		.ascii	"st_blocks\000"
 2485      6C6F636B 
 2485      7300
 2486              	.LASF101:
 2487 012f 5F617363 		.ascii	"_asctime_buf\000"
 2487      74696D65 
 2487      5F627566 
 2487      00
 2488              	.LASF51:
 2489 013c 5F5F7346 		.ascii	"__sFILE\000"
 2489      494C4500 
 2490              	.LASF28:
 2491 0144 5F776473 		.ascii	"_wds\000"
 2491      00
 2492              	.LASF154:
 2493 0149 5F736272 		.ascii	"_sbrk_r\000"
 2493      6B5F7200 
 2494              	.LASF141:
 2495 0151 73745F6D 		.ascii	"st_mtime\000"
 2495      74696D65 
 2495      00
 2496              	.LASF91:
 2497 015a 5F5F4649 		.ascii	"__FILE\000"
 2497      4C4500
ARM GAS  /tmp/ccNs8WS0.s 			page 46


 2498              	.LASF63:
 2499 0161 5F6F6666 		.ascii	"_offset\000"
 2499      73657400 
 2500              	.LASF130:
 2501 0169 73746174 		.ascii	"stat\000"
 2501      00
 2502              	.LASF74:
 2503 016e 5F656D65 		.ascii	"_emergency\000"
 2503      7267656E 
 2503      637900
 2504              	.LASF131:
 2505 0179 73745F64 		.ascii	"st_dev\000"
 2505      657600
 2506              	.LASF9:
 2507 0180 73697A65 		.ascii	"size_t\000"
 2507      5F7400
 2508              	.LASF31:
 2509 0187 5F5F746D 		.ascii	"__tm_sec\000"
 2509      5F736563 
 2509      00
 2510              	.LASF38:
 2511 0190 5F5F746D 		.ascii	"__tm_yday\000"
 2511      5F796461 
 2511      7900
 2512              	.LASF73:
 2513 019a 5F696E63 		.ascii	"_inc\000"
 2513      00
 2514              	.LASF46:
 2515 019f 5F696E64 		.ascii	"_ind\000"
 2515      00
 2516              	.LASF136:
 2517 01a4 73745F67 		.ascii	"st_gid\000"
 2517      696400
 2518              	.LASF25:
 2519 01ab 5F6E6578 		.ascii	"_next\000"
 2519      7400
 2520              	.LASF133:
 2521 01b1 73745F6D 		.ascii	"st_mode\000"
 2521      6F646500 
 2522              	.LASF114:
 2523 01b9 5F6D6273 		.ascii	"_mbsrtowcs_state\000"
 2523      72746F77 
 2523      63735F73 
 2523      74617465 
 2523      00
 2524              	.LASF134:
 2525 01ca 73745F6E 		.ascii	"st_nlink\000"
 2525      6C696E6B 
 2525      00
 2526              	.LASF156:
 2527 01d3 5F667374 		.ascii	"_fstat_r\000"
 2527      61745F72 
 2527      00
 2528              	.LASF155:
 2529 01dc 696E6372 		.ascii	"incr\000"
 2529      00
 2530              	.LASF21:
ARM GAS  /tmp/ccNs8WS0.s 			page 47


 2531 01e1 5F5F7661 		.ascii	"__value\000"
 2531      6C756500 
 2532              	.LASF81:
 2533 01e9 5F703573 		.ascii	"_p5s\000"
 2533      00
 2534              	.LASF116:
 2535 01ee 5F776373 		.ascii	"_wcsrtombs_state\000"
 2535      72746F6D 
 2535      62735F73 
 2535      74617465 
 2535      00
 2536              	.LASF106:
 2537 01ff 5F6D626C 		.ascii	"_mblen_state\000"
 2537      656E5F73 
 2537      74617465 
 2537      00
 2538              	.LASF90:
 2539 020c 63686172 		.ascii	"char\000"
 2539      00
 2540              	.LASF34:
 2541 0211 5F5F746D 		.ascii	"__tm_mday\000"
 2541      5F6D6461 
 2541      7900
 2542              	.LASF87:
 2543 021b 5F736967 		.ascii	"_sig_func\000"
 2543      5F66756E 
 2543      6300
 2544              	.LASF113:
 2545 0225 5F6D6272 		.ascii	"_mbrtowc_state\000"
 2545      746F7763 
 2545      5F737461 
 2545      746500
 2546              	.LASF86:
 2547 0234 5F617465 		.ascii	"_atexit0\000"
 2547      78697430 
 2547      00
 2548              	.LASF135:
 2549 023d 73745F75 		.ascii	"st_uid\000"
 2549      696400
 2550              	.LASF23:
 2551 0244 5F666C6F 		.ascii	"_flock_t\000"
 2551      636B5F74 
 2551      00
 2552              	.LASF139:
 2553 024d 73745F61 		.ascii	"st_atime\000"
 2553      74696D65 
 2553      00
 2554              	.LASF149:
 2555 0256 66696C65 		.ascii	"file\000"
 2555      00
 2556              	.LASF17:
 2557 025b 5F5F7763 		.ascii	"__wch\000"
 2557      6800
 2558              	.LASF94:
 2559 0261 5F696F62 		.ascii	"_iobs\000"
 2559      7300
 2560              	.LASF121:
ARM GAS  /tmp/ccNs8WS0.s 			page 48


 2561 0267 74696D65 		.ascii	"time_t\000"
 2561      5F7400
 2562              	.LASF59:
 2563 026e 5F636C6F 		.ascii	"_close\000"
 2563      736500
 2564              	.LASF77:
 2565 0275 5F5F7364 		.ascii	"__sdidinit\000"
 2565      6964696E 
 2565      697400
 2566              	.LASF132:
 2567 0280 73745F69 		.ascii	"st_ino\000"
 2567      6E6F00
 2568              	.LASF70:
 2569 0287 5F737464 		.ascii	"_stdin\000"
 2569      696E00
 2570              	.LASF103:
 2571 028e 5F67616D 		.ascii	"_gamma_signgam\000"
 2571      6D615F73 
 2571      69676E67 
 2571      616D00
 2572              	.LASF7:
 2573 029d 6C6F6E67 		.ascii	"long long int\000"
 2573      206C6F6E 
 2573      6720696E 
 2573      7400
 2574              	.LASF161:
 2575 02ab 6368436F 		.ascii	"chCoreAlloc\000"
 2575      7265416C 
 2575      6C6F6300 
 2576              	.LASF49:
 2577 02b7 5F626173 		.ascii	"_base\000"
 2577      6500
 2578              	.LASF82:
 2579 02bd 5F667265 		.ascii	"_freelist\000"
 2579      656C6973 
 2579      7400
 2580              	.LASF12:
 2581 02c7 5F5F6465 		.ascii	"__dev_t\000"
 2581      765F7400 
 2582              	.LASF97:
 2583 02cf 5F6D756C 		.ascii	"_mult\000"
 2583      7400
 2584              	.LASF24:
 2585 02d5 5F5F554C 		.ascii	"__ULong\000"
 2585      6F6E6700 
 2586              	.LASF115:
 2587 02dd 5F776372 		.ascii	"_wcrtomb_state\000"
 2587      746F6D62 
 2587      5F737461 
 2587      746500
 2588              	.LASF126:
 2589 02ec 7569645F 		.ascii	"uid_t\000"
 2589      7400
 2590              	.LASF125:
 2591 02f2 6465765F 		.ascii	"dev_t\000"
 2591      7400
 2592              	.LASF53:
ARM GAS  /tmp/ccNs8WS0.s 			page 49


 2593 02f8 5F66696C 		.ascii	"_file\000"
 2593      6500
 2594              	.LASF162:
 2595 02fe 6D656D73 		.ascii	"memset\000"
 2595      657400
 2596              	.LASF78:
 2597 0305 5F5F636C 		.ascii	"__cleanup\000"
 2597      65616E75 
 2597      7000
 2598              	.LASF22:
 2599 030f 5F6D6273 		.ascii	"_mbstate_t\000"
 2599      74617465 
 2599      5F7400
 2600              	.LASF39:
 2601 031a 5F5F746D 		.ascii	"__tm_isdst\000"
 2601      5F697364 
 2601      737400
 2602              	.LASF117:
 2603 0325 5F685F65 		.ascii	"_h_errno\000"
 2603      72726E6F 
 2603      00
 2604              	.LASF140:
 2605 032e 73745F73 		.ascii	"st_spare1\000"
 2605      70617265 
 2605      3100
 2606              	.LASF142:
 2607 0338 73745F73 		.ascii	"st_spare2\000"
 2607      70617265 
 2607      3200
 2608              	.LASF144:
 2609 0342 73745F73 		.ascii	"st_spare3\000"
 2609      70617265 
 2609      3300
 2610              	.LASF147:
 2611 034c 73745F73 		.ascii	"st_spare4\000"
 2611      70617265 
 2611      3400
 2612              	.LASF153:
 2613 0356 5F636C6F 		.ascii	"_close_r\000"
 2613      73655F72 
 2613      00
 2614              	.LASF148:
 2615 035f 5F426F6F 		.ascii	"_Bool\000"
 2615      6C00
 2616              	.LASF35:
 2617 0365 5F5F746D 		.ascii	"__tm_mon\000"
 2617      5F6D6F6E 
 2617      00
 2618              	.LASF151:
 2619 036e 5F6C7365 		.ascii	"_lseek_r\000"
 2619      656B5F72 
 2619      00
 2620              	.LASF158:
 2621 0377 474E5520 		.ascii	"GNU C 4.8.4 20140526 (release) [ARM/embedded-4_8-br"
 2621      4320342E 
 2621      382E3420 
 2621      32303134 
ARM GAS  /tmp/ccNs8WS0.s 			page 50


 2621      30353236 
 2622 03aa 616E6368 		.ascii	"anch revision 211358] -mcpu=cortex-m0 -mno-thumb-in"
 2622      20726576 
 2622      6973696F 
 2622      6E203231 
 2622      31333538 
 2623 03dd 74657277 		.ascii	"terwork -mthumb -ggdb -O1 -fomit-frame-pointer -ffu"
 2623      6F726B20 
 2623      2D6D7468 
 2623      756D6220 
 2623      2D676764 
 2624 0410 6E637469 		.ascii	"nction-sections -fdata-sections -fno-common\000"
 2624      6F6E2D73 
 2624      65637469 
 2624      6F6E7320 
 2624      2D666461 
 2625              	.LASF14:
 2626 043c 5F5F6769 		.ascii	"__gid_t\000"
 2626      645F7400 
 2627              	.LASF57:
 2628 0444 5F777269 		.ascii	"_write\000"
 2628      746500
 2629              	.LASF127:
 2630 044b 6769645F 		.ascii	"gid_t\000"
 2630      7400
 2631              	.LASF45:
 2632 0451 5F617465 		.ascii	"_atexit\000"
 2632      78697400 
 2633              	.LASF66:
 2634 0459 5F6D6273 		.ascii	"_mbstate\000"
 2634      74617465 
 2634      00
 2635              	.LASF3:
 2636 0462 73686F72 		.ascii	"short int\000"
 2636      7420696E 
 2636      7400
 2637              	.LASF5:
 2638 046c 6C6F6E67 		.ascii	"long int\000"
 2638      20696E74 
 2638      00
 2639              	.LASF89:
 2640 0475 5F5F7366 		.ascii	"__sf\000"
 2640      00
 2641              	.LASF27:
 2642 047a 5F736967 		.ascii	"_sign\000"
 2642      6E00
 2643              	.LASF76:
 2644 0480 5F637572 		.ascii	"_current_locale\000"
 2644      72656E74 
 2644      5F6C6F63 
 2644      616C6500 
 2645              	.LASF64:
 2646 0490 5F646174 		.ascii	"_data\000"
 2646      6100
 2647              	.LASF18:
 2648 0496 5F5F7763 		.ascii	"__wchb\000"
 2648      686200
ARM GAS  /tmp/ccNs8WS0.s 			page 51


 2649              	.LASF36:
 2650 049d 5F5F746D 		.ascii	"__tm_year\000"
 2650      5F796561 
 2650      7200
 2651              	.LASF159:
 2652 04a7 43686962 		.ascii	"ChibiOS_2.6.5/os/various/syscalls.c\000"
 2652      694F535F 
 2652      322E362E 
 2652      352F6F73 
 2652      2F766172 
 2653              	.LASF102:
 2654 04cb 5F6C6F63 		.ascii	"_localtime_buf\000"
 2654      616C7469 
 2654      6D655F62 
 2654      756600
 2655              	.LASF13:
 2656 04da 5F5F7569 		.ascii	"__uid_t\000"
 2656      645F7400 
 2657              	.LASF143:
 2658 04e2 73745F63 		.ascii	"st_ctime\000"
 2658      74696D65 
 2658      00
 2659              	.LASF85:
 2660 04eb 5F6E6577 		.ascii	"_new\000"
 2660      00
 2661              	.LASF83:
 2662 04f0 5F637674 		.ascii	"_cvtlen\000"
 2662      6C656E00 
 2663              	.LASF26:
 2664 04f8 5F6D6178 		.ascii	"_maxwds\000"
 2664      77647300 
 2665              	.LASF109:
 2666 0500 5F6C3634 		.ascii	"_l64a_buf\000"
 2666      615F6275 
 2666      6600
 2667              	.LASF75:
 2668 050a 5F637572 		.ascii	"_current_category\000"
 2668      72656E74 
 2668      5F636174 
 2668      65676F72 
 2668      7900
 2669              	.LASF122:
 2670 051c 63616464 		.ascii	"caddr_t\000"
 2670      725F7400 
 2671              	.LASF62:
 2672 0524 5F626C6B 		.ascii	"_blksize\000"
 2672      73697A65 
 2672      00
 2673              	.LASF30:
 2674 052d 5F5F746D 		.ascii	"__tm\000"
 2674      00
 2675              	.LASF65:
 2676 0532 5F6C6F63 		.ascii	"_lock\000"
 2676      6B00
 2677              	.LASF160:
 2678 0538 2F484444 		.ascii	"/HDD/GIT/variometer/Altimeter/\000"
 2678      2F474954 
ARM GAS  /tmp/ccNs8WS0.s 			page 52


 2678      2F766172 
 2678      696F6D65 
 2678      7465722F 
 2679              	.LASF19:
 2680 0557 73697A65 		.ascii	"sizetype\000"
 2680      74797065 
 2680      00
 2681              	.LASF6:
 2682 0560 6C6F6E67 		.ascii	"long unsigned int\000"
 2682      20756E73 
 2682      69676E65 
 2682      6420696E 
 2682      7400
 2683              	.LASF93:
 2684 0572 5F6E696F 		.ascii	"_niobs\000"
 2684      627300
 2685              	.LASF16:
 2686 0579 77696E74 		.ascii	"wint_t\000"
 2686      5F7400
 2687              	.LASF42:
 2688 0580 5F64736F 		.ascii	"_dso_handle\000"
 2688      5F68616E 
 2688      646C6500 
 2689              	.LASF129:
 2690 058c 6E6C696E 		.ascii	"nlink_t\000"
 2690      6B5F7400 
 2691              	.LASF84:
 2692 0594 5F637674 		.ascii	"_cvtbuf\000"
 2692      62756600 
 2693              	.LASF2:
 2694 059c 756E7369 		.ascii	"unsigned char\000"
 2694      676E6564 
 2694      20636861 
 2694      7200
 2695              	.LASF111:
 2696 05aa 5F676574 		.ascii	"_getdate_err\000"
 2696      64617465 
 2696      5F657272 
 2696      00
 2697              	.LASF98:
 2698 05b7 5F616464 		.ascii	"_add\000"
 2698      00
 2699              	.LASF120:
 2700 05bc 5F756E75 		.ascii	"_unused\000"
 2700      73656400 
 2701              	.LASF48:
 2702 05c4 5F5F7362 		.ascii	"__sbuf\000"
 2702      756600
 2703              	.LASF138:
 2704 05cb 73745F73 		.ascii	"st_size\000"
 2704      697A6500 
 2705              	.LASF92:
 2706 05d3 5F676C75 		.ascii	"_glue\000"
 2706      6500
 2707              	.LASF88:
 2708 05d9 5F5F7367 		.ascii	"__sglue\000"
 2708      6C756500 
ARM GAS  /tmp/ccNs8WS0.s 			page 53


 2709              	.LASF100:
 2710 05e1 5F737472 		.ascii	"_strtok_last\000"
 2710      746F6B5F 
 2710      6C617374 
 2710      00
 2711              	.LASF107:
 2712 05ee 5F6D6274 		.ascii	"_mbtowc_state\000"
 2712      6F77635F 
 2712      73746174 
 2712      6500
 2713              	.LASF41:
 2714 05fc 5F666E61 		.ascii	"_fnargs\000"
 2714      72677300 
 2715              	.LASF1:
 2716 0604 7369676E 		.ascii	"signed char\000"
 2716      65642063 
 2716      68617200 
 2717              	.LASF128:
 2718 0610 6D6F6465 		.ascii	"mode_t\000"
 2718      5F7400
 2719              	.LASF68:
 2720 0617 5F726565 		.ascii	"_reent\000"
 2720      6E7400
 2721              	.LASF124:
 2722 061e 6F66665F 		.ascii	"off_t\000"
 2722      7400
 2723              	.LASF4:
 2724 0624 73686F72 		.ascii	"short unsigned int\000"
 2724      7420756E 
 2724      7369676E 
 2724      65642069 
 2724      6E7400
 2725              	.LASF43:
 2726 0637 5F666E74 		.ascii	"_fntypes\000"
 2726      79706573 
 2726      00
 2727              	.LASF50:
 2728 0640 5F73697A 		.ascii	"_size\000"
 2728      6500
 2729              	.LASF11:
 2730 0646 5F6F6666 		.ascii	"_off_t\000"
 2730      5F7400
 2731              	.LASF61:
 2732 064d 5F6E6275 		.ascii	"_nbuf\000"
 2732      6600
 2733              	.LASF99:
 2734 0653 5F756E75 		.ascii	"_unused_rand\000"
 2734      7365645F 
 2734      72616E64 
 2734      00
 2735              	.LASF137:
 2736 0660 73745F72 		.ascii	"st_rdev\000"
 2736      64657600 
 2737              	.LASF67:
 2738 0668 5F666C61 		.ascii	"_flags2\000"
 2738      67733200 
 2739              	.LASF44:
ARM GAS  /tmp/ccNs8WS0.s 			page 54


 2740 0670 5F69735F 		.ascii	"_is_cxa\000"
 2740      63786100 
 2741              	.LASF96:
 2742 0678 5F736565 		.ascii	"_seed\000"
 2742      6400
 2743              	.LASF104:
 2744 067e 5F72616E 		.ascii	"_rand_next\000"
 2744      645F6E65 
 2744      787400
 2745              	.LASF58:
 2746 0689 5F736565 		.ascii	"_seek\000"
 2746      6B00
 2747              	.LASF72:
 2748 068f 5F737464 		.ascii	"_stderr\000"
 2748      65727200 
 2749              	.LASF119:
 2750 0697 5F6E6D61 		.ascii	"_nmalloc\000"
 2750      6C6C6F63 
 2750      00
 2751              	.LASF60:
 2752 06a0 5F756275 		.ascii	"_ubuf\000"
 2752      6600
 2753              		.ident	"GCC: (GNU Tools for ARM Embedded Processors) 4.8.4 20140526 (release) [ARM/embedded-4_8-br
ARM GAS  /tmp/ccNs8WS0.s 			page 55


DEFINED SYMBOLS
                            *ABS*:00000000 syscalls.c
     /tmp/ccNs8WS0.s:18     .text._read_r:00000000 $t
     /tmp/ccNs8WS0.s:23     .text._read_r:00000000 _read_r
     /tmp/ccNs8WS0.s:44     .text._lseek_r:00000000 $t
     /tmp/ccNs8WS0.s:49     .text._lseek_r:00000000 _lseek_r
     /tmp/ccNs8WS0.s:63     .text._write_r:00000000 $t
     /tmp/ccNs8WS0.s:68     .text._write_r:00000000 _write_r
     /tmp/ccNs8WS0.s:82     .text._close_r:00000000 $t
     /tmp/ccNs8WS0.s:87     .text._close_r:00000000 _close_r
     /tmp/ccNs8WS0.s:101    .text._sbrk_r:00000000 $t
     /tmp/ccNs8WS0.s:106    .text._sbrk_r:00000000 _sbrk_r
     /tmp/ccNs8WS0.s:142    .text._fstat_r:00000000 $t
     /tmp/ccNs8WS0.s:147    .text._fstat_r:00000000 _fstat_r
     /tmp/ccNs8WS0.s:179    .text._isatty_r:00000000 $t
     /tmp/ccNs8WS0.s:184    .text._isatty_r:00000000 _isatty_r
                     .debug_frame:00000010 $d

UNDEFINED SYMBOLS
chCoreAlloc
memset
