ARM GAS  /tmp/ccNs8WS0.s 			page 1


   1              		.cpu cortex-m0
   2              		.fpu softvfp
   3              		.eabi_attribute 20, 1
   4              		.eabi_attribute 21, 1
   5              		.eabi_attribute 23, 3
   6              		.eabi_attribute 24, 1
   7              		.eabi_attribute 25, 1
   8              		.eabi_attribute 26, 1
   9              		.eabi_attribute 30, 1
  10              		.eabi_attribute 34, 0
  11              		.eabi_attribute 18, 4
  12              		.code	16
  13              		.file	"syscalls.c"
  14              		.text
  15              	.Ltext0:
  16              		.cfi_sections	.debug_frame
  17              		.section	.text._read_r,"ax",%progbits
  18              		.align	2
  19              		.global	_read_r
  20              		.code	16
  21              		.thumb_func
  22              		.type	_read_r, %function
  23              	_read_r:
  24              	.LFB7:
  25              		.file 1 "ChibiOS_2.6.5/os/various/syscalls.c"
  26              		.loc 1 76 0
  27              		.cfi_startproc
  28              	.LVL0:
  29              		.loc 1 89 0
  30 0000 1623     		mov	r3, #22
  31              	.LVL1:
  32 0002 0360     		str	r3, [r0]
  33              		.loc 1 90 0
  34 0004 0120     		mov	r0, #1
  35              	.LVL2:
  36              		.loc 1 92 0
  37 0006 4042     		neg	r0, r0
  38              		@ sp needed
  39 0008 7047     		bx	lr
  40              		.cfi_endproc
  41              	.LFE7:
  42              		.size	_read_r, .-_read_r
  43 000a C046     		.section	.text._lseek_r,"ax",%progbits
  44              		.align	2
  45              		.global	_lseek_r
  46              		.code	16
  47              		.thumb_func
  48              		.type	_lseek_r, %function
  49              	_lseek_r:
  50              	.LFB8:
  51              		.loc 1 97 0
  52              		.cfi_startproc
  53              	.LVL3:
  54              		.loc 1 104 0
  55 0000 0020     		mov	r0, #0
  56              	.LVL4:
  57              		@ sp needed
ARM GAS  /tmp/ccNs8WS0.s 			page 2


  58 0002 7047     		bx	lr
  59              		.cfi_endproc
  60              	.LFE8:
  61              		.size	_lseek_r, .-_lseek_r
  62              		.section	.text._write_r,"ax",%progbits
  63              		.align	2
  64              		.global	_write_r
  65              		.code	16
  66              		.thumb_func
  67              		.type	_write_r, %function
  68              	_write_r:
  69              	.LFB9:
  70              		.loc 1 109 0
  71              		.cfi_startproc
  72              	.LVL5:
  73              		.loc 1 121 0
  74 0000 181C     		mov	r0, r3
  75              	.LVL6:
  76              		@ sp needed
  77 0002 7047     		bx	lr
  78              		.cfi_endproc
  79              	.LFE9:
  80              		.size	_write_r, .-_write_r
  81              		.section	.text._close_r,"ax",%progbits
  82              		.align	2
  83              		.global	_close_r
  84              		.code	16
  85              		.thumb_func
  86              		.type	_close_r, %function
  87              	_close_r:
  88              	.LFB10:
  89              		.loc 1 126 0
  90              		.cfi_startproc
  91              	.LVL7:
  92              		.loc 1 131 0
  93 0000 0020     		mov	r0, #0
  94              	.LVL8:
  95              		@ sp needed
  96 0002 7047     		bx	lr
  97              		.cfi_endproc
  98              	.LFE10:
  99              		.size	_close_r, .-_close_r
 100              		.section	.text._sbrk_r,"ax",%progbits
 101              		.align	2
 102              		.global	_sbrk_r
 103              		.code	16
 104              		.thumb_func
 105              		.type	_sbrk_r, %function
 106              	_sbrk_r:
 107              	.LFB11:
 108              		.loc 1 136 0
 109              		.cfi_startproc
 110              	.LVL9:
 111 0000 10B5     		push	{r4, lr}
 112              		.cfi_def_cfa_offset 8
 113              		.cfi_offset 4, -8
 114              		.cfi_offset 14, -4
ARM GAS  /tmp/ccNs8WS0.s 			page 3


 115 0002 041C     		mov	r4, r0
 116              		.loc 1 142 0
 117 0004 081C     		mov	r0, r1
 118              	.LVL10:
 119 0006 FFF7FEFF 		bl	chCoreAlloc
 120              	.LVL11:
 121 000a 031C     		mov	r3, r0
 122              	.LVL12:
 123              		.loc 1 143 0
 124 000c 002B     		cmp	r3, #0
 125 000e 03D1     		bne	.L6
 126              		.loc 1 144 0
 127 0010 0C23     		mov	r3, #12
 128 0012 2360     		str	r3, [r4]
 129              		.loc 1 145 0
 130 0014 0120     		mov	r0, #1
 131              	.LVL13:
 132 0016 4042     		neg	r0, r0
 133              	.L6:
 134              		.loc 1 153 0
 135              		@ sp needed
 136              	.LVL14:
 137 0018 10BD     		pop	{r4, pc}
 138              		.cfi_endproc
 139              	.LFE11:
 140              		.size	_sbrk_r, .-_sbrk_r
 141 001a C046     		.section	.text._fstat_r,"ax",%progbits
 142              		.align	2
 143              		.global	_fstat_r
 144              		.code	16
 145              		.thumb_func
 146              		.type	_fstat_r, %function
 147              	_fstat_r:
 148              	.LFB12:
 149              		.loc 1 158 0
 150              		.cfi_startproc
 151              	.LVL15:
 152 0000 10B5     		push	{r4, lr}
 153              		.cfi_def_cfa_offset 8
 154              		.cfi_offset 4, -8
 155              		.cfi_offset 14, -4
 156 0002 141C     		mov	r4, r2
 157              		.loc 1 162 0
 158 0004 101C     		mov	r0, r2
 159              	.LVL16:
 160 0006 0021     		mov	r1, #0
 161              	.LVL17:
 162 0008 3C22     		mov	r2, #60
 163              	.LVL18:
 164 000a FFF7FEFF 		bl	memset
 165              	.LVL19:
 166              		.loc 1 163 0
 167 000e 8023     		mov	r3, #128
 168 0010 9B01     		lsl	r3, r3, #6
 169 0012 6360     		str	r3, [r4, #4]
 170              		.loc 1 165 0
 171 0014 0020     		mov	r0, #0
ARM GAS  /tmp/ccNs8WS0.s 			page 4


 172              		@ sp needed
 173              	.LVL20:
 174 0016 10BD     		pop	{r4, pc}
 175              		.cfi_endproc
 176              	.LFE12:
 177              		.size	_fstat_r, .-_fstat_r
 178              		.section	.text._isatty_r,"ax",%progbits
 179              		.align	2
 180              		.global	_isatty_r
 181              		.code	16
 182              		.thumb_func
 183              		.type	_isatty_r, %function
 184              	_isatty_r:
 185              	.LFB13:
 186              		.loc 1 170 0
 187              		.cfi_startproc
 188              	.LVL21:
 189              		.loc 1 175 0
 190 0000 0120     		mov	r0, #1
 191              	.LVL22:
 192              		@ sp needed
 193 0002 7047     		bx	lr
 194              		.cfi_endproc
 195              	.LFE13:
 196              		.size	_isatty_r, .-_isatty_r
 197              		.text
 198              	.Letext0:
 199              		.file 2 "/usr/local/lpcxpresso_7.3.0_186/lpcxpresso/tools/lib/gcc/arm-none-eabi/4.8.4/include/stdd
 200              		.file 3 "/usr/local/lpcxpresso_7.3.0_186/lpcxpresso/tools/arm-none-eabi/include/sys/lock.h"
 201              		.file 4 "/usr/local/lpcxpresso_7.3.0_186/lpcxpresso/tools/arm-none-eabi/include/sys/_types.h"
 202              		.file 5 "/usr/local/lpcxpresso_7.3.0_186/lpcxpresso/tools/arm-none-eabi/include/sys/reent.h"
 203              		.file 6 "/usr/local/lpcxpresso_7.3.0_186/lpcxpresso/tools/arm-none-eabi/include/sys/types.h"
 204              		.file 7 "/usr/local/lpcxpresso_7.3.0_186/lpcxpresso/tools/arm-none-eabi/include/sys/stat.h"
 205              		.file 8 "ChibiOS_2.6.5/os/kernel/include/chmemcore.h"