ARM GAS  /tmp/ccIU6vRx.s 			page 1


   1              		.cpu cortex-m0
   2              		.fpu softvfp
   3              		.eabi_attribute 20, 1
   4              		.eabi_attribute 21, 1
   5              		.eabi_attribute 23, 3
   6              		.eabi_attribute 24, 1
   7              		.eabi_attribute 25, 1
   8              		.eabi_attribute 26, 1
   9              		.eabi_attribute 30, 1
  10              		.eabi_attribute 34, 0
  11              		.eabi_attribute 18, 4
  12              		.code	16
  13              		.file	"USBController.c"
  14              		.text
  15              	.Ltext0:
  16              		.cfi_sections	.debug_frame
  17              		.section	.text.USB_Disable,"ax",%progbits
  18              		.align	2
  19              		.global	USB_Disable
  20              		.code	16
  21              		.thumb_func
  22              		.type	USB_Disable, %function
  23              	USB_Disable:
  24              	.LFB98:
  25              		.file 1 "USBlib_11U14/Drivers/USB/Core/USBController.c"
  26              		.loc 1 56 0
  27              		.cfi_startproc
  28              	.LVL0:
  29 0000 10B5     		push	{r4, lr}
  30              		.cfi_def_cfa_offset 8
  31              		.cfi_offset 4, -8
  32              		.cfi_offset 14, -4
  33 0002 041C     		mov	r4, r0
  34              		.loc 1 57 0
  35 0004 0022     		mov	r2, #0
  36 0006 064B     		ldr	r3, .L3
  37 0008 1A70     		strb	r2, [r3]
  38              		.loc 1 58 0
  39 000a 0129     		cmp	r1, #1
  40 000c 06D1     		bne	.L1
  41              		.loc 1 60 0
  42 000e 0021     		mov	r1, #0
  43              	.LVL1:
  44 0010 FFF7FEFF 		bl	HAL_USBConnect
  45              	.LVL2:
  46              		.loc 1 61 0
  47 0014 201C     		mov	r0, r4
  48 0016 0121     		mov	r1, #1
  49 0018 FFF7FEFF 		bl	HAL_USBDeInit
  50              	.LVL3:
  51              	.L1:
  52              		.loc 1 80 0
  53              		@ sp needed
  54 001c 10BD     		pop	{r4, pc}
  55              	.L4:
  56 001e C046     		.align	2
  57              	.L3:
ARM GAS  /tmp/ccIU6vRx.s 			page 2


  58 0020 00000000 		.word	USB_IsInitialized
  59              		.cfi_endproc
  60              	.LFE98:
  61              		.size	USB_Disable, .-USB_Disable
  62              		.section	.text.USB_ResetInterface,"ax",%progbits
  63              		.align	2
  64              		.global	USB_ResetInterface
  65              		.code	16
  66              		.thumb_func
  67              		.type	USB_ResetInterface, %function
  68              	USB_ResetInterface:
  69              	.LFB99:
  70              		.loc 1 83 0
  71              		.cfi_startproc
  72              	.LVL4:
  73 0000 10B5     		push	{r4, lr}
  74              		.cfi_def_cfa_offset 8
  75              		.cfi_offset 4, -8
  76              		.cfi_offset 14, -4
  77 0002 82B0     		sub	sp, sp, #8
  78              		.cfi_def_cfa_offset 16
  79 0004 041C     		mov	r4, r0
  80              		.loc 1 84 0
  81 0006 0129     		cmp	r1, #1
  82 0008 16D1     		bne	.L5
  83              	.LVL5:
  84              	.LBB4:
  85              	.LBB5:
  86              		.loc 1 99 0
  87 000a 0023     		mov	r3, #0
  88 000c 0B4A     		ldr	r2, .L7
  89 000e 1354     		strb	r3, [r2, r0]
  90              		.loc 1 100 0
  91 0010 0B4A     		ldr	r2, .L7+4
  92 0012 1370     		strb	r3, [r2]
  93              		.loc 1 103 0
  94 0014 0B4A     		ldr	r2, .L7+8
  95 0016 1370     		strb	r3, [r2]
  96              		.loc 1 107 0
  97 0018 0B4A     		ldr	r2, .L7+12
  98 001a 1370     		strb	r3, [r2]
  99              		.loc 1 113 0
 100 001c 4022     		mov	r2, #64
 101 001e 0092     		str	r2, [sp]
 102 0020 0193     		str	r3, [sp, #4]
 103 0022 0021     		mov	r1, #0
 104              	.LVL6:
 105 0024 0022     		mov	r2, #0
 106 0026 FFF7FEFF 		bl	Endpoint_ConfigureEndpoint
 107              	.LVL7:
 108              		.loc 1 117 0
 109 002a 201C     		mov	r0, r4
 110 002c FFF7FEFF 		bl	HAL_EnableUSBInterrupt
 111              	.LVL8:
 112              		.loc 1 118 0
 113 0030 201C     		mov	r0, r4
 114 0032 0121     		mov	r1, #1
ARM GAS  /tmp/ccIU6vRx.s 			page 3


 115 0034 FFF7FEFF 		bl	HAL_USBConnect
 116              	.LVL9:
 117              	.L5:
 118              	.LBE5:
 119              	.LBE4:
 120              		.loc 1 94 0
 121 0038 02B0     		add	sp, sp, #8
 122              		@ sp needed
 123 003a 10BD     		pop	{r4, pc}
 124              	.L8:
 125              		.align	2
 126              	.L7:
 127 003c 00000000 		.word	USB_DeviceState
 128 0040 00000000 		.word	USB_Device_ConfigurationNumber
 129 0044 00000000 		.word	USB_Device_RemoteWakeupEnabled
 130 0048 00000000 		.word	USB_Device_CurrentlySelfPowered
 131              		.cfi_endproc
 132              	.LFE99:
 133              		.size	USB_ResetInterface, .-USB_ResetInterface
 134              		.section	.text.USB_Init,"ax",%progbits
 135              		.align	2
 136              		.global	USB_Init
 137              		.code	16
 138              		.thumb_func
 139              		.type	USB_Init, %function
 140              	USB_Init:
 141              	.LFB97:
 142              		.loc 1 41 0
 143              		.cfi_startproc
 144              	.LVL10:
 145 0000 38B5     		push	{r3, r4, r5, lr}
 146              		.cfi_def_cfa_offset 16
 147              		.cfi_offset 3, -16
 148              		.cfi_offset 4, -12
 149              		.cfi_offset 5, -8
 150              		.cfi_offset 14, -4
 151 0002 041C     		mov	r4, r0
 152 0004 0D1C     		mov	r5, r1
 153              		.loc 1 49 0
 154 0006 064B     		ldr	r3, .L10
 155 0008 1955     		strb	r1, [r3, r4]
 156              		.loc 1 50 0
 157 000a FFF7FEFF 		bl	HAL_USBInit
 158              	.LVL11:
 159              		.loc 1 51 0
 160 000e 201C     		mov	r0, r4
 161 0010 291C     		mov	r1, r5
 162 0012 FFF7FEFF 		bl	USB_ResetInterface
 163              	.LVL12:
 164              		.loc 1 52 0
 165 0016 0122     		mov	r2, #1
 166 0018 024B     		ldr	r3, .L10+4
 167 001a 1A70     		strb	r2, [r3]
 168              		.loc 1 53 0
 169              		@ sp needed
 170 001c 38BD     		pop	{r3, r4, r5, pc}
 171              	.L11:
ARM GAS  /tmp/ccIU6vRx.s 			page 4


 172 001e C046     		.align	2
 173              	.L10:
 174 0020 00000000 		.word	.LANCHOR0
 175 0024 00000000 		.word	USB_IsInitialized
 176              		.cfi_endproc
 177              	.LFE97:
 178              		.size	USB_Init, .-USB_Init
 179              		.global	Mem_IsInitialized
 180              		.global	USB_CurrentMode
 181              		.section	.bss.Mem_IsInitialized,"aw",%nobits
 182              		.type	Mem_IsInitialized, %object
 183              		.size	Mem_IsInitialized, 1
 184              	Mem_IsInitialized:
 185 0000 00       		.space	1
 186              		.section	.bss.USB_CurrentMode,"aw",%nobits
 187              		.align	2
 188              		.set	.LANCHOR0,. + 0
 189              		.type	USB_CurrentMode, %object
 190              		.size	USB_CurrentMode, 1
 191              	USB_CurrentMode:
 192 0000 00       		.space	1
 193 0001 000000   		.text
 194              	.Letext0:
 195              		.file 2 "/usr/local/lpcxpresso_7.3.0_186/lpcxpresso/tools/arm-none-eabi/include/machine/_default_t
 196              		.file 3 "/usr/local/lpcxpresso_7.3.0_186/lpcxpresso/tools/arm-none-eabi/include/stdint.h"
 197              		.file 4 "USBlib_11U14/Drivers/USB/Core/DCD/LPC11UXX/../../HAL/LPC11UXX/HAL_LPC11Uxx.h"
 198              		.file 5 "USBlib_11U14/Drivers/USB/Core/Device.h"
 199              		.file 6 "USBlib_11U14/Drivers/USB/Core/USBController.h"
 200              		.file 7 "USBlib_11U14/Drivers/USB/Core/DeviceStandardReq.h"
 201              		.file 8 "USBlib_11U14/Drivers/USB/Core/USBTask.h"
 202              		.file 9 "USBlib_11U14/Drivers/USB/Core/DCD/LPC11UXX/../EndpointCommon.h"
 203              		.file 10 "USBlib_11U14/Drivers/USB/Core/DCD/LPC11UXX/Endpoint_LPC11Uxx.h"
 204              		.file 11 "USBlib_11U14/Drivers/USB/Core/DCD/LPC11UXX/../../HAL/HAL.h"