ARM GAS  /tmp/ccmViwZE.s 			page 1


   1              		.cpu cortex-m0
   2              		.fpu softvfp
   3              		.eabi_attribute 20, 1
   4              		.eabi_attribute 21, 1
   5              		.eabi_attribute 23, 3
   6              		.eabi_attribute 24, 1
   7              		.eabi_attribute 25, 1
   8              		.eabi_attribute 26, 1
   9              		.eabi_attribute 30, 1
  10              		.eabi_attribute 34, 0
  11              		.eabi_attribute 18, 4
  12              		.code	16
  13              		.file	"USBTask.c"
  14              		.text
  15              	.Ltext0:
  16              		.cfi_sections	.debug_frame
  17              		.section	.text.USB_USBTask,"ax",%progbits
  18              		.align	2
  19              		.global	USB_USBTask
  20              		.code	16
  21              		.thumb_func
  22              		.type	USB_USBTask, %function
  23              	USB_USBTask:
  24              	.LFB97:
  25              		.file 1 "USBlib_11U14/Drivers/USB/Core/USBTask.c"
  26              		.loc 1 53 0
  27              		.cfi_startproc
  28              	.LVL0:
  29 0000 38B5     		push	{r3, r4, r5, lr}
  30              		.cfi_def_cfa_offset 16
  31              		.cfi_offset 3, -16
  32              		.cfi_offset 4, -12
  33              		.cfi_offset 5, -8
  34              		.cfi_offset 14, -4
  35 0002 041C     		mov	r4, r0
  36              	.LVL1:
  37              	.LBB22:
  38              	.LBB23:
  39              		.loc 1 69 0
  40 0004 084B     		ldr	r3, .L4
  41 0006 1B5C     		ldrb	r3, [r3, r0]
  42 0008 002B     		cmp	r3, #0
  43 000a 0BD0     		beq	.L1
  44              	.LVL2:
  45              	.LBB24:
  46              	.LBB25:
  47              	.LBB26:
  48              		.file 2 "USBlib_11U14/Drivers/USB/Core/Endpoint.h"
  49              		.loc 2 185 0
  50 000c 074B     		ldr	r3, .L4+4
  51 000e 1D5C     		ldrb	r5, [r3, r0]
  52              	.LVL3:
  53              	.LBE26:
  54              	.LBE25:
  55              	.LBB27:
  56              	.LBB28:
  57              		.loc 2 205 0
ARM GAS  /tmp/ccmViwZE.s 			page 2


  58 0010 0022     		mov	r2, #0
  59 0012 1A54     		strb	r2, [r3, r0]
  60              	.LVL4:
  61              	.LBE28:
  62              	.LBE27:
  63              	.LBB29:
  64              	.LBB30:
  65              		.file 3 "USBlib_11U14/Drivers/USB/Core/DCD/LPC11UXX/Endpoint_LPC11Uxx.h"
  66              		.loc 3 310 0
  67 0014 064B     		ldr	r3, .L4+8
  68 0016 1B68     		ldr	r3, [r3]
  69              	.LBE30:
  70              	.LBE29:
  71              		.loc 1 75 0
  72 0018 DA05     		lsl	r2, r3, #23
  73 001a 01D5     		bpl	.L3
  74              		.loc 1 76 0
  75 001c FFF7FEFF 		bl	USB_Device_ProcessControlRequest
  76              	.LVL5:
  77              	.L3:
  78              	.LBB31:
  79              	.LBB32:
  80              		.loc 2 205 0
  81 0020 024B     		ldr	r3, .L4+4
  82 0022 1D55     		strb	r5, [r3, r4]
  83              	.LVL6:
  84              	.L1:
  85              	.LBE32:
  86              	.LBE31:
  87              	.LBE24:
  88              	.LBE23:
  89              	.LBE22:
  90              		.loc 1 64 0
  91              		@ sp needed
  92              	.LVL7:
  93 0024 38BD     		pop	{r3, r4, r5, pc}
  94              	.L5:
  95 0026 C046     		.align	2
  96              	.L4:
  97 0028 00000000 		.word	.LANCHOR0
  98 002c 00000000 		.word	endpointselected
  99 0030 00000840 		.word	1074266112
 100              		.cfi_endproc
 101              	.LFE97:
 102              		.size	USB_USBTask, .-USB_USBTask
 103              		.global	USB_DeviceState
 104              		.global	USB_ControlRequest
 105              		.global	USB_IsInitialized
 106              		.section	.bss.USB_DeviceState,"aw",%nobits
 107              		.align	2
 108              		.set	.LANCHOR0,. + 0
 109              		.type	USB_DeviceState, %object
 110              		.size	USB_DeviceState, 1
 111              	USB_DeviceState:
 112 0000 00       		.space	1
 113 0001 000000   		.section	.bss.USB_IsInitialized,"aw",%nobits
 114              		.type	USB_IsInitialized, %object
ARM GAS  /tmp/ccmViwZE.s 			page 3


 115              		.size	USB_IsInitialized, 1
 116              	USB_IsInitialized:
 117 0000 00       		.space	1
 118              		.section	.bss.$RAM2,"aw",%nobits
 119              		.align	2
 120              		.type	USB_ControlRequest, %object
 121              		.size	USB_ControlRequest, 8
 122              	USB_ControlRequest:
 123 0000 00000000 		.space	8
 123      00000000 
 124              		.text
 125              	.Letext0:
 126              		.file 4 "/usr/local/lpcxpresso_7.3.0_186/lpcxpresso/tools/arm-none-eabi/include/machine/_default_t
 127              		.file 5 "/usr/local/lpcxpresso_7.3.0_186/lpcxpresso/tools/arm-none-eabi/include/stdint.h"
 128              		.file 6 "CMSIS_CORE_LPC11Uxx/inc/LPC11Uxx.h"
 129              		.file 7 "USBlib_11U14/Drivers/USB/Core/DCD/LPC11UXX/../../HAL/LPC11UXX/HAL_LPC11Uxx.h"
 130              		.file 8 "USBlib_11U14/Drivers/USB/Core/StdRequestType.h"
 131              		.file 9 "USBlib_11U14/Drivers/USB/Core/DCD/LPC11UXX/../EndpointCommon.h"
 132              		.file 10 "USBlib_11U14/Drivers/USB/Core/Device.h"
 133              		.file 11 "USBlib_11U14/Drivers/USB/Core/DeviceStandardReq.h"