ARM GAS  /tmp/ccmViwZE.s 			page 1


   1              		.cpu cortex-m0
   2              		.fpu softvfp
   3              		.eabi_attribute 20, 1
   4              		.eabi_attribute 21, 1
   5              		.eabi_attribute 23, 3
   6              		.eabi_attribute 24, 1
   7              		.eabi_attribute 25, 1
   8              		.eabi_attribute 26, 1
   9              		.eabi_attribute 30, 1
  10              		.eabi_attribute 34, 0
  11              		.eabi_attribute 18, 4
  12              		.code	16
  13              		.file	"USBTask.c"
  14              		.text
  15              	.Ltext0:
  16              		.cfi_sections	.debug_frame
  17              		.section	.text.USB_USBTask,"ax",%progbits
  18              		.align	2
  19              		.global	USB_USBTask
  20              		.code	16
  21              		.thumb_func
  22              		.type	USB_USBTask, %function
  23              	USB_USBTask:
  24              	.LFB97:
  25              		.file 1 "USBlib_11U14/Drivers/USB/Core/USBTask.c"
  26              		.loc 1 53 0
  27              		.cfi_startproc
  28              	.LVL0:
  29 0000 38B5     		push	{r3, r4, r5, lr}
  30              		.cfi_def_cfa_offset 16
  31              		.cfi_offset 3, -16
  32              		.cfi_offset 4, -12
  33              		.cfi_offset 5, -8
  34              		.cfi_offset 14, -4
  35 0002 041C     		mov	r4, r0
  36              	.LVL1:
  37              	.LBB22:
  38              	.LBB23:
  39              		.loc 1 69 0
  40 0004 084B     		ldr	r3, .L4
  41 0006 1B5C     		ldrb	r3, [r3, r0]
  42 0008 002B     		cmp	r3, #0
  43 000a 0BD0     		beq	.L1
  44              	.LVL2:
  45              	.LBB24:
  46              	.LBB25:
  47              	.LBB26:
  48              		.file 2 "USBlib_11U14/Drivers/USB/Core/Endpoint.h"
  49              		.loc 2 185 0
  50 000c 074B     		ldr	r3, .L4+4
  51 000e 1D5C     		ldrb	r5, [r3, r0]
  52              	.LVL3:
  53              	.LBE26:
  54              	.LBE25:
  55              	.LBB27:
  56              	.LBB28:
  57              		.loc 2 205 0
ARM GAS  /tmp/ccmViwZE.s 			page 2


  58 0010 0022     		mov	r2, #0
  59 0012 1A54     		strb	r2, [r3, r0]
  60              	.LVL4:
  61              	.LBE28:
  62              	.LBE27:
  63              	.LBB29:
  64              	.LBB30:
  65              		.file 3 "USBlib_11U14/Drivers/USB/Core/DCD/LPC11UXX/Endpoint_LPC11Uxx.h"
  66              		.loc 3 310 0
  67 0014 064B     		ldr	r3, .L4+8
  68 0016 1B68     		ldr	r3, [r3]
  69              	.LBE30:
  70              	.LBE29:
  71              		.loc 1 75 0
  72 0018 DA05     		lsl	r2, r3, #23
  73 001a 01D5     		bpl	.L3
  74              		.loc 1 76 0
  75 001c FFF7FEFF 		bl	USB_Device_ProcessControlRequest
  76              	.LVL5:
  77              	.L3:
  78              	.LBB31:
  79              	.LBB32:
  80              		.loc 2 205 0
  81 0020 024B     		ldr	r3, .L4+4
  82 0022 1D55     		strb	r5, [r3, r4]
  83              	.LVL6:
  84              	.L1:
  85              	.LBE32:
  86              	.LBE31:
  87              	.LBE24:
  88              	.LBE23:
  89              	.LBE22:
  90              		.loc 1 64 0
  91              		@ sp needed
  92              	.LVL7:
  93 0024 38BD     		pop	{r3, r4, r5, pc}
  94              	.L5:
  95 0026 C046     		.align	2
  96              	.L4:
  97 0028 00000000 		.word	.LANCHOR0
  98 002c 00000000 		.word	endpointselected
  99 0030 00000840 		.word	1074266112
 100              		.cfi_endproc
 101              	.LFE97:
 102              		.size	USB_USBTask, .-USB_USBTask
 103              		.global	USB_DeviceState
 104              		.global	USB_ControlRequest
 105              		.global	USB_IsInitialized
 106              		.section	.bss.USB_DeviceState,"aw",%nobits
 107              		.align	2
 108              		.set	.LANCHOR0,. + 0
 109              		.type	USB_DeviceState, %object
 110              		.size	USB_DeviceState, 1
 111              	USB_DeviceState:
 112 0000 00       		.space	1
 113 0001 000000   		.section	.bss.USB_IsInitialized,"aw",%nobits
 114              		.type	USB_IsInitialized, %object
ARM GAS  /tmp/ccmViwZE.s 			page 3


 115              		.size	USB_IsInitialized, 1
 116              	USB_IsInitialized:
 117 0000 00       		.space	1
 118              		.section	.bss.$RAM2,"aw",%nobits
 119              		.align	2
 120              		.type	USB_ControlRequest, %object
 121              		.size	USB_ControlRequest, 8
 122              	USB_ControlRequest:
 123 0000 00000000 		.space	8
 123      00000000 
 124              		.text
 125              	.Letext0:
 126              		.file 4 "/usr/local/lpcxpresso_7.3.0_186/lpcxpresso/tools/arm-none-eabi/include/machine/_default_t
 127              		.file 5 "/usr/local/lpcxpresso_7.3.0_186/lpcxpresso/tools/arm-none-eabi/include/stdint.h"
 128              		.file 6 "CMSIS_CORE_LPC11Uxx/inc/LPC11Uxx.h"
 129              		.file 7 "USBlib_11U14/Drivers/USB/Core/DCD/LPC11UXX/../../HAL/LPC11UXX/HAL_LPC11Uxx.h"
 130              		.file 8 "USBlib_11U14/Drivers/USB/Core/StdRequestType.h"
 131              		.file 9 "USBlib_11U14/Drivers/USB/Core/DCD/LPC11UXX/../EndpointCommon.h"
 132              		.file 10 "USBlib_11U14/Drivers/USB/Core/Device.h"
 133              		.file 11 "USBlib_11U14/Drivers/USB/Core/DeviceStandardReq.h"
 134              		.section	.debug_info,"",%progbits
 135              	.Ldebug_info0:
 136 0000 8D050000 		.4byte	0x58d
 137 0004 0400     		.2byte	0x4
 138 0006 00000000 		.4byte	.Ldebug_abbrev0
 139 000a 04       		.byte	0x4
 140 000b 01       		.uleb128 0x1
 141 000c EE020000 		.4byte	.LASF77
 142 0010 01       		.byte	0x1
 143 0011 99010000 		.4byte	.LASF78
 144 0015 53000000 		.4byte	.LASF79
 145 0019 00000000 		.4byte	.Ldebug_ranges0+0
 146 001d 00000000 		.4byte	0
 147 0021 00000000 		.4byte	.Ldebug_line0
 148 0025 02       		.uleb128 0x2
 149 0026 01       		.byte	0x1
 150 0027 06       		.byte	0x6
 151 0028 6C010000 		.4byte	.LASF0
 152 002c 03       		.uleb128 0x3
 153 002d F2010000 		.4byte	.LASF3
 154 0031 04       		.byte	0x4
 155 0032 1C       		.byte	0x1c
 156 0033 37000000 		.4byte	0x37
 157 0037 02       		.uleb128 0x2
 158 0038 01       		.byte	0x1
 159 0039 08       		.byte	0x8
 160 003a 3D020000 		.4byte	.LASF1
 161 003e 02       		.uleb128 0x2
 162 003f 02       		.byte	0x2
 163 0040 05       		.byte	0x5
 164 0041 49000000 		.4byte	.LASF2
 165 0045 03       		.uleb128 0x3
 166 0046 CE000000 		.4byte	.LASF4
 167 004a 04       		.byte	0x4
 168 004b 26       		.byte	0x26
 169 004c 50000000 		.4byte	0x50
 170 0050 02       		.uleb128 0x2
ARM GAS  /tmp/ccmViwZE.s 			page 4


 171 0051 02       		.byte	0x2
 172 0052 07       		.byte	0x7
 173 0053 B3030000 		.4byte	.LASF5
 174 0057 03       		.uleb128 0x3
 175 0058 AE040000 		.4byte	.LASF6
 176 005c 04       		.byte	0x4
 177 005d 37       		.byte	0x37
 178 005e 62000000 		.4byte	0x62
 179 0062 02       		.uleb128 0x2
 180 0063 04       		.byte	0x4
 181 0064 05       		.byte	0x5
 182 0065 C1010000 		.4byte	.LASF7
 183 0069 03       		.uleb128 0x3
 184 006a 8C000000 		.4byte	.LASF8
 185 006e 04       		.byte	0x4
 186 006f 38       		.byte	0x38
 187 0070 74000000 		.4byte	0x74
 188 0074 02       		.uleb128 0x2
 189 0075 04       		.byte	0x4
 190 0076 07       		.byte	0x7
 191 0077 66040000 		.4byte	.LASF9
 192 007b 02       		.uleb128 0x2
 193 007c 08       		.byte	0x8
 194 007d 05       		.byte	0x5
 195 007e 8B010000 		.4byte	.LASF10
 196 0082 02       		.uleb128 0x2
 197 0083 08       		.byte	0x8
 198 0084 07       		.byte	0x7
 199 0085 6F020000 		.4byte	.LASF11
 200 0089 04       		.uleb128 0x4
 201 008a 04       		.byte	0x4
 202 008b 05       		.byte	0x5
 203 008c 696E7400 		.ascii	"int\000"
 204 0090 02       		.uleb128 0x2
 205 0091 04       		.byte	0x4
 206 0092 07       		.byte	0x7
 207 0093 A3020000 		.4byte	.LASF12
 208 0097 03       		.uleb128 0x3
 209 0098 C7040000 		.4byte	.LASF13
 210 009c 05       		.byte	0x5
 211 009d 2A       		.byte	0x2a
 212 009e 2C000000 		.4byte	0x2c
 213 00a2 03       		.uleb128 0x3
 214 00a3 B0020000 		.4byte	.LASF14
 215 00a7 05       		.byte	0x5
 216 00a8 36       		.byte	0x36
 217 00a9 45000000 		.4byte	0x45
 218 00ad 03       		.uleb128 0x3
 219 00ae 06040000 		.4byte	.LASF15
 220 00b2 05       		.byte	0x5
 221 00b3 41       		.byte	0x41
 222 00b4 57000000 		.4byte	0x57
 223 00b8 03       		.uleb128 0x3
 224 00b9 86020000 		.4byte	.LASF16
 225 00bd 05       		.byte	0x5
 226 00be 42       		.byte	0x42
 227 00bf 69000000 		.4byte	0x69
ARM GAS  /tmp/ccmViwZE.s 			page 5


 228 00c3 02       		.uleb128 0x2
 229 00c4 04       		.byte	0x4
 230 00c5 07       		.byte	0x7
 231 00c6 72000000 		.4byte	.LASF17
 232 00ca 02       		.uleb128 0x2
 233 00cb 01       		.byte	0x1
 234 00cc 08       		.byte	0x8
 235 00cd E7030000 		.4byte	.LASF18
 236 00d1 05       		.uleb128 0x5
 237 00d2 B8000000 		.4byte	0xb8
 238 00d6 E1000000 		.4byte	0xe1
 239 00da 06       		.uleb128 0x6
 240 00db C3000000 		.4byte	0xc3
 241 00df 00       		.byte	0
 242 00e0 00       		.byte	0
 243 00e1 07       		.uleb128 0x7
 244 00e2 E6000000 		.4byte	0xe6
 245 00e6 08       		.uleb128 0x8
 246 00e7 B8000000 		.4byte	0xb8
 247 00eb 09       		.uleb128 0x9
 248 00ec 38       		.byte	0x38
 249 00ed 06       		.byte	0x6
 250 00ee 2202     		.2byte	0x222
 251 00f0 AB010000 		.4byte	0x1ab
 252 00f4 0A       		.uleb128 0xa
 253 00f5 22010000 		.4byte	.LASF19
 254 00f9 06       		.byte	0x6
 255 00fa 2302     		.2byte	0x223
 256 00fc E6000000 		.4byte	0xe6
 257 0100 00       		.byte	0
 258 0101 0A       		.uleb128 0xa
 259 0102 B9020000 		.4byte	.LASF20
 260 0106 06       		.byte	0x6
 261 0107 2402     		.2byte	0x224
 262 0109 E6000000 		.4byte	0xe6
 263 010d 04       		.byte	0x4
 264 010e 0A       		.uleb128 0xa
 265 010f 48050000 		.4byte	.LASF21
 266 0113 06       		.byte	0x6
 267 0114 2502     		.2byte	0x225
 268 0116 E6000000 		.4byte	0xe6
 269 011a 08       		.byte	0x8
 270 011b 0A       		.uleb128 0xa
 271 011c 93040000 		.4byte	.LASF22
 272 0120 06       		.byte	0x6
 273 0121 2602     		.2byte	0x226
 274 0123 E6000000 		.4byte	0xe6
 275 0127 0C       		.byte	0xc
 276 0128 0B       		.uleb128 0xb
 277 0129 4C504D00 		.ascii	"LPM\000"
 278 012d 06       		.byte	0x6
 279 012e 2702     		.2byte	0x227
 280 0130 E6000000 		.4byte	0xe6
 281 0134 10       		.byte	0x10
 282 0135 0A       		.uleb128 0xa
 283 0136 21020000 		.4byte	.LASF23
 284 013a 06       		.byte	0x6
ARM GAS  /tmp/ccmViwZE.s 			page 6


 285 013b 2802     		.2byte	0x228
 286 013d E6000000 		.4byte	0xe6
 287 0141 14       		.byte	0x14
 288 0142 0A       		.uleb128 0xa
 289 0143 A0040000 		.4byte	.LASF24
 290 0147 06       		.byte	0x6
 291 0148 2902     		.2byte	0x229
 292 014a E6000000 		.4byte	0xe6
 293 014e 18       		.byte	0x18
 294 014f 0A       		.uleb128 0xa
 295 0150 00000000 		.4byte	.LASF25
 296 0154 06       		.byte	0x6
 297 0155 2A02     		.2byte	0x22a
 298 0157 E6000000 		.4byte	0xe6
 299 015b 1C       		.byte	0x1c
 300 015c 0A       		.uleb128 0xa
 301 015d FE030000 		.4byte	.LASF26
 302 0161 06       		.byte	0x6
 303 0162 2B02     		.2byte	0x22b
 304 0164 E6000000 		.4byte	0xe6
 305 0168 20       		.byte	0x20
 306 0169 0A       		.uleb128 0xa
 307 016a CF040000 		.4byte	.LASF27
 308 016e 06       		.byte	0x6
 309 016f 2C02     		.2byte	0x22c
 310 0171 E6000000 		.4byte	0xe6
 311 0175 24       		.byte	0x24
 312 0176 0A       		.uleb128 0xa
 313 0177 0A010000 		.4byte	.LASF28
 314 017b 06       		.byte	0x6
 315 017c 2D02     		.2byte	0x22d
 316 017e E6000000 		.4byte	0xe6
 317 0182 28       		.byte	0x28
 318 0183 0A       		.uleb128 0xa
 319 0184 0F020000 		.4byte	.LASF29
 320 0188 06       		.byte	0x6
 321 0189 2E02     		.2byte	0x22e
 322 018b E6000000 		.4byte	0xe6
 323 018f 2C       		.byte	0x2c
 324 0190 0A       		.uleb128 0xa
 325 0191 57040000 		.4byte	.LASF30
 326 0195 06       		.byte	0x6
 327 0196 2F02     		.2byte	0x22f
 328 0198 AB010000 		.4byte	0x1ab
 329 019c 30       		.byte	0x30
 330 019d 0A       		.uleb128 0xa
 331 019e 05050000 		.4byte	.LASF31
 332 01a2 06       		.byte	0x6
 333 01a3 3002     		.2byte	0x230
 334 01a5 E1000000 		.4byte	0xe1
 335 01a9 34       		.byte	0x34
 336 01aa 00       		.byte	0
 337 01ab 07       		.uleb128 0x7
 338 01ac B0010000 		.4byte	0x1b0
 339 01b0 08       		.uleb128 0x8
 340 01b1 D1000000 		.4byte	0xd1
 341 01b5 0C       		.uleb128 0xc
ARM GAS  /tmp/ccmViwZE.s 			page 7


 342 01b6 C1000000 		.4byte	.LASF32
 343 01ba 06       		.byte	0x6
 344 01bb 3102     		.2byte	0x231
 345 01bd EB000000 		.4byte	0xeb
 346 01c1 0D       		.uleb128 0xd
 347 01c2 04       		.byte	0x4
 348 01c3 07       		.byte	0x7
 349 01c4 3B       		.byte	0x3b
 350 01c5 3F020000 		.4byte	0x23f
 351 01c9 0E       		.uleb128 0xe
 352 01ca DA010000 		.4byte	.LASF33
 353 01ce 07       		.byte	0x7
 354 01cf 3C       		.byte	0x3c
 355 01d0 A2000000 		.4byte	0xa2
 356 01d4 00       		.byte	0
 357 01d5 0F       		.uleb128 0xf
 358 01d6 8C040000 		.4byte	.LASF34
 359 01da 07       		.byte	0x7
 360 01db 3E       		.byte	0x3e
 361 01dc 3F020000 		.4byte	0x23f
 362 01e0 02       		.byte	0x2
 363 01e1 0A       		.byte	0xa
 364 01e2 06       		.byte	0x6
 365 01e3 02       		.byte	0x2
 366 01e4 0F       		.uleb128 0xf
 367 01e5 61040000 		.4byte	.LASF35
 368 01e9 07       		.byte	0x7
 369 01ea 3F       		.byte	0x3f
 370 01eb A2000000 		.4byte	0xa2
 371 01ef 02       		.byte	0x2
 372 01f0 01       		.byte	0x1
 373 01f1 05       		.byte	0x5
 374 01f2 02       		.byte	0x2
 375 01f3 0F       		.uleb128 0xf
 376 01f4 4B020000 		.4byte	.LASF36
 377 01f8 07       		.byte	0x7
 378 01f9 40       		.byte	0x40
 379 01fa A2000000 		.4byte	0xa2
 380 01fe 02       		.byte	0x2
 381 01ff 01       		.byte	0x1
 382 0200 04       		.byte	0x4
 383 0201 02       		.byte	0x2
 384 0202 0F       		.uleb128 0xf
 385 0203 25050000 		.4byte	.LASF37
 386 0207 07       		.byte	0x7
 387 0208 41       		.byte	0x41
 388 0209 A2000000 		.4byte	0xa2
 389 020d 02       		.byte	0x2
 390 020e 01       		.byte	0x1
 391 020f 03       		.byte	0x3
 392 0210 02       		.byte	0x2
 393 0211 0F       		.uleb128 0xf
 394 0212 A8040000 		.4byte	.LASF38
 395 0216 07       		.byte	0x7
 396 0217 42       		.byte	0x42
 397 0218 3F020000 		.4byte	0x23f
 398 021c 02       		.byte	0x2
ARM GAS  /tmp/ccmViwZE.s 			page 8


 399 021d 01       		.byte	0x1
 400 021e 02       		.byte	0x2
 401 021f 02       		.byte	0x2
 402 0220 0F       		.uleb128 0xf
 403 0221 83050000 		.4byte	.LASF39
 404 0225 07       		.byte	0x7
 405 0226 43       		.byte	0x43
 406 0227 A2000000 		.4byte	0xa2
 407 022b 02       		.byte	0x2
 408 022c 01       		.byte	0x1
 409 022d 01       		.byte	0x1
 410 022e 02       		.byte	0x2
 411 022f 0F       		.uleb128 0xf
 412 0230 EB010000 		.4byte	.LASF40
 413 0234 07       		.byte	0x7
 414 0235 44       		.byte	0x44
 415 0236 3F020000 		.4byte	0x23f
 416 023a 02       		.byte	0x2
 417 023b 01       		.byte	0x1
 418 023c 00       		.byte	0
 419 023d 02       		.byte	0x2
 420 023e 00       		.byte	0
 421 023f 08       		.uleb128 0x8
 422 0240 A2000000 		.4byte	0xa2
 423 0244 03       		.uleb128 0x3
 424 0245 15010000 		.4byte	.LASF41
 425 0249 07       		.byte	0x7
 426 024a 46       		.byte	0x46
 427 024b C1010000 		.4byte	0x1c1
 428 024f 10       		.uleb128 0x10
 429 0250 78040000 		.4byte	.LASF80
 430 0254 01       		.byte	0x1
 431 0255 0A       		.byte	0xa
 432 0256 48       		.byte	0x48
 433 0257 80020000 		.4byte	0x280
 434 025b 11       		.uleb128 0x11
 435 025c D9000000 		.4byte	.LASF42
 436 0260 00       		.sleb128 0
 437 0261 11       		.uleb128 0x11
 438 0262 2B000000 		.4byte	.LASF43
 439 0266 01       		.sleb128 1
 440 0267 11       		.uleb128 0x11
 441 0268 6E050000 		.4byte	.LASF44
 442 026c 02       		.sleb128 2
 443 026d 11       		.uleb128 0x11
 444 026e D5040000 		.4byte	.LASF45
 445 0272 03       		.sleb128 3
 446 0273 11       		.uleb128 0x11
 447 0274 D6020000 		.4byte	.LASF46
 448 0278 04       		.sleb128 4
 449 0279 11       		.uleb128 0x11
 450 027a 31050000 		.4byte	.LASF47
 451 027e 05       		.sleb128 5
 452 027f 00       		.byte	0
 453 0280 0D       		.uleb128 0xd
 454 0281 08       		.byte	0x8
 455 0282 08       		.byte	0x8
ARM GAS  /tmp/ccmViwZE.s 			page 9


 456 0283 9E       		.byte	0x9e
 457 0284 C5020000 		.4byte	0x2c5
 458 0288 0E       		.uleb128 0xe
 459 0289 29040000 		.4byte	.LASF48
 460 028d 08       		.byte	0x8
 461 028e A0       		.byte	0xa0
 462 028f 97000000 		.4byte	0x97
 463 0293 00       		.byte	0
 464 0294 0E       		.uleb128 0xe
 465 0295 40000000 		.4byte	.LASF49
 466 0299 08       		.byte	0x8
 467 029a A1       		.byte	0xa1
 468 029b 97000000 		.4byte	0x97
 469 029f 01       		.byte	0x1
 470 02a0 0E       		.uleb128 0xe
 471 02a1 1A020000 		.4byte	.LASF50
 472 02a5 08       		.byte	0x8
 473 02a6 A2       		.byte	0xa2
 474 02a7 A2000000 		.4byte	0xa2
 475 02ab 02       		.byte	0x2
 476 02ac 0E       		.uleb128 0xe
 477 02ad 54050000 		.4byte	.LASF51
 478 02b1 08       		.byte	0x8
 479 02b2 A3       		.byte	0xa3
 480 02b3 A2000000 		.4byte	0xa2
 481 02b7 04       		.byte	0x4
 482 02b8 0E       		.uleb128 0xe
 483 02b9 1D050000 		.4byte	.LASF52
 484 02bd 08       		.byte	0x8
 485 02be A4       		.byte	0xa4
 486 02bf A2000000 		.4byte	0xa2
 487 02c3 06       		.byte	0x6
 488 02c4 00       		.byte	0
 489 02c5 03       		.uleb128 0x3
 490 02c6 28020000 		.4byte	.LASF53
 491 02ca 08       		.byte	0x8
 492 02cb A5       		.byte	0xa5
 493 02cc 80020000 		.4byte	0x280
 494 02d0 12       		.uleb128 0x12
 495 02d1 3A010000 		.4byte	.LASF56
 496 02d5 02       		.byte	0x2
 497 02d6 B7       		.byte	0xb7
 498 02d7 97000000 		.4byte	0x97
 499 02db 03       		.byte	0x3
 500 02dc EC020000 		.4byte	0x2ec
 501 02e0 13       		.uleb128 0x13
 502 02e1 23000000 		.4byte	.LASF54
 503 02e5 02       		.byte	0x2
 504 02e6 B7       		.byte	0xb7
 505 02e7 97000000 		.4byte	0x97
 506 02eb 00       		.byte	0
 507 02ec 14       		.uleb128 0x14
 508 02ed BE020000 		.4byte	.LASF59
 509 02f1 02       		.byte	0x2
 510 02f2 CB       		.byte	0xcb
 511 02f3 03       		.byte	0x3
 512 02f4 0F030000 		.4byte	0x30f
ARM GAS  /tmp/ccmViwZE.s 			page 10


 513 02f8 13       		.uleb128 0x13
 514 02f9 23000000 		.4byte	.LASF54
 515 02fd 02       		.byte	0x2
 516 02fe CB       		.byte	0xcb
 517 02ff 97000000 		.4byte	0x97
 518 0303 13       		.uleb128 0x13
 519 0304 0E050000 		.4byte	.LASF55
 520 0308 02       		.byte	0x2
 521 0309 CB       		.byte	0xcb
 522 030a 0F030000 		.4byte	0x30f
 523 030e 00       		.byte	0
 524 030f 07       		.uleb128 0x7
 525 0310 97000000 		.4byte	0x97
 526 0314 15       		.uleb128 0x15
 527 0315 A8000000 		.4byte	.LASF57
 528 0319 03       		.byte	0x3
 529 031a 3401     		.2byte	0x134
 530 031c 32030000 		.4byte	0x332
 531 0320 03       		.byte	0x3
 532 0321 32030000 		.4byte	0x332
 533 0325 16       		.uleb128 0x16
 534 0326 23000000 		.4byte	.LASF54
 535 032a 03       		.byte	0x3
 536 032b 3401     		.2byte	0x134
 537 032d 97000000 		.4byte	0x97
 538 0331 00       		.byte	0
 539 0332 02       		.uleb128 0x2
 540 0333 01       		.byte	0x1
 541 0334 02       		.byte	0x2
 542 0335 23040000 		.4byte	.LASF58
 543 0339 14       		.uleb128 0x14
 544 033a B8040000 		.4byte	.LASF60
 545 033e 01       		.byte	0x1
 546 033f 43       		.byte	0x43
 547 0340 01       		.byte	0x1
 548 0341 5E030000 		.4byte	0x35e
 549 0345 13       		.uleb128 0x13
 550 0346 23000000 		.4byte	.LASF54
 551 034a 01       		.byte	0x1
 552 034b 43       		.byte	0x43
 553 034c 97000000 		.4byte	0x97
 554 0350 17       		.uleb128 0x17
 555 0351 18       		.uleb128 0x18
 556 0352 2D010000 		.4byte	.LASF81
 557 0356 01       		.byte	0x1
 558 0357 47       		.byte	0x47
 559 0358 97000000 		.4byte	0x97
 560 035c 00       		.byte	0
 561 035d 00       		.byte	0
 562 035e 19       		.uleb128 0x19
 563 035f 97000000 		.4byte	.LASF82
 564 0363 01       		.byte	0x1
 565 0364 34       		.byte	0x34
 566 0365 00000000 		.4byte	.LFB97
 567 0369 34000000 		.4byte	.LFE97-.LFB97
 568 036d 01       		.uleb128 0x1
 569 036e 9C       		.byte	0x9c
ARM GAS  /tmp/ccmViwZE.s 			page 11


 570 036f 50040000 		.4byte	0x450
 571 0373 1A       		.uleb128 0x1a
 572 0374 23000000 		.4byte	.LASF54
 573 0378 01       		.byte	0x1
 574 0379 34       		.byte	0x34
 575 037a 97000000 		.4byte	0x97
 576 037e 00000000 		.4byte	.LLST0
 577 0382 1A       		.uleb128 0x1a
 578 0383 A3000000 		.4byte	.LASF61
 579 0387 01       		.byte	0x1
 580 0388 34       		.byte	0x34
 581 0389 97000000 		.4byte	0x97
 582 038d 21000000 		.4byte	.LLST1
 583 0391 1B       		.uleb128 0x1b
 584 0392 39030000 		.4byte	0x339
 585 0396 04000000 		.4byte	.LBB22
 586 039a 20000000 		.4byte	.LBE22-.LBB22
 587 039e 01       		.byte	0x1
 588 039f 39       		.byte	0x39
 589 03a0 1C       		.uleb128 0x1c
 590 03a1 45030000 		.4byte	0x345
 591 03a5 42000000 		.4byte	.LLST2
 592 03a9 1D       		.uleb128 0x1d
 593 03aa 0C000000 		.4byte	.LBB24
 594 03ae 18000000 		.4byte	.LBE24-.LBB24
 595 03b2 1E       		.uleb128 0x1e
 596 03b3 51030000 		.4byte	0x351
 597 03b7 1F       		.uleb128 0x1f
 598 03b8 D0020000 		.4byte	0x2d0
 599 03bc 0C000000 		.4byte	.LBB25
 600 03c0 04000000 		.4byte	.LBE25-.LBB25
 601 03c4 01       		.byte	0x1
 602 03c5 47       		.byte	0x47
 603 03c6 D4030000 		.4byte	0x3d4
 604 03ca 1C       		.uleb128 0x1c
 605 03cb E0020000 		.4byte	0x2e0
 606 03cf 60000000 		.4byte	.LLST3
 607 03d3 00       		.byte	0
 608 03d4 1F       		.uleb128 0x1f
 609 03d5 EC020000 		.4byte	0x2ec
 610 03d9 10000000 		.4byte	.LBB27
 611 03dd 04000000 		.4byte	.LBE27-.LBB27
 612 03e1 01       		.byte	0x1
 613 03e2 49       		.byte	0x49
 614 03e3 FA030000 		.4byte	0x3fa
 615 03e7 1C       		.uleb128 0x1c
 616 03e8 03030000 		.4byte	0x303
 617 03ec 7E000000 		.4byte	.LLST4
 618 03f0 1C       		.uleb128 0x1c
 619 03f1 F8020000 		.4byte	0x2f8
 620 03f5 92000000 		.4byte	.LLST5
 621 03f9 00       		.byte	0
 622 03fa 1F       		.uleb128 0x1f
 623 03fb 14030000 		.4byte	0x314
 624 03ff 14000000 		.4byte	.LBB29
 625 0403 04000000 		.4byte	.LBE29-.LBB29
 626 0407 01       		.byte	0x1
ARM GAS  /tmp/ccmViwZE.s 			page 12


 627 0408 4B       		.byte	0x4b
 628 0409 17040000 		.4byte	0x417
 629 040d 1C       		.uleb128 0x1c
 630 040e 25030000 		.4byte	0x325
 631 0412 B0000000 		.4byte	.LLST6
 632 0416 00       		.byte	0
 633 0417 1F       		.uleb128 0x1f
 634 0418 EC020000 		.4byte	0x2ec
 635 041c 20000000 		.4byte	.LBB31
 636 0420 04000000 		.4byte	.LBE31-.LBB31
 637 0424 01       		.byte	0x1
 638 0425 4E       		.byte	0x4e
 639 0426 3D040000 		.4byte	0x43d
 640 042a 1C       		.uleb128 0x1c
 641 042b 03030000 		.4byte	0x303
 642 042f CE000000 		.4byte	.LLST7
 643 0433 1C       		.uleb128 0x1c
 644 0434 F8020000 		.4byte	0x2f8
 645 0438 E1000000 		.4byte	.LLST8
 646 043c 00       		.byte	0
 647 043d 20       		.uleb128 0x20
 648 043e 20000000 		.4byte	.LVL5
 649 0442 83050000 		.4byte	0x583
 650 0446 21       		.uleb128 0x21
 651 0447 01       		.uleb128 0x1
 652 0448 50       		.byte	0x50
 653 0449 02       		.uleb128 0x2
 654 044a 74       		.byte	0x74
 655 044b 00       		.sleb128 0
 656 044c 00       		.byte	0
 657 044d 00       		.byte	0
 658 044e 00       		.byte	0
 659 044f 00       		.byte	0
 660 0450 05       		.uleb128 0x5
 661 0451 97000000 		.4byte	0x97
 662 0455 62040000 		.4byte	0x462
 663 0459 22       		.uleb128 0x22
 664 045a 23       		.uleb128 0x23
 665 045b C3000000 		.4byte	0xc3
 666 045f FF01     		.2byte	0x1ff
 667 0461 00       		.byte	0
 668 0462 24       		.uleb128 0x24
 669 0463 5F020000 		.4byte	.LASF62
 670 0467 09       		.byte	0x9
 671 0468 36       		.byte	0x36
 672 0469 50040000 		.4byte	0x450
 673 046d 24       		.uleb128 0x24
 674 046e FC010000 		.4byte	.LASF63
 675 0472 09       		.byte	0x9
 676 0473 38       		.byte	0x38
 677 0474 50040000 		.4byte	0x450
 678 0478 24       		.uleb128 0x24
 679 0479 8F020000 		.4byte	.LASF64
 680 047d 09       		.byte	0x9
 681 047e 3A       		.byte	0x3a
 682 047f 50040000 		.4byte	0x450
 683 0483 05       		.uleb128 0x5
ARM GAS  /tmp/ccmViwZE.s 			page 13


 684 0484 AD000000 		.4byte	0xad
 685 0488 8E040000 		.4byte	0x48e
 686 048c 22       		.uleb128 0x22
 687 048d 00       		.byte	0
 688 048e 24       		.uleb128 0x24
 689 048f 0E040000 		.4byte	.LASF65
 690 0493 09       		.byte	0x9
 691 0494 3C       		.byte	0x3c
 692 0495 99040000 		.4byte	0x499
 693 0499 08       		.uleb128 0x8
 694 049a 83040000 		.4byte	0x483
 695 049e 05       		.uleb128 0x5
 696 049f B8000000 		.4byte	0xb8
 697 04a3 A9040000 		.4byte	0x4a9
 698 04a7 22       		.uleb128 0x22
 699 04a8 00       		.byte	0
 700 04a9 24       		.uleb128 0x24
 701 04aa EC040000 		.4byte	.LASF66
 702 04ae 09       		.byte	0x9
 703 04af 3E       		.byte	0x3e
 704 04b0 B4040000 		.4byte	0x4b4
 705 04b4 08       		.uleb128 0x8
 706 04b5 9E040000 		.4byte	0x49e
 707 04b9 24       		.uleb128 0x24
 708 04ba 56010000 		.4byte	.LASF67
 709 04be 09       		.byte	0x9
 710 04bf 43       		.byte	0x43
 711 04c0 C4040000 		.4byte	0x4c4
 712 04c4 08       		.uleb128 0x8
 713 04c5 9E040000 		.4byte	0x49e
 714 04c9 24       		.uleb128 0x24
 715 04ca F1000000 		.4byte	.LASF68
 716 04ce 09       		.byte	0x9
 717 04cf 44       		.byte	0x44
 718 04d0 D4040000 		.4byte	0x4d4
 719 04d4 08       		.uleb128 0x8
 720 04d5 9E040000 		.4byte	0x49e
 721 04d9 24       		.uleb128 0x24
 722 04da 09000000 		.4byte	.LASF69
 723 04de 09       		.byte	0x9
 724 04df 45       		.byte	0x45
 725 04e0 E4040000 		.4byte	0x4e4
 726 04e4 08       		.uleb128 0x8
 727 04e5 9E040000 		.4byte	0x49e
 728 04e9 05       		.uleb128 0x5
 729 04ea 97000000 		.4byte	0x97
 730 04ee F4040000 		.4byte	0x4f4
 731 04f2 22       		.uleb128 0x22
 732 04f3 00       		.byte	0
 733 04f4 24       		.uleb128 0x24
 734 04f5 7B000000 		.4byte	.LASF70
 735 04f9 09       		.byte	0x9
 736 04fa 49       		.byte	0x49
 737 04fb E9040000 		.4byte	0x4e9
 738 04ff 24       		.uleb128 0x24
 739 0500 37040000 		.4byte	.LASF71
 740 0504 09       		.byte	0x9
ARM GAS  /tmp/ccmViwZE.s 			page 14


 741 0505 4D       		.byte	0x4d
 742 0506 E9040000 		.4byte	0x4e9
 743 050a 24       		.uleb128 0x24
 744 050b 47040000 		.4byte	.LASF72
 745 050f 09       		.byte	0x9
 746 0510 4E       		.byte	0x4e
 747 0511 E9040000 		.4byte	0x4e9
 748 0515 05       		.uleb128 0x5
 749 0516 44020000 		.4byte	0x244
 750 051a 2B050000 		.4byte	0x52b
 751 051e 06       		.uleb128 0x6
 752 051f C3000000 		.4byte	0xc3
 753 0523 09       		.byte	0x9
 754 0524 06       		.uleb128 0x6
 755 0525 C3000000 		.4byte	0xc3
 756 0529 01       		.byte	0x1
 757 052a 00       		.byte	0
 758 052b 24       		.uleb128 0x24
 759 052c 5B050000 		.4byte	.LASF73
 760 0530 03       		.byte	0x3
 761 0531 C9       		.byte	0xc9
 762 0532 15050000 		.4byte	0x515
 763 0536 25       		.uleb128 0x25
 764 0537 EC030000 		.4byte	.LASF74
 765 053b 01       		.byte	0x1
 766 053c 26       		.byte	0x26
 767 053d 47050000 		.4byte	0x547
 768 0541 05       		.uleb128 0x5
 769 0542 03       		.byte	0x3
 770 0543 00000000 		.4byte	USB_IsInitialized
 771 0547 08       		.uleb128 0x8
 772 0548 32030000 		.4byte	0x332
 773 054c 25       		.uleb128 0x25
 774 054d 78010000 		.4byte	.LASF75
 775 0551 01       		.byte	0x1
 776 0552 2A       		.byte	0x2a
 777 0553 C5020000 		.4byte	0x2c5
 778 0557 05       		.uleb128 0x5
 779 0558 03       		.byte	0x3
 780 0559 00000000 		.4byte	USB_ControlRequest
 781 055d 05       		.uleb128 0x5
 782 055e 97000000 		.4byte	0x97
 783 0562 6D050000 		.4byte	0x56d
 784 0566 06       		.uleb128 0x6
 785 0567 C3000000 		.4byte	0xc3
 786 056b 00       		.byte	0
 787 056c 00       		.byte	0
 788 056d 25       		.uleb128 0x25
 789 056e CA010000 		.4byte	.LASF76
 790 0572 01       		.byte	0x1
 791 0573 31       		.byte	0x31
 792 0574 7E050000 		.4byte	0x57e
 793 0578 05       		.uleb128 0x5
 794 0579 03       		.byte	0x3
 795 057a 00000000 		.4byte	USB_DeviceState
 796 057e 08       		.uleb128 0x8
 797 057f 5D050000 		.4byte	0x55d
ARM GAS  /tmp/ccmViwZE.s 			page 15


 798 0583 26       		.uleb128 0x26
 799 0584 C6030000 		.4byte	.LASF83
 800 0588 0B       		.byte	0xb
 801 0589 83       		.byte	0x83
 802 058a 27       		.uleb128 0x27
 803 058b 97000000 		.4byte	0x97
 804 058f 00       		.byte	0
 805 0590 00       		.byte	0
 806              		.section	.debug_abbrev,"",%progbits
 807              	.Ldebug_abbrev0:
 808 0000 01       		.uleb128 0x1
 809 0001 11       		.uleb128 0x11
 810 0002 01       		.byte	0x1
 811 0003 25       		.uleb128 0x25
 812 0004 0E       		.uleb128 0xe
 813 0005 13       		.uleb128 0x13
 814 0006 0B       		.uleb128 0xb
 815 0007 03       		.uleb128 0x3
 816 0008 0E       		.uleb128 0xe
 817 0009 1B       		.uleb128 0x1b
 818 000a 0E       		.uleb128 0xe
 819 000b 55       		.uleb128 0x55
 820 000c 17       		.uleb128 0x17
 821 000d 11       		.uleb128 0x11
 822 000e 01       		.uleb128 0x1
 823 000f 10       		.uleb128 0x10
 824 0010 17       		.uleb128 0x17
 825 0011 00       		.byte	0
 826 0012 00       		.byte	0
 827 0013 02       		.uleb128 0x2
 828 0014 24       		.uleb128 0x24
 829 0015 00       		.byte	0
 830 0016 0B       		.uleb128 0xb
 831 0017 0B       		.uleb128 0xb
 832 0018 3E       		.uleb128 0x3e
 833 0019 0B       		.uleb128 0xb
 834 001a 03       		.uleb128 0x3
 835 001b 0E       		.uleb128 0xe
 836 001c 00       		.byte	0
 837 001d 00       		.byte	0
 838 001e 03       		.uleb128 0x3
 839 001f 16       		.uleb128 0x16
 840 0020 00       		.byte	0
 841 0021 03       		.uleb128 0x3
 842 0022 0E       		.uleb128 0xe
 843 0023 3A       		.uleb128 0x3a
 844 0024 0B       		.uleb128 0xb
 845 0025 3B       		.uleb128 0x3b
 846 0026 0B       		.uleb128 0xb
 847 0027 49       		.uleb128 0x49
 848 0028 13       		.uleb128 0x13
 849 0029 00       		.byte	0
 850 002a 00       		.byte	0
 851 002b 04       		.uleb128 0x4
 852 002c 24       		.uleb128 0x24
 853 002d 00       		.byte	0
 854 002e 0B       		.uleb128 0xb
ARM GAS  /tmp/ccmViwZE.s 			page 16


 855 002f 0B       		.uleb128 0xb
 856 0030 3E       		.uleb128 0x3e
 857 0031 0B       		.uleb128 0xb
 858 0032 03       		.uleb128 0x3
 859 0033 08       		.uleb128 0x8
 860 0034 00       		.byte	0
 861 0035 00       		.byte	0
 862 0036 05       		.uleb128 0x5
 863 0037 01       		.uleb128 0x1
 864 0038 01       		.byte	0x1
 865 0039 49       		.uleb128 0x49
 866 003a 13       		.uleb128 0x13
 867 003b 01       		.uleb128 0x1
 868 003c 13       		.uleb128 0x13
 869 003d 00       		.byte	0
 870 003e 00       		.byte	0
 871 003f 06       		.uleb128 0x6
 872 0040 21       		.uleb128 0x21
 873 0041 00       		.byte	0
 874 0042 49       		.uleb128 0x49
 875 0043 13       		.uleb128 0x13
 876 0044 2F       		.uleb128 0x2f
 877 0045 0B       		.uleb128 0xb
 878 0046 00       		.byte	0
 879 0047 00       		.byte	0
 880 0048 07       		.uleb128 0x7
 881 0049 26       		.uleb128 0x26
 882 004a 00       		.byte	0
 883 004b 49       		.uleb128 0x49
 884 004c 13       		.uleb128 0x13
 885 004d 00       		.byte	0
 886 004e 00       		.byte	0
 887 004f 08       		.uleb128 0x8
 888 0050 35       		.uleb128 0x35
 889 0051 00       		.byte	0
 890 0052 49       		.uleb128 0x49
 891 0053 13       		.uleb128 0x13
 892 0054 00       		.byte	0
 893 0055 00       		.byte	0
 894 0056 09       		.uleb128 0x9
 895 0057 13       		.uleb128 0x13
 896 0058 01       		.byte	0x1
 897 0059 0B       		.uleb128 0xb
 898 005a 0B       		.uleb128 0xb
 899 005b 3A       		.uleb128 0x3a
 900 005c 0B       		.uleb128 0xb
 901 005d 3B       		.uleb128 0x3b
 902 005e 05       		.uleb128 0x5
 903 005f 01       		.uleb128 0x1
 904 0060 13       		.uleb128 0x13
 905 0061 00       		.byte	0
 906 0062 00       		.byte	0
 907 0063 0A       		.uleb128 0xa
 908 0064 0D       		.uleb128 0xd
 909 0065 00       		.byte	0
 910 0066 03       		.uleb128 0x3
 911 0067 0E       		.uleb128 0xe
ARM GAS  /tmp/ccmViwZE.s 			page 17


 912 0068 3A       		.uleb128 0x3a
 913 0069 0B       		.uleb128 0xb
 914 006a 3B       		.uleb128 0x3b
 915 006b 05       		.uleb128 0x5
 916 006c 49       		.uleb128 0x49
 917 006d 13       		.uleb128 0x13
 918 006e 38       		.uleb128 0x38
 919 006f 0B       		.uleb128 0xb
 920 0070 00       		.byte	0
 921 0071 00       		.byte	0
 922 0072 0B       		.uleb128 0xb
 923 0073 0D       		.uleb128 0xd
 924 0074 00       		.byte	0
 925 0075 03       		.uleb128 0x3
 926 0076 08       		.uleb128 0x8
 927 0077 3A       		.uleb128 0x3a
 928 0078 0B       		.uleb128 0xb
 929 0079 3B       		.uleb128 0x3b
 930 007a 05       		.uleb128 0x5
 931 007b 49       		.uleb128 0x49
 932 007c 13       		.uleb128 0x13
 933 007d 38       		.uleb128 0x38
 934 007e 0B       		.uleb128 0xb
 935 007f 00       		.byte	0
 936 0080 00       		.byte	0
 937 0081 0C       		.uleb128 0xc
 938 0082 16       		.uleb128 0x16
 939 0083 00       		.byte	0
 940 0084 03       		.uleb128 0x3
 941 0085 0E       		.uleb128 0xe
 942 0086 3A       		.uleb128 0x3a
 943 0087 0B       		.uleb128 0xb
 944 0088 3B       		.uleb128 0x3b
 945 0089 05       		.uleb128 0x5
 946 008a 49       		.uleb128 0x49
 947 008b 13       		.uleb128 0x13
 948 008c 00       		.byte	0
 949 008d 00       		.byte	0
 950 008e 0D       		.uleb128 0xd
 951 008f 13       		.uleb128 0x13
 952 0090 01       		.byte	0x1
 953 0091 0B       		.uleb128 0xb
 954 0092 0B       		.uleb128 0xb
 955 0093 3A       		.uleb128 0x3a
 956 0094 0B       		.uleb128 0xb
 957 0095 3B       		.uleb128 0x3b
 958 0096 0B       		.uleb128 0xb
 959 0097 01       		.uleb128 0x1
 960 0098 13       		.uleb128 0x13
 961 0099 00       		.byte	0
 962 009a 00       		.byte	0
 963 009b 0E       		.uleb128 0xe
 964 009c 0D       		.uleb128 0xd
 965 009d 00       		.byte	0
 966 009e 03       		.uleb128 0x3
 967 009f 0E       		.uleb128 0xe
 968 00a0 3A       		.uleb128 0x3a
ARM GAS  /tmp/ccmViwZE.s 			page 18


 969 00a1 0B       		.uleb128 0xb
 970 00a2 3B       		.uleb128 0x3b
 971 00a3 0B       		.uleb128 0xb
 972 00a4 49       		.uleb128 0x49
 973 00a5 13       		.uleb128 0x13
 974 00a6 38       		.uleb128 0x38
 975 00a7 0B       		.uleb128 0xb
 976 00a8 00       		.byte	0
 977 00a9 00       		.byte	0
 978 00aa 0F       		.uleb128 0xf
 979 00ab 0D       		.uleb128 0xd
 980 00ac 00       		.byte	0
 981 00ad 03       		.uleb128 0x3
 982 00ae 0E       		.uleb128 0xe
 983 00af 3A       		.uleb128 0x3a
 984 00b0 0B       		.uleb128 0xb
 985 00b1 3B       		.uleb128 0x3b
 986 00b2 0B       		.uleb128 0xb
 987 00b3 49       		.uleb128 0x49
 988 00b4 13       		.uleb128 0x13
 989 00b5 0B       		.uleb128 0xb
 990 00b6 0B       		.uleb128 0xb
 991 00b7 0D       		.uleb128 0xd
 992 00b8 0B       		.uleb128 0xb
 993 00b9 0C       		.uleb128 0xc
 994 00ba 0B       		.uleb128 0xb
 995 00bb 38       		.uleb128 0x38
 996 00bc 0B       		.uleb128 0xb
 997 00bd 00       		.byte	0
 998 00be 00       		.byte	0
 999 00bf 10       		.uleb128 0x10
 1000 00c0 04       		.uleb128 0x4
 1001 00c1 01       		.byte	0x1
 1002 00c2 03       		.uleb128 0x3
 1003 00c3 0E       		.uleb128 0xe
 1004 00c4 0B       		.uleb128 0xb
 1005 00c5 0B       		.uleb128 0xb
 1006 00c6 3A       		.uleb128 0x3a
 1007 00c7 0B       		.uleb128 0xb
 1008 00c8 3B       		.uleb128 0x3b
 1009 00c9 0B       		.uleb128 0xb
 1010 00ca 01       		.uleb128 0x1
 1011 00cb 13       		.uleb128 0x13
 1012 00cc 00       		.byte	0
 1013 00cd 00       		.byte	0
 1014 00ce 11       		.uleb128 0x11
 1015 00cf 28       		.uleb128 0x28
 1016 00d0 00       		.byte	0
 1017 00d1 03       		.uleb128 0x3
 1018 00d2 0E       		.uleb128 0xe
 1019 00d3 1C       		.uleb128 0x1c
 1020 00d4 0D       		.uleb128 0xd
 1021 00d5 00       		.byte	0
 1022 00d6 00       		.byte	0
 1023 00d7 12       		.uleb128 0x12
 1024 00d8 2E       		.uleb128 0x2e
 1025 00d9 01       		.byte	0x1
ARM GAS  /tmp/ccmViwZE.s 			page 19


 1026 00da 03       		.uleb128 0x3
 1027 00db 0E       		.uleb128 0xe
 1028 00dc 3A       		.uleb128 0x3a
 1029 00dd 0B       		.uleb128 0xb
 1030 00de 3B       		.uleb128 0x3b
 1031 00df 0B       		.uleb128 0xb
 1032 00e0 27       		.uleb128 0x27
 1033 00e1 19       		.uleb128 0x19
 1034 00e2 49       		.uleb128 0x49
 1035 00e3 13       		.uleb128 0x13
 1036 00e4 20       		.uleb128 0x20
 1037 00e5 0B       		.uleb128 0xb
 1038 00e6 01       		.uleb128 0x1
 1039 00e7 13       		.uleb128 0x13
 1040 00e8 00       		.byte	0
 1041 00e9 00       		.byte	0
 1042 00ea 13       		.uleb128 0x13
 1043 00eb 05       		.uleb128 0x5
 1044 00ec 00       		.byte	0
 1045 00ed 03       		.uleb128 0x3
 1046 00ee 0E       		.uleb128 0xe
 1047 00ef 3A       		.uleb128 0x3a
 1048 00f0 0B       		.uleb128 0xb
 1049 00f1 3B       		.uleb128 0x3b
 1050 00f2 0B       		.uleb128 0xb
 1051 00f3 49       		.uleb128 0x49
 1052 00f4 13       		.uleb128 0x13
 1053 00f5 00       		.byte	0
 1054 00f6 00       		.byte	0
 1055 00f7 14       		.uleb128 0x14
 1056 00f8 2E       		.uleb128 0x2e
 1057 00f9 01       		.byte	0x1
 1058 00fa 03       		.uleb128 0x3
 1059 00fb 0E       		.uleb128 0xe
 1060 00fc 3A       		.uleb128 0x3a
 1061 00fd 0B       		.uleb128 0xb
 1062 00fe 3B       		.uleb128 0x3b
 1063 00ff 0B       		.uleb128 0xb
 1064 0100 27       		.uleb128 0x27
 1065 0101 19       		.uleb128 0x19
 1066 0102 20       		.uleb128 0x20
 1067 0103 0B       		.uleb128 0xb
 1068 0104 01       		.uleb128 0x1
 1069 0105 13       		.uleb128 0x13
 1070 0106 00       		.byte	0
 1071 0107 00       		.byte	0
 1072 0108 15       		.uleb128 0x15
 1073 0109 2E       		.uleb128 0x2e
 1074 010a 01       		.byte	0x1
 1075 010b 03       		.uleb128 0x3
 1076 010c 0E       		.uleb128 0xe
 1077 010d 3A       		.uleb128 0x3a
 1078 010e 0B       		.uleb128 0xb
 1079 010f 3B       		.uleb128 0x3b
 1080 0110 05       		.uleb128 0x5
 1081 0111 27       		.uleb128 0x27
 1082 0112 19       		.uleb128 0x19
ARM GAS  /tmp/ccmViwZE.s 			page 20


 1083 0113 49       		.uleb128 0x49
 1084 0114 13       		.uleb128 0x13
 1085 0115 20       		.uleb128 0x20
 1086 0116 0B       		.uleb128 0xb
 1087 0117 01       		.uleb128 0x1
 1088 0118 13       		.uleb128 0x13
 1089 0119 00       		.byte	0
 1090 011a 00       		.byte	0
 1091 011b 16       		.uleb128 0x16
 1092 011c 05       		.uleb128 0x5
 1093 011d 00       		.byte	0
 1094 011e 03       		.uleb128 0x3
 1095 011f 0E       		.uleb128 0xe
 1096 0120 3A       		.uleb128 0x3a
 1097 0121 0B       		.uleb128 0xb
 1098 0122 3B       		.uleb128 0x3b
 1099 0123 05       		.uleb128 0x5
 1100 0124 49       		.uleb128 0x49
 1101 0125 13       		.uleb128 0x13
 1102 0126 00       		.byte	0
 1103 0127 00       		.byte	0
 1104 0128 17       		.uleb128 0x17
 1105 0129 0B       		.uleb128 0xb
 1106 012a 01       		.byte	0x1
 1107 012b 00       		.byte	0
 1108 012c 00       		.byte	0
 1109 012d 18       		.uleb128 0x18
 1110 012e 34       		.uleb128 0x34
 1111 012f 00       		.byte	0
 1112 0130 03       		.uleb128 0x3
 1113 0131 0E       		.uleb128 0xe
 1114 0132 3A       		.uleb128 0x3a
 1115 0133 0B       		.uleb128 0xb
 1116 0134 3B       		.uleb128 0x3b
 1117 0135 0B       		.uleb128 0xb
 1118 0136 49       		.uleb128 0x49
 1119 0137 13       		.uleb128 0x13
 1120 0138 00       		.byte	0
 1121 0139 00       		.byte	0
 1122 013a 19       		.uleb128 0x19
 1123 013b 2E       		.uleb128 0x2e
 1124 013c 01       		.byte	0x1
 1125 013d 3F       		.uleb128 0x3f
 1126 013e 19       		.uleb128 0x19
 1127 013f 03       		.uleb128 0x3
 1128 0140 0E       		.uleb128 0xe
 1129 0141 3A       		.uleb128 0x3a
 1130 0142 0B       		.uleb128 0xb
 1131 0143 3B       		.uleb128 0x3b
 1132 0144 0B       		.uleb128 0xb
 1133 0145 27       		.uleb128 0x27
 1134 0146 19       		.uleb128 0x19
 1135 0147 11       		.uleb128 0x11
 1136 0148 01       		.uleb128 0x1
 1137 0149 12       		.uleb128 0x12
 1138 014a 06       		.uleb128 0x6
 1139 014b 40       		.uleb128 0x40
ARM GAS  /tmp/ccmViwZE.s 			page 21


 1140 014c 18       		.uleb128 0x18
 1141 014d 9742     		.uleb128 0x2117
 1142 014f 19       		.uleb128 0x19
 1143 0150 01       		.uleb128 0x1
 1144 0151 13       		.uleb128 0x13
 1145 0152 00       		.byte	0
 1146 0153 00       		.byte	0
 1147 0154 1A       		.uleb128 0x1a
 1148 0155 05       		.uleb128 0x5
 1149 0156 00       		.byte	0
 1150 0157 03       		.uleb128 0x3
 1151 0158 0E       		.uleb128 0xe
 1152 0159 3A       		.uleb128 0x3a
 1153 015a 0B       		.uleb128 0xb
 1154 015b 3B       		.uleb128 0x3b
 1155 015c 0B       		.uleb128 0xb
 1156 015d 49       		.uleb128 0x49
 1157 015e 13       		.uleb128 0x13
 1158 015f 02       		.uleb128 0x2
 1159 0160 17       		.uleb128 0x17
 1160 0161 00       		.byte	0
 1161 0162 00       		.byte	0
 1162 0163 1B       		.uleb128 0x1b
 1163 0164 1D       		.uleb128 0x1d
 1164 0165 01       		.byte	0x1
 1165 0166 31       		.uleb128 0x31
 1166 0167 13       		.uleb128 0x13
 1167 0168 11       		.uleb128 0x11
 1168 0169 01       		.uleb128 0x1
 1169 016a 12       		.uleb128 0x12
 1170 016b 06       		.uleb128 0x6
 1171 016c 58       		.uleb128 0x58
 1172 016d 0B       		.uleb128 0xb
 1173 016e 59       		.uleb128 0x59
 1174 016f 0B       		.uleb128 0xb
 1175 0170 00       		.byte	0
 1176 0171 00       		.byte	0
 1177 0172 1C       		.uleb128 0x1c
 1178 0173 05       		.uleb128 0x5
 1179 0174 00       		.byte	0
 1180 0175 31       		.uleb128 0x31
 1181 0176 13       		.uleb128 0x13
 1182 0177 02       		.uleb128 0x2
 1183 0178 17       		.uleb128 0x17
 1184 0179 00       		.byte	0
 1185 017a 00       		.byte	0
 1186 017b 1D       		.uleb128 0x1d
 1187 017c 0B       		.uleb128 0xb
 1188 017d 01       		.byte	0x1
 1189 017e 11       		.uleb128 0x11
 1190 017f 01       		.uleb128 0x1
 1191 0180 12       		.uleb128 0x12
 1192 0181 06       		.uleb128 0x6
 1193 0182 00       		.byte	0
 1194 0183 00       		.byte	0
 1195 0184 1E       		.uleb128 0x1e
 1196 0185 34       		.uleb128 0x34
ARM GAS  /tmp/ccmViwZE.s 			page 22


 1197 0186 00       		.byte	0
 1198 0187 31       		.uleb128 0x31
 1199 0188 13       		.uleb128 0x13
 1200 0189 00       		.byte	0
 1201 018a 00       		.byte	0
 1202 018b 1F       		.uleb128 0x1f
 1203 018c 1D       		.uleb128 0x1d
 1204 018d 01       		.byte	0x1
 1205 018e 31       		.uleb128 0x31
 1206 018f 13       		.uleb128 0x13
 1207 0190 11       		.uleb128 0x11
 1208 0191 01       		.uleb128 0x1
 1209 0192 12       		.uleb128 0x12
 1210 0193 06       		.uleb128 0x6
 1211 0194 58       		.uleb128 0x58
 1212 0195 0B       		.uleb128 0xb
 1213 0196 59       		.uleb128 0x59
 1214 0197 0B       		.uleb128 0xb
 1215 0198 01       		.uleb128 0x1
 1216 0199 13       		.uleb128 0x13
 1217 019a 00       		.byte	0
 1218 019b 00       		.byte	0
 1219 019c 20       		.uleb128 0x20
 1220 019d 898201   		.uleb128 0x4109
 1221 01a0 01       		.byte	0x1
 1222 01a1 11       		.uleb128 0x11
 1223 01a2 01       		.uleb128 0x1
 1224 01a3 31       		.uleb128 0x31
 1225 01a4 13       		.uleb128 0x13
 1226 01a5 00       		.byte	0
 1227 01a6 00       		.byte	0
 1228 01a7 21       		.uleb128 0x21
 1229 01a8 8A8201   		.uleb128 0x410a
 1230 01ab 00       		.byte	0
 1231 01ac 02       		.uleb128 0x2
 1232 01ad 18       		.uleb128 0x18
 1233 01ae 9142     		.uleb128 0x2111
 1234 01b0 18       		.uleb128 0x18
 1235 01b1 00       		.byte	0
 1236 01b2 00       		.byte	0
 1237 01b3 22       		.uleb128 0x22
 1238 01b4 21       		.uleb128 0x21
 1239 01b5 00       		.byte	0
 1240 01b6 00       		.byte	0
 1241 01b7 00       		.byte	0
 1242 01b8 23       		.uleb128 0x23
 1243 01b9 21       		.uleb128 0x21
 1244 01ba 00       		.byte	0
 1245 01bb 49       		.uleb128 0x49
 1246 01bc 13       		.uleb128 0x13
 1247 01bd 2F       		.uleb128 0x2f
 1248 01be 05       		.uleb128 0x5
 1249 01bf 00       		.byte	0
 1250 01c0 00       		.byte	0
 1251 01c1 24       		.uleb128 0x24
 1252 01c2 34       		.uleb128 0x34
 1253 01c3 00       		.byte	0
ARM GAS  /tmp/ccmViwZE.s 			page 23


 1254 01c4 03       		.uleb128 0x3
 1255 01c5 0E       		.uleb128 0xe
 1256 01c6 3A       		.uleb128 0x3a
 1257 01c7 0B       		.uleb128 0xb
 1258 01c8 3B       		.uleb128 0x3b
 1259 01c9 0B       		.uleb128 0xb
 1260 01ca 49       		.uleb128 0x49
 1261 01cb 13       		.uleb128 0x13
 1262 01cc 3F       		.uleb128 0x3f
 1263 01cd 19       		.uleb128 0x19
 1264 01ce 3C       		.uleb128 0x3c
 1265 01cf 19       		.uleb128 0x19
 1266 01d0 00       		.byte	0
 1267 01d1 00       		.byte	0
 1268 01d2 25       		.uleb128 0x25
 1269 01d3 34       		.uleb128 0x34
 1270 01d4 00       		.byte	0
 1271 01d5 03       		.uleb128 0x3
 1272 01d6 0E       		.uleb128 0xe
 1273 01d7 3A       		.uleb128 0x3a
 1274 01d8 0B       		.uleb128 0xb
 1275 01d9 3B       		.uleb128 0x3b
 1276 01da 0B       		.uleb128 0xb
 1277 01db 49       		.uleb128 0x49
 1278 01dc 13       		.uleb128 0x13
 1279 01dd 3F       		.uleb128 0x3f
 1280 01de 19       		.uleb128 0x19
 1281 01df 02       		.uleb128 0x2
 1282 01e0 18       		.uleb128 0x18
 1283 01e1 00       		.byte	0
 1284 01e2 00       		.byte	0
 1285 01e3 26       		.uleb128 0x26
 1286 01e4 2E       		.uleb128 0x2e
 1287 01e5 01       		.byte	0x1
 1288 01e6 3F       		.uleb128 0x3f
 1289 01e7 19       		.uleb128 0x19
 1290 01e8 03       		.uleb128 0x3
 1291 01e9 0E       		.uleb128 0xe
 1292 01ea 3A       		.uleb128 0x3a
 1293 01eb 0B       		.uleb128 0xb
 1294 01ec 3B       		.uleb128 0x3b
 1295 01ed 0B       		.uleb128 0xb
 1296 01ee 27       		.uleb128 0x27
 1297 01ef 19       		.uleb128 0x19
 1298 01f0 3C       		.uleb128 0x3c
 1299 01f1 19       		.uleb128 0x19
 1300 01f2 00       		.byte	0
 1301 01f3 00       		.byte	0
 1302 01f4 27       		.uleb128 0x27
 1303 01f5 05       		.uleb128 0x5
 1304 01f6 00       		.byte	0
 1305 01f7 49       		.uleb128 0x49
 1306 01f8 13       		.uleb128 0x13
 1307 01f9 00       		.byte	0
 1308 01fa 00       		.byte	0
 1309 01fb 00       		.byte	0
 1310              		.section	.debug_loc,"",%progbits
ARM GAS  /tmp/ccmViwZE.s 			page 24


 1311              	.Ldebug_loc0:
 1312              	.LLST0:
 1313 0000 00000000 		.4byte	.LVL0
 1314 0004 1F000000 		.4byte	.LVL5-1
 1315 0008 0100     		.2byte	0x1
 1316 000a 50       		.byte	0x50
 1317 000b 1F000000 		.4byte	.LVL5-1
 1318 000f 34000000 		.4byte	.LFE97
 1319 0013 0400     		.2byte	0x4
 1320 0015 F3       		.byte	0xf3
 1321 0016 01       		.uleb128 0x1
 1322 0017 50       		.byte	0x50
 1323 0018 9F       		.byte	0x9f
 1324 0019 00000000 		.4byte	0
 1325 001d 00000000 		.4byte	0
 1326              	.LLST1:
 1327 0021 00000000 		.4byte	.LVL0
 1328 0025 1F000000 		.4byte	.LVL5-1
 1329 0029 0100     		.2byte	0x1
 1330 002b 51       		.byte	0x51
 1331 002c 1F000000 		.4byte	.LVL5-1
 1332 0030 34000000 		.4byte	.LFE97
 1333 0034 0400     		.2byte	0x4
 1334 0036 F3       		.byte	0xf3
 1335 0037 01       		.uleb128 0x1
 1336 0038 51       		.byte	0x51
 1337 0039 9F       		.byte	0x9f
 1338 003a 00000000 		.4byte	0
 1339 003e 00000000 		.4byte	0
 1340              	.LLST2:
 1341 0042 04000000 		.4byte	.LVL1
 1342 0046 1F000000 		.4byte	.LVL5-1
 1343 004a 0100     		.2byte	0x1
 1344 004c 50       		.byte	0x50
 1345 004d 1F000000 		.4byte	.LVL5-1
 1346 0051 24000000 		.4byte	.LVL7
 1347 0055 0100     		.2byte	0x1
 1348 0057 54       		.byte	0x54
 1349 0058 00000000 		.4byte	0
 1350 005c 00000000 		.4byte	0
 1351              	.LLST3:
 1352 0060 0C000000 		.4byte	.LVL2
 1353 0064 1F000000 		.4byte	.LVL5-1
 1354 0068 0100     		.2byte	0x1
 1355 006a 50       		.byte	0x50
 1356 006b 1F000000 		.4byte	.LVL5-1
 1357 006f 24000000 		.4byte	.LVL6
 1358 0073 0100     		.2byte	0x1
 1359 0075 54       		.byte	0x54
 1360 0076 00000000 		.4byte	0
 1361 007a 00000000 		.4byte	0
 1362              	.LLST4:
 1363 007e 10000000 		.4byte	.LVL3
 1364 0082 24000000 		.4byte	.LVL6
 1365 0086 0200     		.2byte	0x2
 1366 0088 30       		.byte	0x30
 1367 0089 9F       		.byte	0x9f
ARM GAS  /tmp/ccmViwZE.s 			page 25


 1368 008a 00000000 		.4byte	0
 1369 008e 00000000 		.4byte	0
 1370              	.LLST5:
 1371 0092 10000000 		.4byte	.LVL3
 1372 0096 1F000000 		.4byte	.LVL5-1
 1373 009a 0100     		.2byte	0x1
 1374 009c 50       		.byte	0x50
 1375 009d 1F000000 		.4byte	.LVL5-1
 1376 00a1 24000000 		.4byte	.LVL6
 1377 00a5 0100     		.2byte	0x1
 1378 00a7 54       		.byte	0x54
 1379 00a8 00000000 		.4byte	0
 1380 00ac 00000000 		.4byte	0
 1381              	.LLST6:
 1382 00b0 14000000 		.4byte	.LVL4
 1383 00b4 1F000000 		.4byte	.LVL5-1
 1384 00b8 0100     		.2byte	0x1
 1385 00ba 50       		.byte	0x50
 1386 00bb 1F000000 		.4byte	.LVL5-1
 1387 00bf 24000000 		.4byte	.LVL6
 1388 00c3 0100     		.2byte	0x1
 1389 00c5 54       		.byte	0x54
 1390 00c6 00000000 		.4byte	0
 1391 00ca 00000000 		.4byte	0
 1392              	.LLST7:
 1393 00ce 20000000 		.4byte	.LVL5
 1394 00d2 24000000 		.4byte	.LVL6
 1395 00d6 0100     		.2byte	0x1
 1396 00d8 55       		.byte	0x55
 1397 00d9 00000000 		.4byte	0
 1398 00dd 00000000 		.4byte	0
 1399              	.LLST8:
 1400 00e1 20000000 		.4byte	.LVL5
 1401 00e5 24000000 		.4byte	.LVL6
 1402 00e9 0100     		.2byte	0x1
 1403 00eb 54       		.byte	0x54
 1404 00ec 00000000 		.4byte	0
 1405 00f0 00000000 		.4byte	0
 1406              		.section	.debug_aranges,"",%progbits
 1407 0000 1C000000 		.4byte	0x1c
 1408 0004 0200     		.2byte	0x2
 1409 0006 00000000 		.4byte	.Ldebug_info0
 1410 000a 04       		.byte	0x4
 1411 000b 00       		.byte	0
 1412 000c 0000     		.2byte	0
 1413 000e 0000     		.2byte	0
 1414 0010 00000000 		.4byte	.LFB97
 1415 0014 34000000 		.4byte	.LFE97-.LFB97
 1416 0018 00000000 		.4byte	0
 1417 001c 00000000 		.4byte	0
 1418              		.section	.debug_ranges,"",%progbits
 1419              	.Ldebug_ranges0:
 1420 0000 00000000 		.4byte	.LFB97
 1421 0004 34000000 		.4byte	.LFE97
 1422 0008 00000000 		.4byte	0
 1423 000c 00000000 		.4byte	0
 1424              		.section	.debug_line,"",%progbits
ARM GAS  /tmp/ccmViwZE.s 			page 26


 1425              	.Ldebug_line0:
 1426 0000 6D020000 		.section	.debug_str,"MS",%progbits,1
 1426      02003302 
 1426      00000201 
 1426      FB0E0D00 
 1426      01010101 
 1427              	.LASF25:
 1428 0000 45504255 		.ascii	"EPBUFCFG\000"
 1428      46434647 
 1428      00
 1429              	.LASF69:
 1430 0009 7573625F 		.ascii	"usb_data_buffer_OUT_index\000"
 1430      64617461 
 1430      5F627566 
 1430      6665725F 
 1430      4F55545F 
 1431              	.LASF54:
 1432 0023 636F7265 		.ascii	"corenum\000"
 1432      6E756D00 
 1433              	.LASF43:
 1434 002b 44455649 		.ascii	"DEVICE_STATE_Powered\000"
 1434      43455F53 
 1434      54415445 
 1434      5F506F77 
 1434      65726564 
 1435              	.LASF49:
 1436 0040 62526571 		.ascii	"bRequest\000"
 1436      75657374 
 1436      00
 1437              	.LASF2:
 1438 0049 73686F72 		.ascii	"short int\000"
 1438      7420696E 
 1438      7400
 1439              	.LASF79:
 1440 0053 2F484444 		.ascii	"/HDD/GIT/variometer/Altimeter/\000"
 1440      2F474954 
 1440      2F766172 
 1440      696F6D65 
 1440      7465722F 
 1441              	.LASF17:
 1442 0072 73697A65 		.ascii	"sizetype\000"
 1442      74797065 
 1442      00
 1443              	.LASF70:
 1444 007b 656E6470 		.ascii	"endpointselected\000"
 1444      6F696E74 
 1444      73656C65 
 1444      63746564 
 1444      00
 1445              	.LASF8:
 1446 008c 5F5F7569 		.ascii	"__uint32_t\000"
 1446      6E743332 
 1446      5F7400
 1447              	.LASF82:
 1448 0097 5553425F 		.ascii	"USB_USBTask\000"
 1448      55534254 
 1448      61736B00 
ARM GAS  /tmp/ccmViwZE.s 			page 27


 1449              	.LASF61:
 1450 00a3 6D6F6465 		.ascii	"mode\000"
 1450      00
 1451              	.LASF57:
 1452 00a8 456E6470 		.ascii	"Endpoint_IsSETUPReceived\000"
 1452      6F696E74 
 1452      5F497353 
 1452      45545550 
 1452      52656365 
 1453              	.LASF32:
 1454 00c1 4C50435F 		.ascii	"LPC_USB_Type\000"
 1454      5553425F 
 1454      54797065 
 1454      00
 1455              	.LASF4:
 1456 00ce 5F5F7569 		.ascii	"__uint16_t\000"
 1456      6E743136 
 1456      5F7400
 1457              	.LASF42:
 1458 00d9 44455649 		.ascii	"DEVICE_STATE_Unattached\000"
 1458      43455F53 
 1458      54415445 
 1458      5F556E61 
 1458      74746163 
 1459              	.LASF68:
 1460 00f1 7573625F 		.ascii	"usb_data_buffer_IN_index\000"
 1460      64617461 
 1460      5F627566 
 1460      6665725F 
 1460      494E5F69 
 1461              	.LASF28:
 1462 010a 494E5453 		.ascii	"INTSETSTAT\000"
 1462      45545354 
 1462      415400
 1463              	.LASF41:
 1464 0115 5553425F 		.ascii	"USB_CMD_STAT\000"
 1464      434D445F 
 1464      53544154 
 1464      00
 1465              	.LASF19:
 1466 0122 44455643 		.ascii	"DEVCMDSTAT\000"
 1466      4D445354 
 1466      415400
 1467              	.LASF81:
 1468 012d 50726576 		.ascii	"PrevEndpoint\000"
 1468      456E6470 
 1468      6F696E74 
 1468      00
 1469              	.LASF56:
 1470 013a 456E6470 		.ascii	"Endpoint_GetCurrentEndpoint\000"
 1470      6F696E74 
 1470      5F476574 
 1470      43757272 
 1470      656E7445 
 1471              	.LASF67:
 1472 0156 7573625F 		.ascii	"usb_data_buffer_index\000"
 1472      64617461 
ARM GAS  /tmp/ccmViwZE.s 			page 28


 1472      5F627566 
 1472      6665725F 
 1472      696E6465 
 1473              	.LASF0:
 1474 016c 7369676E 		.ascii	"signed char\000"
 1474      65642063 
 1474      68617200 
 1475              	.LASF75:
 1476 0178 5553425F 		.ascii	"USB_ControlRequest\000"
 1476      436F6E74 
 1476      726F6C52 
 1476      65717565 
 1476      737400
 1477              	.LASF10:
 1478 018b 6C6F6E67 		.ascii	"long long int\000"
 1478      206C6F6E 
 1478      6720696E 
 1478      7400
 1479              	.LASF78:
 1480 0199 5553426C 		.ascii	"USBlib_11U14/Drivers/USB/Core/USBTask.c\000"
 1480      69625F31 
 1480      31553134 
 1480      2F447269 
 1480      76657273 
 1481              	.LASF7:
 1482 01c1 6C6F6E67 		.ascii	"long int\000"
 1482      20696E74 
 1482      00
 1483              	.LASF76:
 1484 01ca 5553425F 		.ascii	"USB_DeviceState\000"
 1484      44657669 
 1484      63655374 
 1484      61746500 
 1485              	.LASF33:
 1486 01da 42756666 		.ascii	"BufferAddrOffset\000"
 1486      65724164 
 1486      64724F66 
 1486      66736574 
 1486      00
 1487              	.LASF40:
 1488 01eb 41637469 		.ascii	"Active\000"
 1488      766500
 1489              	.LASF3:
 1490 01f2 5F5F7569 		.ascii	"__uint8_t\000"
 1490      6E74385F 
 1490      7400
 1491              	.LASF63:
 1492 01fc 7573625F 		.ascii	"usb_data_buffer_IN\000"
 1492      64617461 
 1492      5F627566 
 1492      6665725F 
 1492      494E00
 1493              	.LASF29:
 1494 020f 494E5452 		.ascii	"INTROUTING\000"
 1494      4F555449 
 1494      4E4700
 1495              	.LASF50:
ARM GAS  /tmp/ccmViwZE.s 			page 29


 1496 021a 7756616C 		.ascii	"wValue\000"
 1496      756500
 1497              	.LASF23:
 1498 0221 4550534B 		.ascii	"EPSKIP\000"
 1498      495000
 1499              	.LASF53:
 1500 0228 5553425F 		.ascii	"USB_Request_Header_t\000"
 1500      52657175 
 1500      6573745F 
 1500      48656164 
 1500      65725F74 
 1501              	.LASF1:
 1502 023d 756E7369 		.ascii	"unsigned char\000"
 1502      676E6564 
 1502      20636861 
 1502      7200
 1503              	.LASF36:
 1504 024b 52617465 		.ascii	"RateFeedback_Toogle\000"
 1504      46656564 
 1504      6261636B 
 1504      5F546F6F 
 1504      676C6500 
 1505              	.LASF62:
 1506 025f 7573625F 		.ascii	"usb_data_buffer\000"
 1506      64617461 
 1506      5F627566 
 1506      66657200 
 1507              	.LASF11:
 1508 026f 6C6F6E67 		.ascii	"long long unsigned int\000"
 1508      206C6F6E 
 1508      6720756E 
 1508      7369676E 
 1508      65642069 
 1509              	.LASF16:
 1510 0286 75696E74 		.ascii	"uint32_t\000"
 1510      33325F74 
 1510      00
 1511              	.LASF64:
 1512 028f 7573625F 		.ascii	"usb_data_buffer_OUT\000"
 1512      64617461 
 1512      5F627566 
 1512      6665725F 
 1512      4F555400 
 1513              	.LASF12:
 1514 02a3 756E7369 		.ascii	"unsigned int\000"
 1514      676E6564 
 1514      20696E74 
 1514      00
 1515              	.LASF14:
 1516 02b0 75696E74 		.ascii	"uint16_t\000"
 1516      31365F74 
 1516      00
 1517              	.LASF20:
 1518 02b9 494E464F 		.ascii	"INFO\000"
 1518      00
 1519              	.LASF59:
 1520 02be 456E6470 		.ascii	"Endpoint_SelectEndpoint\000"
ARM GAS  /tmp/ccmViwZE.s 			page 30


 1520      6F696E74 
 1520      5F53656C 
 1520      65637445 
 1520      6E64706F 
 1521              	.LASF46:
 1522 02d6 44455649 		.ascii	"DEVICE_STATE_Configured\000"
 1522      43455F53 
 1522      54415445 
 1522      5F436F6E 
 1522      66696775 
 1523              	.LASF77:
 1524 02ee 474E5520 		.ascii	"GNU C 4.8.4 20140526 (release) [ARM/embedded-4_8-br"
 1524      4320342E 
 1524      382E3420 
 1524      32303134 
 1524      30353236 
 1525 0321 616E6368 		.ascii	"anch revision 211358] -mcpu=cortex-m0 -mno-thumb-in"
 1525      20726576 
 1525      6973696F 
 1525      6E203231 
 1525      31333538 
 1526 0354 74657277 		.ascii	"terwork -mthumb -ggdb -O1 -fomit-frame-pointer -ffu"
 1526      6F726B20 
 1526      2D6D7468 
 1526      756D6220 
 1526      2D676764 
 1527 0387 6E637469 		.ascii	"nction-sections -fdata-sections -fno-common\000"
 1527      6F6E2D73 
 1527      65637469 
 1527      6F6E7320 
 1527      2D666461 
 1528              	.LASF5:
 1529 03b3 73686F72 		.ascii	"short unsigned int\000"
 1529      7420756E 
 1529      7369676E 
 1529      65642069 
 1529      6E7400
 1530              	.LASF83:
 1531 03c6 5553425F 		.ascii	"USB_Device_ProcessControlRequest\000"
 1531      44657669 
 1531      63655F50 
 1531      726F6365 
 1531      7373436F 
 1532              	.LASF18:
 1533 03e7 63686172 		.ascii	"char\000"
 1533      00
 1534              	.LASF74:
 1535 03ec 5553425F 		.ascii	"USB_IsInitialized\000"
 1535      4973496E 
 1535      69746961 
 1535      6C697A65 
 1535      6400
 1536              	.LASF26:
 1537 03fe 494E5453 		.ascii	"INTSTAT\000"
 1537      54415400 
 1538              	.LASF15:
 1539 0406 696E7433 		.ascii	"int32_t\000"
ARM GAS  /tmp/ccmViwZE.s 			page 31


 1539      325F7400 
 1540              	.LASF65:
 1541 040e 7573625F 		.ascii	"usb_data_buffer_size\000"
 1541      64617461 
 1541      5F627566 
 1541      6665725F 
 1541      73697A65 
 1542              	.LASF58:
 1543 0423 5F426F6F 		.ascii	"_Bool\000"
 1543      6C00
 1544              	.LASF48:
 1545 0429 626D5265 		.ascii	"bmRequestType\000"
 1545      71756573 
 1545      74547970 
 1545      6500
 1546              	.LASF71:
 1547 0437 656E6470 		.ascii	"endpointhandle0\000"
 1547      6F696E74 
 1547      68616E64 
 1547      6C653000 
 1548              	.LASF72:
 1549 0447 656E6470 		.ascii	"endpointhandle1\000"
 1549      6F696E74 
 1549      68616E64 
 1549      6C653100 
 1550              	.LASF30:
 1551 0457 52455345 		.ascii	"RESERVED0\000"
 1551      52564544 
 1551      3000
 1552              	.LASF35:
 1553 0461 54797065 		.ascii	"Type\000"
 1553      00
 1554              	.LASF9:
 1555 0466 6C6F6E67 		.ascii	"long unsigned int\000"
 1555      20756E73 
 1555      69676E65 
 1555      6420696E 
 1555      7400
 1556              	.LASF80:
 1557 0478 5553425F 		.ascii	"USB_Device_States_t\000"
 1557      44657669 
 1557      63655F53 
 1557      74617465 
 1557      735F7400 
 1558              	.LASF34:
 1559 048c 4E427974 		.ascii	"NBytes\000"
 1559      657300
 1560              	.LASF22:
 1561 0493 44415441 		.ascii	"DATABUFSTART\000"
 1561      42554653 
 1561      54415254 
 1561      00
 1562              	.LASF24:
 1563 04a0 4550494E 		.ascii	"EPINUSE\000"
 1563      55534500 
 1564              	.LASF38:
 1565 04a8 5374616C 		.ascii	"Stall\000"
ARM GAS  /tmp/ccmViwZE.s 			page 32


 1565      6C00
 1566              	.LASF6:
 1567 04ae 5F5F696E 		.ascii	"__int32_t\000"
 1567      7433325F 
 1567      7400
 1568              	.LASF60:
 1569 04b8 5553425F 		.ascii	"USB_DeviceTask\000"
 1569      44657669 
 1569      63655461 
 1569      736B00
 1570              	.LASF13:
 1571 04c7 75696E74 		.ascii	"uint8_t\000"
 1571      385F7400 
 1572              	.LASF27:
 1573 04cf 494E5445 		.ascii	"INTEN\000"
 1573      4E00
 1574              	.LASF45:
 1575 04d5 44455649 		.ascii	"DEVICE_STATE_Addressed\000"
 1575      43455F53 
 1575      54415445 
 1575      5F416464 
 1575      72657373 
 1576              	.LASF66:
 1577 04ec 7573625F 		.ascii	"usb_data_buffer_OUT_size\000"
 1577      64617461 
 1577      5F627566 
 1577      6665725F 
 1577      4F55545F 
 1578              	.LASF31:
 1579 0505 4550544F 		.ascii	"EPTOGGLE\000"
 1579      47474C45 
 1579      00
 1580              	.LASF55:
 1581 050e 456E6470 		.ascii	"EndpointNumber\000"
 1581      6F696E74 
 1581      4E756D62 
 1581      657200
 1582              	.LASF52:
 1583 051d 774C656E 		.ascii	"wLength\000"
 1583      67746800 
 1584              	.LASF37:
 1585 0525 546F6F67 		.ascii	"ToogleReset\000"
 1585      6C655265 
 1585      73657400 
 1586              	.LASF47:
 1587 0531 44455649 		.ascii	"DEVICE_STATE_Suspended\000"
 1587      43455F53 
 1587      54415445 
 1587      5F537573 
 1587      70656E64 
 1588              	.LASF21:
 1589 0548 45504C49 		.ascii	"EPLISTSTART\000"
 1589      53545354 
 1589      41525400 
 1590              	.LASF51:
 1591 0554 77496E64 		.ascii	"wIndex\000"
 1591      657800
ARM GAS  /tmp/ccmViwZE.s 			page 33


 1592              	.LASF73:
 1593 055b 456E6450 		.ascii	"EndPointCmdStsList\000"
 1593      6F696E74 
 1593      436D6453 
 1593      74734C69 
 1593      737400
 1594              	.LASF44:
 1595 056e 44455649 		.ascii	"DEVICE_STATE_Default\000"
 1595      43455F53 
 1595      54415445 
 1595      5F446566 
 1595      61756C74 
 1596              	.LASF39:
 1597 0583 44697361 		.ascii	"Disabled\000"
 1597      626C6564 
 1597      00
 1598              		.ident	"GCC: (GNU Tools for ARM Embedded Processors) 4.8.4 20140526 (release) [ARM/embedded-4_8-br
ARM GAS  /tmp/ccmViwZE.s 			page 34


DEFINED SYMBOLS
                            *ABS*:00000000 USBTask.c
     /tmp/ccmViwZE.s:18     .text.USB_USBTask:00000000 $t
     /tmp/ccmViwZE.s:23     .text.USB_USBTask:00000000 USB_USBTask
     /tmp/ccmViwZE.s:97     .text.USB_USBTask:00000028 $d
     /tmp/ccmViwZE.s:111    .bss.USB_DeviceState:00000000 USB_DeviceState
     /tmp/ccmViwZE.s:122    .bss.$RAM2:00000000 USB_ControlRequest
     /tmp/ccmViwZE.s:116    .bss.USB_IsInitialized:00000000 USB_IsInitialized
     /tmp/ccmViwZE.s:107    .bss.USB_DeviceState:00000000 $d
     /tmp/ccmViwZE.s:117    .bss.USB_IsInitialized:00000000 $d
     /tmp/ccmViwZE.s:119    .bss.$RAM2:00000000 $d
                     .debug_frame:00000010 $d

UNDEFINED SYMBOLS
USB_Device_ProcessControlRequest
endpointselected
