ARM GAS  /tmp/ccwnIA1Q.s 			page 1


   1              		.cpu cortex-m0
   2              		.fpu softvfp
   3              		.eabi_attribute 20, 1
   4              		.eabi_attribute 21, 1
   5              		.eabi_attribute 23, 3
   6              		.eabi_attribute 24, 1
   7              		.eabi_attribute 25, 1
   8              		.eabi_attribute 26, 1
   9              		.eabi_attribute 30, 1
  10              		.eabi_attribute 34, 0
  11              		.eabi_attribute 18, 4
  12              		.code	16
  13              		.file	"VirtualSerial.c"
  14              		.text
  15              	.Ltext0:
  16              		.cfi_sections	.debug_frame
  17              		.section	.text.SetupVSHardware,"ax",%progbits
  18              		.align	2
  19              		.global	SetupVSHardware
  20              		.code	16
  21              		.thumb_func
  22              		.type	SetupVSHardware, %function
  23              	SetupVSHardware:
  24              	.LFB98:
  25              		.file 1 "src/VirtualSerial.c"
  26              		.loc 1 36 0
  27              		.cfi_startproc
  28 0000 08B5     		push	{r3, lr}
  29              		.cfi_def_cfa_offset 8
  30              		.cfi_offset 3, -8
  31              		.cfi_offset 14, -4
  32              		.loc 1 37 0
  33 0002 034B     		ldr	r3, .L2
  34 0004 587B     		ldrb	r0, [r3, #13]
  35 0006 0121     		mov	r1, #1
  36 0008 FFF7FEFF 		bl	USB_Init
  37              	.LVL0:
  38              		.loc 1 42 0
  39              		@ sp needed
  40 000c 08BD     		pop	{r3, pc}
  41              	.L3:
  42 000e C046     		.align	2
  43              	.L2:
  44 0010 00000000 		.word	.LANCHOR0
  45              		.cfi_endproc
  46              	.LFE98:
  47              		.size	SetupVSHardware, .-SetupVSHardware
  48              		.section	.text.EchoCharacter,"ax",%progbits
  49              		.align	2
  50              		.global	EchoCharacter
  51              		.code	16
  52              		.thumb_func
  53              		.type	EchoCharacter, %function
  54              	EchoCharacter:
  55              	.LFB99:
  56              		.loc 1 47 0
  57              		.cfi_startproc
ARM GAS  /tmp/ccwnIA1Q.s 			page 2


  58 0000 10B5     		push	{r4, lr}
  59              		.cfi_def_cfa_offset 8
  60              		.cfi_offset 4, -8
  61              		.cfi_offset 14, -4
  62 0002 84B0     		sub	sp, sp, #16
  63              		.cfi_def_cfa_offset 24
  64              		.loc 1 49 0
  65 0004 0848     		ldr	r0, .L6
  66 0006 FFF7FEFF 		bl	CDC_Device_BytesReceived
  67              	.LVL1:
  68 000a 0028     		cmp	r0, #0
  69 000c 0AD0     		beq	.L4
  70              		.loc 1 50 0
  71 000e 064C     		ldr	r4, .L6
  72 0010 201C     		mov	r0, r4
  73 0012 FFF7FEFF 		bl	CDC_Device_ReceiveByte
  74              	.LVL2:
  75 0016 6B46     		mov	r3, sp
  76 0018 1870     		strb	r0, [r3]
  77              		.loc 1 53 0
  78 001a 201C     		mov	r0, r4
  79 001c 6946     		mov	r1, sp
  80 001e 0122     		mov	r2, #1
  81 0020 FFF7FEFF 		bl	CDC_Device_SendData
  82              	.LVL3:
  83              	.L4:
  84              		.loc 1 55 0
  85 0024 04B0     		add	sp, sp, #16
  86              		@ sp needed
  87 0026 10BD     		pop	{r4, pc}
  88              	.L7:
  89              		.align	2
  90              	.L6:
  91 0028 00000000 		.word	.LANCHOR0
  92              		.cfi_endproc
  93              	.LFE99:
  94              		.size	EchoCharacter, .-EchoCharacter
  95              		.section	.text.EVENT_USB_Device_ConfigurationChanged,"ax",%progbits
  96              		.align	2
  97              		.global	EVENT_USB_Device_ConfigurationChanged
  98              		.code	16
  99              		.thumb_func
 100              		.type	EVENT_USB_Device_ConfigurationChanged, %function
 101              	EVENT_USB_Device_ConfigurationChanged:
 102              	.LFB100:
 103              		.loc 1 93 0
 104              		.cfi_startproc
 105 0000 08B5     		push	{r3, lr}
 106              		.cfi_def_cfa_offset 8
 107              		.cfi_offset 3, -8
 108              		.cfi_offset 14, -4
 109              	.LVL4:
 110              		.loc 1 96 0
 111 0002 0248     		ldr	r0, .L9
 112 0004 FFF7FEFF 		bl	CDC_Device_ConfigureEndpoints
 113              	.LVL5:
 114              		.loc 1 99 0
ARM GAS  /tmp/ccwnIA1Q.s 			page 3


 115              		@ sp needed
 116 0008 08BD     		pop	{r3, pc}
 117              	.L10:
 118 000a C046     		.align	2
 119              	.L9:
 120 000c 00000000 		.word	.LANCHOR0
 121              		.cfi_endproc
 122              	.LFE100:
 123              		.size	EVENT_USB_Device_ConfigurationChanged, .-EVENT_USB_Device_ConfigurationChanged
 124              		.section	.text.EVENT_USB_Device_ControlRequest,"ax",%progbits
 125              		.align	2
 126              		.global	EVENT_USB_Device_ControlRequest
 127              		.code	16
 128              		.thumb_func
 129              		.type	EVENT_USB_Device_ControlRequest, %function
 130              	EVENT_USB_Device_ControlRequest:
 131              	.LFB101:
 132              		.loc 1 104 0
 133              		.cfi_startproc
 134 0000 08B5     		push	{r3, lr}
 135              		.cfi_def_cfa_offset 8
 136              		.cfi_offset 3, -8
 137              		.cfi_offset 14, -4
 138              		.loc 1 105 0
 139 0002 0248     		ldr	r0, .L12
 140 0004 FFF7FEFF 		bl	CDC_Device_ProcessControlRequest
 141              	.LVL6:
 142              		.loc 1 106 0
 143              		@ sp needed
 144 0008 08BD     		pop	{r3, pc}
 145              	.L13:
 146 000a C046     		.align	2
 147              	.L12:
 148 000c 00000000 		.word	.LANCHOR0
 149              		.cfi_endproc
 150              	.LFE101:
 151              		.size	EVENT_USB_Device_ControlRequest, .-EVENT_USB_Device_ControlRequest
 152              		.global	VirtualSerial_CDC_Interface
 153              		.section	.data.VirtualSerial_CDC_Interface,"aw",%progbits
 154              		.align	2
 155              		.set	.LANCHOR0,. + 0
 156              		.type	VirtualSerial_CDC_Interface, %object
 157              		.size	VirtualSerial_CDC_Interface, 26
 158              	VirtualSerial_CDC_Interface:
 159 0000 00       		.byte	0
 160 0001 02       		.byte	2
 161 0002 1000     		.short	16
 162 0004 00       		.byte	0
 163 0005 03       		.byte	3
 164 0006 1000     		.short	16
 165 0008 00       		.byte	0
 166 0009 01       		.byte	1
 167 000a 0800     		.short	8
 168 000c 00       		.byte	0
 169 000d 00       		.space	1
 170 000e 00000000 		.space	12
 170      00000000 
ARM GAS  /tmp/ccwnIA1Q.s 			page 4


 170      00000000 
 171 001a 0000     		.text
 172              	.Letext0:
 173              		.file 2 "/usr/local/lpcxpresso_7.3.0_186/lpcxpresso/tools/arm-none-eabi/include/machine/_default_t
 174              		.file 3 "/usr/local/lpcxpresso_7.3.0_186/lpcxpresso/tools/arm-none-eabi/include/stdint.h"
 175              		.file 4 "USBlib_11U14/Drivers/USB/Core/DCD/LPC11UXX/../../HAL/LPC11UXX/HAL_LPC11Uxx.h"
 176              		.file 5 "USBlib_11U14/Drivers/USB/Class/Device/../Common/CDCClassCommon.h"
 177              		.file 6 "USBlib_11U14/Drivers/USB/Class/Device/CDCClassDevice.h"
 178              		.file 7 "USBlib_11U14/Drivers/USB/Core/DCD/LPC11UXX/../EndpointCommon.h"
 179              		.file 8 "USBlib_11U14/Drivers/USB/Core/DCD/LPC11UXX/Endpoint_LPC11Uxx.h"
 180              		.file 9 "USBlib_11U14/Drivers/USB/Core/USBController.h"